MODULE windows x86 BE793FC71F7A4D4398FF0BB73062F9E21 node_sqlite3.pdb
INFO CODE_ID 5BD85246F5000 node_sqlite3.node
FUNC 1000 16 0 `dynamic initializer for 'node_sqlite3::Database::constructor_template''
FUNC 1020 16 0 `dynamic initializer for 'node_sqlite3::Statement::constructor_template''
FUNC 1040 bc 0 Nan::imp::FunctionCallbackWrapper
FUNC 1100 b8 0 Nan::imp::GetterCallbackWrapper
FUNC 11c0 7d 0 Nan::Equals(v8::Local<v8::Value>,v8::Local<v8::Value>)
FUNC 1240 8a 0 Nan::NewInstance(v8::Local<v8::ObjectTemplate>)
FUNC 12d0 8a 0 Nan::GetFunction(v8::Local<v8::FunctionTemplate>)
FUNC 1360 80 0 Nan::Set(v8::Local<v8::Object>,v8::Local<v8::Value>,v8::Local<v8::Value>)
FUNC 13e0 a8 0 Nan::ForceSet(v8::Local<v8::Object>,v8::Local<v8::Value>,v8::Local<v8::Value>,v8::PropertyAttribute)
FUNC 1490 8d 0 Nan::Get(v8::Local<v8::Object>,v8::Local<v8::Value>)
FUNC 1520 8a 0 Nan::imp::ToFactory<v8::String>::convert(v8::Local<v8::Value>)
FUNC 15b0 8a 0 Nan::imp::ToFactory<v8::Int32>::convert(v8::Local<v8::Value>)
FUNC 1640 7a 0 Nan::imp::ToFactory<int>::convert(v8::Local<v8::Value>)
FUNC 16c0 13f 0 Nan::imp::Factory<v8::FunctionTemplate>::New(void (*)(Nan::FunctionCallbackInfo<v8::Value> const &),v8::Local<v8::Value>,v8::Local<v8::Signature>)
FUNC 1800 93 0 Nan::AsyncResource::AsyncResource(char const *,v8::Local<v8::Object>)
FUNC 18a0 50 0 Nan::AsyncResource::~AsyncResource()
FUNC 18f0 9f 0 Nan::ThrowError(char const *)
FUNC 1990 6 0 Nan::HandleScope::~HandleScope()
FUNC 19a0 9f 0 Nan::ThrowTypeError(char const *)
FUNC 1a40 bd 0 Nan::MakeCallback(v8::Local<v8::Object>,v8::Local<v8::Function>,int,v8::Local<v8::Value> *)
FUNC 1b00 bf 0 Nan::Utf8String::Utf8String(v8::Local<v8::Value>)
FUNC 1bc0 12 0 Nan::Utf8String::~Utf8String()
FUNC 1be0 31 0 Nan::Persistent<v8::Function,v8::NonCopyablePersistentTraits<v8::Function> >::~Persistent<v8::Function,v8::NonCopyablePersistentTraits<v8::Function> >()
FUNC 1c20 d5 0 Nan::SetPrototypeMethod(v8::Local<v8::FunctionTemplate>,char const *,void (*)(Nan::FunctionCallbackInfo<v8::Value> const &))
FUNC 1d00 ee 0 Nan::SetAccessor(v8::Local<v8::ObjectTemplate>,v8::Local<v8::String>,void (*)(v8::Local<v8::String>,Nan::PropertyCallbackInfo<v8::Value> const &),void (*)(v8::Local<v8::String>,v8::Local<v8::Value>,Nan::PropertyCallbackInfo<void> const &),v8::Local<v8::Value>,v8::AccessControl,v8::PropertyAttribute,v8::Local<v8::AccessorSignature>)
FUNC 1df0 84 0 Nan::ObjectWrap::~ObjectWrap()
FUNC 1e80 31 0 Nan::ObjectWrap::handle()
FUNC 1ec0 60 0 Nan::ObjectWrap::Wrap(v8::Local<v8::Object>)
FUNC 1f20 14 0 Nan::ObjectWrap::Ref()
FUNC 1f40 1b 0 Nan::ObjectWrap::Unref()
FUNC 1f60 2e 0 Nan::ObjectWrap::WeakCallback(v8::WeakCallbackInfo<Nan::ObjectWrap> const &)
FUNC 1f90 80 0 Nan::ObjectWrap::`scalar deleting destructor'(unsigned int)
FUNC 2010 b8 0 node_sqlite3::Database::Baton::Baton(node_sqlite3::Database *,v8::Local<v8::Function>)
FUNC 20d0 a4 0 node_sqlite3::Database::Baton::~Baton()
FUNC 2180 a5 0 node_sqlite3::Database::OpenBaton::OpenBaton(node_sqlite3::Database *,v8::Local<v8::Function>,char const *,int)
FUNC 2230 9c 0 node_sqlite3::Database::LoadExtensionBaton::LoadExtensionBaton(node_sqlite3::Database *,v8::Local<v8::Function>,char const *)
FUNC 22d0 d4 0 node_sqlite3::Database::Database()
FUNC 23b0 10e 0 node_sqlite3::Database::~Database()
FUNC 24c0 23 0 node_sqlite3::Database::Baton::`scalar deleting destructor'(unsigned int)
FUNC 24f0 5a 0 node_sqlite3::Database::OpenBaton::`scalar deleting destructor'(unsigned int)
FUNC 2550 5a 0 node_sqlite3::Database::ExecBaton::`scalar deleting destructor'(unsigned int)
FUNC 25b0 20 0 node_sqlite3::Database::`scalar deleting destructor'(unsigned int)
FUNC 25d0 221 0 node_sqlite3::Database::Init(v8::Local<v8::Object>)
FUNC 2800 431 0 node_sqlite3::Database::Process()
FUNC 2c40 378 0 node_sqlite3::Database::Schedule(void (*)(node_sqlite3::Database::Baton *),node_sqlite3::Database::Baton *,bool)
FUNC 2fc0 305 4 node_sqlite3::Database::New(Nan::FunctionCallbackInfo<v8::Value> const &)
FUNC 32d0 163 0 node_sqlite3::Database::Work_Open(uv_work_s *)
FUNC 3440 41f 0 node_sqlite3::Database::Work_AfterOpen(uv_work_s *)
FUNC 3860 57 0 node_sqlite3::Database::OpenGetter(v8::Local<v8::String>,Nan::PropertyCallbackInfo<v8::Value> const &)
FUNC 38c0 142 0 node_sqlite3::Database::Close(Nan::FunctionCallbackInfo<v8::Value> const &)
FUNC 3a10 7d 0 node_sqlite3::Database::Work_BeginClose(node_sqlite3::Database::Baton *)
FUNC 3a90 cc 0 node_sqlite3::Database::Work_Close(uv_work_s *)
FUNC 3b60 41f 0 node_sqlite3::Database::Work_AfterClose(uv_work_s *)
FUNC 3f80 11a 0 node_sqlite3::Database::Serialize(Nan::FunctionCallbackInfo<v8::Value> const &)
FUNC 40a0 11a 0 node_sqlite3::Database::Parallelize(Nan::FunctionCallbackInfo<v8::Value> const &)
FUNC 41c0 3b3 0 node_sqlite3::Database::Configure(Nan::FunctionCallbackInfo<v8::Value> const &)
FUNC 4580 82 0 node_sqlite3::Database::Interrupt(Nan::FunctionCallbackInfo<v8::Value> const &)
FUNC 4610 20 0 node_sqlite3::Database::SetBusyTimeout(node_sqlite3::Database::Baton *)
FUNC 4630 d8 0 node_sqlite3::Database::RegisterTraceCallback(node_sqlite3::Database::Baton *)
FUNC 4710 a2 0 node_sqlite3::Database::TraceCallback(void *,char const *)
FUNC 47c0 18b 0 node_sqlite3::Database::TraceCallback(node_sqlite3::Database *,std::basic_string<char,std::char_traits<char>,std::allocator<char> > *)
FUNC 4950 d0 0 node_sqlite3::Database::RegisterProfileCallback(node_sqlite3::Database::Baton *)
FUNC 4a20 13d 10 node_sqlite3::Database::ProfileCallback(void *,char const *,unsigned __int64)
FUNC 4b60 1cf 0 node_sqlite3::Database::ProfileCallback(node_sqlite3::Database *,node_sqlite3::Database::ProfileInfo *)
FUNC 4d30 1ff 0 node_sqlite3::Database::Exec(Nan::FunctionCallbackInfo<v8::Value> const &)
FUNC 4f30 23 0 node_sqlite3::Database::Work_BeginExec(node_sqlite3::Database::Baton *)
FUNC 4f60 d4 0 node_sqlite3::Database::Work_Exec(uv_work_s *)
FUNC 5040 39c 0 node_sqlite3::Database::Work_AfterLoadExtension(uv_work_s *)
FUNC 53e0 142 0 node_sqlite3::Database::Wait(Nan::FunctionCallbackInfo<v8::Value> const &)
FUNC 5530 d4 0 node_sqlite3::Database::Work_Wait(node_sqlite3::Database::Baton *)
FUNC 5610 1ff 0 node_sqlite3::Database::LoadExtension(Nan::FunctionCallbackInfo<v8::Value> const &)
FUNC 5810 23 0 node_sqlite3::Database::Work_BeginLoadExtension(node_sqlite3::Database::Baton *)
FUNC 5840 177 0 node_sqlite3::Database::Work_LoadExtension(uv_work_s *)
FUNC 59c0 5c 0 Async<node_sqlite3::Database::ProfileInfo,node_sqlite3::Database>::Async<node_sqlite3::Database::ProfileInfo,node_sqlite3::Database>(node_sqlite3::Database *,void (*)(node_sqlite3::Database *,node_sqlite3::Database::ProfileInfo *))
FUNC 5a20 5c 0 Async<std::basic_string<char,std::char_traits<char>,std::allocator<char> >,node_sqlite3::Database>::Async<std::basic_string<char,std::char_traits<char>,std::allocator<char> >,node_sqlite3::Database>(node_sqlite3::Database *,void (*)(node_sqlite3::Database *,std::basic_string<char,std::char_traits<char>,std::allocator<char> > *))
FUNC 5a80 31 0 Nan::FunctionCallbackInfo<v8::Value>::operator[](int)
FUNC 5ac0 34 0 std::basic_string<char,std::char_traits<char>,std::allocator<char> >::~basic_string<char,std::char_traits<char>,std::allocator<char> >()
FUNC 5b00 5a 0 std::basic_string<char,std::char_traits<char>,std::allocator<char> >::operator=(std::basic_string<char,std::char_traits<char>,std::allocator<char> > &&)
FUNC 5b60 4d 0 std::basic_string<char,std::char_traits<char>,std::allocator<char> >::basic_string<char,std::char_traits<char>,std::allocator<char> >(char const *)
FUNC 5bb0 2e 0 std::vector<node_sqlite3::Database::ProfileInfo *,std::allocator<node_sqlite3::Database::ProfileInfo *> >::~vector<node_sqlite3::Database::ProfileInfo *,std::allocator<node_sqlite3::Database::ProfileInfo *> >()
FUNC 5be0 b1 0 std::deque<node_sqlite3::Database::Call *,std::allocator<node_sqlite3::Database::Call *> >::_Tidy()
FUNC 5ca0 83 0 std::deque<node_sqlite3::Database::Call *,std::allocator<node_sqlite3::Database::Call *> >::push_back(node_sqlite3::Database::Call * &&)
FUNC 5d30 90 0 Async<node_sqlite3::Database::ProfileInfo,node_sqlite3::Database>::add(node_sqlite3::Database::ProfileInfo *)
FUNC 5dc0 55 0 Async<std::basic_string<char,std::char_traits<char>,std::allocator<char> >,node_sqlite3::Database>::close(uv_handle_s *)
FUNC 5e20 e1 0 Async<std::basic_string<char,std::char_traits<char>,std::allocator<char> >,node_sqlite3::Database>::listener(uv_async_s *,int)
FUNC 5f10 f1 0 std::basic_string<char,std::char_traits<char>,std::allocator<char> >::assign(char const *,unsigned int)
FUNC 6010 104 0 std::basic_string<char,std::char_traits<char>,std::allocator<char> >::assign(std::basic_string<char,std::char_traits<char>,std::allocator<char> > const &,unsigned int,unsigned int)
FUNC 6120 63 0 std::basic_string<char,std::char_traits<char>,std::allocator<char> >::_Assign_rv(std::basic_string<char,std::char_traits<char>,std::allocator<char> > &&)
FUNC 6190 57 0 std::_Wrap_alloc<std::allocator<std::basic_string<char,std::char_traits<char>,std::allocator<char> > *> >::deallocate(std::basic_string<char,std::char_traits<char>,std::allocator<char> > * *,unsigned int)
FUNC 61f0 129 0 std::deque<node_sqlite3::Database::Call *,std::allocator<node_sqlite3::Database::Call *> >::_Growmap(unsigned int)
FUNC 6320 18 0 std::deque<node_sqlite3::Database::Call *,std::allocator<node_sqlite3::Database::Call *> >::begin()
FUNC 6340 46 0 std::_Wrap_alloc<std::allocator<char> >::deallocate(char *,unsigned int)
FUNC 6390 95 0 std::basic_string<char,std::char_traits<char>,std::allocator<char> >::erase(unsigned int,unsigned int)
FUNC 6430 5f 0 std::vector<node_sqlite3::Database::ProfileInfo *,std::allocator<node_sqlite3::Database::ProfileInfo *> >::_Reserve(unsigned int)
FUNC 6490 57 0 std::_Wrap_alloc<std::allocator<node_sqlite3::Database::Call * *> >::allocate(unsigned int)
FUNC 64f0 ed 0 std::basic_string<char,std::char_traits<char>,std::allocator<char> >::_Copy(unsigned int,unsigned int)
FUNC 65e0 9d 0 std::vector<std::basic_string<char,std::char_traits<char>,std::allocator<char> > *,std::allocator<std::basic_string<char,std::char_traits<char>,std::allocator<char> > *> >::_Reallocate(unsigned int)
FUNC 6680 2f 0 Nan::ObjectWrap::Unwrap<node_sqlite3::Database>(v8::Local<v8::Object>)
FUNC 66b0 8a 0 Nan::imp::ToFactory<v8::Integer>::convert(v8::Local<v8::Value>)
FUNC 6740 db3 0 `anonymous namespace'::RegisterModule
FUNC 7500 1aa 0 sqlite_code_string(int)
FUNC 76b0 d 0 _register_node_sqlite3
FUNC 76c0 84 0 Nan::Set(v8::Local<v8::Object>,unsigned int,v8::Local<v8::Value>)
FUNC 7750 91 0 Nan::Get(v8::Local<v8::Object>,unsigned int)
FUNC 77f0 8a 0 Nan::GetPropertyNames(v8::Local<v8::Object>)
FUNC 7880 8a 0 Nan::imp::ToFactory<v8::Object>::convert(v8::Local<v8::Value>)
FUNC 7910 7a 0 Nan::imp::ToFactory<bool>::convert(v8::Local<v8::Value>)
FUNC 7990 7a 0 Nan::imp::ToFactory<double>::convert(v8::Local<v8::Value>)
FUNC 7a10 98 0 node_sqlite3::Database::HasInstance(v8::Local<v8::Value>)
FUNC 7ab0 37 0 node_sqlite3::Values::Field::~Field()
FUNC 7af0 b1 0 node_sqlite3::Statement::Baton::Baton(node_sqlite3::Statement *,v8::Local<v8::Function>)
FUNC 7bb0 214 0 node_sqlite3::Statement::Baton::~Baton()
FUNC 7dd0 84 0 node_sqlite3::Statement::PrepareBaton::PrepareBaton(node_sqlite3::Database *,v8::Local<v8::Function>,node_sqlite3::Statement *)
FUNC 7e60 bc 0 node_sqlite3::Statement::PrepareBaton::~PrepareBaton()
FUNC 7f20 bd 0 node_sqlite3::Statement::Async::Async(node_sqlite3::Statement *,void (*)(uv_async_s *))
FUNC 7fe0 b6 0 node_sqlite3::Statement::Async::~Async()
FUNC 80a0 e3 0 node_sqlite3::Statement::Statement(node_sqlite3::Database *)
FUNC 8190 105 0 node_sqlite3::Statement::~Statement()
FUNC 82a0 20 0 node_sqlite3::Statement::Baton::`scalar deleting destructor'(unsigned int)
FUNC 82c0 50 0 node_sqlite3::Statement::RowBaton::`scalar deleting destructor'(unsigned int)
FUNC 8310 23 0 node_sqlite3::Statement::RunBaton::`scalar deleting destructor'(unsigned int)
FUNC 8340 76 0 node_sqlite3::Statement::EachBaton::`scalar deleting destructor'(unsigned int)
FUNC 83c0 23 0 node_sqlite3::Statement::PrepareBaton::`scalar deleting destructor'(unsigned int)
FUNC 83f0 20 0 node_sqlite3::Statement::`scalar deleting destructor'(unsigned int)
FUNC 8410 1a 0 std::queue<node_sqlite3::Statement::Call *,std::deque<node_sqlite3::Statement::Call *,std::allocator<node_sqlite3::Statement::Call *> > >::~queue<node_sqlite3::Statement::Call *,std::deque<node_sqlite3::Statement::Call *,std::allocator<node_sqlite3::Statement::Call *> > >()
FUNC 8430 1cd 0 node_sqlite3::Statement::Init(v8::Local<v8::Object>)
FUNC 8600 8f 0 node_sqlite3::Statement::Process()
FUNC 8690 8f 0 node_sqlite3::Statement::Schedule(void (*)(node_sqlite3::Statement::Baton *),node_sqlite3::Statement::Baton *)
FUNC 8720 306 4 node_sqlite3::Statement::New(Nan::FunctionCallbackInfo<v8::Value> const &)
FUNC 8a30 29 0 node_sqlite3::Statement::Work_BeginPrepare(node_sqlite3::Database::Baton *)
FUNC 8a60 139 0 node_sqlite3::Statement::Work_Prepare(uv_work_s *)
FUNC 8ba0 125 0 node_sqlite3::Statement::Work_AfterPrepare(uv_work_s *)
FUNC 8cd0 274 0 node_sqlite3::Statement::Bind(std::vector<node_sqlite3::Values::Field *,std::allocator<node_sqlite3::Values::Field *> > const &)
FUNC 8f50 80 0 node_sqlite3::Statement::Bind(Nan::FunctionCallbackInfo<v8::Value> const &)
FUNC 8fd0 33 0 node_sqlite3::Statement::Work_BeginBind(node_sqlite3::Statement::Baton *)
FUNC 9010 40 0 node_sqlite3::Statement::Work_Bind(uv_work_s *)
FUNC 9050 fb 0 node_sqlite3::Statement::Work_AfterBind(uv_work_s *)
FUNC 9150 80 0 node_sqlite3::Statement::Get(Nan::FunctionCallbackInfo<v8::Value> const &)
FUNC 91d0 33 0 node_sqlite3::Statement::Work_BeginGet(node_sqlite3::Statement::Baton *)
FUNC 9210 f9 0 node_sqlite3::Statement::Work_Get(uv_work_s *)
FUNC 9310 169 0 node_sqlite3::Statement::Work_AfterGet(uv_work_s *)
FUNC 9480 80 0 node_sqlite3::Statement::Run(Nan::FunctionCallbackInfo<v8::Value> const &)
FUNC 9500 33 0 node_sqlite3::Statement::Work_BeginRun(node_sqlite3::Statement::Baton *)
FUNC 9540 12e 0 node_sqlite3::Statement::Work_Run(uv_work_s *)
FUNC 9670 21d 0 node_sqlite3::Statement::Work_AfterRun(uv_work_s *)
FUNC 9890 80 0 node_sqlite3::Statement::All(Nan::FunctionCallbackInfo<v8::Value> const &)
FUNC 9910 33 0 node_sqlite3::Statement::Work_BeginAll(node_sqlite3::Statement::Baton *)
FUNC 9950 15f 0 node_sqlite3::Statement::Work_All(uv_work_s *)
FUNC 9ab0 209 0 node_sqlite3::Statement::Work_AfterAll(uv_work_s *)
FUNC 9cc0 14b 0 node_sqlite3::Statement::Each(Nan::FunctionCallbackInfo<v8::Value> const &)
FUNC 9e10 11c 0 node_sqlite3::Statement::Work_BeginEach(node_sqlite3::Statement::Baton *)
FUNC 9f30 194 0 node_sqlite3::Statement::Work_Each(uv_work_s *)
FUNC a0d0 22 0 node_sqlite3::Statement::CloseCallback(uv_handle_s *)
FUNC a100 2e2 0 node_sqlite3::Statement::AsyncEach(uv_async_s *,int)
FUNC a3f0 8e 0 node_sqlite3::Statement::Work_AfterEach(uv_work_s *)
FUNC a480 13d 0 node_sqlite3::Statement::Reset(Nan::FunctionCallbackInfo<v8::Value> const &)
FUNC a5c0 33 0 node_sqlite3::Statement::Work_BeginReset(node_sqlite3::Statement::Baton *)
FUNC a600 1e 0 node_sqlite3::Statement::Work_Reset(uv_work_s *)
FUNC a620 ea 0 node_sqlite3::Statement::Work_AfterReset(uv_work_s *)
FUNC a710 324 0 node_sqlite3::Statement::RowToJS(std::vector<node_sqlite3::Values::Field *,std::allocator<node_sqlite3::Values::Field *> > *)
FUNC aa40 320 0 node_sqlite3::Statement::GetRow(std::vector<node_sqlite3::Values::Field *,std::allocator<node_sqlite3::Values::Field *> > *,sqlite3_stmt *)
FUNC ad60 159 0 node_sqlite3::Statement::Finalize(Nan::FunctionCallbackInfo<v8::Value> const &)
FUNC aec0 e7 0 node_sqlite3::Statement::Finalize(node_sqlite3::Statement::Baton *)
FUNC afb0 41b 0 node_sqlite3::Statement::CleanQueue()
FUNC b3d0 f6 0 std::vector<std::vector<node_sqlite3::Values::Field *,std::allocator<node_sqlite3::Values::Field *> > *,std::allocator<std::vector<node_sqlite3::Values::Field *,std::allocator<node_sqlite3::Values::Field *> > *> >::push_back(std::vector<node_sqlite3::Values::Field *,std::allocator<node_sqlite3::Values::Field *> > * const &)
FUNC b4d0 316 0 node_sqlite3::Statement::Error<node_sqlite3::Statement::PrepareBaton>(node_sqlite3::Statement::PrepareBaton *)
FUNC b7f0 3cf 418 node_sqlite3::Statement::Bind<node_sqlite3::Statement::Baton>(Nan::FunctionCallbackInfo<v8::Value> const &,int,int)
FUNC bbc0 313 0 node_sqlite3::Statement::Error<node_sqlite3::Statement::Baton>(node_sqlite3::Statement::Baton *)
FUNC bee0 3f0 418 node_sqlite3::Statement::Bind<node_sqlite3::Statement::RowsBaton>(Nan::FunctionCallbackInfo<v8::Value> const &,int,int)
FUNC c2d0 3f3 418 node_sqlite3::Statement::Bind<node_sqlite3::Statement::RunBaton>(Nan::FunctionCallbackInfo<v8::Value> const &,int,int)
FUNC c6d0 3f3 c node_sqlite3::Statement::Bind<node_sqlite3::Statement::EachBaton>(Nan::FunctionCallbackInfo<v8::Value> const &,int,int)
FUNC cad0 3e8 0 node_sqlite3::Statement::BindParameter<int>(v8::Local<v8::Value>,int)
FUNC cec0 500 8 node_sqlite3::Statement::BindParameter<char *>(v8::Local<v8::Value>,char *)
FUNC d3c0 7e 0 sqlite3_compileoption_used
FUNC d440 14 0 sqlite3_compileoption_get
FUNC d460 1f 0 sqlite3StatusUp
FUNC d480 9f 0 sqlite3_status64
FUNC d520 49 10 sqlite3_status
FUNC d570 450 0 sqlite3_db_status
FUNC d9c0 a2 0 getDigits
FUNC da70 e0 0 parseTimezone
FUNC db50 121 0 parseHhMmSs
FUNC dc80 123 0 computeJD
FUNC ddb0 b5 0 parseYyyyMmDd
FUNC de70 c1 0 parseDateOrTime
FUNC df40 116 0 computeYMD
FUNC e060 a7 0 computeHMS
FUNC e110 1d0 0 localtimeOffset
FUNC e2e0 8a9 0 parseModifier
FUNC eb90 18d 8 isDate
FUNC ed20 a8 c juliandayFunc
FUNC edd0 c1 c datetimeFunc
FUNC eea0 a9 c timeFunc
FUNC ef50 a6 c dateFunc
FUNC f000 59c c strftimeFunc
FUNC f5a0 15 0 ctimeFunc
FUNC f5c0 15 0 cdateFunc
FUNC f5e0 15 0 ctimestampFunc
FUNC f600 1a 0 sqlite3OsClose
FUNC f620 19 0 sqlite3OsRead
FUNC f640 19 0 sqlite3OsWrite
FUNC f660 14 0 sqlite3OsTruncate
FUNC f680 1d 0 sqlite3OsOpen
FUNC f6a0 50 0 sqlite3OsCurrentTimeInt64
FUNC f6f0 70 0 sqlite3OsOpenMalloc
FUNC f760 94 0 sqlite3_vfs_find
FUNC f800 b0 0 sqlite3_vfs_register
FUNC f8b0 7c 0 sqlite3_vfs_unregister
FUNC f930 2a 0 sqlite3MemMalloc
FUNC f960 5 0 sqlite3MemFree
FUNC f970 5 0 sqlite3MemSize
FUNC f980 3b 0 sqlite3MemRealloc
FUNC f9c0 b 0 sqlite3MemRoundup
FUNC f9d0 3 0 analyzeAggregatesInSelect
FUNC f9e0 1 0 fts5IterSetOutputs_Noop
FUNC f9f0 6a 0 sqlite3MutexInit
FUNC fa60 20 0 sqlite3_mutex_alloc
FUNC fa80 17 0 sqlite3MutexAlloc
FUNC faa0 13 0 sqlite3_mutex_free
FUNC fac0 13 0 sqlite3_mutex_enter
FUNC fae0 15 0 sqlite3_mutex_try
FUNC fb00 13 0 sqlite3_mutex_leave
FUNC fb20 6 0 noopMutexAlloc
FUNC fb30 5b 0 winMutexInit
FUNC fb90 4d 0 winMutexEnd
FUNC fbe0 62 4 winMutexAlloc
FUNC fc50 23 0 winMutexFree
FUNC fc80 b 0 winMutexEnter
FUNC fc90 45 0 winMutexTry
FUNC fce0 b 0 winMutexLeave
FUNC fcf0 db 8 sqlite3_soft_heap_limit64
FUNC fdd0 1f 4 sqlite3_soft_heap_limit
FUNC fdf0 11c 0 sqlite3MallocInit
FUNC ff10 3a 0 sqlite3_memory_used
FUNC ff50 4d 4 sqlite3_memory_highwater
FUNC ffa0 39 0 sqlite3MallocAlarm
FUNC ffe0 f2 0 mallocWithAlarm
FUNC 100e0 6d 0 sqlite3Malloc
FUNC 10150 2b 4 sqlite3_malloc
FUNC 10180 27 8 sqlite3_malloc64
FUNC 101b0 10c 0 sqlite3ScratchMalloc
FUNC 102c0 c3 0 sqlite3ScratchFree
FUNC 10390 6 0 sqlite3MallocSize
FUNC 103a0 27 0 sqlite3DbMallocSize
FUNC 103d0 18 0 sqlite3_msize
FUNC 103f0 62 0 sqlite3_free
FUNC 10460 3c 0 measureAllocationSize
FUNC 104a0 42 0 sqlite3DbFree
FUNC 104f0 148 0 sqlite3Realloc
FUNC 10640 31 8 sqlite3_realloc
FUNC 10680 2a c sqlite3_realloc64
FUNC 106b0 37 0 sqlite3DbMallocZero
FUNC 106f0 3f 0 dbMallocRawFinish
FUNC 10730 21 0 sqlite3DbMallocRaw
FUNC 10760 90 0 sqlite3DbMallocRawNN
FUNC 107f0 57 0 sqlite3DbRealloc
FUNC 10850 ba 8 dbReallocFinish
FUNC 10910 b4 0 sqlite3DbReallocOrFree
FUNC 109d0 57 0 sqlite3DbStrDup
FUNC 10a30 48 0 sqlite3DbStrNDup
FUNC 10a80 a9 0 sqlite3SetString
FUNC 10b30 2a 0 sqlite3OomFault
FUNC 10b60 3c 0 apiOomError
FUNC 10ba0 14c4 4 sqlite3VXPrintf
FUNC 12070 116 0 sqlite3StrAccumEnlarge
FUNC 12190 2e 0 enlargeAndAppend
FUNC 121c0 33 0 sqlite3StrAccumAppend
FUNC 12200 78 0 sqlite3StrAccumFinish
FUNC 12280 78 0 sqlite3StrAccumReset
FUNC 12300 a0 4 sqlite3VMPrintf
FUNC 123a0 16 0 sqlite3MPrintf
FUNC 123c0 94 8 sqlite3_vmprintf
FUNC 12460 1e 0 sqlite3_mprintf
FUNC 12480 5d 10 sqlite3_vsnprintf
FUNC 124e0 5e c sqlite3_snprintf
FUNC 12540 8a 4 renderLogMsg
FUNC 125d0 1d 0 sqlite3_log
FUNC 125f0 14 0 sqlite3XPrintf
FUNC 12610 192 0 sqlite3_randomness
FUNC 127b0 20 0 sqlite3ThreadProc
FUNC 127d0 ec 0 sqlite3ThreadCreate
FUNC 128c0 5c 0 sqlite3ThreadJoin
FUNC 12920 67 0 sqlite3Utf8Read
FUNC 12990 4d3 0 sqlite3VdbeMemTranslate
FUNC 12e70 7c 0 sqlite3VdbeMemHandleBom
FUNC 12ef0 3f 0 sqlite3Utf8CharLen
FUNC 12f30 7f 8 sqlite3Utf16to8
FUNC 12fb0 3a 0 sqlite3Utf16ByteLen
FUNC 12ff0 32 0 sqlite3IsNaN
FUNC 13030 22 0 sqlite3Strlen30
FUNC 13060 21 0 sqlite3ColumnType
FUNC 13090 66 0 sqlite3ErrorFinish
FUNC 13100 17 0 sqlite3Error
FUNC 13120 b8 0 sqlite3ErrorWithMsg
FUNC 131e0 e9 0 sqlite3ErrorMsg
FUNC 132d0 5d 0 sqlite3Dequote
FUNC 13330 24 0 sqlite3TokenInit
FUNC 13360 22 0 sqlite3_stricmp
FUNC 13390 46 0 sqlite3StrICmp
FUNC 133e0 74 0 sqlite3_strnicmp
FUNC 13460 56d 0 sqlite3AtoF
FUNC 139d0 216 0 sqlite3Atoi64
FUNC 13bf0 103 0 sqlite3DecOrHexToI64
FUNC 13d00 174 0 sqlite3GetInt32
FUNC 13e80 1d 0 sqlite3Atoi
FUNC 13ea0 105 0 putVarint64
FUNC 13fb0 54 0 sqlite3Fts5PutVarint
FUNC 14010 179 0 sqlite3Fts5GetVarint
FUNC 14190 76 0 sqlite3GetVarint32
FUNC 14210 8b 0 sqlite3HexToBlob
FUNC 142a0 6c 0 sqlite3SafetyCheckOk
FUNC 14310 94 0 sqlite3AddInt64
FUNC 143b0 111 0 sqlite3MulInt64
FUNC 144d0 17 0 sqlite3AbsInt32
FUNC 144f0 60 0 sqlite3LogEstAdd
FUNC 14550 9d 0 sqlite3LogEst
FUNC 145f0 98 0 sqlite3HashClear
FUNC 14690 2e 0 strHash
FUNC 146c0 5f 0 insertElement
FUNC 14720 143 0 rehash
FUNC 14870 cb 0 findElementWithHash
FUNC 14940 53 0 removeElementGivenHash
FUNC 149a0 1a 0 sqlite3HashFind
FUNC 149c0 133 4 sqlite3HashInsert
FUNC 14b00 f5 0 winSetSystemCall
FUNC 14c00 61 0 winGetSystemCall
FUNC 14c70 88 0 winNextSystemCall
FUNC 14d00 7f 0 winUtf8ToUnicode
FUNC 14d80 86 0 winUnicodeToUtf8
FUNC 14e10 a4 4 winGetLastErrorMsg
FUNC 14ec0 b5 0 winLogErrorAtLine
FUNC 14f80 3b 0 winLockFile
FUNC 14fc0 37 0 winUnlockFile
FUNC 15000 76 0 winClose
FUNC 15080 1a5 0 winRead
FUNC 15230 183 0 winWrite
FUNC 153c0 112 c winTruncate
FUNC 154e0 78 0 winSync
FUNC 15560 63 0 winFileSize
FUNC 155d0 5b 0 winGetReadLock
FUNC 15630 7c 0 winUnlockReadLock
FUNC 156b0 1f3 0 winLock
FUNC 158b0 aa 0 winCheckReservedLock
FUNC 15960 149 0 winUnlock
FUNC 15ab0 28 0 winModeBit
FUNC 15ae0 23a c winFileControl
FUNC 15d20 6 0 winSectorSize
FUNC 15d30 12 0 winDeviceCharacteristics
FUNC 15d50 177 0 winShmPurge
FUNC 15ef0 3bd 0 winOpenSharedMemory
FUNC 162b0 106 0 winShmUnmap
FUNC 163c0 21f 0 winShmLock
FUNC 165e0 45 0 winShmBarrier
FUNC 16630 206 14 winShmMap
FUNC 16840 a3 0 winUnmapfile
FUNC 168f0 154 0 winMapfile
FUNC 16a50 63 14 winFetch
FUNC 16ac0 1d 0 winUnfetch
FUNC 16ae0 46 0 winMakeEndInDirSep
FUNC 16b30 2b5 0 winGetTempname
FUNC 16df0 b3 0 winIsDir
FUNC 16eb0 33a 14 winOpen
FUNC 171f0 127 c winDelete
FUNC 17320 1b5 10 winAccess
FUNC 174e0 191 10 winFullPathname
FUNC 17680 36 8 winDlOpen
FUNC 176c0 17 0 winDlError
FUNC 176e0 f 0 winDlSym
FUNC 176f0 b 0 winDlClose
FUNC 17700 1b3 c winRandomness
FUNC 178c0 2b 0 winSleep
FUNC 178f0 41 0 winCurrentTimeInt64
FUNC 17940 4f 0 winCurrentTime
FUNC 17990 23 0 winGetLastError
FUNC 179c0 5c 0 sqlite3_os_init
FUNC 17a20 90 0 sqlite3BitvecTestNotNull
FUNC 17ab0 196 0 sqlite3BitvecSet
FUNC 17c50 c2 0 sqlite3BitvecClear
FUNC 17d20 82 0 sqlite3BitvecDestroy
FUNC 17db0 2cf 0 sqlite3BitvecBuiltinTest
FUNC 18080 84 0 pcacheManageDirtyList
FUNC 18110 55 0 sqlite3PcacheOpen
FUNC 18170 89 0 sqlite3PcacheSetPageSize
FUNC 18200 9d 0 sqlite3PcacheFetchStress
FUNC 182a0 5b 0 pcacheFetchFinishWithInit
FUNC 18300 21 0 sqlite3PcacheFetchFinish
FUNC 18330 3a 0 sqlite3PcacheRelease
FUNC 18370 69 0 sqlite3PcacheDrop
FUNC 183e0 4c 0 sqlite3PcacheMakeDirty
FUNC 18430 84 0 sqlite3PcacheMakeClean
FUNC 184c0 1f 0 sqlite3PcacheCleanAll
FUNC 184e0 a0 0 sqlite3PcacheMove
FUNC 18580 69 0 sqlite3PcacheTruncate
FUNC 185f0 66 0 sqlite3PcacheClear
FUNC 18660 155 0 pcacheSortDirtyList
FUNC 187c0 19 0 sqlite3PcacheDirtyList
FUNC 187e0 64 0 sqlite3PCachePercentDirty
FUNC 18850 89 0 sqlite3PCacheBufferSetup
FUNC 188e0 c0 0 pcache1InitBulk
FUNC 189a0 10f 0 pcache1Alloc
FUNC 18ab0 ba 0 pcache1Free
FUNC 18b70 93 0 pcache1AllocPage
FUNC 18c10 29 0 pcache1FreePage
FUNC 18c40 133 0 pcache1ResizeHash
FUNC 18d80 ce 0 pcache1EnforceMaxPage
FUNC 18e50 d7 0 pcache1TruncateUnsafe
FUNC 18f30 a6 0 pcache1Init
FUNC 18fe0 12 0 pcache1Shutdown
FUNC 19000 d2 c pcache1Create
FUNC 190e0 3f 0 pcache1Cachesize
FUNC 19120 23 0 pcache1Shrink
FUNC 19150 8 0 pcache1Pagecount
FUNC 19160 19a 0 pcache1FetchStage2
FUNC 19300 6f 0 pcache1FetchNoMutex
FUNC 19370 15 0 pcache1Fetch
FUNC 19390 8b 0 pcache1Unpin
FUNC 19420 56 0 pcache1Rekey
FUNC 19480 21 0 pcache1Truncate
FUNC 194b0 52 0 pcache1Destroy
FUNC 19510 19 0 sqlite3PCacheSetDefault
FUNC 19530 85 0 sqlite3RowSetClear
FUNC 195c0 90 0 sqlite3RowSetInsert
FUNC 19650 64 0 rowSetEntryMerge
FUNC 196c0 ba 0 rowSetEntrySort
FUNC 19780 3a 0 rowSetTreeToList
FUNC 197c0 58 0 rowSetNDeepTree
FUNC 19820 aa 0 rowSetListToTree
FUNC 198d0 15a 0 sqlite3RowSetTest
FUNC 19a30 4b 0 subjRequiresPage
FUNC 19a80 31 0 read32bits
FUNC 19ac0 35 0 pagerUnlockDb
FUNC 19b00 4b 0 pagerLockDb
FUNC 19b50 15b 0 readMasterJournal
FUNC 19cb0 54 0 journalHdrOffset
FUNC 19d10 ca 0 zeroJournalHdr
FUNC 19de0 163 0 writeJournalHdr
FUNC 19f50 26f 0 readJournalHdr
FUNC 1a1c0 1fd 0 writeMasterJournal
FUNC 1a3c0 29 0 pager_reset
FUNC 1a3f0 c3 0 releaseAllSavepoints
FUNC 1a4c0 4b 0 addToSavepointBitvecs
FUNC 1a510 146 0 pager_unlock
FUNC 1a660 17 0 pager_error
FUNC 1a680 292 0 pager_end_transaction
FUNC 1a920 60 0 pagerUnlockAndRollback
FUNC 1a980 67 0 pager_cksum
FUNC 1a9f0 2af 0 pager_playback_one_page
FUNC 1aca0 249 0 pager_delmaster
FUNC 1aef0 106 0 pager_truncate
FUNC 1b000 6d 0 setSectorSize
FUNC 1b070 3a1 0 pager_playback
FUNC 1b420 dd 0 readDbPage
FUNC 1b500 e6 0 pagerUndoCallback
FUNC 1b5f0 61 0 pagerRollbackWal
FUNC 1b660 ba 0 pagerWalFrames
FUNC 1b720 9d 0 pagerBeginReadTransaction
FUNC 1b7c0 15a 0 pagerOpenWalIfPresent
FUNC 1b920 2c8 0 pagerPlaybackSavepoint
FUNC 1bbf0 53 0 pagerFixMaplimit
FUNC 1bc50 59 0 sqlite3PagerSetMmapLimit
FUNC 1bcb0 86 0 sqlite3PagerSetFlags
FUNC 1bd40 166 4 sqlite3PagerSetPagesize
FUNC 1beb0 43 0 sqlite3PagerReadFileheader
FUNC 1bf00 69 0 pager_wait_on_lock
FUNC 1bf70 31 0 pagerSyncHotJournal
FUNC 1bfb0 dc 8 pagerAcquireMapPage
FUNC 1c090 4e 0 pagerReleaseMapPage
FUNC 1c0e0 72 0 pagerFreeMapHdrs
FUNC 1c160 127 0 sqlite3PagerClose
FUNC 1c290 1fd 0 syncJournal
FUNC 1c490 14d 0 pager_write_pagelist
FUNC 1c5e0 79 0 openSubJournal
FUNC 1c660 ac 0 subjournalPage
FUNC 1c710 bb 8 pagerStress
FUNC 1c7d0 63 0 sqlite3PagerFlush
FUNC 1c840 565 0 sqlite3PagerOpen
FUNC 1cdb0 42 0 databaseIsUnmoved
FUNC 1ce00 1f2 0 hasHotJournal
FUNC 1d000 356 0 sqlite3PagerSharedLock
FUNC 1d360 24 0 pagerUnlockIfUnused
FUNC 1d390 3a6 8 sqlite3PagerGet
FUNC 1d740 4a 0 sqlite3PagerLookup
FUNC 1d790 2a 0 sqlite3PagerUnref
FUNC 1d7c0 152 0 pager_open_journal
FUNC 1d920 e9 0 sqlite3PagerBegin
FUNC 1da10 ef 0 pagerAddPageToRollbackJournal
FUNC 1db00 dc 0 pager_write
FUNC 1dbe0 20a 0 pagerWriteLargeSector
FUNC 1ddf0 6a 0 sqlite3PagerWrite
FUNC 1de60 ae 0 pager_incr_changecounter
FUNC 1df10 42 0 sqlite3PagerSync
FUNC 1df60 1b0 0 sqlite3PagerCommitPhaseOne
FUNC 1e110 48 0 sqlite3PagerCommitPhaseTwo
FUNC 1e160 c3 0 sqlite3PagerRollback
FUNC 1e230 122 0 pagerOpenSavepoint
FUNC 1e360 db 4 sqlite3PagerSavepoint
FUNC 1e440 1d8 0 sqlite3PagerMovepage
FUNC 1e620 22 0 sqlite3PagerLockingMode
FUNC 1e650 108 0 sqlite3PagerSetJournalMode
FUNC 1e760 3f 0 sqlite3PagerJournalSizeLimit
FUNC 1e7a0 6c 0 pagerExclusiveLock
FUNC 1e810 97 0 pagerOpenWal
FUNC 1e8b0 e1 0 sqlite3PagerCloseWal
FUNC 1e9a0 12d 4 walIndexPage
FUNC 1ead0 af 0 walChecksumBytes
FUNC 1eb80 86 0 walIndexWriteHdr
FUNC 1ec10 9c 0 walCleanupHash
FUNC 1ecb0 f4 0 walIndexAppend
FUNC 1edb0 3a8 0 walIndexRecover
FUNC 1f160 96 0 walIndexClose
FUNC 1f200 124 0 sqlite3WalOpen
FUNC 1f330 a0 0 walIteratorNext
FUNC 1f3d0 dd 0 walMerge
FUNC 1f4b0 13d 0 walMergesort
FUNC 1f5f0 230 0 walIteratorInit
FUNC 1f820 4e 0 walBusyLock
FUNC 1f870 53 0 walRestartHdr
FUNC 1f8d0 36f 0 walCheckpoint
FUNC 1fc40 7b 0 walLimitSize
FUNC 1fcc0 116 8 sqlite3WalClose
FUNC 1fde0 176 0 walIndexTryHdr
FUNC 1ff60 13b 0 walIndexReadHdr
FUNC 200a0 2f8 0 walTryBeginRead
FUNC 203a0 61 0 sqlite3WalEndReadTransaction
FUNC 20410 159 0 sqlite3WalFindFrame
FUNC 20570 87 0 sqlite3WalBeginWriteTransaction
FUNC 20600 b2 0 sqlite3WalUndo
FUNC 206c0 bd 0 walRestartLog
FUNC 20780 b1 0 walWriteToLog
FUNC 20840 db 0 walWriteOneFrame
FUNC 20920 249 0 walRewriteChecksums
FUNC 20b70 505 0 sqlite3WalFrames
FUNC 21080 1ba 1c sqlite3WalCheckpoint
FUNC 21240 1d 0 unlockBtreeMutex
FUNC 21260 14 0 sqlite3BtreeEnter
FUNC 21280 a0 0 btreeLockCarefully
FUNC 21320 3c 0 sqlite3BtreeEnterAll
FUNC 21360 39 0 sqlite3BtreeLeaveAll
FUNC 213a0 c 0 sqlite3_enable_shared_cache
FUNC 213b0 4f 0 querySharedCacheTableLock
FUNC 21400 b2 0 clearAllSharedCacheTableLocks
FUNC 214c0 65 0 btreeSetHasContent
FUNC 21530 90 0 saveCursorKey
FUNC 215c0 7e 0 saveCursorPosition
FUNC 21640 3c 0 saveAllCursors
FUNC 21680 91 0 saveCursorsOnList
FUNC 21720 1b 0 sqlite3BtreeClearCursor
FUNC 21740 147 0 btreeMoveto
FUNC 21890 5b 0 btreeRestoreCursorPosition
FUNC 218f0 41 0 ptrmapPageno
FUNC 21940 130 0 ptrmapPut
FUNC 21a70 108 0 ptrmapGet
FUNC 21b80 4c 0 btreeParseCellAdjustSizeForOverflow
FUNC 21bd0 30 0 btreeParseCellPtrNoPayload
FUNC 21c00 118 c btreeParseCellPtr
FUNC 21d20 86 0 btreeParseCellPtrIndex
FUNC 21db0 a4 0 cellSizePtr
FUNC 21e60 1f 0 cellSizePtrNoPayload
FUNC 21e80 210 0 defragmentPage
FUNC 22090 127 0 pageFindSlot
FUNC 221c0 11b 0 allocateSpace
FUNC 222e0 313 0 freeSpace
FUNC 22600 dd 0 decodeFlags
FUNC 226e0 326 0 btreeInitPage
FUNC 22a10 c9 0 zeroPage
FUNC 22ae0 52 0 btreeGetPage
FUNC 22b40 7b 0 btreePageLookup
FUNC 22bc0 fe 0 getAndInitPage
FUNC 22cc0 2d 0 releasePage
FUNC 22cf0 c8 0 btreeGetUnusedPage
FUNC 22dc0 1b 0 pageReinit
FUNC 22de0 3c 0 btreeInvokeBusyHandler
FUNC 22e20 661 0 sqlite3BtreeOpen
FUNC 23490 8f 0 removeFromSharingList
FUNC 23520 1e 0 freeTempSpace
FUNC 23540 dd 0 sqlite3BtreeClose
FUNC 23620 72 0 sqlite3BtreeSetCacheSize
FUNC 236a0 92 0 sqlite3BtreeSetSpillSize
FUNC 23740 89 0 sqlite3BtreeSetMmapLimit
FUNC 237d0 40 0 sqlite3BtreeSetPagerFlags
FUNC 23810 c8 0 sqlite3BtreeSetPageSize
FUNC 238e0 39 0 sqlite3BtreeGetOptimalReserve
FUNC 23920 64 0 sqlite3BtreeSecureDelete
FUNC 23990 6e 0 sqlite3BtreeSetAutoVacuum
FUNC 23a00 41 0 sqlite3BtreeGetAutoVacuum
FUNC 23a50 305 0 lockBtree
FUNC 23d60 97 0 newDatabase
FUNC 23e00 280 0 sqlite3BtreeBeginTrans
FUNC 24080 127 0 setChildPtrmaps
FUNC 241b0 171 0 modifyPagePointer
FUNC 24330 119 0 relocatePage
FUNC 24450 202 0 incrVacuumStep
FUNC 24660 c6 0 finalDbSize
FUNC 24730 fb 0 sqlite3BtreeIncrVacuum
FUNC 24830 19d 0 autoVacuumCommit
FUNC 249d0 8f 0 sqlite3BtreeCommitPhaseOne
FUNC 24a60 ac 0 btreeEndTransaction
FUNC 24b10 90 0 sqlite3BtreeCommitPhaseTwo
FUNC 24ba0 4c 0 sqlite3BtreeCommit
FUNC 24bf0 11c 4 sqlite3BtreeTripAllCursors
FUNC 24d10 133 0 sqlite3BtreeRollback
FUNC 24e50 aa 0 btreeCursor
FUNC 24f10 15f 0 sqlite3BtreeCloseCursor
FUNC 25070 40 0 getCellInfo
FUNC 250b0 175 0 getOverflowPage
FUNC 25230 40 0 copyPayload
FUNC 25270 309 0 accessPayload
FUNC 25580 45 10 sqlite3BtreeData
FUNC 255d0 6a 0 moveToChild
FUNC 25640 146 0 moveToRoot
FUNC 25790 ae 0 moveToLeftmost
FUNC 25840 b7 0 moveToRightmost
FUNC 25900 4cd 0 sqlite3BtreeMovetoUnpacked
FUNC 25dd0 10a 0 btreeNext
FUNC 25ee0 67 8 sqlite3BtreeNext
FUNC 25f50 11e 0 btreePrevious
FUNC 26070 5b 8 sqlite3BtreePrevious
FUNC 260d0 675 0 allocateBtreePage
FUNC 26750 2a7 0 freePage2
FUNC 26a00 1c 0 freePage
FUNC 26a20 1b0 0 clearCell
FUNC 26bd0 39d 0 fillInCell
FUNC 26f70 121 0 dropCell
FUNC 270a0 16f 0 insertCell
FUNC 27210 24 0 computeCellSize
FUNC 27240 13c 0 rebuildPage
FUNC 27380 e4 0 pageInsertArray
FUNC 27470 d6 0 pageFreeArray
FUNC 27550 2b1 0 editPage
FUNC 27810 208 0 balance_quick
FUNC 27a20 c3 0 copyNodeContent
FUNC 27af0 139c c balance_nonroot
FUNC 28e90 12d 0 balance_deeper
FUNC 28fc0 1e0 0 balance
FUNC 291a0 23b 0 sqlite3BtreeInsert
FUNC 293e0 40c 0 sqlite3BtreeDelete
FUNC 297f0 2cf 0 btreeCreateTable
FUNC 29ac0 1fe 0 clearDatabasePage
FUNC 29cc0 a3 0 sqlite3BtreeClearTable
FUNC 29d70 208 0 btreeDropTable
FUNC 29f80 59 0 sqlite3BtreeGetMeta
FUNC 29fe0 6b 0 sqlite3BtreeUpdateMeta
FUNC 2a050 1b6 0 sqlite3BtreeCount
FUNC 2a210 82 0 checkAppendMsg
FUNC 2a2a0 66 0 checkRef
FUNC 2a310 83 0 checkPtrmap
FUNC 2a3a0 21c 0 checkList
FUNC 2a5c0 5e 0 btreeHeapPull
FUNC 2a620 651 0 checkTreePage
FUNC 2ac80 4eb c sqlite3BtreeIntegrityCheck
FUNC 2b170 18 0 sqlite3BtreeGetFilename
FUNC 2b190 9e 0 sqlite3BtreeCheckpoint
FUNC 2b230 6f 0 sqlite3BtreeSchemaLocked
FUNC 2b2a0 bc 0 sqlite3BtreeLockTable
FUNC 2b360 65 10 sqlite3BtreePutData
FUNC 2b3d0 74 0 sqlite3BtreeSetVersion
FUNC 2b450 10f 0 findBtree
FUNC 2b560 118 10 sqlite3_backup_init
FUNC 2b680 1ae 0 backupOnePage
FUNC 2b830 85a 8 sqlite3_backup_step
FUNC 2c090 f0 0 sqlite3_backup_finish
FUNC 2c180 8 0 sqlite3_backup_remaining
FUNC 2c190 8 0 sqlite3_backup_pagecount
FUNC 2c1a0 70 0 backupUpdate
FUNC 2c210 139 0 sqlite3BtreeCopyFile
FUNC 2c350 15 0 sqlite3VdbeChangeEncoding
FUNC 2c370 130 4 sqlite3VdbeMemGrow
FUNC 2c4a0 1e 0 sqlite3VdbeMemClearAndResize
FUNC 2c4c0 71 0 sqlite3VdbeMemMakeWriteable
FUNC 2c540 4b 0 sqlite3VdbeMemExpandBlob
FUNC 2c590 40 0 vdbeMemAddTerminator
FUNC 2c5d0 1e 0 sqlite3VdbeMemNulTerminate
FUNC 2c5f0 da 4 sqlite3VdbeMemStringify
FUNC 2c6d0 a0 0 sqlite3VdbeMemFinalize
FUNC 2c770 6e 0 vdbeMemClearExternAndSetNull
FUNC 2c7e0 92 0 vdbeMemClear
FUNC 2c880 19 0 sqlite3VdbeMemRelease
FUNC 2c8a0 ab 0 sqlite3VdbeIntValue
FUNC 2c950 58 0 sqlite3VdbeRealValue
FUNC 2c9b0 99 0 sqlite3VdbeIntegerAffinity
FUNC 2ca50 25 0 sqlite3VdbeMemIntegerify
FUNC 2ca80 73 0 sqlite3VdbeMemRealify
FUNC 2cb00 ca 0 sqlite3VdbeMemNumerify
FUNC 2cbd0 d4 0 sqlite3VdbeMemCast
FUNC 2ccb0 1e 0 sqlite3VdbeMemSetNull
FUNC 2ccd0 36 0 vdbeReleaseAndSetInt64
FUNC 2cd10 36 0 sqlite3VdbeMemSetInt64
FUNC 2cd50 c1 0 sqlite3VdbeMemSetRowSet
FUNC 2ce20 1e 0 vdbeClrCopy
FUNC 2ce40 4f 4 sqlite3VdbeMemShallowCopy
FUNC 2ce90 69 0 sqlite3VdbeMemCopy
FUNC 2cf00 221 0 sqlite3VdbeMemSetStr
FUNC 2d130 e5 c vdbeMemFromBtreeResize
FUNC 2d220 8a 0 valueToText
FUNC 2d2b0 45 0 valueNew
FUNC 2d300 44b 10 valueFromExpr
FUNC 2d750 27 c sqlite3ValueFromExpr
FUNC 2d780 66 0 sqlite3ValueFree
FUNC 2d7f0 15 0 valueBytes
FUNC 2d810 69 0 sqlite3VdbeError
FUNC 2d880 86 0 sqlite3VdbeSwap
FUNC 2d910 c0 0 growOpArray
FUNC 2d9d0 32 0 growOp3
FUNC 2da10 75 c sqlite3VdbeAddOp3
FUNC 2da90 70 0 sqlite3VdbeAddOp0
FUNC 2db00 75 4 sqlite3VdbeAddOp1
FUNC 2db80 75 8 sqlite3VdbeAddOp2
FUNC 2dc00 6e 0 sqlite3VdbeGoto
FUNC 2dc70 7d 4 sqlite3VdbeLoadString
FUNC 2dcf0 146 c sqlite3VdbeMultiLoad
FUNC 2de40 7f 14 sqlite3VdbeAddOp4
FUNC 2dec0 ca 4 sqlite3VdbeAddParseSchemaOp
FUNC 2df90 cd 10 sqlite3VdbeAddOp4Int
FUNC 2e060 7a 0 sqlite3VdbeEndCoroutine
FUNC 2e0e0 46 0 sqlite3VdbeMakeLabel
FUNC 2e130 1e 0 sqlite3VdbeResolveLabel
FUNC 2e150 184 0 resolveP2Values
FUNC 2e2e0 b0 0 sqlite3VdbeAddOpList
FUNC 2e390 34 0 sqlite3VdbeChangeOpcode
FUNC 2e3d0 33 0 sqlite3VdbeChangeP1
FUNC 2e410 17 0 sqlite3VdbeChangeP5
FUNC 2e430 2f 0 sqlite3VdbeJumpHere
FUNC 2e460 44 0 freeEphemeralFunction
FUNC 2e4b0 a5 0 freeP4Mem
FUNC 2e560 a1 0 freeP4FuncCtx
FUNC 2e610 b5 0 freeP4
FUNC 2e6d0 a0 0 vdbeFreeOpArray
FUNC 2e770 41 0 sqlite3VdbeChangeToNoop
FUNC 2e7c0 ce 0 vdbeChangeP4Full
FUNC 2e890 88 8 sqlite3VdbeChangeP4
FUNC 2e920 6b 0 sqlite3VdbeSetP4KeyInfo
FUNC 2e990 28 0 sqlite3VdbeGetOp
FUNC 2e9c0 41c 0 displayP4
FUNC 2ede0 3b 0 sqlite3VdbeUsesBtree
FUNC 2ee20 6b 0 sqlite3VdbeEnter
FUNC 2ee90 5d 0 vdbeLeave
FUNC 2eef0 115 0 releaseMemArray
FUNC 2f010 a4 0 sqlite3VdbeFrameDelete
FUNC 2f0c0 443 0 sqlite3VdbeList
FUNC 2f510 28b 0 sqlite3VdbeMakeReady
FUNC 2f7a0 d1 0 sqlite3VdbeFreeCursor
FUNC 2f880 a3 0 sqlite3VdbeFrameRestore
FUNC 2f930 be 0 closeAllCursors
FUNC 2f9f0 7b 0 Cleanup
FUNC 2fa70 bb 0 sqlite3VdbeSetNumCols
FUNC 2fb30 42 0 sqlite3VdbeSetColName
FUNC 2fb80 6ea 0 vdbeCommit
FUNC 30270 1ed 0 sqlite3VdbeCloseStatement
FUNC 30460 5e 0 sqlite3VdbeCheckFk
FUNC 304c0 2ee 0 sqlite3VdbeHalt
FUNC 307b0 84 0 sqlite3VdbeTransferError
FUNC 30840 e1 0 sqlite3VdbeReset
FUNC 30930 2c 0 sqlite3VdbeFinalize
FUNC 30960 a2 0 sqlite3VdbeDeleteAuxData
FUNC 30a10 25a 0 sqlite3VdbeClearObject
FUNC 30c70 93 0 sqlite3VdbeDelete
FUNC 30d10 64 0 handleDeferredMoveto
FUNC 30d80 42 0 handleMovedCursor
FUNC 30dd0 15a 0 sqlite3VdbeSerialType
FUNC 30f30 16 0 sqlite3VdbeSerialTypeLen
FUNC 30f50 f4 0 serialGet
FUNC 31050 1c8 0 sqlite3VdbeSerialGet
FUNC 31220 75 0 sqlite3VdbeAllocUnpackedRecord
FUNC 312a0 13c 8 sqlite3VdbeRecordUnpack
FUNC 313e0 18b 8 vdbeCompareMemString
FUNC 31570 1a 0 isAllZero
FUNC 31590 f1 0 sqlite3BlobCompare
FUNC 31690 98 0 sqlite3IntFloatCompare
FUNC 31730 135 4 sqlite3MemCompare
FUNC 31870 160 0 vdbeRecordDecodeInt
FUNC 319d0 60b 8 sqlite3VdbeRecordCompareWithSkip
FUNC 31fe0 17 0 sqlite3VdbeRecordCompare
FUNC 32000 22c c vdbeRecordCompareInt
FUNC 32230 15e c vdbeRecordCompareString
FUNC 32390 52 0 sqlite3VdbeFindCompare
FUNC 323f0 152 0 sqlite3VdbeIdxRowid
FUNC 32550 102 0 sqlite3VdbeIdxKeyCompare
FUNC 32660 1f 0 sqlite3ExpirePreparedStatements
FUNC 32680 84 0 sqlite3VdbeGetBoundValue
FUNC 32710 28 0 sqlite3VdbeSetVarmask
FUNC 32740 cf 0 sqlite3VtabImportErrmsg
FUNC 32810 1a 0 sqlite3_expired
FUNC 32830 d3 0 invokeProfileCallback
FUNC 32910 d4 0 sqlite3_finalize
FUNC 329f0 c1 0 sqlite3_reset
FUNC 32ac0 97 0 sqlite3_clear_bindings
FUNC 32b60 5d 0 sqlite3_value_blob
FUNC 32bc0 35 0 sqlite3_value_bytes
FUNC 32c00 35 0 sqlite3_value_bytes16
FUNC 32c40 73 4 sqlite3_value_double
FUNC 32cc0 9 0 sqlite3_value_int64
FUNC 32cd0 13 0 sqlite3_value_subtype
FUNC 32cf0 33 0 sqlite3_value_text
FUNC 32d30 33 0 sqlite3_value_text16le
FUNC 32d70 33 0 sqlite3_value_text16be
FUNC 32db0 13 0 sqlite3_value_type
FUNC 32dd0 94 4 sqlite3_value_dup
FUNC 32e70 9 0 sqlite3_value_free
FUNC 32e80 40 0 sqlite3_result_blob
FUNC 32ec0 7e 0 sqlite3_result_blob64
FUNC 32f40 67 c sqlite3_result_double
FUNC 32fb0 26 0 sqlite3_result_error
FUNC 32fe0 26 0 sqlite3_result_error16
FUNC 33010 3e 8 sqlite3_result_int
FUNC 33050 40 c sqlite3_result_int64
FUNC 33090 22 0 sqlite3_result_null
FUNC 330c0 17 0 sqlite3_result_subtype
FUNC 330e0 40 0 sqlite3_result_text
FUNC 33120 8d 0 sqlite3_result_text64
FUNC 331b0 40 0 sqlite3_result_text16
FUNC 331f0 40 0 sqlite3_result_text16be
FUNC 33230 12 0 sqlite3_result_value
FUNC 33250 49 0 sqlite3_result_zeroblob
FUNC 332a0 62 0 sqlite3_result_zeroblob64
FUNC 33310 63 0 sqlite3_result_error_code
FUNC 33380 25 0 sqlite3_result_error_toobig
FUNC 333b0 61 0 sqlite3_result_error_nomem
FUNC 33420 c8 0 doWalCallbacks
FUNC 334f0 175 0 sqlite3Step
FUNC 33670 1fa 4 sqlite3_step
FUNC 33870 b 0 sqlite3_user_data
FUNC 33880 a 0 sqlite3_context_db_handle
FUNC 33890 74 0 sqlite3StmtCurrentTime
FUNC 33910 41 0 sqlite3InvalidFunction
FUNC 33960 8b 0 createAggContext
FUNC 339f0 23 0 sqlite3_aggregate_context
FUNC 33a20 2f 0 sqlite3_get_auxdata
FUNC 33a50 e3 10 sqlite3_set_auxdata
FUNC 33b40 b 0 sqlite3_aggregate_count
FUNC 33b50 13 0 sqlite3_column_count
FUNC 33b70 19 0 sqlite3_data_count
FUNC 33b90 f4 0 sqlite3_column_blob
FUNC 33c90 cd 0 sqlite3_column_bytes
FUNC 33d60 cb 0 sqlite3_column_bytes16
FUNC 33e30 ed 8 sqlite3_column_double
FUNC 33f20 9e 0 sqlite3_column_int
FUNC 33fc0 aa 8 sqlite3_column_int64
FUNC 34070 d3 0 sqlite3_column_text
FUNC 34150 b0 0 sqlite3_column_value
FUNC 34200 d1 0 sqlite3_column_text16
FUNC 342e0 a5 0 sqlite3_column_type
FUNC 34390 85 0 columnName
FUNC 34420 18 0 sqlite3_column_name
FUNC 34440 18 0 sqlite3_column_name16
FUNC 34460 18 0 sqlite3_column_decltype
FUNC 34480 18 0 sqlite3_column_decltype16
FUNC 344a0 192 0 vdbeUnbind
FUNC 34640 db 0 bindText
FUNC 34720 1f 0 sqlite3_bind_blob
FUNC 34740 4a 0 sqlite3_bind_blob64
FUNC 34790 9b 10 sqlite3_bind_double
FUNC 34830 1e c sqlite3_bind_int
FUNC 34850 76 10 sqlite3_bind_int64
FUNC 348d0 31 0 sqlite3_bind_null
FUNC 34910 1f 0 sqlite3_bind_text
FUNC 34930 60 0 sqlite3_bind_text64
FUNC 34990 1f 0 sqlite3_bind_text16
FUNC 349b0 ec c sqlite3_bind_value
FUNC 34aa0 7f 0 sqlite3_bind_zeroblob
FUNC 34b20 7a 0 sqlite3_bind_zeroblob64
FUNC 34ba0 10 0 sqlite3_bind_parameter_count
FUNC 34bb0 24 0 sqlite3_bind_parameter_name
FUNC 34be0 62 0 sqlite3VdbeParameterIndex
FUNC 34c50 3d 0 sqlite3_bind_parameter_index
FUNC 34c90 bf 0 sqlite3TransferBindings
FUNC 34d50 5b 0 sqlite3_transfer_bindings
FUNC 34db0 e 0 sqlite3_db_handle
FUNC 34dc0 1b 0 sqlite3_stmt_readonly
FUNC 34de0 20 0 sqlite3_stmt_busy
FUNC 34e00 3d 0 sqlite3_next_stmt
FUNC 34e40 23 0 sqlite3_stmt_status
FUNC 34e70 12 0 sqlite3_sql
FUNC 34e90 53 0 sqlite3_expanded_sql
FUNC 34ef0 4a9 0 sqlite3VdbeExpandSql
FUNC 353a0 e3 0 allocateCursor
FUNC 35490 82 0 applyNumericAffinity
FUNC 35520 59 0 applyAffinity
FUNC 35580 a2 4 sqlite3_value_numeric_type
FUNC 35630 43 0 computeNumericType
FUNC 35680 36 0 out2PrereleaseWithClear
FUNC 356c0 6b2c 0 sqlite3VdbeExec
FUNC 3c1f0 146 0 blobSeekToRow
FUNC 3c340 8aa 20 sqlite3_blob_open
FUNC 3cbf0 8f 0 sqlite3_blob_close
FUNC 3cc80 14b 0 blobReadWrite
FUNC 3cdd0 20 0 sqlite3_blob_read
FUNC 3cdf0 20 0 sqlite3_blob_write
FUNC 3ce10 15 0 sqlite3_blob_bytes
FUNC 3ce30 cf c sqlite3_blob_reopen
FUNC 3cf00 54 0 vdbePmaReaderClear
FUNC 3cf60 16d 0 vdbePmaReadBlob
FUNC 3d0d0 db 0 vdbePmaReadVarint
FUNC 3d1b0 15e c vdbePmaReaderSeek
FUNC 3d310 98 0 vdbePmaReaderNext
FUNC 3d3b0 45 0 vdbeSorterCompare
FUNC 3d400 13e 18 vdbeSorterCompareText
FUNC 3d540 119 0 vdbeSorterCompareInt
FUNC 3d660 1cf 0 sqlite3VdbeSorterInit
FUNC 3d830 59 0 vdbeSorterRecordFree
FUNC 3d890 d3 0 vdbeSortSubtaskCleanup
FUNC 3d970 87 0 vdbeMergeEngineNew
FUNC 3da00 db 0 vdbeMergeEngineFree
FUNC 3dae0 98 0 vdbeIncrFree
FUNC 3db80 1ae 0 sqlite3VdbeSorterReset
FUNC 3dd30 86 8 vdbeSorterExtendFile
FUNC 3ddc0 dd 0 vdbeSorterOpenTempFile
FUNC 3dea0 7b 0 vdbeSorterMerge
FUNC 3df20 1c9 0 vdbeSorterSort
FUNC 3e0f0 7a 0 vdbePmaWriterInit
FUNC 3e170 c4 0 vdbePmaWriteBlob
FUNC 3e240 7b 0 vdbePmaWriterFinish
FUNC 3e2c0 8a 0 vdbePmaWriteVarint
FUNC 3e350 242 0 vdbeSorterListToPMA
FUNC 3e5a0 183 0 vdbeMergeEngineStep
FUNC 3e730 18 0 vdbeSorterFlushThread
FUNC 3e750 11c 0 vdbeSorterFlushPMA
FUNC 3e870 1af 0 sqlite3VdbeSorterWrite
FUNC 3ea20 248 0 vdbeIncrPopulate
FUNC 3ec70 17 0 vdbeIncrPopulateThread
FUNC 3ec90 9b 0 vdbeIncrSwap
FUNC 3ed30 92 0 vdbeMergeEngineCompare
FUNC 3edd0 c7 4 vdbeMergeEngineInit
FUNC 3eea0 ff 0 vdbePmaReaderIncrMergeInit
FUNC 3efa0 1f 0 vdbePmaReaderBgIncrInit
FUNC 3efc0 100 0 vdbeMergeEngineLevel0
FUNC 3f0c0 278 0 vdbeSorterAddToTree
FUNC 3f340 2d8 0 vdbeSorterMergeTreeBuild
FUNC 3f620 28c 0 vdbeSorterSetupMerge
FUNC 3f8b0 b8 0 sqlite3VdbeSorterRewind
FUNC 3f970 9d 0 sqlite3VdbeSorterRowkey
FUNC 3fa10 e6 0 sqlite3VdbeSorterCompare
FUNC 3fb00 107 0 memjrnlRead
FUNC 3fc10 79 0 memjrnlFreeChunks
FUNC 3fc90 19f 0 memjrnlCreateFile
FUNC 3fe30 12a 14 memjrnlWrite
FUNC 3ff60 4b 0 memjrnlTruncate
FUNC 3ffb0 c 0 memjrnlClose
FUNC 3ffc0 16 0 memjrnlFileSize
FUNC 3ffe0 66 0 sqlite3JournalOpen
FUNC 40050 82 0 walkExpr
FUNC 400e0 b 0 sqlite3WalkExpr
FUNC 400f0 36 0 sqlite3WalkExprList
FUNC 40130 9b 0 sqlite3WalkSelectExpr
FUNC 401d0 7b 0 sqlite3WalkSelectFrom
FUNC 40250 80 0 sqlite3WalkSelect
FUNC 402d0 16 0 incrAggDepth
FUNC 402f0 140 10 resolveAlias
FUNC 40430 97 0 nameInUsingClause
FUNC 404d0 da 0 sqlite3MatchSpanName
FUNC 405b0 896 10 lookupName
FUNC 40e50 a2 0 sqlite3CreateColumnExpr
FUNC 40f00 4f 0 notValid
FUNC 40f50 71 0 exprProbability
FUNC 40fd0 470 8 resolveExprStep
FUNC 41440 96 0 resolveAsName
FUNC 414e0 388 0 resolveCompoundOrderBy
FUNC 41870 a8 0 sqlite3ResolveOrderGroupBy
FUNC 41920 1ae 0 resolveOrderGroupBy
FUNC 41ad0 437 8 resolveSelectStep
FUNC 41f10 da 0 sqlite3ResolveExprNames
FUNC 41ff0 41 0 sqlite3ResolveExprListNames
FUNC 42040 3f 0 sqlite3ResolveSelectNames
FUNC 42080 af 0 sqlite3ResolveSelfReference
FUNC 42130 b3 0 sqlite3ExprAffinity
FUNC 421f0 35 0 sqlite3ExprAddCollateToken
FUNC 42230 5d 0 sqlite3ExprAddCollateString
FUNC 42290 29 0 sqlite3ExprSkipCollate
FUNC 422c0 16d 0 sqlite3ExprCollSeq
FUNC 42430 8c 0 comparisonAffinity
FUNC 424c0 45 0 sqlite3BinaryCompareCollSeq
FUNC 42510 b6 0 codeCompare
FUNC 425d0 3c 0 sqlite3ExprIsVector
FUNC 42610 25 0 sqlite3ExprVectorSize
FUNC 42640 9c 4 sqlite3ExprForVectorField
FUNC 426e0 d1 0 exprVectorRegister
FUNC 427c0 396 c codeVectorCompare
FUNC 42b60 d5 0 heightOfSelect
FUNC 42c40 a8 0 exprSetHeight
FUNC 42cf0 31 0 sqlite3ExprSetHeightAndFlags
FUNC 42d30 15 0 sqlite3SelectExprHeight
FUNC 42d50 ed 0 sqlite3ExprAlloc
FUNC 42e40 46 0 sqlite3Expr
FUNC 42e90 63 8 sqlite3ExprAttachSubtrees
FUNC 42f00 c1 c sqlite3PExpr
FUNC 42fd0 62 4 sqlite3PExprAddSelect
FUNC 43040 6d 0 exprAlwaysTrue
FUNC 430b0 6d 0 exprAlwaysFalse
FUNC 43120 bf 4 sqlite3ExprAnd
FUNC 431e0 69 0 sqlite3ExprFunction
FUNC 43250 230 0 sqlite3ExprAssignVarNumber
FUNC 43480 10e 0 sqlite3ExprDeleteNN
FUNC 43590 13 0 sqlite3ExprDelete
FUNC 435b0 5a 0 dupedExprNodeSize
FUNC 43610 3c 0 dupedExprSize
FUNC 43650 267 0 exprDup
FUNC 438c0 13f 0 withDup
FUNC 43a00 21 4 sqlite3ExprDup
FUNC 43a30 1fc 0 sqlite3ExprListDup
FUNC 43c30 2a2 0 sqlite3SrcListDup
FUNC 43ee0 f5 0 sqlite3IdListDup
FUNC 43fe0 12d 4 sqlite3SelectDup
FUNC 44110 b1 4 sqlite3ExprListAppend
FUNC 441d0 136 8 sqlite3ExprListAppendVector
FUNC 44310 19 0 sqlite3ExprListSetSortOrder
FUNC 44330 7b 0 sqlite3ExprListSetName
FUNC 443b0 b3 0 sqlite3ExprListSetSpan
FUNC 44470 24 0 sqlite3ExprListCheckLength
FUNC 444a0 165 0 exprListDeleteNN
FUNC 44610 1f 0 sqlite3ExprListFlags
FUNC 44630 e8 0 exprNodeIsConstant
FUNC 44720 e 0 selectNodeIsConstant
FUNC 44730 54 0 sqlite3ExprIsConstant
FUNC 44790 54 0 sqlite3ExprIsConstantNotJoin
FUNC 447f0 5c 0 sqlite3ExprIsInteger
FUNC 44850 a4 0 sqlite3ExprCanBeNull
FUNC 44900 b4 0 sqlite3ExprNeedsNoAffinityChange
FUNC 449c0 73 0 sqlite3IsRowid
FUNC 44a40 6f 0 isCandidateForInOpt
FUNC 44ab0 16e 4 sqlite3SetHasNullFlag
FUNC 44c20 980 c sqlite3FindInIndex
FUNC 455a0 15c 0 exprINAffinity
FUNC 45700 608 8 sqlite3CodeSubselect
FUNC 45d10 a0 0 sqlite3ExprCheckIN
FUNC 45db0 f67 8 sqlite3ExprCodeIN
FUNC 46d20 9b 8 codeReal
FUNC 46dc0 140 8 codeInteger
FUNC 46f00 109 0 sqlite3ExprCacheStore
FUNC 47010 76 0 sqlite3ExprCacheRemove
FUNC 47090 6c 0 sqlite3ExprCachePop
FUNC 47100 e8 c sqlite3ExprCodeGetColumnOfTable
FUNC 471f0 d7 0 sqlite3ExprCodeGetColumn
FUNC 472d0 3f 0 sqlite3ExprCacheClear
FUNC 47310 83 8 sqlite3ExprCodeMove
FUNC 473a0 b5 0 exprCodeVector
FUNC 47460 eff 4 sqlite3ExprCodeTarget
FUNC 48360 61 8 sqlite3ExprCodeAtInit
FUNC 483d0 145 4 sqlite3ExprCodeTemp
FUNC 48520 5b 4 sqlite3ExprCode
FUNC 48580 ca 4 sqlite3ExprCodeFactorable
FUNC 48650 d6 4 sqlite3ExprCodeAndCache
FUNC 48730 257 c sqlite3ExprCodeExprList
FUNC 48990 182 0 exprCodeBetween
FUNC 48b20 2fa 0 sqlite3ExprIfTrue
FUNC 48e20 30a 10 sqlite3ExprIfFalse
FUNC 49130 19b 0 sqlite3ExprCompare
FUNC 492d0 8d 0 sqlite3ExprListCompare
FUNC 49360 72 0 sqlite3ExprImpliesExpr
FUNC 493e0 5f 0 exprIdxCover
FUNC 49440 50 0 exprSrcCount
FUNC 49490 88 0 sqlite3FunctionUsesThisSrc
FUNC 49520 287 0 analyzeAggregate
FUNC 497b0 69 0 sqlite3ExprAnalyzeAggList
FUNC 49820 1f 0 sqlite3GetTempReg
FUNC 49840 47 0 sqlite3ReleaseTempReg
FUNC 49890 53 0 sqlite3GetTempRange
FUNC 498f0 2b 0 sqlite3ReleaseTempRange
FUNC 49920 132 0 renameTableFunc
FUNC 49a60 2cc c renameParentFunc
FUNC 49d30 161 0 renameTriggerFunc
FUNC 49ea0 c7 0 whereForeignKeys
FUNC 49f70 13d 0 whereTempTriggers
FUNC 4a0b0 1ec 4 reloadTableSchema
FUNC 4a2a0 56 0 isSystemTable
FUNC 4a300 3e8 0 sqlite3AlterRenameTable
FUNC 4a6f0 2be 0 sqlite3AlterFinishAddColumn
FUNC 4a9b0 1d7 0 sqlite3AlterBeginAddColumn
FUNC 4ab90 19c 0 openStatTable
FUNC 4ad30 46 0 stat4Destructor
FUNC 4ad80 e5 c statInit
FUNC 4ae70 121 0 statPush
FUNC 4afa0 17a c statGet
FUNC 4b120 92 c callStatGet
FUNC 4b1c0 7a9 10 analyzeOneTable
FUNC 4b970 80 0 loadAnalysis
FUNC 4b9f0 134 0 analyzeDatabase
FUNC 4bb30 d1 0 analyzeTable
FUNC 4bc10 145 0 sqlite3Analyze
FUNC 4bd60 125 0 decodeIntArray
FUNC 4be90 f6 10 analysisLoader
FUNC 4bf90 125 0 sqlite3AnalysisLoad
FUNC 4c0c0 5c7 c attachFunc
FUNC 4c690 1bc 0 detachFunc
FUNC 4c850 1d4 14 codeAttach
FUNC 4ca30 37 0 sqlite3FixInit
FUNC 4ca70 106 0 sqlite3FixSrcList
FUNC 4cb80 127 0 sqlite3FixSelect
FUNC 4ccb0 d4 0 sqlite3FixExpr
FUNC 4cd90 77 0 sqlite3FixTriggerStep
FUNC 4ce10 54 0 sqlite3_set_authorizer
FUNC 4ce70 1a 0 sqliteAuthBadReturnCode
FUNC 4ce90 cf 0 sqlite3AuthReadCol
FUNC 4cf60 dd 0 sqlite3AuthRead
FUNC 4d040 80 0 sqlite3AuthCheck
FUNC 4d0c0 d1 0 sqlite3TableLock
FUNC 4d1a0 de 0 codeTableLocks
FUNC 4d280 299 0 sqlite3FinishCoding
FUNC 4d520 15e 0 sqlite3NestedParse
FUNC 4d680 ea 0 sqlite3FindTable
FUNC 4d770 102 0 sqlite3LocateTable
FUNC 4d880 63 0 sqlite3LocateTableItem
FUNC 4d8f0 d4 0 sqlite3FindIndex
FUNC 4d9d0 109 0 freeIndex
FUNC 4dae0 ab 4 sqlite3UnlinkAndDeleteIndex
FUNC 4db90 15d 0 sqlite3CollapseDatabaseArray
FUNC 4dcf0 31 0 sqlite3ResetOneSchema
FUNC 4dd30 73 0 sqlite3ResetAllSchemasOfConnection
FUNC 4ddb0 12c 0 sqlite3DeleteColumnNames
FUNC 4dee0 16a 0 deleteTable
FUNC 4e050 24 0 sqlite3DeleteTable
FUNC 4e080 58 0 sqlite3NameFromToken
FUNC 4e0e0 5d 0 sqlite3OpenMasterTable
FUNC 4e140 97 0 sqlite3FindDbName
FUNC 4e1e0 be 0 sqlite3FindDb
FUNC 4e2a0 6d 0 sqlite3TwoPartName
FUNC 4e310 53 0 sqlite3CheckObjectName
FUNC 4e370 1a 0 sqlite3PrimaryKeyIndex
FUNC 4e390 22 0 sqlite3ColumnOfIndex
FUNC 4e3c0 435 0 sqlite3StartTable
FUNC 4e800 1ef 0 sqlite3AddColumn
FUNC 4e9f0 13c 0 sqlite3AffinityType
FUNC 4eb30 19a 0 sqlite3AddDefaultValue
FUNC 4ecd0 281 0 sqlite3AddPrimaryKey
FUNC 4ef60 7c 0 sqlite3AddCheckConstraint
FUNC 4efe0 d9 0 sqlite3AddCollateType
FUNC 4f0c0 5f 0 sqlite3LocateCollSeq
FUNC 4f120 7a 0 sqlite3ChangeCookie
FUNC 4f1a0 b2 0 identPut
FUNC 4f260 24b 0 createTableStmt
FUNC 4f4b0 a9 0 resizeIndexObject
FUNC 4f560 68 0 estimateTableWidth
FUNC 4f5d0 5c 0 estimateIndexWidth
FUNC 4f630 4af 0 convertToWithoutRowidTable
FUNC 4fae0 4a1 0 sqlite3EndTable
FUNC 4ff90 1a1 18 sqlite3CreateView
FUNC 50140 17d 0 sqlite3ViewGetColumnNames
FUNC 502c0 5a 0 sqliteViewResetAll
FUNC 50320 11d 4 destroyRootPage
FUNC 50440 89 0 destroyTable
FUNC 504d0 87 0 sqlite3ClearStatTables
FUNC 50560 24c 8 sqlite3CodeDropTable
FUNC 507b0 286 0 sqlite3DropTable
FUNC 50a40 426 0 sqlite3CreateForeignKey
FUNC 50e70 3ab 0 sqlite3RefillIndex
FUNC 51220 9c 0 sqlite3AllocateIndexObject
FUNC 512c0 b5f 24 sqlite3CreateIndex
FUNC 51e20 a4 0 sqlite3DefaultRowEst
FUNC 51ed0 1f8 0 sqlite3DropIndex
FUNC 520d0 ca c sqlite3ArrayAllocate
FUNC 521a0 75 0 sqlite3IdListAppend
FUNC 52220 105 0 sqlite3IdListDelete
FUNC 52330 9e 0 sqlite3IdListIndex
FUNC 523d0 148 0 sqlite3SrcListEnlarge
FUNC 52520 94 0 sqlite3SrcListAppend
FUNC 525c0 43 0 sqlite3SrcListAssignCursors
FUNC 52610 216 0 sqlite3SrcListDelete
FUNC 52830 c1 18 sqlite3SrcListAppendFromTerm
FUNC 52900 48 0 sqlite3SrcListIndexedBy
FUNC 52950 27 0 sqlite3SrcListFuncArgs
FUNC 52980 34 0 sqlite3SrcListShiftJoinType
FUNC 529c0 11c 0 sqlite3BeginTransaction
FUNC 52ae0 42 0 sqlite3CommitTransaction
FUNC 52b30 44 0 sqlite3RollbackTransaction
FUNC 52b80 108 0 sqlite3Savepoint
FUNC 52c90 92 0 sqlite3OpenTempDatabase
FUNC 52d30 33 0 sqlite3CodeVerifySchema
FUNC 52d70 d2 0 sqlite3CodeVerifyNamedSchema
FUNC 52e50 52 0 sqlite3BeginWriteOperation
FUNC 52eb0 63 0 sqlite3HaltConstraint
FUNC 52f20 1bf 4 sqlite3UniqueConstraint
FUNC 530e0 aa 0 sqlite3RowidConstraint
FUNC 53190 a2 0 collationMatch
FUNC 53240 c3 0 reindexTable
FUNC 53310 63 0 reindexDatabases
FUNC 53380 186 0 sqlite3Reindex
FUNC 53510 109 0 sqlite3KeyInfoOfIndex
FUNC 53620 25c c sqlite3WithAdd
FUNC 53880 da 0 sqlite3WithDelete
FUNC 53960 167 4 callCollNeeded
FUNC 53ad0 6e 0 synthCollSeq
FUNC 53b40 c9 0 sqlite3GetCollSeq
FUNC 53c10 f3 4 findCollSeqEntry
FUNC 53d10 34 0 sqlite3FindCollSeq
FUNC 53d50 7a 0 functionSearch
FUNC 53dd0 88 0 sqlite3InsertBuiltinFuncs
FUNC 53e60 24f c sqlite3FindFunction
FUNC 540b0 13f 4 sqlite3SchemaClear
FUNC 541f0 14b 0 sqlite3SchemaGet
FUNC 54340 97 0 sqlite3SrcListLookup
FUNC 543e0 81 0 sqlite3IsReadOnly
FUNC 54470 1fe 8 sqlite3MaterializeView
FUNC 54670 9a6 4 sqlite3DeleteFrom
FUNC 55020 45a 24 sqlite3GenerateRowDelete
FUNC 55480 17d 10 sqlite3GenerateRowIndexDelete
FUNC 55600 314 18 sqlite3GenerateIndexKey
FUNC 55920 c1 0 minmaxFunc
FUNC 559f0 8c 0 typeofFunc
FUNC 55a80 140 c lengthFunc
FUNC 55bc0 16a c absFunc
FUNC 55d30 246 c instrFunc
FUNC 55f80 104 0 printfFunc
FUNC 56090 3d4 c substrFunc
FUNC 56470 1f8 c roundFunc
FUNC 56670 63 0 contextMalloc
FUNC 566e0 10f c upperFunc
FUNC 567f0 105 c lowerFunc
FUNC 56900 6c c randomFunc
FUNC 56970 b2 c randomBlob
FUNC 56a30 43 c last_insert_rowid
FUNC 56a80 41 c changes
FUNC 56ad0 41 c total_changes
FUNC 56b20 38a 0 patternCompare
FUNC 56eb0 1d 0 sqlite3_strglob
FUNC 56ed0 1f 0 sqlite3_strlike
FUNC 56ef0 1f4 0 likeFunc
FUNC 570f0 39 0 nullifFunc
FUNC 57130 3d 0 versionFunc
FUNC 57170 3d 0 sourceidFunc
FUNC 571b0 51 0 errlogFunc
FUNC 57210 7a c compileoptionusedFunc
FUNC 57290 53 0 compileoptiongetFunc
FUNC 572f0 2b8 c quoteFunc
FUNC 575b0 83 c unicodeFunc
FUNC 57640 1a7 c charFunc
FUNC 577f0 17c c hexFunc
FUNC 57970 9c c zeroblobFunc
FUNC 57a10 36a c replaceFunc
FUNC 57d80 405 c trimFunc
FUNC 58190 10b 0 loadExt
FUNC 582a0 a6 c sumStep
FUNC 58350 9a 4 sumFinalize
FUNC 583f0 af 4 avgFinalize
FUNC 584a0 97 4 totalFinalize
FUNC 58540 4e 0 countStep
FUNC 58590 76 4 countFinalize
FUNC 58610 b3 0 minmaxStep
FUNC 586d0 55 0 minMaxFinalize
FUNC 58730 13d 0 groupConcatStep
FUNC 58870 80 0 groupConcatFinalize
FUNC 588f0 43 0 sqlite3RegisterPerConnectionBuiltinFunctions
FUNC 58940 c2 0 sqlite3RegisterLikeFunctions
FUNC 58a10 2d 0 sqlite3RegisterBuiltinFunctions
FUNC 58a40 312 0 sqlite3FkLocateIndex
FUNC 58d60 9c7 1c fkLookupParent
FUNC 59730 9b 0 exprTableRegister
FUNC 597d0 5af 18 fkScanChildren
FUNC 59d80 24 0 sqlite3FkReferences
FUNC 59db0 84 0 fkTriggerDelete
FUNC 59e40 1c0 0 sqlite3FkDropTable
FUNC 5a000 fe 0 fkParentIsModified
FUNC 5a100 670 10 sqlite3FkCheck
FUNC 5a770 e4 0 sqlite3FkOldmask
FUNC 5a860 e8 0 sqlite3FkRequired
FUNC 5a950 953 8 fkActionTrigger
FUNC 5b2b0 90 0 sqlite3FkActions
FUNC 5b340 c4 0 sqlite3FkDelete
FUNC 5b410 9b 0 sqlite3OpenTable
FUNC 5b4b0 dc 0 sqlite3IndexAffinityStr
FUNC 5b590 e5 0 sqlite3TableAffinity
FUNC 5b680 dd 0 readsTable
FUNC 5b760 73 0 autoIncBegin
FUNC 5b7e0 1a3 0 sqlite3AutoincrementBegin
FUNC 5b990 71 4 autoIncStep
FUNC 5ba10 179 0 autoIncrementEnd
FUNC 5bb90 1208 c sqlite3Insert
FUNC 5cda0 34 0 checkConstraintExprNode
FUNC 5cde0 151c 28 sqlite3GenerateConstraintChecks
FUNC 5e300 34e 1c sqlite3CompleteInsertion
FUNC 5e650 255 18 sqlite3OpenTableAndIndices
FUNC 5e8b0 ce 0 xferCompatibleIndex
FUNC 5e980 6fd 0 xferOptimization
FUNC 5f080 453 14 sqlite3_exec
FUNC 5f4e0 595 8 sqlite3LoadExtension
FUNC 5fa80 61 0 sqlite3_load_extension
FUNC 5faf0 7e 0 sqlite3CloseExtensions
FUNC 5fb70 ca 4 sqlite3_auto_extension
FUNC 5fc40 76 0 sqlite3_cancel_auto_extension
FUNC 5fcc0 63 0 sqlite3_reset_auto_extension
FUNC 5fd30 114 0 sqlite3AutoLoadExtensions
FUNC 5fe50 a4 0 getSafetyLevel
FUNC 5ff00 1a 0 sqlite3GetBoolean
FUNC 5ff20 33 0 getLockingMode
FUNC 5ff60 af 0 getAutoVacuum
FUNC 60010 79 0 getTempStore
FUNC 60090 4a 0 invalidateTempStorage
FUNC 600e0 64 0 changeTempStorage
FUNC 60150 44 0 setAllColumnNames
FUNC 601a0 30 0 setOneColumnName
FUNC 601d0 d1 8 returnSingleInt
FUNC 602b0 b5 4 returnSingleText
FUNC 60370 83 0 setAllPagerFlags
FUNC 60400 28c0 c sqlite3Pragma
FUNC 62cc0 e1 0 corruptSchema
FUNC 62db0 1be 0 sqlite3InitCallback
FUNC 62f70 40a 0 sqlite3InitOne
FUNC 63380 e6 0 sqlite3Init
FUNC 63470 26 0 sqlite3ReadSchema
FUNC 634a0 15b 0 schemaIsValid
FUNC 63600 28 0 sqlite3SchemaToIndex
FUNC 63630 7b 0 sqlite3ParserReset
FUNC 636b0 4f8 0 sqlite3Prepare
FUNC 63bb0 dc 14 sqlite3LockAndPrepare
FUNC 63c90 a3 0 sqlite3Reprepare
FUNC 63d40 21 0 sqlite3_prepare
FUNC 63d70 21 0 sqlite3_prepare_v2
FUNC 63da0 167 0 sqlite3Prepare16
FUNC 63f10 1f 0 sqlite3_prepare16
FUNC 63f30 1f 0 sqlite3_prepare16_v2
FUNC 63f50 df 0 clearSelect
FUNC 64030 1be 20 sqlite3SelectNew
FUNC 641f0 18 0 sqlite3SelectDelete
FUNC 64210 13 0 findRightmost
FUNC 64230 148 0 sqlite3JoinType
FUNC 64380 95 0 columnIndex
FUNC 64420 61 0 setJoinExpr
FUNC 64490 309 0 sqliteProcessJoin
FUNC 647a0 680 14 pushOntoSorter
FUNC 64e20 70 4 codeOffset
FUNC 64e90 14c c codeDistinct
FUNC 64fe0 c34 1c selectInnerLoop
FUNC 65c20 90 0 sqlite3KeyInfoAlloc
FUNC 65cb0 55 0 sqlite3KeyInfoUnref
FUNC 65d10 90 0 keyInfoFromExprList
FUNC 65da0 80 0 explainComposite
FUNC 65e20 953 c generateSortTail
FUNC 66780 191 0 columnTypeImpl
FUNC 66920 6f 0 generateColumnTypes
FUNC 66990 1d0 0 generateColumnNames
FUNC 66b60 335 0 sqlite3ColumnsFromExprList
FUNC 66ea0 1f3 4 sqlite3SelectAddColumnTypeAndCollation
FUNC 670a0 c7 0 sqlite3ResultSetOfSelect
FUNC 67170 dc 0 allocVdbe
FUNC 67250 118 0 computeLimitRegisters
FUNC 67370 42 0 multiSelectCollSeq
FUNC 673c0 178 0 multiSelectOrderByKeyInfo
FUNC 67540 772 4 generateWithRecursiveQuery
FUNC 67cc0 56 0 multiSelectValues
FUNC 67d20 8ff 4 multiSelect
FUNC 68620 85 0 sqlite3SelectWrongNumTermsError
FUNC 686b0 4a4 18 generateOutputSubroutine
FUNC 68b60 12e7 4 multiSelectOrderBy
FUNC 69e50 e5 8 substExpr
FUNC 69f40 40 0 substExprList
FUNC 69f80 1ed 0 substSelect
FUNC 6a170 5c8 c flattenSubquery
FUNC 6a740 103 8 pushDownWhereTerms
FUNC 6a850 6e 0 minMaxQuery
FUNC 6a8c0 bf 0 sqlite3IndexedByLookup
FUNC 6a980 275 8 convertCompoundSelectToSubquery
FUNC 6ac00 dc 0 searchWith
FUNC 6ace0 2a1 0 withExpand
FUNC 6af90 2b 0 selectPopWith
FUNC 6afc0 a57 8 selectExpander
FUNC 6ba20 6d 0 sqlite3SelectExpand
FUNC 6ba90 58 0 selectAddSubqueryTypeInfo
FUNC 6baf0 37 0 sqlite3SelectAddTypeInfo
FUNC 6bb30 56 0 sqlite3SelectPrep
FUNC 6bb90 f2 0 resetAccumulator
FUNC 6bc90 cd 0 finalizeAggFunctions
FUNC 6bd60 4a4 0 updateAccumulator
FUNC 6c210 2434 4 sqlite3Select
FUNC 6e650 17b 10 sqlite3_get_table_cb
FUNC 6e7d0 1c8 18 sqlite3_get_table
FUNC 6e9a0 db 0 sqlite3_free_table
FUNC 6ea80 aa 0 sqlite3DeleteTriggerStep
FUNC 6eb30 6a 0 sqlite3TriggerList
FUNC 6eba0 412 20 sqlite3BeginTrigger
FUNC 6efc0 23d 0 sqlite3FinishTrigger
FUNC 6f200 60 0 sqlite3TriggerSelectStep
FUNC 6f260 aa c sqlite3TriggerInsertStep
FUNC 6f310 d2 c sqlite3TriggerUpdateStep
FUNC 6f3f0 af 4 sqlite3TriggerDeleteStep
FUNC 6f4a0 124 0 sqlite3DeleteTrigger
FUNC 6f5d0 16c 0 sqlite3DropTrigger
FUNC 6f740 123 0 sqlite3DropTriggerPtr
FUNC 6f870 98 4 sqlite3UnlinkAndDeleteTrigger
FUNC 6f910 b0 0 sqlite3TriggersExist
FUNC 6f9c0 15d 0 targetSrcList
FUNC 6fb20 1f3 4 codeTriggerProgram
FUNC 6fd20 6a 0 transferParseError
FUNC 6fd90 337 8 codeRowTrigger
FUNC 700d0 41 8 getRowTrigger
FUNC 70120 b6 10 sqlite3CodeRowTriggerDirect
FUNC 701e0 85 1c sqlite3CodeRowTrigger
FUNC 70270 cd 0 sqlite3TriggerColmask
FUNC 70340 be 8 sqlite3ColumnDefault
FUNC 70400 1aee c sqlite3Update
FUNC 71ef0 6dc 18 updateVirtualTable
FUNC 725d0 ab 4 execSql
FUNC 72680 8d 0 execSqlF
FUNC 72710 8e 0 sqlite3Vacuum
FUNC 727a0 349 0 sqlite3RunVacuum
FUNC 72af0 165 c createModule
FUNC 72c60 1b 0 sqlite3_create_module
FUNC 72c80 1d 0 sqlite3_create_module_v2
FUNC 72ca0 69 0 sqlite3VtabUnlock
FUNC 72d10 47 0 vtabDisconnectAll
FUNC 72d60 86 0 sqlite3VtabDisconnect
FUNC 72df0 9e 0 sqlite3VtabUnlockList
FUNC 72e90 df 0 sqlite3VtabClear
FUNC 72f70 d6 0 addModuleArgument
FUNC 73050 18d 0 sqlite3VtabBeginParse
FUNC 731e0 6b 0 addArgumentToVtab
FUNC 73250 16b 0 sqlite3VtabFinishParse
FUNC 733c0 4e9 0 vtabCallConstructor
FUNC 738b0 c1 0 sqlite3VtabCallConnect
FUNC 73980 98 0 growVTrans
FUNC 73a20 ed 0 sqlite3VtabCallCreate
FUNC 73b10 244 8 sqlite3_declare_vtab
FUNC 73d60 74 0 sqlite3VtabCallDestroy
FUNC 73de0 140 0 callFinaliser
FUNC 73f20 68 0 sqlite3VtabSync
FUNC 73f90 bb 0 sqlite3VtabBegin
FUNC 74050 89 0 sqlite3VtabSavepoint
FUNC 740e0 147 0 sqlite3VtabOverloadFunction
FUNC 74230 ad 0 sqlite3VtabMakeWritable
FUNC 742e0 13f 0 sqlite3VtabEponymousTableInit
FUNC 74420 34 0 sqlite3VtabEponymousTableClear
FUNC 74460 10 0 sqlite3_vtab_on_conflict
FUNC 74470 8a 0 sqlite3_vtab_config
FUNC 74500 28a 0 explainAppendTerm
FUNC 74790 199 0 explainIndexRange
FUNC 74930 2ae 0 sqlite3WhereExplainOneScan
FUNC 74be0 71 0 disableTerm
FUNC 74c60 60 0 codeApplyAffinity
FUNC 74cc0 ce 0 updateRangeAffinityStr
FUNC 74d90 68b 10 codeEqualityTerm
FUNC 75420 423 c codeAllEqualityTerms
FUNC 75850 56 0 whereLikeOptimizationStringFixup
FUNC 758b0 176 8 codeDeferredSeek
FUNC 75a30 a7 0 codeExprOrVector
FUNC 75ae0 1d4b 8 sqlite3WhereCodeOneLoopStart
FUNC 77830 171 4 whereClauseInsert
FUNC 779b0 6b 0 exprCommute
FUNC 77a20 2e 0 operatorMask
FUNC 77a50 26c 0 isLikeOrGlob
FUNC 77cc0 70 0 isMatchOfColumn
FUNC 77d30 30 0 markTermAsChild
FUNC 77d60 108 8 whereCombineDisjuncts
FUNC 77e70 6f5 4 exprAnalyzeOrTerm
FUNC 78570 c2 0 termIsEquivalence
FUNC 78640 266 0 exprSelectUsage
FUNC 788b0 10c 0 exprMightBeIndexed
FUNC 789c0 ae2 4 exprAnalyze
FUNC 794b0 65 0 sqlite3WhereSplit
FUNC 79520 111 0 sqlite3WhereClauseClear
FUNC 79640 a7 0 sqlite3WhereExprUsage
FUNC 796f0 6b 0 sqlite3WhereExprListUsage
FUNC 79760 2f 0 sqlite3WhereExprAnalyze
FUNC 79790 15a 4 sqlite3WhereTabFuncArgs
FUNC 798f0 116 0 whereOrInsert
FUNC 79a10 3b 0 sqlite3WhereGetMask
FUNC 79a50 2fe 0 whereScanNext
FUNC 79d50 a2 0 whereScanInit
FUNC 79e00 92 0 sqlite3WhereFindTerm
FUNC 79ea0 ce 0 findIndexCol
FUNC 79f70 111 0 isDistinctRedundant
FUNC 7a090 9e 0 translateColumnToCopy
FUNC 7a130 ca5 10 constructAutomaticIndex
FUNC 7adf0 235 0 allocateIndexInfo
FUNC 7b030 bc 0 vtabBestIndex
FUNC 7b0f0 97 0 whereRangeScanEst
FUNC 7b190 ca 0 whereLoopClear
FUNC 7b260 6d 0 whereLoopResize
FUNC 7b2d0 e6 0 whereLoopXfer
FUNC 7b3c0 147 0 whereInfoFree
FUNC 7b510 9b 0 whereLoopCheaperProperSubset
FUNC 7b5b0 6c 0 whereLoopAdjustCost
FUNC 7b620 d3 0 whereLoopFindLesser
FUNC 7b700 168 0 whereLoopInsert
FUNC 7b870 17a 0 whereLoopOutputAdjust
FUNC 7b9f0 1d9 0 whereRangeVectorLen
FUNC 7bbd0 689 0 whereLoopAddBtreeIndex
FUNC 7c260 12e 0 indexMightHelpWithOrderBy
FUNC 7c390 6c 0 columnsInIndex
FUNC 7c400 e6 0 whereUsablePartialIndex
FUNC 7c4f0 5df 0 whereLoopAddBtree
FUNC 7cad0 40c 0 whereLoopAddVirtualOne
FUNC 7cee0 3e8 0 whereLoopAddVirtual
FUNC 7d2d0 501 0 whereLoopAddOr
FUNC 7d7e0 255 0 whereLoopAddAll
FUNC 7da40 879 0 wherePathSatisfiesOrderBy
FUNC 7e2c0 8ce 0 wherePathSolver
FUNC 7eb90 1b5 0 whereShortCut
FUNC 7ed50 ab5 14 sqlite3WhereBegin
FUNC 7f810 819 0 sqlite3WhereEnd
FUNC 80030 4c 0 parserDoubleLinkSelect
FUNC 80080 9c 0 spanExpr
FUNC 80120 25 0 spanBinaryExpr
FUNC 80150 85 4 exprNot
FUNC 801e0 a1 8 spanUnaryPostfix
FUNC 80290 37 8 binaryToUnaryIfNull
FUNC 802d0 af c spanUnaryPrefix
FUNC 80380 138 c parserAddExprIdListTerm
FUNC 804c0 13c 4 yy_destructor
FUNC 80600 39 0 sqlite3ParserFree
FUNC 80640 7c 0 yy_find_shift_action
FUNC 806c0 43 0 yyStackOverflow
FUNC 80710 2374 0 yy_reduce
FUNC 82a90 e1 0 sqlite3Parser
FUNC 82b80 b4 0 keywordCode
FUNC 82c40 628 0 sqlite3GetToken
FUNC 83270 47e 4 sqlite3RunParser
FUNC 836f0 2c2 0 sqlite3_complete
FUNC 839c0 b7 4 sqlite3_complete16
FUNC 83a80 6 0 sqlite3_libversion
FUNC 83a90 6 0 sqlite3_sourceid
FUNC 83aa0 6 0 sqlite3_libversion_number
FUNC 83ab0 6 0 sqlite3_threadsafe
FUNC 83ac0 240 0 sqlite3_initialize
FUNC 83d00 36c 4 sqlite3_config
FUNC 84070 142 8 setupLookaside
FUNC 841c0 8 0 sqlite3_db_mutex
FUNC 841d0 a0 0 sqlite3_db_release_memory
FUNC 84270 bf 0 sqlite3_db_cacheflush
FUNC 84330 c7 0 sqlite3_db_config
FUNC 84400 c9 0 binCollFunc
FUNC 844d0 2d 0 nocaseCollatingFunc
FUNC 84500 b 0 sqlite3_last_insert_rowid
FUNC 84510 8 0 sqlite3_changes
FUNC 84520 8 0 sqlite3_total_changes
FUNC 84530 85 0 sqlite3CloseSavepoints
FUNC 845c0 66 0 functionDestroy
FUNC 84630 a0 0 disconnectAllVtab
FUNC 846d0 3f 0 connectionIsBusy
FUNC 84710 ef 0 sqlite3Close
FUNC 84800 b 0 sqlite3_close
FUNC 84810 e 0 sqlite3_close_v2
FUNC 84820 476 0 sqlite3LeaveMutexAndCloseZombie
FUNC 84ca0 14b 0 sqlite3RollbackAll
FUNC 84df0 27 0 sqlite3ErrStr
FUNC 84e20 60 0 sqliteDefaultBusyCallback
FUNC 84e80 53 0 sqlite3_busy_handler
FUNC 84ee0 69 0 sqlite3_progress_handler
FUNC 84f50 ab 0 sqlite3_busy_timeout
FUNC 85000 f 0 sqlite3_interrupt
FUNC 85010 1b8 1c sqlite3CreateFunc
FUNC 851d0 74 20 sqlite3_create_function
FUNC 85250 d9 24 sqlite3_create_function_v2
FUNC 85330 ca 0 sqlite3_create_function16
FUNC 85400 84 0 sqlite3_overload_function
FUNC 85490 52 0 sqlite3_trace
FUNC 854f0 54 0 sqlite3_trace_v2
FUNC 85550 47 0 sqlite3_profile
FUNC 855a0 47 0 sqlite3_commit_hook
FUNC 855f0 47 0 sqlite3_update_hook
FUNC 85640 47 0 sqlite3_rollback_hook
FUNC 85690 3b 0 sqlite3WalDefaultHook
FUNC 856d0 69 0 sqlite3_wal_autocheckpoint
FUNC 85740 47 0 sqlite3_wal_hook
FUNC 85790 f2 0 sqlite3_wal_checkpoint_v2
FUNC 85890 19 0 sqlite3_wal_checkpoint
FUNC 858b0 83 0 sqlite3Checkpoint
FUNC 85940 fb 0 sqlite3_errmsg
FUNC 85a40 f4 0 sqlite3_errmsg16
FUNC 85b40 6b 0 sqlite3_errcode
FUNC 85bb0 68 0 sqlite3_extended_errcode
FUNC 85c20 f 0 sqlite3_system_errno
FUNC 85c30 2a 0 sqlite3_errstr
FUNC 85c60 18e 0 createCollation
FUNC 85df0 31 0 sqlite3_limit
FUNC 85e30 65a 10 sqlite3ParseUri
FUNC 86490 501 8 openDatabase
FUNC 869a0 15 0 sqlite3_open
FUNC 869c0 19 0 sqlite3_open_v2
FUNC 869e0 fe 8 sqlite3_open16
FUNC 86ae0 67 0 sqlite3_create_collation
FUNC 86b50 69 0 sqlite3_create_collation_v2
FUNC 86bc0 c3 0 sqlite3_create_collation16
FUNC 86c90 49 0 sqlite3_collation_needed
FUNC 86ce0 49 0 sqlite3_collation_needed16
FUNC 86d30 9 0 sqlite3_get_autocommit
FUNC 86d40 22 0 sqlite3CorruptError
FUNC 86d70 22 0 sqlite3CantopenError
FUNC 86da0 353 0 sqlite3_table_column_metadata
FUNC 87100 37 0 sqlite3_sleep
FUNC 87140 3e 0 sqlite3_extended_result_codes
FUNC 87180 e4 0 sqlite3_file_control
FUNC 87270 2d4 0 sqlite3_test_control
FUNC 87550 b9 0 sqlite3_uri_parameter
FUNC 87610 37 0 sqlite3_uri_boolean
FUNC 87650 3e 10 sqlite3_uri_int64
FUNC 87690 a7 0 sqlite3DbNameToBtree
FUNC 87740 2c 0 sqlite3_db_filename
FUNC 87770 20 0 sqlite3_db_readonly
FUNC 87790 119 0 sqlite3Fts3GetVarint
FUNC 878b0 79 0 sqlite3Fts3GetVarint32
FUNC 87930 20 0 sqlite3Fts3VarintLen
FUNC 87950 82 0 sqlite3Fts3Dequote
FUNC 879e0 27a 0 fts3DisconnectMethod
FUNC 87c60 21 0 sqlite3Fts3ErrMsg
FUNC 87c90 49 0 fts3DbExec
FUNC 87ce0 9c 0 fts3DestroyMethod
FUNC 87d80 16f 0 fts3DeclareVtab
FUNC 87ef0 19b 0 fts3CreateTables
FUNC 88090 bd 0 fts3DatabasePageSize
FUNC 88150 67 0 fts3Appendf
FUNC 881c0 74 0 fts3QuoteId
FUNC 88240 1a9 0 fts3ReadExprList
FUNC 883f0 f4 0 fts3WriteExprList
FUNC 884f0 121 4 fts3PrefixParameter
FUNC 88620 1a7 14 fts3ContentColumns
FUNC 887d0 1030 14 fts3InitVtab
FUNC 89800 23 0 fts3ConnectMethod
FUNC 89830 26 0 fts3CreateMethod
FUNC 89860 215 0 fts3BestIndexMethod
FUNC 89a80 52 8 fts3OpenMethod
FUNC 89ae0 53 0 fts3CloseMethod
FUNC 89b40 62 0 fts3CursorSeekStmt
FUNC 89bb0 c7 0 fts3CursorSeek
FUNC 89c80 283 10 fts3ScanInteriorNode
FUNC 89f10 13c 0 fts3SelectLeaf
FUNC 8a050 51 0 fts3PoslistCopy
FUNC 8a0b0 3da 0 fts3PoslistMerge
FUNC 8a490 43b 0 fts3PoslistPhraseMerge
FUNC 8a8d0 b8 0 fts3PoslistNearMerge
FUNC 8a990 541 14 fts3DoclistOrMerge
FUNC 8aee0 3b7 10 fts3DoclistPhraseMerge
FUNC 8b2a0 14e 0 sqlite3Fts3FirstFilter
FUNC 8b3f0 9a 0 fts3TermSelectFinishMerge
FUNC 8b490 115 8 fts3TermSelectMerge
FUNC 8b5b0 a7 0 fts3SegReaderCursorAppend
FUNC 8b660 3ae 1c fts3SegReaderCursor
FUNC 8ba10 208 c fts3TermSegReaderCursor
FUNC 8bc20 1a8 0 fts3TermSelect
FUNC 8bdd0 59 0 fts3NextMethod
FUNC 8be30 339 14 fts3FilterMethod
FUNC 8c170 9 0 fts3EofMethod
FUNC 8c180 16 0 fts3RowidMethod
FUNC 8c1a0 157 c fts3ColumnMethod
FUNC 8c300 19 0 fts3UpdateMethod
FUNC 8c320 7c 0 fts3SyncMethod
FUNC 8c3a0 ab 0 fts3SetHasStat
FUNC 8c450 10 0 fts3BeginMethod
FUNC 8c460 c 0 fts3RollbackToMethod
FUNC 8c470 5f 0 fts3ReversePoslist
FUNC 8c4d0 a7 0 fts3FunctionArg
FUNC 8c580 16c c fts3SnippetFunc
FUNC 8c6f0 47 c fts3OffsetsFunc
FUNC 8c740 85 0 fts3OptimizeFunc
FUNC 8c7d0 94 0 fts3MatchinfoFunc
FUNC 8c870 c6 0 fts3FindFunctionMethod
FUNC 8c940 c7 0 fts3RenameMethod
FUNC 8ca10 1a 0 fts3SavepointMethod
FUNC 8ca30 e 0 hashDestroy
FUNC 8ca40 1d9 0 sqlite3Fts3Init
FUNC 8cc20 bc 0 fts3EvalAllocateReaders
FUNC 8cce0 c2 0 fts3EvalPhraseMergeToken
FUNC 8cdb0 6f 0 fts3EvalPhraseLoad
FUNC 8ce20 236 0 fts3EvalDeferredPhrase
FUNC 8d060 f7 0 fts3EvalPhraseStart
FUNC 8d160 171 0 sqlite3Fts3DoclistPrev
FUNC 8d2e0 ad 0 sqlite3Fts3DoclistNext
FUNC 8d390 bc 0 fts3EvalDlPhraseNext
FUNC 8d450 545 4 fts3EvalIncrPhraseNext
FUNC 8d9a0 6a 0 fts3EvalPhraseNext
FUNC 8da10 a4 0 fts3EvalStartReaders
FUNC 8dac0 dd 0 fts3EvalTokenCosts
FUNC 8dba0 108 0 fts3EvalAverageDocsize
FUNC 8dcb0 263 8 fts3EvalSelectDeferred
FUNC 8df20 16b 0 fts3EvalStart
FUNC 8e090 2b 0 fts3EvalInvalidatePoslist
FUNC 8e0c0 45c 4 fts3EvalNextRow
FUNC 8e520 273 0 fts3EvalNearTest
FUNC 8e7a0 1b0 0 fts3EvalTestExpr
FUNC 8e950 9c 0 sqlite3Fts3EvalTestDeferred
FUNC 8e9f0 ad 0 fts3EvalNext
FUNC 8eaa0 ef 0 fts3EvalRestart
FUNC 8eb90 d6 0 fts3EvalUpdateCounts
FUNC 8ec70 1e4 0 fts3EvalGatherStats
FUNC 8ee60 86 0 sqlite3Fts3EvalPhraseStats
FUNC 8eef0 47d 8 sqlite3Fts3EvalPhrasePoslist
FUNC 8f370 7b 0 sqlite3Fts3EvalPhraseCleanup
FUNC 8f3f0 172 18 fts3auxConnectMethod
FUNC 8f570 ed 0 fts3auxDisconnectMethod
FUNC 8f660 164 0 fts3auxBestIndexMethod
FUNC 8f7d0 45 8 fts3auxOpenMethod
FUNC 8f820 5a 0 fts3auxCloseMethod
FUNC 8f880 2cf 4 fts3auxNextMethod
FUNC 8fb50 27b 0 fts3auxFilterMethod
FUNC 8fdd0 108 c fts3auxColumnMethod
FUNC 8fee0 16 0 fts3auxRowidMethod
FUNC 8ff00 8b 0 sqlite3Fts3OpenTokenizer
FUNC 8ff90 25a 10 getNextToken
FUNC 901f0 3d4 8 getNextString
FUNC 905d0 2bd c getNextNode
FUNC 90890 16 0 opPrecedence
FUNC 908b0 6c 0 insertBinaryOperator
FUNC 90920 2d8 c fts3ExprParse
FUNC 90c00 37 0 fts3ExprCheckDepth
FUNC 90c40 407 0 fts3ExprBalance
FUNC 91050 12c 0 sqlite3Fts3ExprParse
FUNC 91180 89 0 sqlite3Fts3ExprFree
FUNC 91210 46 0 fts3HashMalloc
FUNC 91260 62 0 sqlite3Fts3HashClear
FUNC 912d0 43 0 fts3StrHash
FUNC 91320 22 0 fts3StrCompare
FUNC 91350 2e 0 fts3BinHash
FUNC 91380 6e 0 fts3BinCompare
FUNC 913f0 61 0 fts3HashInsertElement
FUNC 91460 108 0 fts3Rehash
FUNC 91570 63 0 fts3FindElementByHash
FUNC 915e0 79 0 fts3RemoveElementByHash
FUNC 91660 4d 0 sqlite3Fts3HashFind
FUNC 916b0 153 8 sqlite3Fts3HashInsert
FUNC 91810 38 c porterCreate
FUNC 91850 f 0 porterDestroy
FUNC 91860 83 10 simpleOpen
FUNC 918f0 1a 0 unicodeClose
FUNC 91910 4f 0 isConsonant
FUNC 91960 26 0 isVowel
FUNC 91990 8c 0 m_gt_0
FUNC 91a20 10d 0 m_eq_1
FUNC 91b30 10c 0 m_gt_1
FUNC 91c40 51 0 hasVowel
FUNC 91ca0 60 0 doubleConsonant
FUNC 91d00 82 0 star_oh
FUNC 91d90 60 0 stem
FUNC 91df0 98 0 copy_stemmer
FUNC 91e90 95a 0 porter_stemmer
FUNC 927f0 11c 18 porterNext
FUNC 92910 1f8 0 fts3TokenizerFunc
FUNC 92b10 111 0 sqlite3Fts3NextToken
FUNC 92c30 21b 8 sqlite3Fts3InitTokenizer
FUNC 92e50 d9 0 sqlite3Fts3InitHashTable
FUNC 92f30 fc c simpleCreate
FUNC 93030 13f 18 simpleNext
FUNC 93170 80 0 fts3tokQueryTokenizer
FUNC 931f0 f1 4 fts3tokDequoteArray
FUNC 932f0 11f 18 fts3tokConnectMethod
FUNC 93410 1d 0 fts3tokDisconnectMethod
FUNC 93430 61 0 fts3tokBestIndexMethod
FUNC 934a0 43 8 fts3tokOpenMethod
FUNC 934f0 5d 0 fts3tokResetCursor
FUNC 93550 67 0 fts3tokCloseMethod
FUNC 935c0 47 0 fts3tokNextMethod
FUNC 93610 1b6 14 fts3tokFilterMethod
FUNC 937d0 d 0 fts3tokEofMethod
FUNC 937e0 b0 c fts3tokColumnMethod
FUNC 93890 14 0 fts3tokRowidMethod
FUNC 938b0 29b 0 fts3SqlStmt
FUNC 93b50 93 0 sqlite3Fts3SelectDoctotal
FUNC 93bf0 47 0 fts3SqlExec
FUNC 93c40 68 0 fts3Writelock
FUNC 93cb0 132 0 sqlite3Fts3AllSegdirs
FUNC 93df0 ef 8 fts3PendingListAppendVarint
FUNC 93ee0 144 0 fts3PendingListAppend
FUNC 94030 f4 0 fts3PendingTermsAddOne
FUNC 94130 16d 0 fts3PendingTermsAdd
FUNC 942a0 83 0 fts3PendingTermsDocid
FUNC 94330 72 0 sqlite3Fts3PendingTermsClear
FUNC 943b0 e9 0 fts3InsertTerms
FUNC 944a0 12c 4 fts3InsertData
FUNC 945d0 123 0 fts3DeleteAll
FUNC 94700 14d 0 fts3DeleteTerms
FUNC 94850 c3 0 fts3AllocateSegdirIdx
FUNC 94920 15e 10 sqlite3Fts3ReadBlock
FUNC 94a80 9d 0 fts3SegReaderRequire
FUNC 94b20 260 0 fts3SegReaderNext
FUNC 94d80 1ba 0 fts3SegReaderNextDocid
FUNC 94f40 19f 4 sqlite3Fts3MsrOvfl
FUNC 950e0 105 24 sqlite3Fts3SegReaderNew
FUNC 951f0 7f 0 fts3CompareElemByTerm
FUNC 95270 2cd 10 sqlite3Fts3SegReaderPending
FUNC 95540 102 0 fts3SegReaderCmp
FUNC 95650 54 0 fts3SegReaderDoclistCmp
FUNC 956b0 54 0 fts3SegReaderDoclistCmpRev
FUNC 95710 9b 0 fts3SegReaderTermCmp
FUNC 957b0 62 0 fts3SegReaderSort
FUNC 95820 60 0 fts3WriteSegment
FUNC 95880 4f 0 sqlite3Fts3MaxLevel
FUNC 958d0 ee 30 fts3WriteSegdir
FUNC 959c0 30e c fts3NodeAddTerm
FUNC 95cd0 75 0 fts3TreeFinishNode
FUNC 95d50 174 0 fts3NodeWrite
FUNC 95ed0 145 0 fts3NodeFree
FUNC 96020 3d4 18 fts3SegWriterAdd
FUNC 96400 139 0 fts3SegWriterFlush
FUNC 96540 6b 0 fts3IsEmpty
FUNC 965b0 b5 0 fts3SegmentMaxLevel
FUNC 96670 9f 0 fts3SegmentIsMaxLevel
FUNC 96710 26c 10 fts3DeleteSegdir
FUNC 96980 138 0 fts3ColumnFilter
FUNC 96ac0 1b0 c sqlite3Fts3MsrIncrNext
FUNC 96c70 10e 0 fts3SegReaderStart
FUNC 96d80 11a 0 sqlite3Fts3MsrIncrStart
FUNC 96ea0 54 0 sqlite3Fts3MsrIncrRestart
FUNC 96f00 6b1 0 sqlite3Fts3SegReaderStep
FUNC 975c0 12e 0 sqlite3Fts3SegReaderFinish
FUNC 976f0 10f 0 fts3ReadEndBlockField
FUNC 97800 230 10 fts3PromoteSegments
FUNC 97a30 2b6 8 fts3SegmentMerge
FUNC 97cf0 ef 0 sqlite3Fts3PendingTermsFlush
FUNC 97de0 66 0 fts3EncodeIntArray
FUNC 97e50 46 0 fts3DecodeIntArray
FUNC 97ea0 f1 4 fts3InsertDocsize
FUNC 97fa0 24c c fts3UpdateDocTotals
FUNC 981f0 191 0 fts3DoOptimize
FUNC 98390 2cf 0 fts3DoRebuild
FUNC 98660 13d c fts3IncrmergeCsr
FUNC 987a0 5b 4 blobGrowBuffer
FUNC 98800 141 0 nodeReaderNext
FUNC 98950 3bb 8 fts3IncrmergePush
FUNC 98d10 18d 10 fts3AppendToNode
FUNC 98ea0 219 4 fts3IncrmergeAppend
FUNC 990c0 447 4 fts3IncrmergeRelease
FUNC 99510 5c8 14 fts3IncrmergeLoad
FUNC 99ae0 19c 0 fts3IncrmergeWriter
FUNC 99c80 274 8 fts3RepackSegdirLevel
FUNC 99f00 2d8 10 fts3TruncateNode
FUNC 9a1e0 393 10 fts3TruncateSegment
FUNC 9a580 1a7 c fts3IncrmergeChomp
FUNC 9a730 69 0 fts3IncrmergeHintStore
FUNC 9a7a0 b9 0 fts3IncrmergeHintLoad
FUNC 9a860 d9 c fts3IncrmergeHintPush
FUNC 9a940 67a 4 sqlite3Fts3Incrmerge
FUNC 9afc0 d9 0 fts3DoIncrmerge
FUNC 9b0a0 d2 0 fts3DoAutoincrmerge
FUNC 9b180 af 0 fts3ChecksumEntry
FUNC 9b230 201 0 fts3ChecksumIndex
FUNC 9b440 464 0 fts3IntegrityCheck
FUNC 9b8b0 171 0 fts3SpecialInsert
FUNC 9ba30 84 0 sqlite3Fts3FreeDeferredTokens
FUNC 9bac0 249 0 sqlite3Fts3CacheDeferredDoclists
FUNC 9bd10 101 0 fts3DeleteByRowid
FUNC 9be20 344 8 sqlite3Fts3UpdateMethod
FUNC 9c170 a4 0 sqlite3Fts3Optimize
FUNC 9c220 9b 0 fts3MIBufferNew
FUNC 9c2c0 35 0 fts3MIBufferFree
FUNC 9c300 b0 0 fts3MIBufferAlloc
FUNC 9c3b0 53 0 fts3ExprIterate2
FUNC 9c410 5a 0 fts3ExprIterate
FUNC 9c470 17 0 fts3ExprLoadDoclistsCb
FUNC 9c490 14 0 fts3ExprPhraseCountCb
FUNC 9c4b0 75 0 fts3ExprPhraseCount
FUNC 9c530 79 0 fts3SnippetAdvance
FUNC 9c5b0 df 0 fts3SnippetNextCandidate
FUNC 9c690 1ec 0 fts3SnippetDetails
FUNC 9c880 75 0 fts3SnippetFindPositions
FUNC 9c900 205 18 fts3BestSnippet
FUNC 9cb10 a4 4 fts3StringAppend
FUNC 9cbc0 1f2 0 fts3SnippetShift
FUNC 9cdc0 4d3 1c fts3SnippetText
FUNC 9d2a0 166 0 fts3ExprLHits
FUNC 9d410 45 0 fts3ExprLHitGather
FUNC 9d460 25 0 fts3ExprGlobalHitsCb
FUNC 9d490 a2 0 fts3ExprLocalHitsCb
FUNC 9d540 14 0 fts3MatchinfoLcsCb
FUNC 9d560 2b5 0 fts3MatchinfoLcs
FUNC 9d820 641 0 fts3MatchinfoValues
FUNC 9de70 3c5 4 fts3GetMatchinfo
FUNC 9e240 33a 0 sqlite3Fts3Snippet
FUNC 9e580 a0 0 fts3ExprTermOffsetInit
FUNC 9e620 617 0 sqlite3Fts3Offsets
FUNC 9ec40 76 0 sqlite3Fts3Matchinfo
FUNC 9ecc0 1e 0 unicodeDestroy
FUNC 9ece0 23a 8 unicodeAddExceptions
FUNC 9ef20 1eb c unicodeCreate
FUNC 9f110 88 10 unicodeOpen
FUNC 9f1a0 382 18 unicodeNext
FUNC 9f530 88 0 sqlite3FtsUnicodeIsalnum
FUNC 9f5c0 2d9 0 remove_diacritic
FUNC 9f8a0 c9 0 sqlite3FtsUnicodeFold
FUNC 9f970 7d 0 readInt64
FUNC 9f9f0 48 0 nodeHashDelete
FUNC 9fa40 75 0 nodeNew
FUNC 9fac0 232 c nodeAcquire
FUNC 9fd00 df 0 nodeOverwriteCell
FUNC 9fde0 62 0 nodeDeleteCell
FUNC 9fe50 c2 0 nodeWrite
FUNC 9ff20 6b 0 nodeRelease
FUNC 9ff90 78 0 nodeGetCell
FUNC a0010 23 0 rtreeCreate
FUNC a0040 23 0 rtreeConnect
FUNC a0070 77 0 rtreeRelease
FUNC a00f0 c 0 rtreeDisconnect
FUNC a0100 57 0 rtreeDestroy
FUNC a0160 69 8 rtreeOpen
FUNC a01d0 112 0 freeCursorConstraints
FUNC a02f0 f9 4 rtreeClose
FUNC a03f0 9 0 rtreeEof
FUNC a0400 18f 0 rtreeCallbackConstraint
FUNC a0590 d5 0 rtreeNonleafConstraint
FUNC a0670 e8 0 rtreeLeafConstraint
FUNC a0760 52 0 nodeRowidIndex
FUNC a07c0 28 0 nodeParentIndex
FUNC a07f0 17 0 rtreeSearchPointFirst
FUNC a0810 164 0 rtreeEnqueue
FUNC a0980 e2 0 rtreeSearchPointNew
FUNC a0a70 244 0 rtreeSearchPointPop
FUNC a0cc0 27f 0 rtreeStepToLeaf
FUNC a0f40 12 0 rtreeNext
FUNC a0f60 aa 8 rtreeRowid
FUNC a1010 135 c rtreeColumn
FUNC a1150 cc c findLeafNode
FUNC a1220 136 0 deserializeGeometry
FUNC a1360 2ec 14 rtreeFilter
FUNC a1650 22b 8 rtreeBestIndex
FUNC a1880 b0 0 cellUnion
FUNC a1930 f7 0 cellGrowth
FUNC a1a30 112 0 cellOverlap
FUNC a1b50 205 8 ChooseLeaf
FUNC a1d60 148 0 AdjustTree
FUNC a1eb0 d8 14 rowidWrite
FUNC a1f90 d8 14 parentWrite
FUNC a2070 d7 0 SortByDistance
FUNC a2150 189 0 SortByDimension
FUNC a22e0 64f 14 splitNodeStartree
FUNC a2930 95 0 updateMapping
FUNC a29d0 54e 8 SplitNode
FUNC a2f20 11a 0 fixLeafParent
FUNC a3040 14f 4 removeNode
FUNC a3190 f4 0 fixBoundingBox
FUNC a3290 80 0 deleteCell
FUNC a3310 509 8 Reinsert
FUNC a3820 15c 8 rtreeInsertCell
FUNC a3980 115 0 reinsertNodeContent
FUNC a3aa0 7b 0 newRowid
FUNC a3b20 28b 8 rtreeDeleteRowid
FUNC a3db0 d1 0 rtreeConstraintError
FUNC a3e90 4b1 10 rtreeUpdate
FUNC a4350 53 0 rtreeRename
FUNC a43b0 145 0 rtreeQueryStat1
FUNC a4500 1a6 c rtreeSqlInit
FUNC a46b0 5e 0 getIntFromStmt
FUNC a4710 ba 0 getNodeSize
FUNC a47d0 2d0 14 rtreeInit
FUNC a4aa0 2ba c rtreenode
FUNC a4d60 cd c rtreedepth
FUNC a4e30 115 0 sqlite3RtreeInit
FUNC a4f50 2b 0 jsonInit
FUNC a4f80 4a 0 jsonOom
FUNC a4fd0 c8 0 jsonGrow
FUNC a50a0 4d 0 jsonAppendRaw
FUNC a50f0 a6 c jsonPrintf
FUNC a51a0 3a 0 jsonAppendChar
FUNC a51e0 1b3 4 jsonAppendString
FUNC a53a0 154 0 jsonAppendValue
FUNC a5500 a2 0 jsonResult
FUNC a55b0 3b8 0 jsonRenderNode
FUNC a5970 85 0 jsonReturnJson
FUNC a5a00 388 0 jsonReturn
FUNC a5d90 7f 8 jsonParseAddNodeExpand
FUNC a5e10 4f 8 jsonParseAddNode
FUNC a5e60 4b3 0 jsonParseValue
FUNC a6320 d3 0 jsonParse
FUNC a6400 af 0 jsonParseFillInParentage
FUNC a64b0 5d 0 jsonParseFindParents
FUNC a6510 3df c jsonLookupStep
FUNC a68f0 101 8 jsonLookupAppend
FUNC a6a00 91 0 jsonLookup
FUNC a6aa0 83 c jsonQuoteFunc
FUNC a6b30 14f c jsonArrayFunc
FUNC a6c80 175 c jsonArrayLengthFunc
FUNC a6e00 2ad c jsonExtractFunc
FUNC a70b0 2be c jsonObjectFunc
FUNC a7370 1a0 c jsonRemoveFunc
FUNC a7510 1e6 c jsonReplaceFunc
FUNC a7700 235 c jsonSetFunc
FUNC a7940 125 c jsonTypeFunc
FUNC a7a70 de c jsonValidFunc
FUNC a7b50 c5 0 jsonArrayStep
FUNC a7c20 12d 0 jsonArrayFinal
FUNC a7d50 16f 0 jsonObjectStep
FUNC a7ec0 10b 0 jsonObjectFinal
FUNC a7fd0 68 18 jsonEachConnect
FUNC a8040 45 8 jsonEachOpenEach
FUNC a8090 49 8 jsonEachOpenTree
FUNC a80e0 6b 0 jsonEachCursorReset
FUNC a8150 18 0 jsonEachClose
FUNC a8170 e 0 jsonEachEof
FUNC a8180 e1 0 jsonEachNext
FUNC a8270 b0 0 jsonEachComputePath
FUNC a8320 370 c jsonEachColumn
FUNC a8690 17 0 jsonEachRowid
FUNC a86b0 ae 0 jsonEachBestIndex
FUNC a8760 2cb 14 jsonEachFilter
FUNC a8a30 170 0 sqlite3Json1Init
FUNC a8ba0 84 0 sqlite3Fts5ParserFree
FUNC a8c30 90 0 fts5yyStackOverflow
FUNC a8cc0 32c 0 fts5yy_reduce
FUNC a8ff0 140 0 sqlite3Fts5Parser
FUNC a9130 8e 0 fts5CInstIterNext
FUNC a91c0 4c 0 fts5HighlightAppend
FUNC a9210 1d4 0 fts5HighlightCb
FUNC a93f0 20f 14 fts5HighlightFunction
FUNC a9600 7d 0 fts5SentenceFinderAdd
FUNC a9680 6c 0 fts5SentenceFinderCb
FUNC a96f0 140 0 fts5SnippetScore
FUNC a9850 811 14 fts5SnippetFunction
FUNC aa070 e 0 fts5CountCb
FUNC aa080 27d 4 fts5Bm25GetData
FUNC aa300 29f 14 fts5Bm25Function
FUNC aa5a0 b3 0 sqlite3Fts5AuxInit
FUNC aa660 73 4 sqlite3Fts5BufferSize
FUNC aa6e0 86 0 sqlite3Fts5BufferAppendVarint
FUNC aa770 4f 0 sqlite3Fts5BufferAppendString
FUNC aa7c0 46 0 sqlite3Fts5BufferAppendPrintf
FUNC aa810 2b 0 sqlite3Fts5Mprintf
FUNC aa840 1d 0 sqlite3Fts5BufferFree
FUNC aa860 3c 0 sqlite3Fts5BufferSet
FUNC aa8a0 e6 0 sqlite3Fts5PoslistNext64
FUNC aa990 129 0 sqlite3Fts5PoslistSafeAppend
FUNC aaac0 6c 0 sqlite3Fts5MallocZero
FUNC aab30 84 4 sqlite3Fts5Strndup
FUNC aabc0 151 0 sqlite3Fts5IsBareword
FUNC aad20 168 c sqlite3Fts5TermsetAdd
FUNC aae90 df 0 sqlite3Fts5TermsetFree
FUNC aaf70 19 0 fts5ConfigSkipWhitespace
FUNC aaf90 26 0 fts5ConfigSkipBareword
FUNC aafc0 14a 0 fts5ConfigSkipLiteral
FUNC ab110 59 0 fts5Dequote
FUNC ab170 18 0 sqlite3Fts5Dequote
FUNC ab190 7a 0 fts5ConfigSetEnum
FUNC ab210 4c5 c fts5ConfigParseSpecial
FUNC ab6e0 109 8 fts5ConfigGobbleWord
FUNC ab7f0 9a 0 fts5ConfigParseColumn
FUNC ab890 92 0 fts5ConfigMakeExprlist
FUNC ab930 4e0 10 sqlite3Fts5ConfigParse
FUNC abe20 390 0 sqlite3Fts5ConfigFree
FUNC ac1b0 104 0 sqlite3Fts5ConfigDeclareVtab
FUNC ac2c0 42 0 fts5ConfigSkipArgs
FUNC ac310 129 0 sqlite3Fts5ConfigParseRank
FUNC ac440 1f9 0 sqlite3Fts5ConfigSetValue
FUNC ac640 15d 0 sqlite3Fts5ConfigLoad
FUNC ac7a0 28 0 sqlite3Fts5ParseError
FUNC ac7d0 2aa 0 fts5ExprGetToken
FUNC aca80 16b 8 sqlite3Fts5ExprNew
FUNC acbf0 9f 0 sqlite3Fts5ParseNodeFree
FUNC acc90 79 0 fts5ExprSynonymRowid
FUNC acd10 370 10 fts5ExprSynonymList
FUNC ad080 44d 4 fts5ExprPhraseIsMatch
FUNC ad4d0 3e9 0 fts5ExprNearIsMatch
FUNC ad8c0 c8 0 fts5ExprSynonymAdvanceto
FUNC ad990 163 0 fts5ExprNearTest
FUNC adb00 152 0 fts5ExprNearInitAll
FUNC adc60 34 0 fts5ExprSetEof
FUNC adca0 56 0 fts5ExprNodeZeroPoslist
FUNC add00 6b 0 fts5NodeCompare
FUNC add70 275 0 fts5ExprNodeTest_STRING
FUNC adff0 17c 14 fts5ExprNodeNext_STRING
FUNC ae170 3b 0 fts5ExprNodeTest_TERM
FUNC ae1b0 a8 14 fts5ExprNodeNext_TERM
FUNC ae260 ca 0 fts5ExprNodeTest_OR
FUNC ae330 a2 14 fts5ExprNodeNext_OR
FUNC ae3e0 1a7 0 fts5ExprNodeTest_AND
FUNC ae590 36 14 fts5ExprNodeNext_AND
FUNC ae5d0 9c 0 fts5ExprNodeTest_NOT
FUNC ae670 36 14 fts5ExprNodeNext_NOT
FUNC ae6b0 63 0 fts5ExprNodeTest
FUNC ae720 e1 0 fts5ExprNodeFirst
FUNC ae810 82 0 sqlite3Fts5ExprFirst
FUNC ae8a0 6d 0 sqlite3Fts5ExprNext
FUNC ae910 207 0 fts5ExprPhraseFree
FUNC aeb20 110 4 sqlite3Fts5ParseNearset
FUNC aec30 158 18 fts5ParseTokenize
FUNC aed90 e7 0 sqlite3Fts5ParseNearsetFree
FUNC aee80 1dd 8 sqlite3Fts5ParseTerm
FUNC af060 36f 4 sqlite3Fts5ExprClonePhrase
FUNC af3d0 77 0 sqlite3Fts5ParseSetDistance
FUNC af450 ae 4 fts5ParseColset
FUNC af500 102 0 sqlite3Fts5ParseColsetInvert
FUNC af610 196 0 sqlite3Fts5ParseColset
FUNC af7b0 23a 0 sqlite3Fts5ParseNode
FUNC af9f0 c9 0 sqlite3Fts5ParseImplicitAnd
FUNC afac0 c1 0 fts5ExprTermPrint
FUNC afb90 4d 0 fts5PrintfAppend
FUNC afbe0 250 4 fts5ExprPrintTcl
FUNC afe30 30b 0 fts5ExprPrint
FUNC b0140 358 8 fts5ExprFunction
FUNC b04a0 17 0 fts5ExprFunctionHr
FUNC b04c0 17 0 fts5ExprFunctionTcl
FUNC b04e0 7a c fts5ExprIsAlnum
FUNC b0560 a4 c fts5ExprFold
FUNC b0610 df 0 sqlite3Fts5ExprInit
FUNC b06f0 c6 0 sqlite3Fts5ExprClearPoslists
FUNC b07c0 171 18 fts5ExprPopulatePoslistsCb
FUNC b0940 ce 0 sqlite3Fts5ExprPopulatePoslists
FUNC b0a10 43 0 fts5ExprClearPoslists
FUNC b0a60 123 0 fts5ExprCheckPoslists
FUNC b0b90 85 0 sqlite3Fts5ExprPhraseCollist
FUNC b0c20 9e 4 sqlite3Fts5HashNew
FUNC b0cc0 a3 0 sqlite3Fts5HashClear
FUNC b0d70 187 0 fts5HashResize
FUNC b0f00 db 0 fts5HashAddPoslistSize
FUNC b0fe0 4f6 18 sqlite3Fts5HashWrite
FUNC b14e0 92 0 fts5HashEntryMerge
FUNC b1580 1db 8 fts5HashEntrySort
FUNC b1760 f0 0 sqlite3Fts5HashQuery
FUNC b1850 67 0 sqlite3Fts5HashScanEntry
FUNC b18c0 14e 8 fts5DataRead
FUNC b1a10 51 0 fts5IndexPrepareStmt
FUNC b1a70 83 0 fts5DataWrite
FUNC b1b00 af 0 fts5DataDelete
FUNC b1bb0 c5 0 fts5DataRemoveSegment
FUNC b1c80 e5 0 fts5StructureRelease
FUNC b1d70 24c 8 fts5StructureDecode
FUNC b1fc0 7b 0 fts5StructureAddLevel
FUNC b2040 b7 10 fts5StructureExtendLevel
FUNC b2100 95 0 fts5StructureReadUncached
FUNC b21a0 c9 0 fts5IndexDataVersion
FUNC b2270 301 0 fts5StructureWrite
FUNC b2580 160 8 fts5StructurePromoteTo
FUNC b26e0 d0 0 fts5StructurePromote
FUNC b27b0 a9 0 fts5DlidxLvlNext
FUNC b2860 a8 0 fts5DlidxIterNextR
FUNC b2910 15 0 fts5DlidxIterEof
FUNC b2930 b6 0 fts5DlidxIterLast
FUNC b29f0 cc 0 fts5DlidxLvlPrev
FUNC b2ac0 be 0 fts5DlidxIterPrevR
FUNC b2b80 80 0 fts5DlidxIterFree
FUNC b2c00 150 8 fts5DlidxIterInit
FUNC b2d50 b0 0 fts5SegIterNextPage
FUNC b2e00 a7 0 fts5SegIterLoadNPos
FUNC b2eb0 100 0 fts5SegIterLoadTerm
FUNC b2fb0 8f 0 fts5SegIterInit
FUNC b3040 16d 0 fts5SegIterReverseInitPage
FUNC b31b0 c8 0 fts5SegIterReverseNewPage
FUNC b3280 2a 0 fts5MultiIterIsEmpty
FUNC b32b0 71 c fts5SegIterNext_Reverse
FUNC b3330 1a1 c fts5SegIterNext_None
FUNC b34e0 2da c fts5SegIterNext
FUNC b37c0 1a5 0 fts5SegIterReverse
FUNC b3970 423 0 fts5LeafSeek
FUNC b3da0 1fb 10 fts5SegIterSeekInit
FUNC b3fa0 1ee c fts5SegIterHashInit
FUNC b4190 163 0 fts5MultiIterDoCompare
FUNC b4300 1bd 0 fts5SegIterNextFrom
FUNC b44c0 ec 0 fts5MultiIterFree
FUNC b45b0 62 0 fts5MultiIterAdvanced
FUNC b4620 159 0 fts5MultiIterAdvanceRowid
FUNC b4780 10d 0 fts5MultiIterNext
FUNC b4890 c4 0 fts5MultiIterNext2
FUNC b4960 98 0 fts5MultiIterAlloc
FUNC b4a00 27 0 fts5PoslistCallback
FUNC b4a30 29 0 fts5IndexColsetTest
FUNC b4a60 12b 10 fts5PoslistOffsetsCallback
FUNC b4b90 1a7 10 fts5PoslistFilterCallback
FUNC b4d40 d5 0 fts5ChunkIterate
FUNC b4e20 bf 8 fts5SegiterPoslist
FUNC b4ee0 e1 0 fts5IndexExtractCol
FUNC b4fd0 a6 0 fts5IndexExtractColset
FUNC b5080 1a 0 fts5IterSetOutputs_None
FUNC b50a0 8d 8 fts5IterSetOutputs_Nocolset
FUNC b5130 c 0 fts5IterSetOutputs_ZeroColset
FUNC b5140 40 0 fts5IterSetOutputs_Col
FUNC b5180 e8 0 fts5IterSetOutputs_Col100
FUNC b5270 ab 0 fts5IterSetOutputs_Full
FUNC b5320 71 0 fts5IterSetOutputCb
FUNC b53a0 2c2 0 fts5MultiIterNew
FUNC b5670 cd 0 fts5MultiIterNew2
FUNC b5740 15 0 fts5MultiIterEof
FUNC b5760 87 0 fts5MultiIterNextFrom
FUNC b57f0 115 0 fts5AllocateSegid
FUNC b5910 90 0 fts5WriteDlidxClear
FUNC b59a0 97 4 fts5WriteDlidxGrow
FUNC b5a40 a1 0 fts5WriteFlushBtree
FUNC b5af0 20d 0 fts5WriteDlidxAppend
FUNC b5d00 128 0 fts5WriteFlushLeaf
FUNC b5e30 22c 0 fts5WriteAppendTerm
FUNC b6060 100 0 fts5WriteAppendPoslistData
FUNC b6160 135 0 fts5WriteFinish
FUNC b62a0 197 4 fts5WriteInit
FUNC b6440 2f1 0 fts5TrimSegments
FUNC b6740 1b 0 fts5MergeChunkCallback
FUNC b6760 56c 0 fts5IndexMergeLevel
FUNC b6cd0 100 0 fts5IndexMerge
FUNC b6dd0 9e 0 fts5IndexAutomerge
FUNC b6e70 70 0 fts5IndexCrisismerge
FUNC b6ee0 69 0 fts5PoslistPrefix
FUNC b6f50 550 0 fts5FlushOneHash
FUNC b74a0 200 0 fts5IndexOptimizeStruct
FUNC b76a0 fe 0 sqlite3Fts5IndexOptimize
FUNC b77a0 c6 0 sqlite3Fts5IndexMerge
FUNC b7870 21 14 fts5AppendRowid
FUNC b78a0 7c 14 fts5AppendPoslist
FUNC b7920 7d 0 fts5DoclistIterNext
FUNC b79a0 31b c fts5MergeRowidLists
FUNC b7cc0 709 c fts5MergePrefixLists
FUNC b83d0 42e 10 fts5SetupPrefixIter
FUNC b8800 80 0 sqlite3Fts5IndexBeginWrite
FUNC b8880 77 0 sqlite3Fts5IndexReinit
FUNC b8900 13e 8 sqlite3Fts5IndexOpen
FUNC b8a40 9e 0 sqlite3Fts5IndexClose
FUNC b8ae0 38 0 fts5IndexCharlen
FUNC b8b20 c6 c sqlite3Fts5IndexWrite
FUNC b8bf0 214 10 sqlite3Fts5IndexQuery
FUNC b8e10 b3 4 sqlite3Fts5IndexGetAverages
FUNC b8ed0 78 0 sqlite3Fts5IndexSetCookie
FUNC b8f50 63 0 sqlite3Fts5IndexLoadConfig
FUNC b8fc0 8d 0 sqlite3Fts5IndexEntryCksum
FUNC b9050 9a 0 fts5IndexIntegrityCheckEmpty
FUNC b90f0 3b6 0 fts5IntegrityCheckPgidx
FUNC b94b0 390 0 fts5IndexIntegrityCheckSegment
FUNC b9840 374 8 sqlite3Fts5IndexIntegrityCheck
FUNC b9bc0 ab 0 fts5DebugRowid
FUNC b9c70 a6 0 fts5DebugStructure
FUNC b9d20 5e 0 fts5DecodeAverages
FUNC b9d80 9d 0 fts5DecodePoslist
FUNC b9e20 13d 0 fts5DecodeDoclist
FUNC b9f60 b4 0 fts5DecodeRowidList
FUNC ba020 70c c fts5DecodeFunction
FUNC ba730 c9 c fts5RowidFunction
FUNC ba800 13d 0 sqlite3Fts5IndexInit
FUNC ba940 30 0 fts5DisconnectMethod
FUNC ba970 3a 0 fts5DestroyMethod
FUNC ba9b0 170 14 fts5InitVtab
FUNC bab20 25 0 fts5ConnectMethod
FUNC bab50 28 0 fts5CreateMethod
FUNC bab80 285 0 fts5BestIndexMethod
FUNC bae10 55 0 fts5NewTransaction
FUNC bae70 b2 8 fts5OpenMethod
FUNC baf40 25d 0 fts5FreeCursorComponents
FUNC bb1a0 94 0 fts5CloseMethod
FUNC bb240 cb 0 fts5SorterNext
FUNC bb310 7d 0 fts5CursorReseek
FUNC bb390 9a 4 fts5NextMethod
FUNC bb430 8f 0 fts5PrepareStatement
FUNC bb4c0 125 4 fts5CursorFirstSorted
FUNC bb5f0 32 0 fts5CursorFirst
FUNC bb630 9d 0 fts5SpecialMatch
FUNC bb6d0 3f 0 fts5FindAuxiliary
FUNC bb710 15c 0 fts5FindRankFunction
FUNC bb870 fa 0 fts5CursorParseRank
FUNC bb970 3aa 14 fts5FilterMethod
FUNC bbd20 b 0 fts5EofMethod
FUNC bbd30 84 0 fts5RowidMethod
FUNC bbdc0 be 0 fts5SeekCursor
FUNC bbe80 19 0 fts5SetVtabError
FUNC bbea0 147 0 fts5SpecialInsert
FUNC bbff0 3f 0 fts5StorageInsert
FUNC bc030 31b 10 fts5UpdateMethod
FUNC bc350 95 0 fts5SyncMethod
FUNC bc3f0 c 0 fts5BeginMethod
FUNC bc400 55 0 fts5RollbackMethod
FUNC bc460 b 0 fts5ApiUserData
FUNC bc470 d 0 fts5ApiColumnCount
FUNC bc480 1a 0 fts5ApiColumnTotalSize
FUNC bc4a0 42 0 fts5ApiRowCount
FUNC bc4f0 32 0 fts5ApiTokenize
FUNC bc530 12 0 fts5ApiPhraseCount
FUNC bc550 21 0 fts5ApiPhraseSize
FUNC bc580 67 0 fts5ApiColumnText
FUNC bc5f0 20c 8 fts5CsrPoslist
FUNC bc800 236 0 fts5CacheInstArray
FUNC bca40 27 0 fts5ApiInstCount
FUNC bca70 5e 0 fts5ApiInst
FUNC bcad0 1f 0 fts5ApiRowid
FUNC bcaf0 10 0 fts5ColumnSizeCb
FUNC bcb00 1b5 c fts5ApiColumnSize
FUNC bccc0 a1 c fts5ApiSetAuxdata
FUNC bcd70 37 0 fts5ApiGetAuxdata
FUNC bcdb0 77 0 fts5ApiPhraseNext
FUNC bce30 4c 0 fts5ApiPhraseFirst
FUNC bce80 ae 0 fts5ApiPhraseNextColumn
FUNC bcf30 f3 10 fts5ApiPhraseFirstColumn
FUNC bd030 105 10 fts5ApiQueryPhrase
FUNC bd140 29 0 fts5ApiInvoke
FUNC bd170 a5 c fts5ApiCallback
FUNC bd220 2a7 0 fts5PoslistBlob
FUNC bd4d0 133 c fts5ColumnMethod
FUNC bd610 2a 0 fts5FindFunctionMethod
FUNC bd640 13 0 fts5RenameMethod
FUNC bd660 4b 0 fts5ReleaseMethod
FUNC bd6b0 73 0 fts5RollbackToMethod
FUNC bd730 bf 14 fts5CreateAux
FUNC bd7f0 a5 14 fts5CreateTokenizer
FUNC bd8a0 72 0 fts5FindTokenizer
FUNC bd920 bc 0 sqlite3Fts5GetTokenizer
FUNC bd9e0 15a 0 fts5ModuleDestroy
FUNC bdb40 62 0 fts5Fts5Func
FUNC bdbb0 3f 0 fts5SourceIdFunc
FUNC bdbf0 108 0 fts5Init
FUNC bdd00 1fb 0 fts5StorageGetStmt
FUNC bdf00 41 0 fts5ExecPrintf
FUNC bdf50 62 0 sqlite3Fts5DropAll
FUNC bdfc0 124 0 sqlite3Fts5StorageRename
FUNC be0f0 77 0 sqlite3Fts5CreateTable
FUNC be170 300 c sqlite3Fts5StorageOpen
FUNC be470 87 0 sqlite3Fts5StorageClose
FUNC be500 3f 0 fts5StorageInsertCallback
FUNC be540 1bb 0 fts5StorageDeleteFromIndex
FUNC be700 190 0 fts5StorageSaveTotals
FUNC be890 f5 0 sqlite3Fts5StorageDelete
FUNC be990 b2 0 sqlite3Fts5StorageDeleteAll
FUNC bea50 3d4 0 sqlite3Fts5StorageRebuild
FUNC bee30 ba 0 fts5StorageNewRowid
FUNC beef0 d6 0 sqlite3Fts5StorageContentInsert
FUNC befd0 25b 0 sqlite3Fts5StorageIndexInsert
FUNC bf230 a2 0 fts5StorageCount
FUNC bf2e0 187 18 fts5StorageIntegrityCallback
FUNC bf470 41c 0 sqlite3Fts5StorageIntegrity
FUNC bf890 c3 0 fts5StorageDecodeSizeArray
FUNC bf960 9d 0 sqlite3Fts5StorageDocsize
FUNC bfa00 8c 0 sqlite3Fts5StorageSize
FUNC bfa90 a5 8 sqlite3Fts5StorageConfigValue
FUNC bfb40 5 0 fts5AsciiDelete
FUNC bfb50 153 10 fts5AsciiCreate
FUNC bfcb0 109 0 asciiFold
FUNC bfdc0 1e3 18 fts5AsciiTokenize
FUNC bffb0 1a8 4 fts5UnicodeAddExceptions
FUNC c0160 2a 0 fts5UnicodeDelete
FUNC c0190 1ce 10 fts5UnicodeCreate
FUNC c0360 495 18 fts5UnicodeTokenize
FUNC c0800 24 0 fts5PorterDelete
FUNC c0830 e9 10 fts5PorterCreate
FUNC c0920 87 0 fts5PorterGobbleVC
FUNC c09b0 36 0 fts5Porter_MGt1
FUNC c09f0 36 0 fts5Porter_MEq1
FUNC c0a30 65 0 fts5Porter_Ostar
FUNC c0aa0 42 0 fts5Porter_MGt1_and_S_or_T
FUNC c0af0 36 0 fts5Porter_Vowel
FUNC c0b30 2a2 0 fts5PorterStep4
FUNC c0de0 bf 0 fts5PorterStep1B2
FUNC c0ea0 66c 0 fts5PorterStep2
FUNC c1510 1f6 0 fts5PorterStep3
FUNC c1710 af 0 fts5PorterStep1B
FUNC c17c0 1d4 0 fts5PorterCb
FUNC c19a0 40 0 fts5PorterTokenize
FUNC c19e0 b1 0 sqlite3Fts5TokenizerInit
FUNC c1aa0 88 0 sqlite3Fts5UnicodeIsalnum
FUNC c1b30 bc 0 sqlite3Fts5UnicodeFold
FUNC c1bf0 7c 0 sqlite3Fts5GetVarint32
FUNC c1c70 10b 4 fts5VocabTableType
FUNC c1d80 1d3 10 fts5VocabInitVtab
FUNC c1f60 23 0 fts5VocabCreateMethod
FUNC c1fa0 fe 0 fts5VocabBestIndexMethod
FUNC c20a0 180 8 fts5VocabOpenMethod
FUNC c2220 8d 0 fts5VocabCloseMethod
FUNC c22b0 456 4 fts5VocabNextMethod
FUNC c2710 2b2 14 fts5VocabFilterMethod
FUNC c29d0 101 c fts5VocabColumnMethod
FUNC c2ae0 16 0 fts5VocabRowidMethod
PUBLIC c2af6 8 WaitForSingleObject
PUBLIC c2afc 4 CloseHandle
FUNC c2b02 1b 0 std::bad_alloc::bad_alloc(std::bad_alloc const &)
FUNC c2b1d 18 0 std::bad_alloc::bad_alloc()
FUNC c2b35 2c 0 std::exception::exception(std::exception const &)
FUNC c2b61 37 0 std::exception::exception(char const * const)
FUNC c2b98 1b 0 std::length_error::length_error(std::length_error const &)
FUNC c2bb3 21 0 std::length_error::length_error(char const *)
FUNC c2bd4 1b 0 std::logic_error::logic_error(std::logic_error const &)
FUNC c2bef 1b 0 std::out_of_range::out_of_range(std::out_of_range const &)
FUNC c2c0a 21 0 std::out_of_range::out_of_range(char const *)
FUNC c2c2b 11 0 std::out_of_range::~out_of_range()
FUNC c2c3c 20 0 std::_Xlength_error(char const *)
FUNC c2c5c 20 0 std::_Xout_of_range(char const *)
FUNC c2c7c d 0 std::exception::what()
FUNC c2c89 11 0 __security_check_cookie
FUNC c2c9a 33 0 operator new(unsigned int)
FUNC c2ccd 44 0 find_pe_section
FUNC c2d11 35 0 __scrt_acquire_startup_lock
FUNC c2d46 2b 0 __scrt_dllmain_after_initialize_c
FUNC c2d71 e 0 __scrt_dllmain_before_initialize_c
FUNC c2d7f 1f 0 __scrt_dllmain_crt_thread_attach
FUNC c2d9e d 0 __scrt_dllmain_crt_thread_detach
FUNC c2dab 33 0 __scrt_dllmain_exception_filter
FUNC c2dde 23 0 __scrt_dllmain_uninitialize_c
FUNC c2e01 d 0 __scrt_dllmain_uninitialize_critical
FUNC c2e0e 39 0 __scrt_initialize_crt
FUNC c2e47 97 0 __scrt_initialize_onexit_tables
FUNC c2ede 8a 0 __scrt_is_nonwritable_in_current_image
FUNC c2f68 1d 0 __scrt_release_startup_lock
FUNC c2f85 28 0 __scrt_uninitialize_crt
FUNC c2fad 3b 0 _onexit
FUNC c2fe8 15 0 atexit
FUNC c2ffd e 0 operator delete(void *,unsigned int)
FUNC c300b 53 0 dllmain_crt_dispatch
FUNC c305e 112 0 dllmain_crt_process_attach
FUNC c3170 7d 0 dllmain_crt_process_detach
FUNC c31ed fc 0 dllmain_dispatch
FUNC c32e9 2a 0 dllmain_raw
FUNC c3313 23 c _DllMainCRTStartup
FUNC c3336 28 0 __raise_securityfailure
FUNC c335e fb 0 __report_gsfailure
FUNC c3459 c 0 __report_rangecheckfailure
FUNC c3465 d0 0 __report_securityfailure
FUNC c3535 23 0 type_info::`scalar deleting destructor'(unsigned int)
FUNC c3558 1b 0 std::bad_array_new_length::bad_array_new_length(std::bad_array_new_length const &)
FUNC c3573 18 0 std::bad_array_new_length::bad_array_new_length()
FUNC c358b 1d 0 __scrt_throw_std_bad_alloc()
FUNC c35a8 1d 0 __scrt_throw_std_bad_array_new_length()
FUNC c35c5 19a 0 __isa_available_init
FUNC c375f 4 0 _get_startup_argv_mode
FUNC c3763 c 0 __scrt_is_ucrt_dll_in_use
FUNC c376f 11b 0 __scrt_fastfail
FUNC c388a 8 4 _crt_debugger_hook
FUNC c3892 6 0 _guard_check_icall
FUNC c38a0 46 0 _SEH_prolog4
FUNC c38e6 15 0 _SEH_epilog4
FUNC c38fb 9c 0 __security_init_cookie
FUNC c3997 6 c DllMain
FUNC c399d c 0 __scrt_initialize_type_info()
FUNC c39a9 c 0 __scrt_uninitialize_type_info()
FUNC c39b5 6 0 __local_stdio_printf_options
FUNC c39bb 6 0 __local_stdio_scanf_options
FUNC c39c1 1d 0 __scrt_initialize_default_local_stdio_options
FUNC c39de 6 0 __scrt_get_dyn_tls_init_callback
FUNC c39e4 2b 0 _RTC_Initialize
FUNC c3a0f 2b 0 _RTC_Terminate
FUNC c3a40 574 0 memmove
FUNC c3fb4 94 0 __DestructExceptionObject
FUNC c4048 1b 0 std::bad_exception::bad_exception(std::bad_exception const &)
FUNC c4063 18 0 std::bad_exception::bad_exception()
FUNC c407b 2d 0 std::bad_exception::`scalar deleting destructor'(unsigned int)
FUNC c40a8 1bc 0 CallCatchBlock
FUNC c4264 3a 0 CallUnexpected
FUNC c429e 7b 0 CatchIt
FUNC c4319 4a 0 ExFilterRethrow
FUNC c4363 368 0 FindHandler
FUNC c46cb 11b 0 FindHandlerForForeignException
FUNC c47e6 9c 0 IsInExceptionSpec
FUNC c4882 3f 0 Is_bad_exception_allowed
FUNC c48c1 7 8 _CallMemberFunction0(void * const,void * const)
FUNC c48c8 25 0 __AdjustPointer
FUNC c48ed 8f 0 __BuildCatchObject
FUNC c497c 12e 0 __BuildCatchObjectHelper
FUNC c4aaa 45 0 __FrameUnwindFilter
FUNC c4aef c8 0 __FrameUnwindToState
FUNC c4bb7 fc 0 __InternalCxxFrameHandler
FUNC c4cb3 8e 0 __TypeMatch
FUNC c4d41 5 0 __std_terminate
FUNC c4d46 63 0 __std_exception_copy
FUNC c4da9 1f 0 __std_exception_destroy
FUNC c4dc8 6e 8 _CxxThrowException
FUNC c4e36 29 0 __vcrt_initialize
FUNC c4e5f b 0 __vcrt_thread_attach
FUNC c4e6a b 0 __vcrt_thread_detach
FUNC c4e75 1f 0 __vcrt_uninitialize
FUNC c4e94 8 0 __vcrt_uninitialize_critical
FUNC c4ea0 32 0 ValidateLocalCookies
FUNC c4ee0 166 0 _except_handler4
FUNC c5050 15a 0 memset
FUNC c51aa 3c 0 __std_type_info_compare
FUNC c51e6 23 0 __std_type_info_destroy_list
FUNC c5209 1c 0 unexpected
FUNC c5225 1c 4 __vcrt_freefls
FUNC c5241 36 0 __vcrt_freeptd
FUNC c5277 e 0 __vcrt_getptd
FUNC c5285 92 0 __vcrt_getptd_noexit
FUNC c5317 33 0 __vcrt_initialize_ptd
FUNC c534a 1b 0 __vcrt_uninitialize_ptd
FUNC c5370 4c c _CallSettingFrame
PUBLIC c5397 0 _NLG_Return
FUNC c53bc 60 0 _CallCatchBlock2(EHRegistrationNode *,_s_FuncInfo const *,void *,int,unsigned long)
FUNC c541c dd 0 _CallSETranslator(EHExceptionRecord *,EHRegistrationNode *,void *,void *,_s_FuncInfo const *,int,EHRegistrationNode *)
FUNC c54f9 78 0 _GetRangeOfTrysToCheck(_s_FuncInfo const *,int,int,unsigned int *,unsigned int *)
FUNC c5571 32 0 _JumpToContinuation(void *,EHRegistrationNode *)
FUNC c55a3 55 0 _UnwindNestedFrames(EHRegistrationNode *,EHExceptionRecord *)
FUNC c55f8 31 0 _CatchGuardHandler
FUNC c5629 24 0 _CreateFrameInfo
FUNC c564d 4a 0 _FindAndUnlinkFrame
FUNC c5697 26 0 _IsExceptionObjectToBeDestroyed
FUNC c56bd 9f 0 _TranslatorGuardHandler
FUNC c575c 36 10 __CxxFrameHandler3
FUNC c5792 3c 0 __vcrt_initialize_locks
FUNC c57ce 2f 0 __vcrt_uninitialize_locks
FUNC c57fd 1d 0 __crt_fast_encode_pointer<void *>(void * const)
FUNC c581a a0 0 try_get_function
FUNC c58ba 81 0 try_get_module
FUNC c593b 3a 0 __vcrt_FlsAlloc
FUNC c5975 3a 0 __vcrt_FlsFree
FUNC c59af 3a 0 __vcrt_FlsGetValue
FUNC c59e9 3d 0 __vcrt_FlsSetValue
FUNC c5a26 46 0 __vcrt_InitializeCriticalSectionEx
FUNC c5a6c 3a 0 __vcrt_initialize_winapi_thunks
FUNC c5aa6 32 0 __vcrt_uninitialize_winapi_thunks
FUNC c5ad8 1d 0 __vcrt_initialize_pure_virtual_call_handler
FUNC c5b00 90 0 _local_unwind4
FUNC c5b90 46 0 _unwind_handler4
FUNC c5bd6 28 4 _seh_longjmp_unwind4
FUNC c5bfe 17 0 _EH4_CallFilterFunc
FUNC c5c15 19 0 _EH4_TransferToHandler
FUNC c5c2e 19 0 _EH4_GlobalUnwind2
FUNC c5c47 17 8 _EH4_LocalUnwind
FUNC c5c60 20 0 _global_unwind2
FUNC c5c80 45 0 __unwind_handler
FUNC c5cc5 84 0 _local_unwind2
FUNC c5d49 23 0 _abnormal_termination
FUNC c5d6c 9 0 _NLG_Notify1
FUNC c5d75 1f 0 _NLG_Notify
PUBLIC c5d8c 0 _NLG_Dispatch
FUNC c5d94 3 0 _NLG_Call
PUBLIC c5d96 0 _NLG_Return2
FUNC c5d97 5 0 free
FUNC c5d9c 13b 0 __acrt_call_reportfault
FUNC c5ed7 14 0 __acrt_initialize_invalid_parameter_handler
FUNC c5eeb 7b 0 _invalid_parameter
FUNC c5f66 10 0 _invalid_parameter_noinfo
FUNC c5f76 1d 0 _invalid_parameter_noinfo_noreturn
FUNC c5f93 33 14 _invoke_watson
FUNC c5fc6 b 0 malloc
FUNC c5fd1 83 0 _LocaleUpdate::_LocaleUpdate(__crt_locale_pointers * const)
FUNC c6054 7d 0 thread_start<unsigned int (__stdcall*)(void *)>
FUNC c60d1 37 0 `anonymous namespace'::thread_parameter_free_policy::operator()(__acrt_thread_parameter * const)
FUNC c6108 57 0 common_end_thread
FUNC c615f 49 0 create_thread_parameter
FUNC c61a8 85 0 _beginthreadex
FUNC c622d e 0 _endthreadex
FUNC c623b 28a 0 common_localtime_s<__int64>
FUNC c64c5 b 0 _localtime64_s
FUNC c64d0 b 0 realloc
FUNC c64e0 96 0 shortsort
FUNC c6580 39 0 swap
FUNC c65c0 39a 0 qsort
FUNC c695a 33 0 _msize
FUNC c6990 78 0 strncmp
FUNC c6a08 48 0 rand_s
FUNC c6a50 14 0 __acrt_initialize_new_handler
FUNC c6a64 44 0 _callnewh
FUNC c6aa8 52 0 _query_new_handler
FUNC c6afa 20 0 _seh_filter_dll
FUNC c6b1a 173 0 _seh_filter_exe
FUNC c6c8d 13 0 atexit_exception_filter
FUNC c6ca0 119 0 common_exit
FUNC c6db9 41 0 exit_or_terminate_process
FUNC c6dfa 44 0 is_managed_app
FUNC c6e3e 6a 0 try_cor_exit_process
FUNC c6ea8 f 0 __acrt_initialize_thread_local_exit_callback
FUNC c6eb7 f 0 _cexit
FUNC c6ec6 16 0 _exit
FUNC c6edc 6 0 _is_c_termination_complete
FUNC c6ee2 124 0 common_configure_argv<char>
FUNC c7006 175 0 parse_command_line<char>
FUNC c717b 55 0 __acrt_allocate_buffer_for_argv
FUNC c71d0 b 0 _configure_narrow_argv
FUNC c71db 2f 0 common_get_or_create_environment_nolock<char>
FUNC c720a 59 0 common_initialize_environment_nolock<char>
FUNC c7263 d1 0 create_environment<char>
FUNC c7334 2f 0 free_environment<char>
FUNC c7363 7f 0 initialize_environment_by_cloning_nolock<char>
FUNC c73e2 40 0 __crt_state_management::dual_state_global<wchar_t * *>::uninitialize<void (&)(wchar_t * * &)>(void (&)(wchar_t * * &))
FUNC c7422 1b 0 uninitialize_environment_internal<char>
FUNC c743d 1b 0 uninitialize_environment_internal<wchar_t>
FUNC c7458 5 0 __dcrt_get_or_create_narrow_environment_nolock
FUNC c745d 37 0 __dcrt_uninitialize_environments_nolock
FUNC c7494 5 0 _initialize_narrow_environment
FUNC c7499 51 0 __crt_seh_guarded_call<int>::operator()<<lambda_800076c951b434888f4765a74a194fcc>,<lambda_4e60a939b0d047cfe11ddc22648dfba9> &,<lambda_6dbb1268764f43b569ce7b67e331d33a> >(<lambda_800076c951b434888f4765a74a194fcc> &&,<lambda_4e60a939b0d047cfe11ddc22648dfba9> &,<lambda_6dbb1268764f43b569ce7b67e331d33a> &&)
FUNC c74ea 51 0 __crt_seh_guarded_call<int>::operator()<<lambda_995298e7d72eb4c2aab26c0585b3abe5>,<lambda_275893d493268fdec8709772e3fcec0e> &,<lambda_293819299cbf9a7022e18b56a874bb5c> >(<lambda_995298e7d72eb4c2aab26c0585b3abe5> &&,<lambda_275893d493268fdec8709772e3fcec0e> &,<lambda_293819299cbf9a7022e18b56a874bb5c> &&)
FUNC c753b 28 0 __acrt_lock_and_call<<lambda_275893d493268fdec8709772e3fcec0e> >(__acrt_lock_id,<lambda_275893d493268fdec8709772e3fcec0e> &&)
FUNC c7563 28 0 __acrt_lock_and_call<<lambda_4e60a939b0d047cfe11ddc22648dfba9> >(__acrt_lock_id,<lambda_4e60a939b0d047cfe11ddc22648dfba9> &&)
FUNC c758b 1f 0 __crt_fast_encode_pointer<int (*)(void)>(int (*const)(void))
FUNC c75aa 120 0 <lambda_275893d493268fdec8709772e3fcec0e>::operator()
FUNC c76ca 141 0 <lambda_4e60a939b0d047cfe11ddc22648dfba9>::operator()
FUNC c780b 16 0 _crt_atexit
FUNC c7821 1d 0 _execute_onexit_table
FUNC c783e 3d 0 _initialize_onexit_table
FUNC c787b 24 0 _register_onexit_function
FUNC c789f 12 0 initialize_global_variables
FUNC c78b1 1a 0 initialize_c
FUNC c78cb 8 4 uninitialize_environment
FUNC c78d3 3 0 initialize_environment
FUNC c78d6 3d 0 initialize_pointers
FUNC c7913 9 4 uninitialize_vcruntime
FUNC c791c 77 4 uninitialize_allocated_memory
FUNC c7993 12 0 __acrt_initialize
FUNC c79a5 b 0 __acrt_thread_attach
FUNC c79b0 8 0 __acrt_thread_detach
FUNC c79b8 12 4 __acrt_uninitialize
FUNC c79ca 12 0 __acrt_uninitialize_critical
FUNC c79dc 5c 0 _initterm
FUNC c7a38 45 0 _initterm_e
FUNC c7a7d 3c 0 terminate
FUNC c7ab9 5a 0 strcpy_s
FUNC c7b13 3a 0 _free_base
FUNC c7b4d 4e 0 _malloc_base
FUNC c7b9b 43 0 abort
FUNC c7bde 5d 0 _calloc_base
FUNC c7c3b 33 0 __crt_strtox::is_overflow_condition<unsigned long>(unsigned int,unsigned long)
FUNC c7c6e 1b 0 __crt_strtox::make_c_string_character_source<char,std::nullptr_t>(char const * const,std::nullptr_t)
FUNC c7c89 228 0 __crt_strtox::parse_integer<unsigned long,__crt_strtox::c_string_character_source<char> >(__crt_locale_pointers * const,__crt_strtox::c_string_character_source<char>,int,bool)
FUNC c7eb1 28 0 __crt_strtox::c_string_character_source<char>::unget(char)
FUNC c7ed9 1b 0 __crt_strtox::c_string_character_source<char>::validate()
FUNC c7ef4 2a 0 _chvalidchk_l
FUNC c7f1e 33 0 _ischartype_l
FUNC c7f51 2a 0 atol
FUNC c7f7b 50 0 __crt_seh_guarded_call<void>::operator()<<lambda_3518db117f0e7cdb002338c5d3c47b6c>,<lambda_b2ea41f6bbb362cd97d94c6828d90b61> &,<lambda_abdedf541bb04549bc734292b4a045d4> >(<lambda_3518db117f0e7cdb002338c5d3c47b6c> &&,<lambda_b2ea41f6bbb362cd97d94c6828d90b61> &,<lambda_abdedf541bb04549bc734292b4a045d4> &&)
FUNC c7fcc 61 0 __crt_seh_guarded_call<void>::operator()<<lambda_51b6e8b1eb166f2a3faf91f424b38130>,<lambda_6250bd4b2a391816dd638c3bf72b0bcb> &,<lambda_0b5a4a3e68152e1d9b943535f5f47bed> >(<lambda_51b6e8b1eb166f2a3faf91f424b38130> &&,<lambda_6250bd4b2a391816dd638c3bf72b0bcb> &,<lambda_0b5a4a3e68152e1d9b943535f5f47bed> &&)
FUNC c802d 4b 0 __crt_seh_guarded_call<void>::operator()<<lambda_5b71d36f03204c0beab531769a5b5694>,<lambda_be2b3da3f62db62e9dad5dc70221a656> &,<lambda_8f9ce462984622f9bf76b59e2aaaf805> >(<lambda_5b71d36f03204c0beab531769a5b5694> &&,<lambda_be2b3da3f62db62e9dad5dc70221a656> &,<lambda_8f9ce462984622f9bf76b59e2aaaf805> &&)
FUNC c8078 48 0 __crt_seh_guarded_call<void>::operator()<<lambda_9df27f884b057bc3edfc946cb5b7cf47>,<lambda_e69574bed617af4e071282c136b37893> &,<lambda_cc0d902bcbbeb830f749456577db4721> >(<lambda_9df27f884b057bc3edfc946cb5b7cf47> &&,<lambda_e69574bed617af4e071282c136b37893> &,<lambda_cc0d902bcbbeb830f749456577db4721> &&)
FUNC c80c0 28 0 __acrt_lock_and_call<<lambda_6250bd4b2a391816dd638c3bf72b0bcb> >(__acrt_lock_id,<lambda_6250bd4b2a391816dd638c3bf72b0bcb> &&)
FUNC c80e8 28 0 __acrt_lock_and_call<<lambda_b2ea41f6bbb362cd97d94c6828d90b61> >(__acrt_lock_id,<lambda_b2ea41f6bbb362cd97d94c6828d90b61> &&)
FUNC c8110 28 0 __acrt_lock_and_call<<lambda_be2b3da3f62db62e9dad5dc70221a656> >(__acrt_lock_id,<lambda_be2b3da3f62db62e9dad5dc70221a656> &&)
FUNC c8138 28 0 __acrt_lock_and_call<<lambda_e69574bed617af4e071282c136b37893> >(__acrt_lock_id,<lambda_e69574bed617af4e071282c136b37893> &&)
FUNC c8160 79 0 construct_ptd
FUNC c81d9 21 0 destroy_fls
FUNC c81fa a9 0 destroy_ptd
FUNC c82a3 4b 0 replace_current_thread_locale_nolock
FUNC c82ee 2c 0 __acrt_freeptd
FUNC c831a 84 0 __acrt_getptd
FUNC c839e 85 0 __acrt_getptd_noexit
FUNC c8423 2c 0 __acrt_initialize_ptd
FUNC c844f 1a 4 __acrt_uninitialize_ptd
FUNC c8469 43 0 __acrt_errno_from_os_error
FUNC c84ac 23 0 __acrt_errno_map_os_error
FUNC c84cf 13 0 __doserrno
FUNC c84e2 13 0 _errno
FUNC c84f5 14a 0 common_tox_l<&internal_isupper_l,&internal_map_lower>
FUNC c863f 1d 0 internal_isupper_l
FUNC c865c 1a 0 _tolower_l
FUNC c8676 2d 0 __acrt_update_locale_info
FUNC c86a3 2d 0 __acrt_update_multibyte_info
FUNC c86d0 b 0 __acrt_set_locale_changed
FUNC c86db 52 0 __acrt_uninitialize_locale
FUNC c872d 1a 0 try_get_CompareStringEx
FUNC c8747 9c 0 try_get_function
FUNC c87e3 7b 0 try_get_module
FUNC c885e 74 24 __acrt_CompareStringEx
FUNC c88d2 56 4 __acrt_FlsAlloc
FUNC c8928 56 4 __acrt_FlsFree
FUNC c897e 56 4 __acrt_FlsGetValue
FUNC c89d4 59 8 __acrt_FlsSetValue
FUNC c8a2d 62 c __acrt_InitializeCriticalSectionEx
FUNC c8a8f 88 24 __acrt_LCMapStringEx
FUNC c8b17 5c 8 __acrt_LocaleNameToLCID
FUNC c8b73 52 4 __acrt_RoInitialize
FUNC c8bc5 49 0 __acrt_RoUninitialize
FUNC c8c0e 57 8 __acrt_RtlGenRandom
FUNC c8c65 26 0 __acrt_initialize_winapi_thunks
FUNC c8c8b 87 0 __acrt_is_packaged_app
FUNC c8d12 36 0 __acrt_uninitialize_winapi_thunks
FUNC c8d48 31 0 __crt_state_management::dual_state_global<int>::initialize(int)
FUNC c8d79 37 0 __acrt_initialize_timeset
FUNC c8db0 6 0 __daylight
FUNC c8db6 6 0 __dstbias
FUNC c8dbc 6 0 __timezone
FUNC c8dc2 6 0 __tzname
FUNC c8dc8 2c 0 _get_daylight
FUNC c8df4 2c 0 _get_dstbias
FUNC c8e20 2c 0 _get_timezone
FUNC c8e4c 3a 0 __crt_time_elapsed_leap_years<int>(int)
FUNC c8e86 41 0 __crt_time_is_leap_year<int>(int)
FUNC c8ec7 14d 0 common_gmtime_s<__int64>
FUNC c9014 a4 0 compute_year
FUNC c90b8 b 0 _gmtime64_s
FUNC c90c3 1e7 0 _isindst_nolock
FUNC c92aa 150 0 cvtdate
FUNC c93fa 1d5 0 tzset_from_environment_nolock
FUNC c95cf 15b 0 tzset_from_system_nolock
FUNC c972a e0 0 tzset_nolock
FUNC c980a 51 0 __tzset
FUNC c985b 4a 0 _isindst
FUNC c98a5 69 0 _realloc_base
FUNC c990e 11 0 __acrt_initialize_heap
FUNC c991f a 4 __acrt_uninitialize_heap
FUNC c9929 41 0 __acrt_initialize_locks
FUNC c996a 17 0 __acrt_lock
FUNC c9981 31 4 __acrt_uninitialize_locks
FUNC c99b2 17 0 __acrt_unlock
FUNC c99c9 18 0 <lambda_62bb7ecb46d0a77b591a051c43eb5ad1>::<helper_func_cdecl>
FUNC c99e1 190 0 common_expand_argv_wildcards<char>
FUNC c9b71 96 0 copy_and_add_argument_to_buffer<char>
FUNC c9c07 184 0 expand_argument_wildcards<char>
FUNC c9d8b 25 0 `anonymous namespace'::argument_list<char>::~argument_list<char>()
FUNC c9db0 35 0 `anonymous namespace'::argument_list<char>::append(char * const)
FUNC c9de5 87 0 `anonymous namespace'::argument_list<char>::expand_if_necessary()
FUNC c9e6c b 0 __acrt_expand_narrow_argv_wildcards
FUNC c9e77 43 0 __crt_seh_guarded_call<void>::operator()<<lambda_978dc153c237d78434369da87b74ff60>,<lambda_ad1ced32f4ac17aa236e5ef05d6b3b7c> &,<lambda_4a8533e2866a575feecb8298ce776b0d> >(<lambda_978dc153c237d78434369da87b74ff60> &&,<lambda_ad1ced32f4ac17aa236e5ef05d6b3b7c> &,<lambda_4a8533e2866a575feecb8298ce776b0d> &&)
FUNC c9eba 28 0 __acrt_lock_and_call<<lambda_ad1ced32f4ac17aa236e5ef05d6b3b7c> >(__acrt_lock_id,<lambda_ad1ced32f4ac17aa236e5ef05d6b3b7c> &&)
FUNC c9ee2 c4 0 <lambda_ad1ced32f4ac17aa236e5ef05d6b3b7c>::operator()
FUNC c9fa6 3e 0 CPtoLocaleName
FUNC c9fe4 73 0 getSystemCP
FUNC ca057 65 0 setSBCS
FUNC ca0bc 194 0 setSBUpLow
FUNC ca250 101 0 setmbcp_internal
FUNC ca351 1e 0 __acrt_initialize_multibyte
FUNC ca36f a2 0 __acrt_update_thread_multibyte_data
FUNC ca411 1f1 0 _setmbcp_nolock
FUNC ca602 81 0 memcpy_s
FUNC ca683 59 0 x_ismbbtype_l
FUNC ca6dc 18 0 _ismbblead
FUNC ca6f4 19 0 __acrt_initialize_command_line
FUNC ca70d 37 0 find_end_of_double_null_terminated_sequence
FUNC ca744 83 0 __dcrt_get_narrow_environment_from_os
FUNC ca7c7 23b 0 common_set_variable_in_environment_nolock<char>
FUNC caa02 b1 0 copy_environment<char>
FUNC caab3 54 0 find_in_environment_nolock<char>
FUNC cab07 b 0 __dcrt_set_variable_in_narrow_environment_nolock
FUNC cab12 b 0 _recalloc
FUNC cab1d 6d 0 _recalloc_base
FUNC cab8a b6 0 initialize_inherited_file_handles_nolock
FUNC cac40 b6 0 initialize_stdio_handles_nolock
FUNC cacf6 56 0 __acrt_initialize_lowio
FUNC cad4c 2c 4 __acrt_uninitialize_lowio
FUNC cad78 83 0 __acrt_execute_initializers
FUNC cadfb 4d 0 __acrt_execute_uninitializers
FUNC cae48 5a 0 __crt_seh_guarded_call<void (*)(int)>::operator()<<lambda_a048d3beccc847880fc8490e18b82769>,<lambda_ec61778202f4f5fc7e7711acc23c3bca> &,<lambda_f7496a158712204296dd6628a163878e> >(<lambda_a048d3beccc847880fc8490e18b82769> &&,<lambda_ec61778202f4f5fc7e7711acc23c3bca> &,<lambda_f7496a158712204296dd6628a163878e> &&)
FUNC caea2 28 0 __acrt_lock_and_call<<lambda_ec61778202f4f5fc7e7711acc23c3bca> >(__acrt_lock_id,<lambda_ec61778202f4f5fc7e7711acc23c3bca> &&)
FUNC caeca 42 0 get_global_action_nolock
FUNC caf0c 28 0 siglookup
FUNC caf34 17 0 __acrt_get_sigabrt_handler
FUNC caf4b 3b 0 __acrt_initialize_signal_handlers
FUNC caf86 9 0 __fpecode
FUNC caf8f 208 0 raise
FUNC cb197 19 0 __acrt_has_user_matherr
FUNC cb1b0 14 0 __acrt_initialize_user_matherr
FUNC cb1c4 49 0 __acrt_invoke_user_matherr
FUNC cb20d 6 0 _query_new_mode
FUNC cb213 fa 0 _mbtowc_l
FUNC cb30d 1a 0 mbtowc
FUNC cb327 26 0 _fileno
FUNC cb34d c8 0 __acrt_initialize_stdio
FUNC cb415 4c 0 __acrt_uninitialize_stdio
FUNC cb461 14 0 _lock_file
FUNC cb475 14 0 _unlock_file
FUNC cb489 26 0 __pctype_func
FUNC cb4af d2 0 _isctype_l
FUNC cb581 7d 0 __acrt_add_locale_ref
FUNC cb5fe 14a 0 __acrt_free_locale
FUNC cb748 29 0 __acrt_locale_add_lc_time_reference
FUNC cb771 30 0 __acrt_locale_free_lc_time_if_unreferenced
FUNC cb7a1 29 0 __acrt_locale_release_lc_time_reference
FUNC cb7ca 81 0 __acrt_release_locale_ref
FUNC cb84b 77 0 __acrt_update_thread_locale_data
FUNC cb8c2 50 0 _updatetlocinfoEx_nolock
FUNC cb912 39 0 _isleadbyte_l
FUNC cb94b 21d 0 __acrt_LCMapStringA_stat
FUNC cbb68 4b 0 __acrt_LCMapStringA
FUNC cbbb3 20 0 _freea_crt
FUNC cbbd3 27 0 ___lc_codepage_func
FUNC cbbfa fe 0 __acrt_locale_free_monetary
FUNC cbcf8 69 0 __acrt_locale_free_numeric
FUNC cbd61 3c 0 free_crt_array_internal
FUNC cbd9d e4 0 __acrt_locale_free_time
FUNC cbe81 11d 0 __acrt_GetStringTypeA
FUNC cbf9e bc 0 GetTableIndexFromLocaleName
FUNC cc05a 2c 0 __acrt_DownlevelLocaleNameToLCID
FUNC cc086 70 0 common_getenv_nolock<char>
FUNC cc0f6 55 0 common_getenv_s<char>
FUNC cc14b a8 0 common_getenv_s_nolock<char>
FUNC cc1f3 b 0 getenv_s
FUNC cc1fe b1 0 common_tcsncpy_s<char>
FUNC cc2af b 0 strncpy_s
FUNC cc2c0 40 0 strpbrk
FUNC cc300 17 0 _mbsdec
FUNC cc317 8d 0 _mbsdec_l
FUNC cc3a4 f 0 initialize_multibyte
FUNC cc3b3 29 0 _strnicoll
FUNC cc3dc ca 0 _strnicoll_l
FUNC cc4a6 7a 0 __acrt_lowio_create_handle_array
FUNC cc520 35 0 __acrt_lowio_destroy_handle_array
FUNC cc555 98 0 __acrt_lowio_ensure_fh_exists
FUNC cc5ed 23 0 __acrt_lowio_lock_fh
FUNC cc610 23 0 __acrt_lowio_unlock_fh
FUNC cc633 91 0 _free_osfhnd
FUNC cc6c4 6a 0 _get_osfhandle
FUNC cc72e 56 0 _isatty
FUNC cc784 66 0 __acrt_stdio_flush_nolock
FUNC cc7ea 47 0 _fflush_nolock
FUNC cc831 9 0 _flushall
FUNC cc83a d8 0 common_flush_all
FUNC cc912 a0 0 _fcloseall
FUNC cc9b2 3e 0 __acrt_stdio_free_buffer_nolock
FUNC cc9f0 1c 0 __strncnt
FUNC cca0c 6c 0 _strnicmp
FUNC cca78 b7 0 _strnicmp_l
FUNC ccb2f 2a8 0 InternalCompareStringA
FUNC ccdd7 48 0 __acrt_CompareStringA
FUNC cce1f 6 0 _query_app_type
FUNC cce25 98 0 __crt_seh_guarded_call<int>::operator()<<lambda_61cee617f5178ae960314fd4d05640a0>,<lambda_6978c1fb23f02e42e1d9e99668cc68aa> &,<lambda_9cd88cf8ad10232537feb2133f08c833> >(<lambda_61cee617f5178ae960314fd4d05640a0> &&,<lambda_6978c1fb23f02e42e1d9e99668cc68aa> &,<lambda_9cd88cf8ad10232537feb2133f08c833> &&)
FUNC ccebd 28 0 __acrt_lowio_lock_fh_and_call<<lambda_6978c1fb23f02e42e1d9e99668cc68aa> >(int,<lambda_6978c1fb23f02e42e1d9e99668cc68aa> &&)
FUNC ccee5 6f 0 _commit
FUNC ccf54 1b3 0 write_double_translated_ansi_nolock
FUNC cd107 6d 0 write_double_translated_unicode_nolock
FUNC cd174 76 0 write_requires_double_translation_nolock
FUNC cd1ea df 0 write_text_ansi_nolock
FUNC cd2c9 ee 0 write_text_utf16le_nolock
FUNC cd3b7 12d 0 write_text_utf8_nolock
FUNC cd4e4 eb 0 _write
FUNC cd5cf 20c 0 _write_nolock
FUNC cd7e0 3f 0 log10
FUNC cd820 3b 0 _CIlog10
FUNC cd85b d5 0 _CIlog10_default
PUBLIC cd86f 0 _log10_default
FUNC cd930 40 0 ceil
FUNC cd970 dd 0 _ceil_pentium4
FUNC cda4d 7e 0 common_lseek_nolock<__int64>
FUNC cdacb 1b 0 _lseeki64_nolock
FUNC cdae6 76 0 _fclose_nolock
FUNC cdb5c 80 0 fclose
FUNC cdbe0 61 0 __ascii_strnicmp
FUNC cdc41 45 0 _putwch_nolock
FUNC cdc86 f 0 __acrt_initialize_sse2
FUNC cdca0 284 0 _CIlog10_pentium4
PUBLIC cdcb8 0 _log10_pentium4
PUBLIC cdf41 0 _fFEXP
PUBLIC cdf98 0 _rtinfpopse
PUBLIC cdf9a 0 _rtinfnpopse
PUBLIC cdfaa 0 _fFLN
PUBLIC ce05f 0 _rtinfpop
PUBLIC ce061 0 _rtinfnpop
PUBLIC ce07e 0 _ffexpm1
FUNC ce130 67 0 _trandisp1
FUNC ce197 8c 0 _trandisp2
PUBLIC ce223 0 _rttospopde
PUBLIC ce228 0 _rttospop
PUBLIC ce22a 0 _rtnospop
PUBLIC ce22c 0 _rttosnpop
PUBLIC ce22d 0 _rtnospopde
PUBLIC ce234 0 _rtzeropop
PUBLIC ce236 0 _rtzeronpop
PUBLIC ce23b 0 _rtzerospop
PUBLIC ce248 0 _rtonepop
PUBLIC ce24a 0 _rtonenpop
PUBLIC ce24f 0 _tosnan1
PUBLIC ce27a 0 _nosnan2
PUBLIC ce27c 0 _tosnan2
PUBLIC ce2a4 0 _nan2
PUBLIC ce2e3 0 _rtindfpop
PUBLIC ce2e5 0 _rtindfnpop
PUBLIC ce2f6 0 _rttosnpopde
PUBLIC ce300 0 _rtatan2inf
PUBLIC ce31d 0 _rtchsifneg
FUNC ce330 15 0 _twoToTOS
FUNC ce345 17 0 _load_CW
FUNC ce35c 19 0 _convertTOStoQNaN
FUNC ce375 43 0 _fload_withFB
FUNC ce3b8 16 0 _checkTOS_withFB
FUNC ce3ce d 0 _fast_exit
FUNC ce3db 2a 0 _math_exit
FUNC ce405 14 0 _check_overflow_exit
FUNC ce419 a3 0 _check_range_exit
FUNC ce4c0 17 0 _startTwoArgErrorHandling
FUNC ce4d7 3c 0 _startOneArgErrorHandling
FUNC ce513 218 0 __libm_error_support
FUNC ce72b b9 0 _ceil_default
FUNC ce7e4 82 0 __crt_seh_guarded_call<int>::operator()<<lambda_123407a5e2ac06da108355a851863b7a>,<lambda_2fe9b910cf3cbf4a0ab98a02ba45b3ec> &,<lambda_ae55bdf541ad94d75914d381c370e64d> >(<lambda_123407a5e2ac06da108355a851863b7a> &&,<lambda_2fe9b910cf3cbf4a0ab98a02ba45b3ec> &,<lambda_ae55bdf541ad94d75914d381c370e64d> &&)
FUNC ce866 28 0 __acrt_lowio_lock_fh_and_call<<lambda_2fe9b910cf3cbf4a0ab98a02ba45b3ec> >(int,<lambda_2fe9b910cf3cbf4a0ab98a02ba45b3ec> &&)
FUNC ce88e 7f 0 _close
FUNC ce90d 9c 0 _close_nolock
FUNC ce9a9 3b 0 __acrt_stdio_free_stream(__crt_stdio_stream)
FUNC ce9e4 1f 0 __dcrt_lowio_initialize_console_output
FUNC cea03 17 0 __dcrt_terminate_console_output
FUNC cea1a 13 0 _clrfp
FUNC cea2d 2c 0 _ctrlfp
FUNC cea59 5b 0 _set_statfp
FUNC ceab4 12 0 _statfp
FUNC ceac6 6a 0 _d_inttype
FUNC ceb30 12b 0 _powhlp
FUNC cec5b 10b 0 _87except
FUNC ced66 16 0 _frnd
FUNC ced7c 34 0 _errcode
FUNC cedb0 ce 0 _except1
FUNC cee7e 1e0 0 _handle_exc
FUNC cf05e 23 0 _raise_exc
FUNC cf081 2f1 0 _raise_exc_ex
FUNC cf372 2f 0 _set_errno_from_matherr
FUNC cf3a1 a2 0 _umatherr
FUNC cf443 d4 0 _decomp
FUNC cf517 2f 0 _set_exp
FUNC cf546 5e 0 _sptype
FUNC cf5a4 a4 0 _fpclass
PUBLIC cf648 0 AreFileApisANSI
PUBLIC cf64e 14 ReadFile
PUBLIC cf654 c HeapCreate
PUBLIC cf65a c HeapFree
PUBLIC cf660 10 GetFullPathNameW
PUBLIC cf666 14 WriteFile
PUBLIC cf66c 14 GetDiskFreeSpaceW
PUBLIC cf672 4 OutputDebugStringA
PUBLIC cf678 14 LockFile
PUBLIC cf67e 10 SetFilePointer
PUBLIC cf684 10 GetFullPathNameA
PUBLIC cf68a 4 SetEndOfFile
PUBLIC cf690 14 UnlockFileEx
PUBLIC cf696 8 GetTempPathW
PUBLIC cf69c c CreateMutexW
PUBLIC cf6a2 1c CreateFileW
PUBLIC cf6a8 4 GetFileAttributesW
PUBLIC cf6ae 4 UnmapViewOfFile
PUBLIC cf6b4 c HeapValidate
PUBLIC cf6ba c HeapSize
PUBLIC cf6c0 18 MultiByteToWideChar
PUBLIC cf6c6 4 Sleep
PUBLIC cf6cc 8 GetTempPathA
PUBLIC cf6d2 1c FormatMessageW
PUBLIC cf6d8 14 GetDiskFreeSpaceA
PUBLIC cf6de 0 GetLastError
PUBLIC cf6e4 4 GetFileAttributesA
PUBLIC cf6ea c GetFileAttributesExW
PUBLIC cf6f0 4 OutputDebugStringW
PUBLIC cf6f6 8 FlushViewOfFile
PUBLIC cf6fc 1c CreateFileA
PUBLIC cf702 4 LoadLibraryA
PUBLIC cf708 c WaitForSingleObjectEx
PUBLIC cf70e 4 DeleteFileA
PUBLIC cf714 4 DeleteFileW
PUBLIC cf71a 10 HeapReAlloc
PUBLIC cf720 4 GetSystemInfo
PUBLIC cf726 4 LoadLibraryW
PUBLIC cf72c c HeapAlloc
PUBLIC cf732 8 HeapCompact
PUBLIC cf738 4 HeapDestroy
PUBLIC cf73e 14 UnlockFile
PUBLIC cf744 8 GetProcAddress
PUBLIC cf74a 18 CreateFileMappingA
PUBLIC cf750 4 LocalFree
PUBLIC cf756 18 LockFileEx
PUBLIC cf75c 8 GetFileSize
PUBLIC cf762 0 GetCurrentProcessId
PUBLIC cf768 0 GetProcessHeap
PUBLIC cf76e 8 SystemTimeToFileTime
PUBLIC cf774 4 FreeLibrary
PUBLIC cf77a 20 WideCharToMultiByte
PUBLIC cf780 4 GetSystemTimeAsFileTime
PUBLIC cf786 4 GetSystemTime
PUBLIC cf78c 1c FormatMessageA
PUBLIC cf792 18 CreateFileMappingW
PUBLIC cf798 14 MapViewOfFile
PUBLIC cf79e 4 QueryPerformanceCounter
PUBLIC cf7a4 0 GetTickCount
PUBLIC cf7aa 4 FlushFileBuffers
PUBLIC cf7b0 4 IsProcessorFeaturePresent
PUBLIC cf7b6 10 RtlUnwind
FUNC cf7bc 37 4 _EH_prolog3_catch
FUNC cf800 43 0 _FindPESection
FUNC cf850 ba 0 _IsNonwritableInCurrentImage
FUNC cf910 31 0 _ValidateImageBase
FUNC cf950 95 0 _aulldvrm
FUNC cf9f0 49 0 _SEH_prolog4_GS
FUNC cfa39 11 0 _SEH_epilog4_GS
FUNC cfa50 aa 0 _alldiv
FUNC cfb00 b2 0 _allrem
FUNC cfbc0 34 0 _allmul
FUNC cfc00 df 0 _alldvrm
FUNC cfce0 1f 0 _aullshr
FUNC cfd00 2c 0 _alloca_probe_16
PUBLIC cfd16 0 _alloca_probe_8
FUNC cfd30 1f 0 _allshl
FUNC cfd50 9 0 _ftol2_sse
FUNC cfd59 13 0 _ftol2_pentium4
FUNC cfd6c 1a 0 _ftol2_sse_excpt
FUNC cfd90 75 0 _ftol2
FUNC cfe10 2d 0 _chkstk
FUNC cfe40 574 0 memcpy
FUNC d03c0 12b 0 strchr
PUBLIC d042e 0 __from_strstr_to_strchr
FUNC d04f0 137 0 strrchr
FUNC d0630 21 0 _allshr
FUNC d0660 68 0 _aulldiv
FUNC d06d0 75 0 _aullrem
FUNC d0750 f 0 _ftoui3
FUNC d075f f 0 _ftoul3
FUNC d076e d 0 _ftol3
FUNC d077b 18 0 _ftol3_NaN
FUNC d0793 86 0 _ftol3_work
FUNC d0819 c2 0 _ftol3_common
FUNC d08db 12 0 _ftol3_arg_error
FUNC d08ed 44 0 _ftol3_except
FUNC d0931 f 0 _dtoui3
FUNC d0940 f 0 _dtoul3
FUNC d094f d 0 _dtol3
FUNC d095c 1d 0 _dtol3_NaN
FUNC d0979 e5 0 _dtol3_work
FUNC d0a60 37 0 _ultod3
FUNC d0aa0 27 0 _ltod3
FUNC d0ad0 28b 0 _libm_sse2_log_precise
FUNC d0d60 3f 0 log
FUNC d0da0 3b 0 _CIlog
FUNC d0ddb d5 0 _CIlog_default
PUBLIC d0def 0 _log_default
FUNC d0eb0 26c 0 _CIlog_pentium4
PUBLIC d0ec8 0 _log_pentium4
FUNC d1f50 31 0 `dynamic atexit destructor for 'node_sqlite3::Database::constructor_template''
FUNC d1f90 31 0 `dynamic atexit destructor for 'node_sqlite3::Statement::constructor_template''
STACK WIN 4 1000 16 0 0 0 0 0 0 1 $T0 .raSearch = $eip $T0 ^ = $esp $T0 4 + = 
STACK WIN 4 1020 16 0 0 0 0 0 0 1 $T0 .raSearch = $eip $T0 ^ = $esp $T0 4 + = 
STACK WIN 4 1040 bc 9 0 4 0 0 0 1 $T0 .raSearch = $eip $T0 ^ = $esp $T0 4 + = 
STACK WIN 4 1044 b4 5 0 4 4 10 0 1 $T0 .raSearch = $eip $T0 ^ = $esp $T0 4 + =  $20 $T0 20 - ^ = 
STACK WIN 4 1049 ae 0 0 4 8 10 0 1 $T0 .raSearch = $eip $T0 ^ = $esp $T0 4 + =  $20 $T0 20 - ^ =  $23 $T0 24 - ^ = 
STACK WIN 4 1100 b8 9 0 8 0 0 0 1 $T0 .raSearch = $eip $T0 ^ = $esp $T0 4 + = 
STACK WIN 4 1104 b0 5 0 8 4 8 0 1 $T0 .raSearch = $eip $T0 ^ = $esp $T0 4 + =  $22 $T0 12 - ^ = 
STACK WIN 4 1109 aa 0 0 8 8 8 0 1 $T0 .raSearch = $eip $T0 ^ = $esp $T0 4 + =  $22 $T0 12 - ^ =  $23 $T0 16 - ^ = 
STACK WIN 4 11c0 7d 2a 0 8 10 1c 0 1 $T0 $ebp = $eip $T0 4 + ^ = $ebp $T0 ^ = $esp $T0 8 + =  $20 $T0 32 - ^ =  $23 $T0 36 - ^ =  $24 $T0 40 - ^ = 
STACK WIN 4 1240 8a 2a 0 4 10 24 0 1 $T0 $ebp = $eip $T0 4 + ^ = $ebp $T0 ^ = $esp $T0 8 + =  $20 $T0 40 - ^ =  $23 $T0 44 - ^ =  $24 $T0 48 - ^ = 
STACK WIN 4 12d0 8a 2a 0 4 10 24 0 1 $T0 $ebp = $eip $T0 4 + ^ = $ebp $T0 ^ = $esp $T0 8 + =  $20 $T0 40 - ^ =  $23 $T0 44 - ^ =  $24 $T0 48 - ^ = 
STACK WIN 4 1360 80 2a 0 c 10 1c 0 1 $T0 $ebp = $eip $T0 4 + ^ = $ebp $T0 ^ = $esp $T0 8 + =  $20 $T0 32 - ^ =  $23 $T0 36 - ^ =  $24 $T0 40 - ^ = 
STACK WIN 4 13e0 a8 2d 0 c 10 28 0 1 $T0 $ebp = $eip $T0 4 + ^ = $ebp $T0 ^ = $esp $T0 8 + =  $20 $T0 44 - ^ =  $23 $T0 48 - ^ =  $24 $T0 52 - ^ = 
STACK WIN 4 1490 8d 2a 0 8 10 24 0 1 $T0 $ebp = $eip $T0 4 + ^ = $ebp $T0 ^ = $esp $T0 8 + =  $20 $T0 40 - ^ =  $23 $T0 44 - ^ =  $24 $T0 48 - ^ = 
STACK WIN 4 1520 8a 2a 0 4 10 24 0 1 $T0 $ebp = $eip $T0 4 + ^ = $ebp $T0 ^ = $esp $T0 8 + =  $20 $T0 40 - ^ =  $23 $T0 44 - ^ =  $24 $T0 48 - ^ = 
STACK WIN 4 15b0 8a 2a 0 4 10 24 0 1 $T0 $ebp = $eip $T0 4 + ^ = $ebp $T0 ^ = $esp $T0 8 + =  $20 $T0 40 - ^ =  $23 $T0 44 - ^ =  $24 $T0 48 - ^ = 
STACK WIN 4 1640 7a 2a 0 4 10 1c 0 1 $T0 $ebp = $eip $T0 4 + ^ = $ebp $T0 ^ = $esp $T0 8 + =  $20 $T0 32 - ^ =  $23 $T0 36 - ^ =  $24 $T0 40 - ^ = 
STACK WIN 4 16c0 13f 2f 0 8 10 2c 0 1 $T0 $ebp = $eip $T0 4 + ^ = $ebp $T0 ^ = $esp $T0 8 + =  $20 $T0 48 - ^ =  $23 $T0 52 - ^ =  $24 $T0 56 - ^ = 
STACK WIN 4 1800 93 e 0 8 0 0 0 1 $T0 .raSearch = $eip $T0 ^ = $esp $T0 4 + = 
STACK WIN 4 1804 89 a 0 8 4 14 0 1 $T0 .raSearch = $eip $T0 ^ = $esp $T0 4 + =  $20 $T0 24 - ^ = 
STACK WIN 4 1805 87 9 0 8 8 14 0 1 $T0 .raSearch = $eip $T0 ^ = $esp $T0 4 + =  $20 $T0 24 - ^ =  $23 $T0 28 - ^ = 
STACK WIN 4 180c 7f 2 0 8 c 14 0 1 $T0 .raSearch = $eip $T0 ^ = $esp $T0 4 + =  $20 $T0 24 - ^ =  $23 $T0 28 - ^ =  $24 $T0 32 - ^ = 
STACK WIN 4 18a0 50 25 0 0 8 c 0 1 $T0 $ebp = $eip $T0 4 + ^ = $ebp $T0 ^ = $esp $T0 8 + =  $23 $T0 16 - ^ = 
STACK WIN 4 18f0 9f 29 0 0 c 24 0 1 $T0 $ebp = $eip $T0 4 + ^ = $ebp $T0 ^ = $esp $T0 8 + =  $23 $T0 40 - ^ =  $24 $T0 44 - ^ = 
STACK WIN 4 1990 6 0 0 0 0 0 0 1 $T0 .raSearch = $eip $T0 ^ = $esp $T0 4 + = 
STACK WIN 4 19a0 9f 29 0 0 c 24 0 1 $T0 $ebp = $eip $T0 4 + ^ = $ebp $T0 ^ = $esp $T0 8 + =  $23 $T0 40 - ^ =  $24 $T0 44 - ^ = 
STACK WIN 4 1a40 bd 2f 0 c 10 28 0 1 $T0 $ebp = $eip $T0 4 + ^ = $ebp $T0 ^ = $esp $T0 8 + =  $20 $T0 44 - ^ =  $23 $T0 48 - ^ =  $24 $T0 52 - ^ = 
STACK WIN 4 1b00 bf 29 0 4 c 1c 0 1 $T0 $ebp = $eip $T0 4 + ^ = $ebp $T0 ^ = $esp $T0 8 + =  $23 $T0 32 - ^ =  $24 $T0 36 - ^ = 
STACK WIN 4 1bc0 12 0 0 0 0 0 0 1 $T0 .raSearch = $eip $T0 ^ = $esp $T0 4 + = 
STACK WIN 4 1be0 31 22 0 0 4 c 0 1 $T0 $ebp = $eip $T0 4 + ^ = $ebp $T0 ^ = $esp $T0 8 + = 
STACK WIN 4 1c20 d5 2c 0 4 10 24 0 1 $T0 $ebp = $eip $T0 4 + ^ = $ebp $T0 ^ = $esp $T0 8 + =  $20 $T0 40 - ^ =  $23 $T0 44 - ^ =  $24 $T0 48 - ^ = 
STACK WIN 4 1d00 ee 27 0 18 c 28 0 1 $T0 $ebp = $eip $T0 4 + ^ = $ebp $T0 ^ = $esp $T0 8 + =  $23 $T0 44 - ^ =  $24 $T0 48 - ^ = 
STACK WIN 4 1df0 84 25 0 0 8 c 0 1 $T0 $ebp = $eip $T0 4 + ^ = $ebp $T0 ^ = $esp $T0 8 + =  $23 $T0 16 - ^ = 
STACK WIN 4 1e80 31 3 0 4 0 0 0 1 $T0 .raSearch = $eip $T0 ^ = $esp $T0 4 + = 
STACK WIN 4 1e81 c 2 0 4 4 0 0 1 $T0 .raSearch = $eip $T0 ^ = $esp $T0 4 + =  $23 $T0 4 - ^ = 
STACK WIN 4 1ec0 60 4 0 4 0 0 0 1 $T0 .raSearch = $eip $T0 ^ = $esp $T0 4 + = 
STACK WIN 4 1ec1 5c 3 0 4 4 0 0 1 $T0 .raSearch = $eip $T0 ^ = $esp $T0 4 + =  $23 $T0 4 - ^ = 
STACK WIN 4 1ec2 5a 2 0 4 8 0 0 1 $T0 .raSearch = $eip $T0 ^ = $esp $T0 4 + =  $23 $T0 4 - ^ =  $24 $T0 8 - ^ = 
STACK WIN 4 1f20 14 3 0 0 0 0 0 1 $T0 .raSearch = $eip $T0 ^ = $esp $T0 4 + = 
STACK WIN 4 1f21 12 2 0 0 4 0 0 1 $T0 .raSearch = $eip $T0 ^ = $esp $T0 4 + =  $23 $T0 4 - ^ = 
STACK WIN 4 1f40 1b 0 0 0 0 0 0 1 $T0 .raSearch = $eip $T0 ^ = $esp $T0 4 + = 
STACK WIN 4 1f60 2e 5 0 4 0 0 0 1 $T0 .raSearch = $eip $T0 ^ = $esp $T0 4 + = 
STACK WIN 4 1f65 28 0 0 4 4 0 0 1 $T0 .raSearch = $eip $T0 ^ = $esp $T0 4 + =  $23 $T0 4 - ^ = 
STACK WIN 4 1f90 80 25 0 4 8 c 0 1 $T0 $ebp = $eip $T0 4 + ^ = $ebp $T0 ^ = $esp $T0 8 + =  $23 $T0 16 - ^ = 
STACK WIN 4 2010 b8 2a 0 8 c 10 0 1 $T0 $ebp = $eip $T0 4 + ^ = $ebp $T0 ^ = $esp $T0 8 + =  $23 $T0 20 - ^ =  $24 $T0 24 - ^ = 
STACK WIN 4 20d0 a4 25 0 0 8 c 0 1 $T0 $ebp = $eip $T0 4 + ^ = $ebp $T0 ^ = $esp $T0 8 + =  $23 $T0 16 - ^ = 
STACK WIN 4 2180 a5 2b 0 10 10 10 0 1 $T0 $ebp = $eip $T0 4 + ^ = $ebp $T0 ^ = $esp $T0 8 + =  $20 $T0 20 - ^ =  $23 $T0 24 - ^ =  $24 $T0 28 - ^ = 
STACK WIN 4 2230 9c 2b 0 c 10 10 0 1 $T0 $ebp = $eip $T0 4 + ^ = $ebp $T0 ^ = $esp $T0 8 + =  $20 $T0 20 - ^ =  $23 $T0 24 - ^ =  $24 $T0 28 - ^ = 
STACK WIN 4 22d0 d4 2c 0 0 c 14 0 1 $T0 $ebp = $eip $T0 4 + ^ = $ebp $T0 ^ = $esp $T0 8 + =  $23 $T0 24 - ^ =  $24 $T0 28 - ^ = 
STACK WIN 4 23b0 10e 26 0 0 c c 0 1 $T0 $ebp = $eip $T0 4 + ^ = $ebp $T0 ^ = $esp $T0 8 + =  $23 $T0 16 - ^ =  $24 $T0 20 - ^ = 
STACK WIN 4 24c0 23 3 0 4 0 0 0 1 $T0 .raSearch = $eip $T0 ^ = $esp $T0 4 + = 
STACK WIN 4 24c1 1f 2 0 4 4 0 0 1 $T0 .raSearch = $eip $T0 ^ = $esp $T0 4 + =  $23 $T0 4 - ^ = 
STACK WIN 4 24f0 5a 4 0 4 0 0 0 1 $T0 .raSearch = $eip $T0 ^ = $esp $T0 4 + = 
STACK WIN 4 24f1 56 3 0 4 4 0 0 1 $T0 .raSearch = $eip $T0 ^ = $esp $T0 4 + =  $23 $T0 4 - ^ = 
STACK WIN 4 24f2 54 2 0 4 8 0 0 1 $T0 .raSearch = $eip $T0 ^ = $esp $T0 4 + =  $23 $T0 4 - ^ =  $24 $T0 8 - ^ = 
STACK WIN 4 2550 5a 4 0 4 0 0 0 1 $T0 .raSearch = $eip $T0 ^ = $esp $T0 4 + = 
STACK WIN 4 2551 56 3 0 4 4 0 0 1 $T0 .raSearch = $eip $T0 ^ = $esp $T0 4 + =  $23 $T0 4 - ^ = 
STACK WIN 4 2552 54 2 0 4 8 0 0 1 $T0 .raSearch = $eip $T0 ^ = $esp $T0 4 + =  $23 $T0 4 - ^ =  $24 $T0 8 - ^ = 
STACK WIN 4 25b0 20 3 0 4 0 0 0 1 $T0 .raSearch = $eip $T0 ^ = $esp $T0 4 + = 
STACK WIN 4 25b1 1c 2 0 4 4 0 0 1 $T0 .raSearch = $eip $T0 ^ = $esp $T0 4 + =  $23 $T0 4 - ^ = 
STACK WIN 4 25d0 221 28 0 4 10 2c 0 1 $T0 $ebp = $eip $T0 4 + ^ = $ebp $T0 ^ = $esp $T0 8 + =  $20 $T0 48 - ^ =  $23 $T0 52 - ^ =  $24 $T0 56 - ^ = 
STACK WIN 4 2800 431 2a 0 0 10 40 0 1 $T0 $ebp = $eip $T0 4 + ^ = $ebp $T0 ^ = $esp $T0 8 + =  $20 $T0 68 - ^ =  $23 $T0 72 - ^ =  $24 $T0 76 - ^ = 
STACK WIN 4 2c40 378 2a 0 c 10 2c 0 1 $T0 $ebp = $eip $T0 4 + ^ = $ebp $T0 ^ = $esp $T0 8 + =  $20 $T0 48 - ^ =  $23 $T0 52 - ^ =  $24 $T0 56 - ^ = 
STACK WIN 4 2fc0 305 39 0 4 10 430 0 1 $T0 $ebp 1036 + =$eip $T0 4 + ^ =$ebp $T0 ^ = $esp $T0 8 + =  $20 $T0 1076 - ^ =  $23 $T0 1080 - ^ =  $24 $T0 1084 - ^ = 
STACK WIN 4 32d0 163 2b 0 4 10 28 0 1 $T0 $ebp = $eip $T0 4 + ^ = $ebp $T0 ^ = $esp $T0 8 + =  $20 $T0 44 - ^ =  $23 $T0 48 - ^ =  $24 $T0 52 - ^ = 
STACK WIN 4 3440 41f 28 0 4 10 3c 0 1 $T0 $ebp = $eip $T0 4 + ^ = $ebp $T0 ^ = $esp $T0 8 + =  $20 $T0 64 - ^ =  $23 $T0 68 - ^ =  $24 $T0 72 - ^ = 
STACK WIN 4 3860 57 1 0 8 0 0 0 1 $T0 .raSearch = $eip $T0 ^ = $esp $T0 4 + = 
STACK WIN 4 3861 40 0 0 8 4 0 0 1 $T0 .raSearch = $eip $T0 ^ = $esp $T0 4 + =  $23 $T0 4 - ^ = 
STACK WIN 4 38c0 142 25 0 4 10 c 0 1 $T0 $ebp = $eip $T0 4 + ^ = $ebp $T0 ^ = $esp $T0 8 + =  $20 $T0 16 - ^ =  $23 $T0 20 - ^ =  $24 $T0 24 - ^ = 
STACK WIN 4 3a10 7d 7 0 4 0 0 0 1 $T0 .raSearch = $eip $T0 ^ = $esp $T0 4 + = 
STACK WIN 4 3a11 7b 6 0 4 4 0 0 1 $T0 .raSearch = $eip $T0 ^ = $esp $T0 4 + =  $20 $T0 4 - ^ = 
STACK WIN 4 3a16 75 1 0 4 8 0 0 1 $T0 .raSearch = $eip $T0 ^ = $esp $T0 4 + =  $20 $T0 4 - ^ =  $23 $T0 8 - ^ = 
STACK WIN 4 3a17 73 0 0 4 c 0 0 1 $T0 .raSearch = $eip $T0 ^ = $esp $T0 4 + =  $20 $T0 4 - ^ =  $23 $T0 8 - ^ =  $24 $T0 12 - ^ = 
STACK WIN 4 3a90 cc 2a 0 4 c 28 0 1 $T0 $ebp = $eip $T0 4 + ^ = $ebp $T0 ^ = $esp $T0 8 + =  $23 $T0 44 - ^ =  $24 $T0 48 - ^ = 
STACK WIN 4 3b60 41f 28 0 4 10 3c 0 1 $T0 $ebp = $eip $T0 4 + ^ = $ebp $T0 ^ = $esp $T0 8 + =  $20 $T0 64 - ^ =  $23 $T0 68 - ^ =  $24 $T0 72 - ^ = 
STACK WIN 4 3f80 11a 8 0 4 0 0 0 1 $T0 .raSearch = $eip $T0 ^ = $esp $T0 4 + = 
STACK WIN 4 3f82 116 6 0 4 4 4 0 1 $T0 .raSearch = $eip $T0 ^ = $esp $T0 4 + =  $20 $T0 8 - ^ = 
STACK WIN 4 3f87 10d 1 0 4 8 4 0 1 $T0 .raSearch = $eip $T0 ^ = $esp $T0 4 + =  $20 $T0 8 - ^ =  $23 $T0 12 - ^ = 
STACK WIN 4 3f88 10b 0 0 4 c 4 0 1 $T0 .raSearch = $eip $T0 ^ = $esp $T0 4 + =  $20 $T0 8 - ^ =  $23 $T0 12 - ^ =  $24 $T0 16 - ^ = 
STACK WIN 4 40a0 11a 8 0 4 0 0 0 1 $T0 .raSearch = $eip $T0 ^ = $esp $T0 4 + = 
STACK WIN 4 40a2 116 6 0 4 4 4 0 1 $T0 .raSearch = $eip $T0 ^ = $esp $T0 4 + =  $20 $T0 8 - ^ = 
STACK WIN 4 40a7 10d 1 0 4 8 4 0 1 $T0 .raSearch = $eip $T0 ^ = $esp $T0 4 + =  $20 $T0 8 - ^ =  $23 $T0 12 - ^ = 
STACK WIN 4 40a8 10b 0 0 4 c 4 0 1 $T0 .raSearch = $eip $T0 ^ = $esp $T0 4 + =  $20 $T0 8 - ^ =  $23 $T0 12 - ^ =  $24 $T0 16 - ^ = 
STACK WIN 4 41c0 3b3 28 0 4 10 1c 0 1 $T0 $ebp = $eip $T0 4 + ^ = $ebp $T0 ^ = $esp $T0 8 + =  $20 $T0 32 - ^ =  $23 $T0 36 - ^ =  $24 $T0 40 - ^ = 
STACK WIN 4 4580 82 1 0 4 0 0 0 1 $T0 .raSearch = $eip $T0 ^ = $esp $T0 4 + = 
STACK WIN 4 4581 80 0 0 4 4 0 0 1 $T0 .raSearch = $eip $T0 ^ = $esp $T0 4 + =  $23 $T0 4 - ^ = 
STACK WIN 4 4610 20 1 0 4 0 0 0 1 $T0 .raSearch = $eip $T0 ^ = $esp $T0 4 + = 
STACK WIN 4 4611 1e 0 0 4 4 0 0 1 $T0 .raSearch = $eip $T0 ^ = $esp $T0 4 + =  $23 $T0 4 - ^ = 
STACK WIN 4 4630 d8 7 0 4 0 0 0 1 $T0 .raSearch = $eip $T0 ^ = $esp $T0 4 + = 
STACK WIN 4 4631 d6 6 0 4 4 0 0 1 $T0 .raSearch = $eip $T0 ^ = $esp $T0 4 + =  $20 $T0 4 - ^ = 
STACK WIN 4 4636 d0 1 0 4 8 0 0 1 $T0 .raSearch = $eip $T0 ^ = $esp $T0 4 + =  $20 $T0 4 - ^ =  $23 $T0 8 - ^ = 
STACK WIN 4 4637 ce 0 0 4 c 0 0 1 $T0 .raSearch = $eip $T0 ^ = $esp $T0 4 + =  $20 $T0 4 - ^ =  $23 $T0 8 - ^ =  $24 $T0 12 - ^ = 
STACK WIN 4 4710 a2 25 0 8 c 10 0 1 $T0 $ebp = $eip $T0 4 + ^ = $ebp $T0 ^ = $esp $T0 8 + =  $23 $T0 20 - ^ =  $24 $T0 24 - ^ = 
STACK WIN 4 47c0 18b 28 0 8 10 28 0 1 $T0 $ebp = $eip $T0 4 + ^ = $ebp $T0 ^ = $esp $T0 8 + =  $20 $T0 44 - ^ =  $23 $T0 48 - ^ =  $24 $T0 52 - ^ = 
STACK WIN 4 4950 d0 7 0 4 0 0 0 1 $T0 .raSearch = $eip $T0 ^ = $esp $T0 4 + = 
STACK WIN 4 4951 ce 6 0 4 4 0 0 1 $T0 .raSearch = $eip $T0 ^ = $esp $T0 4 + =  $20 $T0 4 - ^ = 
STACK WIN 4 4956 c8 1 0 4 8 0 0 1 $T0 .raSearch = $eip $T0 ^ = $esp $T0 4 + =  $20 $T0 4 - ^ =  $23 $T0 8 - ^ = 
STACK WIN 4 4957 c6 0 0 4 c 0 0 1 $T0 .raSearch = $eip $T0 ^ = $esp $T0 4 + =  $20 $T0 4 - ^ =  $23 $T0 8 - ^ =  $24 $T0 12 - ^ = 
STACK WIN 4 4a20 13d 2a 0 10 c 30 0 1 $T0 $ebp = $eip $T0 4 + ^ = $ebp $T0 ^ = $esp $T0 8 + =  $23 $T0 52 - ^ =  $24 $T0 56 - ^ = 
STACK WIN 4 4b60 1cf 2b 0 8 10 38 0 1 $T0 $ebp = $eip $T0 4 + ^ = $ebp $T0 ^ = $esp $T0 8 + =  $20 $T0 60 - ^ =  $23 $T0 64 - ^ =  $24 $T0 68 - ^ = 
STACK WIN 4 4d30 1ff 2e 0 4 10 41c 0 1 $T0 $ebp = $eip $T0 4 + ^ = $ebp $T0 ^ = $esp $T0 8 + =  $20 $T0 1056 - ^ =  $23 $T0 1060 - ^ =  $24 $T0 1064 - ^ = 
STACK WIN 4 4f30 23 0 0 4 0 0 0 1 $T0 .raSearch = $eip $T0 ^ = $esp $T0 4 + = 
STACK WIN 4 4f60 d4 2a 0 4 c 2c 0 1 $T0 $ebp = $eip $T0 4 + ^ = $ebp $T0 ^ = $esp $T0 8 + =  $23 $T0 48 - ^ =  $24 $T0 52 - ^ = 
STACK WIN 4 5040 39c 28 0 4 10 38 0 1 $T0 $ebp = $eip $T0 4 + ^ = $ebp $T0 ^ = $esp $T0 8 + =  $20 $T0 60 - ^ =  $23 $T0 64 - ^ =  $24 $T0 68 - ^ = 
STACK WIN 4 53e0 142 25 0 4 10 c 0 1 $T0 $ebp = $eip $T0 4 + ^ = $ebp $T0 ^ = $esp $T0 8 + =  $20 $T0 16 - ^ =  $23 $T0 20 - ^ =  $24 $T0 24 - ^ = 
STACK WIN 4 5530 d4 28 0 4 10 1c 0 1 $T0 $ebp = $eip $T0 4 + ^ = $ebp $T0 ^ = $esp $T0 8 + =  $20 $T0 32 - ^ =  $23 $T0 36 - ^ =  $24 $T0 40 - ^ = 
STACK WIN 4 5610 1ff 2e 0 4 10 41c 0 1 $T0 $ebp = $eip $T0 4 + ^ = $ebp $T0 ^ = $esp $T0 8 + =  $20 $T0 1056 - ^ =  $23 $T0 1060 - ^ =  $24 $T0 1064 - ^ = 
STACK WIN 4 5810 23 0 0 4 0 0 0 1 $T0 .raSearch = $eip $T0 ^ = $esp $T0 4 + = 
STACK WIN 4 5840 177 2b 0 4 10 2c 0 1 $T0 $ebp = $eip $T0 4 + ^ = $ebp $T0 ^ = $esp $T0 8 + =  $20 $T0 48 - ^ =  $23 $T0 52 - ^ =  $24 $T0 56 - ^ = 
STACK WIN 4 59c0 5c 7 0 8 0 0 0 1 $T0 .raSearch = $eip $T0 ^ = $esp $T0 4 + = 
STACK WIN 4 59c5 54 2 0 8 4 0 0 1 $T0 .raSearch = $eip $T0 ^ = $esp $T0 4 + =  $23 $T0 4 - ^ = 
STACK WIN 4 5a20 5c 7 0 8 0 0 0 1 $T0 .raSearch = $eip $T0 ^ = $esp $T0 4 + = 
STACK WIN 4 5a25 54 2 0 8 4 0 0 1 $T0 .raSearch = $eip $T0 ^ = $esp $T0 4 + =  $23 $T0 4 - ^ = 
STACK WIN 4 5a80 31 0 0 8 0 0 0 1 $T0 .raSearch = $eip $T0 ^ = $esp $T0 4 + = 
STACK WIN 4 5ac0 34 3 0 0 0 0 0 1 $T0 .raSearch = $eip $T0 ^ = $esp $T0 4 + = 
STACK WIN 4 5ac1 32 2 0 0 4 0 0 1 $T0 .raSearch = $eip $T0 ^ = $esp $T0 4 + =  $23 $T0 4 - ^ = 
STACK WIN 4 5b00 5a 3 0 4 0 0 0 1 $T0 .raSearch = $eip $T0 ^ = $esp $T0 4 + = 
STACK WIN 4 5b01 56 2 0 4 4 0 0 1 $T0 .raSearch = $eip $T0 ^ = $esp $T0 4 + =  $23 $T0 4 - ^ = 
STACK WIN 4 5b60 4d 3 0 4 0 0 0 1 $T0 .raSearch = $eip $T0 ^ = $esp $T0 4 + = 
STACK WIN 4 5b61 49 2 0 4 4 0 0 1 $T0 .raSearch = $eip $T0 ^ = $esp $T0 4 + =  $23 $T0 4 - ^ = 
STACK WIN 4 5b91 d 0 0 4 8 0 0 1 $T0 .raSearch = $eip $T0 ^ = $esp $T0 4 + =  $23 $T0 4 - ^ =  $24 $T0 8 - ^ = 
STACK WIN 4 5bb0 2e 3 0 0 0 0 0 1 $T0 .raSearch = $eip $T0 ^ = $esp $T0 4 + = 
STACK WIN 4 5bb1 2c 2 0 0 4 0 0 1 $T0 .raSearch = $eip $T0 ^ = $esp $T0 4 + =  $23 $T0 4 - ^ = 
STACK WIN 4 5be0 b1 3 0 0 0 0 0 1 $T0 .raSearch = $eip $T0 ^ = $esp $T0 4 + = 
STACK WIN 4 5be1 95 2 0 0 4 0 0 1 $T0 .raSearch = $eip $T0 ^ = $esp $T0 4 + =  $23 $T0 4 - ^ = 
STACK WIN 4 5c04 28 0 0 0 8 0 0 1 $T0 .raSearch = $eip $T0 ^ = $esp $T0 4 + =  $23 $T0 4 - ^ =  $24 $T0 8 - ^ = 
STACK WIN 4 5ca0 83 3 0 4 0 0 0 1 $T0 .raSearch = $eip $T0 ^ = $esp $T0 4 + = 
STACK WIN 4 5ca1 7f 2 0 4 4 0 0 1 $T0 .raSearch = $eip $T0 ^ = $esp $T0 4 + =  $23 $T0 4 - ^ = 
STACK WIN 4 5cc6 4a 0 0 4 8 0 0 1 $T0 .raSearch = $eip $T0 ^ = $esp $T0 4 + =  $23 $T0 4 - ^ =  $20 $T0 8 - ^ = 
STACK WIN 4 5cc7 48 0 0 4 c 0 0 1 $T0 .raSearch = $eip $T0 ^ = $esp $T0 4 + =  $23 $T0 4 - ^ =  $20 $T0 8 - ^ =  $24 $T0 12 - ^ = 
STACK WIN 4 5d30 90 4 0 4 0 0 0 1 $T0 .raSearch = $eip $T0 ^ = $esp $T0 4 + = 
STACK WIN 4 5d31 8c 3 0 4 4 0 0 1 $T0 .raSearch = $eip $T0 ^ = $esp $T0 4 + =  $20 $T0 4 - ^ = 
STACK WIN 4 5d32 8a 2 0 4 8 0 0 1 $T0 .raSearch = $eip $T0 ^ = $esp $T0 4 + =  $20 $T0 4 - ^ =  $23 $T0 8 - ^ = 
STACK WIN 4 5d56 2c 0 0 4 c 0 0 1 $T0 .raSearch = $eip $T0 ^ = $esp $T0 4 + =  $20 $T0 4 - ^ =  $23 $T0 8 - ^ =  $24 $T0 12 - ^ = 
STACK WIN 4 5dc0 55 5 0 4 0 0 0 1 $T0 .raSearch = $eip $T0 ^ = $esp $T0 4 + = 
STACK WIN 4 5dc5 4f 0 0 4 4 0 0 1 $T0 .raSearch = $eip $T0 ^ = $esp $T0 4 + =  $23 $T0 4 - ^ = 
STACK WIN 4 5e20 e1 28 0 8 10 20 0 1 $T0 $ebp = $eip $T0 4 + ^ = $ebp $T0 ^ = $esp $T0 8 + =  $20 $T0 36 - ^ =  $23 $T0 40 - ^ =  $24 $T0 44 - ^ = 
STACK WIN 4 5f10 f1 8 0 8 0 0 0 1 $T0 .raSearch = $eip $T0 ^ = $esp $T0 4 + = 
STACK WIN 4 5f11 e2 7 0 8 4 0 0 1 $T0 .raSearch = $eip $T0 ^ = $esp $T0 4 + =  $20 $T0 4 - ^ = 
STACK WIN 4 5f16 dc 2 0 8 8 0 0 1 $T0 .raSearch = $eip $T0 ^ = $esp $T0 4 + =  $20 $T0 4 - ^ =  $23 $T0 8 - ^ = 
STACK WIN 4 5f74 7b 0 0 8 c 0 0 1 $T0 .raSearch = $eip $T0 ^ = $esp $T0 4 + =  $20 $T0 4 - ^ =  $23 $T0 8 - ^ =  $24 $T0 12 - ^ = 
STACK WIN 4 5ff6 b 0 0 8 8 0 0 1 $T0 .raSearch = $eip $T0 ^ = $esp $T0 4 + =  $20 $T0 4 - ^ =  $23 $T0 8 - ^ =  $24 $T0 12 - ^ = 
STACK WIN 4 6010 104 10 0 c 0 0 0 1 $T0 .raSearch = $eip $T0 ^ = $esp $T0 4 + = 
STACK WIN 4 6011 e1 f 0 c 4 0 0 1 $T0 .raSearch = $eip $T0 ^ = $esp $T0 4 + =  $20 $T0 4 - ^ = 
STACK WIN 4 6016 db a 0 c 8 0 0 1 $T0 .raSearch = $eip $T0 ^ = $esp $T0 4 + =  $20 $T0 4 - ^ =  $22 $T0 8 - ^ = 
STACK WIN 4 601b d5 5 0 c c 0 0 1 $T0 .raSearch = $eip $T0 ^ = $esp $T0 4 + =  $20 $T0 4 - ^ =  $22 $T0 8 - ^ =  $23 $T0 12 - ^ = 
STACK WIN 4 602b c2 0 0 c 10 0 0 1 $T0 .raSearch = $eip $T0 ^ = $esp $T0 4 + =  $20 $T0 4 - ^ =  $22 $T0 8 - ^ =  $23 $T0 12 - ^ =  $24 $T0 16 - ^ = 
STACK WIN 4 6120 63 8 0 4 0 0 0 1 $T0 .raSearch = $eip $T0 ^ = $esp $T0 4 + = 
STACK WIN 4 6121 5f 7 0 4 4 0 0 1 $T0 .raSearch = $eip $T0 ^ = $esp $T0 4 + =  $23 $T0 4 - ^ = 
STACK WIN 4 6126 56 2 0 4 8 0 0 1 $T0 .raSearch = $eip $T0 ^ = $esp $T0 4 + =  $23 $T0 4 - ^ =  $24 $T0 8 - ^ = 
STACK WIN 4 6190 57 0 0 8 0 0 0 1 $T0 .raSearch = $eip $T0 ^ = $esp $T0 4 + = 
STACK WIN 4 61f0 129 6 0 4 0 0 0 1 $T0 .raSearch = $eip $T0 ^ = $esp $T0 4 + = 
STACK WIN 4 61f4 114 2 0 4 4 c 0 1 $T0 .raSearch = $eip $T0 ^ = $esp $T0 4 + =  $22 $T0 16 - ^ = 
STACK WIN 4 61f7 110 0 0 4 8 c 0 1 $T0 .raSearch = $eip $T0 ^ = $esp $T0 4 + =  $22 $T0 16 - ^ =  $23 $T0 20 - ^ = 
STACK WIN 4 6226 e0 0 0 4 c c 0 1 $T0 .raSearch = $eip $T0 ^ = $esp $T0 4 + =  $22 $T0 16 - ^ =  $23 $T0 20 - ^ =  $20 $T0 24 - ^ = 
STACK WIN 4 622c d3 0 0 4 10 c 0 1 $T0 .raSearch = $eip $T0 ^ = $esp $T0 4 + =  $22 $T0 16 - ^ =  $23 $T0 20 - ^ =  $20 $T0 24 - ^ =  $24 $T0 28 - ^ = 
STACK WIN 4 630e b 0 0 4 8 c 0 1 $T0 .raSearch = $eip $T0 ^ = $esp $T0 4 + =  $22 $T0 16 - ^ =  $23 $T0 20 - ^ =  $20 $T0 24 - ^ =  $24 $T0 28 - ^ = 
STACK WIN 4 6320 18 0 0 4 0 0 0 1 $T0 .raSearch = $eip $T0 ^ = $esp $T0 4 + = 
STACK WIN 4 6340 46 0 0 8 0 0 0 1 $T0 .raSearch = $eip $T0 ^ = $esp $T0 4 + = 
STACK WIN 4 6390 95 3 0 8 0 0 0 1 $T0 .raSearch = $eip $T0 ^ = $esp $T0 4 + = 
STACK WIN 4 6391 86 2 0 8 4 0 0 1 $T0 .raSearch = $eip $T0 ^ = $esp $T0 4 + =  $23 $T0 4 - ^ = 
STACK WIN 4 6398 7c 0 0 8 8 0 0 1 $T0 .raSearch = $eip $T0 ^ = $esp $T0 4 + =  $23 $T0 4 - ^ =  $24 $T0 8 - ^ = 
STACK WIN 4 63df 1f 0 0 8 c 0 0 1 $T0 .raSearch = $eip $T0 ^ = $esp $T0 4 + =  $23 $T0 4 - ^ =  $24 $T0 8 - ^ =  $20 $T0 12 - ^ = 
STACK WIN 4 6430 5f 3 0 4 0 0 0 1 $T0 .raSearch = $eip $T0 ^ = $esp $T0 4 + = 
STACK WIN 4 6431 50 2 0 4 4 0 0 1 $T0 .raSearch = $eip $T0 ^ = $esp $T0 4 + =  $23 $T0 4 - ^ = 
STACK WIN 4 6434 4c 0 0 4 8 0 0 1 $T0 .raSearch = $eip $T0 ^ = $esp $T0 4 + =  $23 $T0 4 - ^ =  $24 $T0 8 - ^ = 
STACK WIN 4 644b 34 0 0 4 c 0 0 1 $T0 .raSearch = $eip $T0 ^ = $esp $T0 4 + =  $23 $T0 4 - ^ =  $24 $T0 8 - ^ =  $20 $T0 12 - ^ = 
STACK WIN 4 6490 57 0 0 4 0 0 0 1 $T0 .raSearch = $eip $T0 ^ = $esp $T0 4 + = 
STACK WIN 4 64f0 ed b 0 8 0 0 0 1 $T0 .raSearch = $eip $T0 ^ = $esp $T0 4 + = 
STACK WIN 4 64f5 df 6 0 8 4 0 0 1 $T0 .raSearch = $eip $T0 ^ = $esp $T0 4 + =  $20 $T0 4 - ^ = 
STACK WIN 4 64f6 dd 5 0 8 8 0 0 1 $T0 .raSearch = $eip $T0 ^ = $esp $T0 4 + =  $20 $T0 4 - ^ =  $23 $T0 8 - ^ = 
STACK WIN 4 64f7 db 4 0 8 c 0 0 1 $T0 .raSearch = $eip $T0 ^ = $esp $T0 4 + =  $20 $T0 4 - ^ =  $23 $T0 8 - ^ =  $24 $T0 12 - ^ = 
STACK WIN 4 656b 66 0 0 8 10 0 0 1 $T0 .raSearch = $eip $T0 ^ = $esp $T0 4 + =  $20 $T0 4 - ^ =  $23 $T0 8 - ^ =  $24 $T0 12 - ^ =  $22 $T0 16 - ^ = 
STACK WIN 4 65e0 9d 9 0 4 0 0 0 1 $T0 .raSearch = $eip $T0 ^ = $esp $T0 4 + = 
STACK WIN 4 65e1 8e 8 0 4 4 0 0 1 $T0 .raSearch = $eip $T0 ^ = $esp $T0 4 + =  $20 $T0 4 - ^ = 
STACK WIN 4 65e6 88 3 0 4 8 0 0 1 $T0 .raSearch = $eip $T0 ^ = $esp $T0 4 + =  $20 $T0 4 - ^ =  $23 $T0 8 - ^ = 
STACK WIN 4 65e7 86 2 0 4 c 0 0 1 $T0 .raSearch = $eip $T0 ^ = $esp $T0 4 + =  $20 $T0 4 - ^ =  $23 $T0 8 - ^ =  $24 $T0 12 - ^ = 
STACK WIN 4 6633 36 0 0 4 10 0 0 1 $T0 .raSearch = $eip $T0 ^ = $esp $T0 4 + =  $20 $T0 4 - ^ =  $23 $T0 8 - ^ =  $24 $T0 12 - ^ =  $22 $T0 16 - ^ = 
STACK WIN 4 6672 b 0 0 4 c 0 0 1 $T0 .raSearch = $eip $T0 ^ = $esp $T0 4 + =  $20 $T0 4 - ^ =  $23 $T0 8 - ^ =  $24 $T0 12 - ^ =  $22 $T0 16 - ^ = 
STACK WIN 4 6680 2f 0 0 4 0 0 0 1 $T0 .raSearch = $eip $T0 ^ = $esp $T0 4 + = 
STACK WIN 4 66b0 8a 2a 0 4 10 24 0 1 $T0 $ebp = $eip $T0 4 + ^ = $ebp $T0 ^ = $esp $T0 8 + =  $20 $T0 40 - ^ =  $23 $T0 44 - ^ =  $24 $T0 48 - ^ = 
STACK WIN 4 6740 db3 28 0 4 10 28 0 1 $T0 $ebp = $eip $T0 4 + ^ = $ebp $T0 ^ = $esp $T0 8 + =  $20 $T0 44 - ^ =  $23 $T0 48 - ^ =  $24 $T0 52 - ^ = 
STACK WIN 4 7500 1aa 0 0 0 0 0 0 1 $T0 .raSearch = $eip $T0 ^ = $esp $T0 4 + = 
STACK WIN 4 76b0 d 0 0 0 0 0 0 1 $T0 .raSearch = $eip $T0 ^ = $esp $T0 4 + = 
STACK WIN 4 76c0 84 2d 0 8 10 20 0 1 $T0 $ebp = $eip $T0 4 + ^ = $ebp $T0 ^ = $esp $T0 8 + =  $20 $T0 36 - ^ =  $23 $T0 40 - ^ =  $24 $T0 44 - ^ = 
STACK WIN 4 7750 91 2d 0 4 10 28 0 1 $T0 $ebp = $eip $T0 4 + ^ = $ebp $T0 ^ = $esp $T0 8 + =  $20 $T0 44 - ^ =  $23 $T0 48 - ^ =  $24 $T0 52 - ^ = 
STACK WIN 4 77f0 8a 2a 0 4 10 24 0 1 $T0 $ebp = $eip $T0 4 + ^ = $ebp $T0 ^ = $esp $T0 8 + =  $20 $T0 40 - ^ =  $23 $T0 44 - ^ =  $24 $T0 48 - ^ = 
STACK WIN 4 7880 8a 2a 0 4 10 24 0 1 $T0 $ebp = $eip $T0 4 + ^ = $ebp $T0 ^ = $esp $T0 8 + =  $20 $T0 40 - ^ =  $23 $T0 44 - ^ =  $24 $T0 48 - ^ = 
STACK WIN 4 7910 7a 2a 0 4 10 1c 0 1 $T0 $ebp = $eip $T0 4 + ^ = $ebp $T0 ^ = $esp $T0 8 + =  $20 $T0 32 - ^ =  $23 $T0 36 - ^ =  $24 $T0 40 - ^ = 
STACK WIN 4 7990 7a 2a 0 4 10 1c 0 1 $T0 $ebp = $eip $T0 4 + ^ = $ebp $T0 ^ = $esp $T0 8 + =  $20 $T0 32 - ^ =  $23 $T0 36 - ^ =  $24 $T0 40 - ^ = 
STACK WIN 4 7a10 98 26 0 4 8 1c 0 1 $T0 $ebp = $eip $T0 4 + ^ = $ebp $T0 ^ = $esp $T0 8 + =  $20 $T0 32 - ^ = 
STACK WIN 4 7ab0 37 3 0 0 0 0 0 1 $T0 .raSearch = $eip $T0 ^ = $esp $T0 4 + = 
STACK WIN 4 7ab1 35 2 0 0 4 0 0 1 $T0 .raSearch = $eip $T0 ^ = $esp $T0 4 + =  $23 $T0 4 - ^ = 
STACK WIN 4 7af0 b1 2a 0 8 c 10 0 1 $T0 $ebp = $eip $T0 4 + ^ = $ebp $T0 ^ = $esp $T0 8 + =  $23 $T0 20 - ^ =  $24 $T0 24 - ^ = 
STACK WIN 4 7bb0 214 28 0 0 10 10 0 1 $T0 $ebp = $eip $T0 4 + ^ = $ebp $T0 ^ = $esp $T0 8 + =  $20 $T0 20 - ^ =  $23 $T0 24 - ^ =  $24 $T0 28 - ^ = 
STACK WIN 4 7dd0 84 29 0 c 8 10 0 1 $T0 $ebp = $eip $T0 4 + ^ = $ebp $T0 ^ = $esp $T0 8 + =  $23 $T0 20 - ^ = 
STACK WIN 4 7e60 bc 26 0 0 c c 0 1 $T0 $ebp = $eip $T0 4 + ^ = $ebp $T0 ^ = $esp $T0 8 + =  $23 $T0 16 - ^ =  $24 $T0 20 - ^ = 
STACK WIN 4 7f20 bd 29 0 8 8 10 0 1 $T0 $ebp = $eip $T0 4 + ^ = $ebp $T0 ^ = $esp $T0 8 + =  $23 $T0 20 - ^ = 
STACK WIN 4 7fe0 b6 25 0 0 8 c 0 1 $T0 $ebp = $eip $T0 4 + ^ = $ebp $T0 ^ = $esp $T0 8 + =  $23 $T0 16 - ^ = 
STACK WIN 4 80a0 e3 2a 0 4 c 10 0 1 $T0 $ebp = $eip $T0 4 + ^ = $ebp $T0 ^ = $esp $T0 8 + =  $23 $T0 20 - ^ =  $24 $T0 24 - ^ = 
STACK WIN 4 8190 105 26 0 0 c c 0 1 $T0 $ebp = $eip $T0 4 + ^ = $ebp $T0 ^ = $esp $T0 8 + =  $23 $T0 16 - ^ =  $24 $T0 20 - ^ = 
STACK WIN 4 82a0 20 3 0 4 0 0 0 1 $T0 .raSearch = $eip $T0 ^ = $esp $T0 4 + = 
STACK WIN 4 82a1 1c 2 0 4 4 0 0 1 $T0 .raSearch = $eip $T0 ^ = $esp $T0 4 + =  $23 $T0 4 - ^ = 
STACK WIN 4 82c0 50 3 0 4 0 0 0 1 $T0 .raSearch = $eip $T0 ^ = $esp $T0 4 + = 
STACK WIN 4 82c1 4c 2 0 4 4 0 0 1 $T0 .raSearch = $eip $T0 ^ = $esp $T0 4 + =  $23 $T0 4 - ^ = 
STACK WIN 4 8310 23 3 0 4 0 0 0 1 $T0 .raSearch = $eip $T0 ^ = $esp $T0 4 + = 
STACK WIN 4 8311 1f 2 0 4 4 0 0 1 $T0 .raSearch = $eip $T0 ^ = $esp $T0 4 + =  $23 $T0 4 - ^ = 
STACK WIN 4 8340 76 25 0 4 8 c 0 1 $T0 $ebp = $eip $T0 4 + ^ = $ebp $T0 ^ = $esp $T0 8 + =  $23 $T0 16 - ^ = 
STACK WIN 4 83c0 23 3 0 4 0 0 0 1 $T0 .raSearch = $eip $T0 ^ = $esp $T0 4 + = 
STACK WIN 4 83c1 1f 2 0 4 4 0 0 1 $T0 .raSearch = $eip $T0 ^ = $esp $T0 4 + =  $23 $T0 4 - ^ = 
STACK WIN 4 83f0 20 3 0 4 0 0 0 1 $T0 .raSearch = $eip $T0 ^ = $esp $T0 4 + = 
STACK WIN 4 83f1 1c 2 0 4 4 0 0 1 $T0 .raSearch = $eip $T0 ^ = $esp $T0 4 + =  $23 $T0 4 - ^ = 
STACK WIN 4 8410 1a 3 0 0 0 0 0 1 $T0 .raSearch = $eip $T0 ^ = $esp $T0 4 + = 
STACK WIN 4 8411 18 2 0 0 4 0 0 1 $T0 .raSearch = $eip $T0 ^ = $esp $T0 4 + =  $23 $T0 4 - ^ = 
STACK WIN 4 8430 1cd 28 0 4 10 2c 0 1 $T0 $ebp = $eip $T0 4 + ^ = $ebp $T0 ^ = $esp $T0 8 + =  $20 $T0 48 - ^ =  $23 $T0 52 - ^ =  $24 $T0 56 - ^ = 
STACK WIN 4 8600 8f 6 0 0 0 0 0 1 $T0 .raSearch = $eip $T0 ^ = $esp $T0 4 + = 
STACK WIN 4 8604 87 2 0 0 4 c 0 1 $T0 .raSearch = $eip $T0 ^ = $esp $T0 4 + =  $23 $T0 16 - ^ = 
STACK WIN 4 8622 68 0 0 0 8 c 0 1 $T0 .raSearch = $eip $T0 ^ = $esp $T0 4 + =  $23 $T0 16 - ^ =  $20 $T0 20 - ^ = 
STACK WIN 4 8623 66 0 0 0 c c 0 1 $T0 .raSearch = $eip $T0 ^ = $esp $T0 4 + =  $23 $T0 16 - ^ =  $20 $T0 20 - ^ =  $24 $T0 24 - ^ = 
STACK WIN 4 8690 8f 4 0 8 0 0 0 1 $T0 .raSearch = $eip $T0 ^ = $esp $T0 4 + = 
STACK WIN 4 8692 89 2 0 8 4 4 0 1 $T0 .raSearch = $eip $T0 ^ = $esp $T0 4 + =  $23 $T0 8 - ^ = 
STACK WIN 4 8720 306 39 0 4 10 438 0 1 $T0 $ebp 1060 + =$eip $T0 4 + ^ =$ebp $T0 ^ = $esp $T0 8 + =  $20 $T0 1084 - ^ =  $23 $T0 1088 - ^ =  $24 $T0 1092 - ^ = 
STACK WIN 4 8a30 29 0 0 4 0 0 0 1 $T0 .raSearch = $eip $T0 ^ = $esp $T0 4 + = 
STACK WIN 4 8a60 139 2b 0 4 10 28 0 1 $T0 $ebp = $eip $T0 4 + ^ = $ebp $T0 ^ = $esp $T0 8 + =  $20 $T0 44 - ^ =  $23 $T0 48 - ^ =  $24 $T0 52 - ^ = 
STACK WIN 4 8ba0 125 28 0 4 10 20 0 1 $T0 $ebp = $eip $T0 4 + ^ = $ebp $T0 ^ = $esp $T0 8 + =  $20 $T0 36 - ^ =  $23 $T0 40 - ^ =  $24 $T0 44 - ^ = 
STACK WIN 4 8cd0 274 30 0 4 10 34 0 1 $T0 $ebp = $eip $T0 4 + ^ = $ebp $T0 ^ = $esp $T0 8 + =  $20 $T0 56 - ^ =  $23 $T0 60 - ^ =  $24 $T0 64 - ^ = 
STACK WIN 4 8f50 80 2 0 4 0 0 0 1 $T0 .raSearch = $eip $T0 ^ = $esp $T0 4 + = 
STACK WIN 4 8f51 7e 1 0 4 4 0 0 1 $T0 .raSearch = $eip $T0 ^ = $esp $T0 4 + =  $23 $T0 4 - ^ = 
STACK WIN 4 8f52 79 0 0 4 8 0 0 1 $T0 .raSearch = $eip $T0 ^ = $esp $T0 4 + =  $23 $T0 4 - ^ =  $24 $T0 8 - ^ = 
STACK WIN 4 8fd0 33 0 0 4 0 0 0 1 $T0 .raSearch = $eip $T0 ^ = $esp $T0 4 + = 
STACK WIN 4 9010 40 7 0 4 0 0 0 1 $T0 .raSearch = $eip $T0 ^ = $esp $T0 4 + = 
STACK WIN 4 9015 3a 2 0 4 4 0 0 1 $T0 .raSearch = $eip $T0 ^ = $esp $T0 4 + =  $20 $T0 4 - ^ = 
STACK WIN 4 9016 38 1 0 4 8 0 0 1 $T0 .raSearch = $eip $T0 ^ = $esp $T0 4 + =  $20 $T0 4 - ^ =  $23 $T0 8 - ^ = 
STACK WIN 4 9017 36 0 0 4 c 0 0 1 $T0 .raSearch = $eip $T0 ^ = $esp $T0 4 + =  $20 $T0 4 - ^ =  $23 $T0 8 - ^ =  $24 $T0 12 - ^ = 
STACK WIN 4 9050 fb 28 0 4 10 20 0 1 $T0 $ebp = $eip $T0 4 + ^ = $ebp $T0 ^ = $esp $T0 8 + =  $20 $T0 36 - ^ =  $23 $T0 40 - ^ =  $24 $T0 44 - ^ = 
STACK WIN 4 9150 80 2 0 4 0 0 0 1 $T0 .raSearch = $eip $T0 ^ = $esp $T0 4 + = 
STACK WIN 4 9151 7e 1 0 4 4 0 0 1 $T0 .raSearch = $eip $T0 ^ = $esp $T0 4 + =  $23 $T0 4 - ^ = 
STACK WIN 4 9152 79 0 0 4 8 0 0 1 $T0 .raSearch = $eip $T0 ^ = $esp $T0 4 + =  $23 $T0 4 - ^ =  $24 $T0 8 - ^ = 
STACK WIN 4 91d0 33 0 0 4 0 0 0 1 $T0 .raSearch = $eip $T0 ^ = $esp $T0 4 + = 
STACK WIN 4 9210 f9 2b 0 4 10 28 0 1 $T0 $ebp = $eip $T0 4 + ^ = $ebp $T0 ^ = $esp $T0 8 + =  $20 $T0 44 - ^ =  $23 $T0 48 - ^ =  $24 $T0 52 - ^ = 
STACK WIN 4 9310 169 28 0 4 10 20 0 1 $T0 $ebp = $eip $T0 4 + ^ = $ebp $T0 ^ = $esp $T0 8 + =  $20 $T0 36 - ^ =  $23 $T0 40 - ^ =  $24 $T0 44 - ^ = 
STACK WIN 4 9480 80 2 0 4 0 0 0 1 $T0 .raSearch = $eip $T0 ^ = $esp $T0 4 + = 
STACK WIN 4 9481 7e 1 0 4 4 0 0 1 $T0 .raSearch = $eip $T0 ^ = $esp $T0 4 + =  $23 $T0 4 - ^ = 
STACK WIN 4 9482 79 0 0 4 8 0 0 1 $T0 .raSearch = $eip $T0 ^ = $esp $T0 4 + =  $23 $T0 4 - ^ =  $24 $T0 8 - ^ = 
STACK WIN 4 9500 33 0 0 4 0 0 0 1 $T0 .raSearch = $eip $T0 ^ = $esp $T0 4 + = 
STACK WIN 4 9540 12e 2b 0 4 10 28 0 1 $T0 $ebp = $eip $T0 4 + ^ = $ebp $T0 ^ = $esp $T0 8 + =  $20 $T0 44 - ^ =  $23 $T0 48 - ^ =  $24 $T0 52 - ^ = 
STACK WIN 4 9670 21d 28 0 4 10 30 0 1 $T0 $ebp = $eip $T0 4 + ^ = $ebp $T0 ^ = $esp $T0 8 + =  $20 $T0 52 - ^ =  $23 $T0 56 - ^ =  $24 $T0 60 - ^ = 
STACK WIN 4 9890 80 2 0 4 0 0 0 1 $T0 .raSearch = $eip $T0 ^ = $esp $T0 4 + = 
STACK WIN 4 9891 7e 1 0 4 4 0 0 1 $T0 .raSearch = $eip $T0 ^ = $esp $T0 4 + =  $23 $T0 4 - ^ = 
STACK WIN 4 9892 79 0 0 4 8 0 0 1 $T0 .raSearch = $eip $T0 ^ = $esp $T0 4 + =  $23 $T0 4 - ^ =  $24 $T0 8 - ^ = 
STACK WIN 4 9910 33 0 0 4 0 0 0 1 $T0 .raSearch = $eip $T0 ^ = $esp $T0 4 + = 
STACK WIN 4 9950 15f 2b 0 4 10 2c 0 1 $T0 $ebp = $eip $T0 4 + ^ = $ebp $T0 ^ = $esp $T0 8 + =  $20 $T0 48 - ^ =  $23 $T0 52 - ^ =  $24 $T0 56 - ^ = 
STACK WIN 4 9ab0 209 28 0 4 10 38 0 1 $T0 $ebp = $eip $T0 4 + ^ = $ebp $T0 ^ = $esp $T0 8 + =  $20 $T0 60 - ^ =  $23 $T0 64 - ^ =  $24 $T0 68 - ^ = 
STACK WIN 4 9cc0 14b 8 0 4 0 0 0 1 $T0 .raSearch = $eip $T0 ^ = $esp $T0 4 + = 
STACK WIN 4 9cc1 149 7 0 4 4 0 0 1 $T0 .raSearch = $eip $T0 ^ = $esp $T0 4 + =  $20 $T0 4 - ^ = 
STACK WIN 4 9cc6 140 2 0 4 8 0 0 1 $T0 .raSearch = $eip $T0 ^ = $esp $T0 4 + =  $20 $T0 4 - ^ =  $22 $T0 8 - ^ = 
STACK WIN 4 9cc7 13e 1 0 4 c 0 0 1 $T0 .raSearch = $eip $T0 ^ = $esp $T0 4 + =  $20 $T0 4 - ^ =  $22 $T0 8 - ^ =  $23 $T0 12 - ^ = 
STACK WIN 4 9cc8 13c 0 0 4 10 0 0 1 $T0 .raSearch = $eip $T0 ^ = $esp $T0 4 + =  $20 $T0 4 - ^ =  $22 $T0 8 - ^ =  $23 $T0 12 - ^ =  $24 $T0 16 - ^ = 
STACK WIN 4 9e10 11c 25 0 4 c 10 0 1 $T0 $ebp = $eip $T0 4 + ^ = $ebp $T0 ^ = $esp $T0 8 + =  $23 $T0 20 - ^ =  $24 $T0 24 - ^ = 
STACK WIN 4 9f30 194 2b 0 4 10 2c 0 1 $T0 $ebp = $eip $T0 4 + ^ = $ebp $T0 ^ = $esp $T0 8 + =  $20 $T0 48 - ^ =  $23 $T0 52 - ^ =  $24 $T0 56 - ^ = 
STACK WIN 4 a0d0 22 5 0 4 0 0 0 1 $T0 .raSearch = $eip $T0 ^ = $esp $T0 4 + = 
STACK WIN 4 a0d5 1c 0 0 4 4 0 0 1 $T0 .raSearch = $eip $T0 ^ = $esp $T0 4 + =  $23 $T0 4 - ^ = 
STACK WIN 4 a100 2e2 28 0 8 10 48 0 1 $T0 $ebp = $eip $T0 4 + ^ = $ebp $T0 ^ = $esp $T0 8 + =  $20 $T0 76 - ^ =  $23 $T0 80 - ^ =  $24 $T0 84 - ^ = 
STACK WIN 4 a3f0 8e 27 0 4 c 18 0 1 $T0 $ebp = $eip $T0 4 + ^ = $ebp $T0 ^ = $esp $T0 8 + =  $23 $T0 28 - ^ =  $24 $T0 32 - ^ = 
STACK WIN 4 a480 13d 25 0 4 10 c 0 1 $T0 $ebp = $eip $T0 4 + ^ = $ebp $T0 ^ = $esp $T0 8 + =  $20 $T0 16 - ^ =  $23 $T0 20 - ^ =  $24 $T0 24 - ^ = 
STACK WIN 4 a5c0 33 0 0 4 0 0 0 1 $T0 .raSearch = $eip $T0 ^ = $esp $T0 4 + = 
STACK WIN 4 a600 1e 5 0 4 0 0 0 1 $T0 .raSearch = $eip $T0 ^ = $esp $T0 4 + = 
STACK WIN 4 a605 18 0 0 4 4 0 0 1 $T0 .raSearch = $eip $T0 ^ = $esp $T0 4 + =  $23 $T0 4 - ^ = 
STACK WIN 4 a620 ea 28 0 4 10 20 0 1 $T0 $ebp = $eip $T0 4 + ^ = $ebp $T0 ^ = $esp $T0 8 + =  $20 $T0 36 - ^ =  $23 $T0 40 - ^ =  $24 $T0 44 - ^ = 
STACK WIN 4 a710 324 2f 0 0 10 48 0 1 $T0 $ebp = $eip $T0 4 + ^ = $ebp $T0 ^ = $esp $T0 8 + =  $20 $T0 76 - ^ =  $23 $T0 80 - ^ =  $24 $T0 84 - ^ = 
STACK WIN 4 aa40 320 30 0 0 10 3c 0 1 $T0 $ebp = $eip $T0 4 + ^ = $ebp $T0 ^ = $esp $T0 8 + =  $20 $T0 64 - ^ =  $23 $T0 68 - ^ =  $24 $T0 72 - ^ = 
STACK WIN 4 ad60 159 25 0 4 10 c 0 1 $T0 $ebp = $eip $T0 4 + ^ = $ebp $T0 ^ = $esp $T0 8 + =  $20 $T0 16 - ^ =  $23 $T0 20 - ^ =  $24 $T0 24 - ^ = 
STACK WIN 4 aec0 e7 28 0 4 10 18 0 1 $T0 $ebp = $eip $T0 4 + ^ = $ebp $T0 ^ = $esp $T0 8 + =  $20 $T0 28 - ^ =  $23 $T0 32 - ^ =  $24 $T0 36 - ^ = 
STACK WIN 4 afb0 41b 2a 0 0 10 44 0 1 $T0 $ebp = $eip $T0 4 + ^ = $ebp $T0 ^ = $esp $T0 8 + =  $20 $T0 72 - ^ =  $23 $T0 76 - ^ =  $24 $T0 80 - ^ = 
STACK WIN 4 b3d0 f6 5 0 4 0 0 0 1 $T0 .raSearch = $eip $T0 ^ = $esp $T0 4 + = 
STACK WIN 4 b3d1 dd 4 0 4 4 0 0 1 $T0 .raSearch = $eip $T0 ^ = $esp $T0 4 + =  $20 $T0 4 - ^ = 
STACK WIN 4 b3d2 db 3 0 4 8 0 0 1 $T0 .raSearch = $eip $T0 ^ = $esp $T0 4 + =  $20 $T0 4 - ^ =  $22 $T0 8 - ^ = 
STACK WIN 4 b3d3 d9 2 0 4 c 0 0 1 $T0 .raSearch = $eip $T0 ^ = $esp $T0 4 + =  $20 $T0 4 - ^ =  $22 $T0 8 - ^ =  $23 $T0 12 - ^ = 
STACK WIN 4 b3d6 d5 0 0 4 10 0 0 1 $T0 .raSearch = $eip $T0 ^ = $esp $T0 4 + =  $20 $T0 4 - ^ =  $22 $T0 8 - ^ =  $23 $T0 12 - ^ =  $24 $T0 16 - ^ = 
STACK WIN 4 b4d0 316 2d 0 0 10 3c 0 1 $T0 $ebp = $eip $T0 4 + ^ = $ebp $T0 ^ = $esp $T0 8 + =  $20 $T0 64 - ^ =  $23 $T0 68 - ^ =  $24 $T0 72 - ^ = 
STACK WIN 4 b7f0 3cf 3c 0 c 10 44c 0 1 $T0 $ebp 1036 + =$eip $T0 4 + ^ =$ebp $T0 ^ = $esp $T0 8 + =  $20 $T0 1104 - ^ =  $23 $T0 1108 - ^ =  $24 $T0 1112 - ^ = 
STACK WIN 4 bbc0 313 2d 0 0 10 3c 0 1 $T0 $ebp = $eip $T0 4 + ^ = $ebp $T0 ^ = $esp $T0 8 + =  $20 $T0 64 - ^ =  $23 $T0 68 - ^ =  $24 $T0 72 - ^ = 
STACK WIN 4 bee0 3f0 3c 0 c 10 44c 0 1 $T0 $ebp 1036 + =$eip $T0 4 + ^ =$ebp $T0 ^ = $esp $T0 8 + =  $20 $T0 1104 - ^ =  $23 $T0 1108 - ^ =  $24 $T0 1112 - ^ = 
STACK WIN 4 c2d0 3f3 3c 0 c 10 44c 0 1 $T0 $ebp 1036 + =$eip $T0 4 + ^ =$ebp $T0 ^ = $esp $T0 8 + =  $20 $T0 1104 - ^ =  $23 $T0 1108 - ^ =  $24 $T0 1112 - ^ = 
STACK WIN 4 c6d0 3f3 3c 0 c 10 44c 0 1 $T0 $ebp 1036 + =$eip $T0 4 + ^ =$ebp $T0 ^ = $esp $T0 8 + =  $20 $T0 1104 - ^ =  $23 $T0 1108 - ^ =  $24 $T0 1112 - ^ = 
STACK WIN 4 cad0 3e8 2e 0 8 10 43c 0 1 $T0 $ebp = $eip $T0 4 + ^ = $ebp $T0 ^ = $esp $T0 8 + =  $20 $T0 1088 - ^ =  $23 $T0 1092 - ^ =  $24 $T0 1096 - ^ = 
STACK WIN 4 cec0 500 39 0 8 10 450 0 1 $T0 $ebp 1036 + =$eip $T0 4 + ^ =$ebp $T0 ^ = $esp $T0 8 + =  $20 $T0 1108 - ^ =  $23 $T0 1112 - ^ =  $24 $T0 1116 - ^ = 
STACK WIN 4 d3c0 7e 8 0 4 0 0 0 1 $T0 .raSearch = $eip $T0 ^ = $esp $T0 4 + = 
STACK WIN 4 d3c1 7c 7 0 4 4 0 0 1 $T0 .raSearch = $eip $T0 ^ = $esp $T0 4 + =  $20 $T0 4 - ^ = 
STACK WIN 4 d3c2 75 6 0 4 8 0 0 1 $T0 .raSearch = $eip $T0 ^ = $esp $T0 4 + =  $20 $T0 4 - ^ =  $22 $T0 8 - ^ = 
STACK WIN 4 d3c3 73 5 0 4 c 0 0 1 $T0 .raSearch = $eip $T0 ^ = $esp $T0 4 + =  $20 $T0 4 - ^ =  $22 $T0 8 - ^ =  $23 $T0 12 - ^ = 
STACK WIN 4 d3c8 6d 0 0 4 10 0 0 1 $T0 .raSearch = $eip $T0 ^ = $esp $T0 4 + =  $20 $T0 4 - ^ =  $22 $T0 8 - ^ =  $23 $T0 12 - ^ =  $24 $T0 16 - ^ = 
STACK WIN 4 d440 14 0 0 4 0 0 0 1 $T0 .raSearch = $eip $T0 ^ = $esp $T0 4 + = 
STACK WIN 4 d460 1f 0 0 0 0 0 0 1 $T0 .raSearch = $eip $T0 ^ = $esp $T0 4 + = 
STACK WIN 4 d480 9f 3 0 10 8 4 0 1 $T0 .raSearch = $eip $T0 ^ = $esp $T0 4 + =  $23 $T0 8 - ^ =  $24 $T0 12 - ^ = 
STACK WIN 4 d520 49 9 0 10 0 10 0 1 $T1 .raSearch = $T0  $T1 4 - 8 @ = $ebp $T1 4 - ^ = $eip $T1 ^ = $esp $T1 4 + =
STACK WIN 4 d570 450 b 0 14 0 0 0 1 $T0 .raSearch = $eip $T0 ^ = $esp $T0 4 + = 
STACK WIN 4 d574 37b 7 0 14 4 c 0 1 $T0 .raSearch = $eip $T0 ^ = $esp $T0 4 + =  $20 $T0 16 - ^ = 
STACK WIN 4 d575 377 6 0 14 8 c 0 1 $T0 .raSearch = $eip $T0 ^ = $esp $T0 4 + =  $20 $T0 16 - ^ =  $22 $T0 20 - ^ = 
STACK WIN 4 d576 375 5 0 14 c c 0 1 $T0 .raSearch = $eip $T0 ^ = $esp $T0 4 + =  $20 $T0 16 - ^ =  $22 $T0 20 - ^ =  $23 $T0 24 - ^ = 
STACK WIN 4 d57b 36f 0 0 14 10 c 0 1 $T0 .raSearch = $eip $T0 ^ = $esp $T0 4 + =  $20 $T0 16 - ^ =  $22 $T0 20 - ^ =  $23 $T0 24 - ^ =  $24 $T0 28 - ^ = 
STACK WIN 4 d9c0 a2 f 0 8 0 0 0 1 $T0 .raSearch = $eip $T0 ^ = $esp $T0 4 + = 
STACK WIN 4 d9c4 9a b 0 8 4 8 0 1 $T0 .raSearch = $eip $T0 ^ = $esp $T0 4 + =  $20 $T0 12 - ^ = 
STACK WIN 4 d9c5 98 a 0 8 8 8 0 1 $T0 .raSearch = $eip $T0 ^ = $esp $T0 4 + =  $20 $T0 12 - ^ =  $22 $T0 16 - ^ = 
STACK WIN 4 d9c6 96 9 0 8 c 8 0 1 $T0 .raSearch = $eip $T0 ^ = $esp $T0 4 + =  $20 $T0 12 - ^ =  $22 $T0 16 - ^ =  $23 $T0 20 - ^ = 
STACK WIN 4 d9cf 8c 0 0 8 10 8 0 1 $T0 .raSearch = $eip $T0 ^ = $esp $T0 4 + =  $20 $T0 12 - ^ =  $22 $T0 16 - ^ =  $23 $T0 20 - ^ =  $24 $T0 24 - ^ = 
STACK WIN 4 da70 e0 7 0 0 0 0 0 1 $T0 .raSearch = $eip $T0 ^ = $esp $T0 4 + = 
STACK WIN 4 da74 d8 3 0 0 4 8 0 1 $T0 .raSearch = $eip $T0 ^ = $esp $T0 4 + =  $20 $T0 12 - ^ = 
STACK WIN 4 da75 d3 2 0 0 8 8 0 1 $T0 .raSearch = $eip $T0 ^ = $esp $T0 4 + =  $20 $T0 12 - ^ =  $23 $T0 16 - ^ = 
STACK WIN 4 da7a cd 0 0 0 c 8 0 1 $T0 .raSearch = $eip $T0 ^ = $esp $T0 4 + =  $20 $T0 12 - ^ =  $23 $T0 16 - ^ =  $24 $T0 20 - ^ = 
STACK WIN 4 db50 121 13 0 0 8 14 0 1 $T0 .raSearch = $eip $T0 ^ = $esp $T0 4 + =  $23 $T0 24 - ^ =  $24 $T0 28 - ^ = 
STACK WIN 4 dc80 123 4 0 0 0 0 0 1 $T0 .raSearch = $eip $T0 ^ = $esp $T0 4 + = 
STACK WIN 4 dc82 11f 2 0 0 4 4 0 1 $T0 .raSearch = $eip $T0 ^ = $esp $T0 4 + =  $20 $T0 8 - ^ = 
STACK WIN 4 dc93 10d 0 0 0 8 4 0 1 $T0 .raSearch = $eip $T0 ^ = $esp $T0 4 + =  $20 $T0 8 - ^ =  $22 $T0 12 - ^ = 
STACK WIN 4 dc94 10b 0 0 0 c 4 0 1 $T0 .raSearch = $eip $T0 ^ = $esp $T0 4 + =  $20 $T0 8 - ^ =  $22 $T0 12 - ^ =  $23 $T0 16 - ^ = 
STACK WIN 4 dc95 109 0 0 0 10 4 0 1 $T0 .raSearch = $eip $T0 ^ = $esp $T0 4 + =  $20 $T0 8 - ^ =  $22 $T0 12 - ^ =  $23 $T0 16 - ^ =  $24 $T0 20 - ^ = 
STACK WIN 4 ddb0 b5 7 0 0 c 10 0 1 $T0 .raSearch = $eip $T0 ^ = $esp $T0 4 + =  $20 $T0 20 - ^ =  $23 $T0 24 - ^ =  $24 $T0 28 - ^ = 
STACK WIN 4 de70 c1 b 0 4 c c 0 1 $T0 .raSearch = $eip $T0 ^ = $esp $T0 4 + =  $20 $T0 16 - ^ =  $23 $T0 20 - ^ =  $24 $T0 24 - ^ = 
STACK WIN 4 df40 116 3 0 0 0 0 0 1 $T0 .raSearch = $eip $T0 ^ = $esp $T0 4 + = 
STACK WIN 4 df41 114 2 0 0 4 0 0 1 $T0 .raSearch = $eip $T0 ^ = $esp $T0 4 + =  $24 $T0 4 - ^ = 
STACK WIN 4 df7a d6 0 0 0 8 0 0 1 $T0 .raSearch = $eip $T0 ^ = $esp $T0 4 + =  $24 $T0 4 - ^ =  $20 $T0 8 - ^ = 
STACK WIN 4 df7b d1 0 0 0 c 0 0 1 $T0 .raSearch = $eip $T0 ^ = $esp $T0 4 + =  $24 $T0 4 - ^ =  $20 $T0 8 - ^ =  $23 $T0 12 - ^ = 
STACK WIN 4 e060 a7 3 0 0 0 0 0 1 $T0 .raSearch = $eip $T0 ^ = $esp $T0 4 + = 
STACK WIN 4 e061 a5 2 0 0 4 0 0 1 $T0 .raSearch = $eip $T0 ^ = $esp $T0 4 + =  $24 $T0 4 - ^ = 
STACK WIN 4 e06e 8e 0 0 0 8 0 0 1 $T0 .raSearch = $eip $T0 ^ = $esp $T0 4 + =  $24 $T0 4 - ^ =  $23 $T0 8 - ^ = 
STACK WIN 4 e110 1d0 3a 0 4 8 90 0 1 $T0 .raSearch = $eip $T0 ^ = $esp $T0 4 + =  $22 $T0 148 - ^ =  $23 $T0 152 - ^ = 
STACK WIN 4 e2e0 8a9 20 0 4 10 68 0 1 $T0 .raSearch = $eip $T0 ^ = $esp $T0 4 + =  $20 $T0 108 - ^ =  $22 $T0 112 - ^ =  $23 $T0 116 - ^ =  $24 $T0 120 - ^ = 
STACK WIN 4 eb90 18d 1c 0 8 c c 0 1 $T1 .raSearch = $T0  $T1 4 - 8 @ = $ebp $T1 4 - ^ = $eip $T1 ^ = $esp $T1 4 + = $20 $T0 16 - ^ =  $23 $T0 20 - ^ =  $24 $T0 24 - ^ = 
STACK WIN 4 ed20 a8 11 0 c 4 44 0 1 $T1 .raSearch = $T0  $T1 4 - 8 @ = $ebp $T1 4 - ^ = $eip $T1 ^ = $esp $T1 4 + = $23 $T0 72 - ^ = 
STACK WIN 4 edd0 c1 25 0 c 4 a4 0 1 $T1 .raSearch = $T0  $T1 4 - 8 @ = $ebp $T1 4 - ^ = $eip $T1 ^ = $esp $T1 4 + = $23 $T0 168 - ^ = 
STACK WIN 4 eea0 a9 25 0 c 4 a4 0 1 $T1 .raSearch = $T0  $T1 4 - 8 @ = $ebp $T1 4 - ^ = $eip $T1 ^ = $esp $T1 4 + = $23 $T0 168 - ^ = 
STACK WIN 4 ef50 a6 25 0 c 4 a4 0 1 $T1 .raSearch = $T0  $T1 4 - 8 @ = $ebp $T1 4 - ^ = $eip $T1 ^ = $esp $T1 4 + = $23 $T0 168 - ^ = 
STACK WIN 4 f000 59c 26 0 c 8 f8 0 1 $T1 .raSearch = $T0  $T1 4 - 16 @ = $ebp $T1 4 - ^ = $eip $T1 ^ = $esp $T1 4 + = $23 $T0 252 - ^ =  $24 $T0 256 - ^ = 
STACK WIN 4 f5a0 15 0 0 c 0 0 0 1 $T0 .raSearch = $eip $T0 ^ = $esp $T0 4 + = 
STACK WIN 4 f5c0 15 0 0 c 0 0 0 1 $T0 .raSearch = $eip $T0 ^ = $esp $T0 4 + = 
STACK WIN 4 f5e0 15 0 0 c 0 0 0 1 $T0 .raSearch = $eip $T0 ^ = $esp $T0 4 + = 
STACK WIN 4 f600 1a 3 0 0 0 0 0 1 $T0 .raSearch = $eip $T0 ^ = $esp $T0 4 + = 
STACK WIN 4 f601 18 2 0 0 4 0 0 1 $T0 .raSearch = $eip $T0 ^ = $esp $T0 4 + =  $23 $T0 4 - ^ = 
STACK WIN 4 f620 19 0 0 c 0 0 0 1 $T0 .raSearch = $eip $T0 ^ = $esp $T0 4 + = 
STACK WIN 4 f640 19 0 0 c 0 0 0 1 $T0 .raSearch = $eip $T0 ^ = $esp $T0 4 + = 
STACK WIN 4 f660 14 0 0 8 0 0 0 1 $T0 .raSearch = $eip $T0 ^ = $esp $T0 4 + = 
STACK WIN 4 f680 1d 0 0 c 0 0 0 1 $T0 .raSearch = $eip $T0 ^ = $esp $T0 4 + = 
STACK WIN 4 f6a0 50 a 0 0 8 c 0 1 $T0 .raSearch = $eip $T0 ^ = $esp $T0 4 + =  $23 $T0 16 - ^ =  $24 $T0 20 - ^ = 
STACK WIN 4 f6f0 70 6 0 c 10 0 0 1 $T0 .raSearch = $eip $T0 ^ = $esp $T0 4 + =  $20 $T0 4 - ^ =  $22 $T0 8 - ^ =  $23 $T0 12 - ^ =  $24 $T0 16 - ^ = 
STACK WIN 4 f760 94 0 0 4 0 0 0 1 $T0 .raSearch = $eip $T0 ^ = $esp $T0 4 + = 
STACK WIN 4 f774 7f 0 0 4 4 0 0 1 $T0 .raSearch = $eip $T0 ^ = $esp $T0 4 + =  $20 $T0 4 - ^ = 
STACK WIN 4 f775 7d 0 0 4 8 0 0 1 $T0 .raSearch = $eip $T0 ^ = $esp $T0 4 + =  $20 $T0 4 - ^ =  $23 $T0 8 - ^ = 
STACK WIN 4 f7a1 40 0 0 4 c 0 0 1 $T0 .raSearch = $eip $T0 ^ = $esp $T0 4 + =  $20 $T0 4 - ^ =  $23 $T0 8 - ^ =  $24 $T0 12 - ^ = 
STACK WIN 4 f800 b0 0 0 8 0 0 0 1 $T0 .raSearch = $eip $T0 ^ = $esp $T0 4 + = 
STACK WIN 4 f80e a1 0 0 8 4 0 0 1 $T0 .raSearch = $eip $T0 ^ = $esp $T0 4 + =  $24 $T0 4 - ^ = 
STACK WIN 4 f840 44 0 0 8 8 0 0 1 $T0 .raSearch = $eip $T0 ^ = $esp $T0 4 + =  $24 $T0 4 - ^ =  $23 $T0 8 - ^ = 
STACK WIN 4 f8b0 7c 8 0 4 0 0 0 1 $T0 .raSearch = $eip $T0 ^ = $esp $T0 4 + = 
STACK WIN 4 f8b8 73 0 0 4 4 0 0 1 $T0 .raSearch = $eip $T0 ^ = $esp $T0 4 + =  $23 $T0 4 - ^ = 
STACK WIN 4 f930 2a 1 0 4 0 0 0 1 $T0 .raSearch = $eip $T0 ^ = $esp $T0 4 + = 
STACK WIN 4 f931 28 0 0 4 4 0 0 1 $T0 .raSearch = $eip $T0 ^ = $esp $T0 4 + =  $23 $T0 4 - ^ = 
STACK WIN 4 f960 5 0 0 4 0 0 0 1 $T0 .raSearch = $eip $T0 ^ = $esp $T0 4 + = 
STACK WIN 4 f970 5 0 0 4 0 0 0 1 $T0 .raSearch = $eip $T0 ^ = $esp $T0 4 + = 
STACK WIN 4 f980 3b 1 0 8 0 0 0 1 $T0 .raSearch = $eip $T0 ^ = $esp $T0 4 + = 
STACK WIN 4 f981 39 0 0 8 4 0 0 1 $T0 .raSearch = $eip $T0 ^ = $esp $T0 4 + =  $23 $T0 4 - ^ = 
STACK WIN 4 f9c0 b 0 0 4 0 0 0 1 $T0 .raSearch = $eip $T0 ^ = $esp $T0 4 + = 
STACK WIN 4 f9d0 3 0 0 8 0 0 0 1 $T0 .raSearch = $eip $T0 ^ = $esp $T0 4 + = 
STACK WIN 4 f9e0 1 0 0 4 0 0 0 1 $T0 .raSearch = $eip $T0 ^ = $esp $T0 4 + = 
STACK WIN 4 f9f0 6a 0 0 0 0 0 0 1 $T0 .raSearch = $eip $T0 ^ = $esp $T0 4 + = 
STACK WIN 4 fa60 20 0 0 4 0 0 0 1 $T0 .raSearch = $eip $T0 ^ = $esp $T0 4 + = 
STACK WIN 4 fa80 17 0 0 0 0 0 0 1 $T0 .raSearch = $eip $T0 ^ = $esp $T0 4 + = 
STACK WIN 4 faa0 13 0 0 4 0 0 0 1 $T0 .raSearch = $eip $T0 ^ = $esp $T0 4 + = 
STACK WIN 4 fac0 13 0 0 4 0 0 0 1 $T0 .raSearch = $eip $T0 ^ = $esp $T0 4 + = 
STACK WIN 4 fae0 15 0 0 4 0 0 0 1 $T0 .raSearch = $eip $T0 ^ = $esp $T0 4 + = 
STACK WIN 4 fb00 13 0 0 4 0 0 0 1 $T0 .raSearch = $eip $T0 ^ = $esp $T0 4 + = 
STACK WIN 4 fb20 6 0 0 4 0 0 0 1 $T0 .raSearch = $eip $T0 ^ = $esp $T0 4 + = 
STACK WIN 4 fb30 5b 0 0 0 0 0 0 1 $T0 .raSearch = $eip $T0 ^ = $esp $T0 4 + = 
STACK WIN 4 fb45 28 0 0 0 4 0 0 1 $T0 .raSearch = $eip $T0 ^ = $esp $T0 4 + =  $23 $T0 4 - ^ = 
STACK WIN 4 fb46 1a 0 0 0 8 0 0 1 $T0 .raSearch = $eip $T0 ^ = $esp $T0 4 + =  $23 $T0 4 - ^ =  $24 $T0 8 - ^ = 
STACK WIN 4 fb90 4d 0 0 0 0 0 0 1 $T0 .raSearch = $eip $T0 ^ = $esp $T0 4 + = 
STACK WIN 4 fbae 2c 0 0 0 4 0 0 1 $T0 .raSearch = $eip $T0 ^ = $esp $T0 4 + =  $23 $T0 4 - ^ = 
STACK WIN 4 fbaf 20 0 0 0 8 0 0 1 $T0 .raSearch = $eip $T0 ^ = $esp $T0 4 + =  $23 $T0 4 - ^ =  $24 $T0 8 - ^ = 
STACK WIN 4 fbe0 62 8 0 4 8 0 0 1 $T1 .raSearch = $T0  $T1 4 - 8 @ = $ebp $T1 4 - ^ = $eip $T1 ^ = $esp $T1 4 + = $23 $T0 4 - ^ =  $24 $T0 8 - ^ = 
STACK WIN 4 fc50 23 1 0 4 0 0 0 1 $T0 .raSearch = $eip $T0 ^ = $esp $T0 4 + = 
STACK WIN 4 fc51 21 0 0 4 4 0 0 1 $T0 .raSearch = $eip $T0 ^ = $esp $T0 4 + =  $23 $T0 4 - ^ = 
STACK WIN 4 fc80 b 0 0 4 0 0 0 1 $T0 .raSearch = $eip $T0 ^ = $esp $T0 4 + = 
STACK WIN 4 fc90 45 6 0 4 0 0 0 1 $T0 .raSearch = $eip $T0 ^ = $esp $T0 4 + = 
STACK WIN 4 fc96 3e 0 0 4 4 0 0 1 $T0 .raSearch = $eip $T0 ^ = $esp $T0 4 + =  $23 $T0 4 - ^ = 
STACK WIN 4 fce0 b 0 0 4 0 0 0 1 $T0 .raSearch = $eip $T0 ^ = $esp $T0 4 + = 
STACK WIN 4 fcf0 db a 0 8 c 4 0 1 $T1 .raSearch = $T0  $T1 4 - 8 @ = $ebp $T1 4 - ^ = $eip $T1 ^ = $esp $T1 4 + = $20 $T0 8 - ^ =  $23 $T0 12 - ^ =  $24 $T0 16 - ^ = 
STACK WIN 4 fdd0 1f 6 0 4 0 0 0 1 $T1 .raSearch = $T0  $T1 4 - 8 @ = $ebp $T1 4 - ^ = $eip $T1 ^ = $esp $T1 4 + =
STACK WIN 4 fdf0 11c 0 0 0 0 0 0 1 $T0 .raSearch = $eip $T0 ^ = $esp $T0 4 + = 
STACK WIN 4 fe3d 7f 0 0 0 4 0 0 1 $T0 .raSearch = $eip $T0 ^ = $esp $T0 4 + =  $23 $T0 4 - ^ = 
STACK WIN 4 ff10 3a e 0 0 8 0 0 1 $T1 .raSearch = $T0  $T1 4 - 8 @ = $ebp $T1 4 - ^ = $eip $T1 ^ = $esp $T1 4 + = $23 $T0 4 - ^ =  $24 $T0 8 - ^ = 
STACK WIN 4 ff50 4d e 0 4 8 0 0 1 $T1 .raSearch = $T0  $T1 4 - 8 @ = $ebp $T1 4 - ^ = $eip $T1 ^ = $esp $T1 4 + = $23 $T0 4 - ^ =  $24 $T0 8 - ^ = 
STACK WIN 4 ffa0 39 0 0 0 0 0 0 1 $T0 .raSearch = $eip $T0 ^ = $esp $T0 4 + = 
STACK WIN 4 ffe0 f2 6 0 0 10 0 0 1 $T0 .raSearch = $eip $T0 ^ = $esp $T0 4 + =  $20 $T0 4 - ^ =  $22 $T0 8 - ^ =  $23 $T0 12 - ^ =  $24 $T0 16 - ^ = 
STACK WIN 4 100e0 6d 5 0 8 4 0 0 1 $T0 .raSearch = $eip $T0 ^ = $esp $T0 4 + =  $23 $T0 4 - ^ = 
STACK WIN 4 10150 2b 6 0 4 0 0 0 1 $T1 .raSearch = $T0  $T1 4 - 8 @ = $ebp $T1 4 - ^ = $eip $T1 ^ = $esp $T1 4 + =
STACK WIN 4 10180 27 6 0 8 0 0 0 1 $T1 .raSearch = $T0  $T1 4 - 8 @ = $ebp $T1 4 - ^ = $eip $T1 ^ = $esp $T1 4 + =
STACK WIN 4 101b0 10c 10 0 0 8 0 0 1 $T1 .raSearch = $T0  $T1 4 - 8 @ = $ebp $T1 4 - ^ = $eip $T1 ^ = $esp $T1 4 + = $23 $T0 4 - ^ =  $24 $T0 8 - ^ = 
STACK WIN 4 102c0 c3 3 0 0 0 0 0 1 $T0 .raSearch = $eip $T0 ^ = $esp $T0 4 + = 
STACK WIN 4 102c1 c1 2 0 0 4 0 0 1 $T0 .raSearch = $eip $T0 ^ = $esp $T0 4 + =  $23 $T0 4 - ^ = 
STACK WIN 4 10326 41 0 0 0 8 0 0 1 $T0 .raSearch = $eip $T0 ^ = $esp $T0 4 + =  $23 $T0 4 - ^ =  $24 $T0 8 - ^ = 
STACK WIN 4 10390 6 0 0 4 0 0 0 1 $T0 .raSearch = $eip $T0 ^ = $esp $T0 4 + = 
STACK WIN 4 103a0 27 0 0 0 0 0 0 1 $T0 .raSearch = $eip $T0 ^ = $esp $T0 4 + = 
STACK WIN 4 103d0 18 0 0 4 0 0 0 1 $T0 .raSearch = $eip $T0 ^ = $esp $T0 4 + = 
STACK WIN 4 103f0 62 1 0 4 0 0 0 1 $T0 .raSearch = $eip $T0 ^ = $esp $T0 4 + = 
STACK WIN 4 103f1 60 0 0 4 4 0 0 1 $T0 .raSearch = $eip $T0 ^ = $esp $T0 4 + =  $23 $T0 4 - ^ = 
STACK WIN 4 10460 3c 3 0 0 0 0 0 1 $T0 .raSearch = $eip $T0 ^ = $esp $T0 4 + = 
STACK WIN 4 10461 3a 2 0 0 4 0 0 1 $T0 .raSearch = $eip $T0 ^ = $esp $T0 4 + =  $23 $T0 4 - ^ = 
STACK WIN 4 104a0 42 0 0 0 0 0 0 1 $T0 .raSearch = $eip $T0 ^ = $esp $T0 4 + = 
STACK WIN 4 104f0 148 6 0 8 10 4 0 1 $T0 .raSearch = $eip $T0 ^ = $esp $T0 4 + =  $20 $T0 8 - ^ =  $22 $T0 12 - ^ =  $23 $T0 16 - ^ =  $24 $T0 20 - ^ = 
STACK WIN 4 10640 31 6 0 8 0 0 0 1 $T1 .raSearch = $T0  $T1 4 - 8 @ = $ebp $T1 4 - ^ = $eip $T1 ^ = $esp $T1 4 + =
STACK WIN 4 10680 2a 6 0 c 0 0 0 1 $T1 .raSearch = $T0  $T1 4 - 8 @ = $ebp $T1 4 - ^ = $eip $T1 ^ = $esp $T1 4 + =
STACK WIN 4 106b0 37 3 0 8 8 4 0 1 $T0 .raSearch = $eip $T0 ^ = $esp $T0 4 + =  $23 $T0 8 - ^ =  $24 $T0 12 - ^ = 
STACK WIN 4 106f0 3f 7 0 8 4 0 0 1 $T0 .raSearch = $eip $T0 ^ = $esp $T0 4 + =  $23 $T0 4 - ^ = 
STACK WIN 4 10730 21 1 0 8 0 4 0 1 $T0 .raSearch = $eip $T0 ^ = $esp $T0 4 + = 
STACK WIN 4 10760 90 1 0 8 0 4 0 1 $T0 .raSearch = $eip $T0 ^ = $esp $T0 4 + = 
STACK WIN 4 107f0 57 3 0 8 4 0 0 1 $T0 .raSearch = $eip $T0 ^ = $esp $T0 4 + =  $23 $T0 4 - ^ = 
STACK WIN 4 10850 ba b 0 8 c 4 0 1 $T1 .raSearch = $T0  $T1 4 - 8 @ = $ebp $T1 4 - ^ = $eip $T1 ^ = $esp $T1 4 + = $20 $T0 8 - ^ =  $23 $T0 12 - ^ =  $24 $T0 16 - ^ = 
STACK WIN 4 10910 b4 7 0 8 c 0 0 1 $T0 .raSearch = $eip $T0 ^ = $esp $T0 4 + =  $20 $T0 4 - ^ =  $23 $T0 8 - ^ =  $24 $T0 12 - ^ = 
STACK WIN 4 109d0 57 7 0 0 c 0 0 1 $T0 .raSearch = $eip $T0 ^ = $esp $T0 4 + =  $20 $T0 4 - ^ =  $23 $T0 8 - ^ =  $24 $T0 12 - ^ = 
STACK WIN 4 10a30 48 5 0 8 c 0 0 1 $T0 .raSearch = $eip $T0 ^ = $esp $T0 4 + =  $20 $T0 4 - ^ =  $23 $T0 8 - ^ =  $24 $T0 12 - ^ = 
STACK WIN 4 10a80 a9 4 0 4 10 0 0 1 $T0 .raSearch = $eip $T0 ^ = $esp $T0 4 + =  $20 $T0 4 - ^ =  $22 $T0 8 - ^ =  $23 $T0 12 - ^ =  $24 $T0 16 - ^ = 
STACK WIN 4 10b30 2a 0 0 0 0 0 0 1 $T0 .raSearch = $eip $T0 ^ = $esp $T0 4 + = 
STACK WIN 4 10b60 3c 1 0 0 0 4 0 1 $T0 .raSearch = $eip $T0 ^ = $esp $T0 4 + = 
STACK WIN 4 10ba0 14c4 2c 0 4 c d4 0 1 $T1 .raSearch = $T0  $T1 4 - 16 @ = $ebp $T1 4 - ^ = $eip $T1 ^ = $esp $T1 4 + = $20 $T0 216 - ^ =  $23 $T0 220 - ^ =  $24 $T0 224 - ^ = 
STACK WIN 4 12070 116 e 0 0 10 8 0 1 $T1 .raSearch = $T0  $T1 4 - 8 @ = $ebp $T1 4 - ^ = $eip $T1 ^ = $esp $T1 4 + = $20 $T0 12 - ^ =  $23 $T0 20 - ^ =  $24 $T0 24 - ^ = 
STACK WIN 4 12190 2e 6 0 4 c 0 0 1 $T0 .raSearch = $eip $T0 ^ = $esp $T0 4 + =  $20 $T0 4 - ^ =  $23 $T0 8 - ^ =  $24 $T0 12 - ^ = 
STACK WIN 4 121c0 33 6 0 4 8 0 0 1 $T0 .raSearch = $eip $T0 ^ = $esp $T0 4 + =  $23 $T0 4 - ^ =  $24 $T0 8 - ^ = 
STACK WIN 4 12200 78 a 0 0 4 4 0 1 $T1 .raSearch = $T0  $T1 4 - 8 @ = $ebp $T1 4 - ^ = $eip $T1 ^ = $esp $T1 4 + = $23 $T0 8 - ^ = 
STACK WIN 4 12280 78 3 0 0 0 0 0 1 $T0 .raSearch = $eip $T0 ^ = $esp $T0 4 + = 
STACK WIN 4 12281 76 2 0 0 4 0 0 1 $T0 .raSearch = $eip $T0 ^ = $esp $T0 4 + =  $23 $T0 4 - ^ = 
STACK WIN 4 12300 a0 1f 0 4 8 70 0 1 $T1 .raSearch = $T0  $T1 4 - 8 @ = $ebp $T1 4 - ^ = $eip $T1 ^ = $esp $T1 4 + = $23 $T0 116 - ^ =  $24 $T0 120 - ^ = 
STACK WIN 4 123a0 16 0 0 8 0 0 0 1 $T0 .raSearch = $eip $T0 ^ = $esp $T0 4 + = 
STACK WIN 4 123c0 94 19 0 8 8 70 0 1 $T1 .raSearch = $T0  $T1 4 - 8 @ = $ebp $T1 4 - ^ = $eip $T1 ^ = $esp $T1 4 + = $23 $T0 116 - ^ =  $24 $T0 120 - ^ = 
STACK WIN 4 12460 1e 0 0 4 0 0 0 1 $T0 .raSearch = $eip $T0 ^ = $esp $T0 4 + = 
STACK WIN 4 12480 5d c 0 10 0 20 0 1 $T1 .raSearch = $T0  $T1 4 - 8 @ = $ebp $T1 4 - ^ = $eip $T1 ^ = $esp $T1 4 + =
STACK WIN 4 124e0 5e c 0 c 0 20 0 1 $T1 .raSearch = $T0  $T1 4 - 8 @ = $ebp $T1 4 - ^ = $eip $T1 ^ = $esp $T1 4 + =
STACK WIN 4 12540 8a 20 0 4 4 fc 0 1 $T1 .raSearch = $T0  $T1 4 - 8 @ = $ebp $T1 4 - ^ = $eip $T1 ^ = $esp $T1 4 + = $23 $T0 256 - ^ = 
STACK WIN 4 125d0 1d 0 0 8 0 0 0 1 $T0 .raSearch = $eip $T0 ^ = $esp $T0 4 + = 
STACK WIN 4 125f0 14 0 0 8 0 0 0 1 $T0 .raSearch = $eip $T0 ^ = $esp $T0 4 + = 
STACK WIN 4 12610 192 15 0 8 0 0 0 1 $T0 .raSearch = $eip $T0 ^ = $esp $T0 4 + = 
STACK WIN 4 12625 16f 0 0 8 4 104 0 1 $T0 .raSearch = $eip $T0 ^ = $esp $T0 4 + =  $20 $T0 264 - ^ = 
STACK WIN 4 1263a 152 0 0 8 8 104 0 1 $T0 .raSearch = $eip $T0 ^ = $esp $T0 4 + =  $20 $T0 264 - ^ =  $24 $T0 268 - ^ = 
STACK WIN 4 12662 129 0 0 8 c 104 0 1 $T0 .raSearch = $eip $T0 ^ = $esp $T0 4 + =  $20 $T0 264 - ^ =  $24 $T0 268 - ^ =  $22 $T0 272 - ^ = 
STACK WIN 4 126bf 48 0 0 8 10 104 0 1 $T0 .raSearch = $eip $T0 ^ = $esp $T0 4 + =  $20 $T0 264 - ^ =  $24 $T0 268 - ^ =  $22 $T0 272 - ^ =  $23 $T0 276 - ^ = 
STACK WIN 4 127b0 20 1 0 4 0 0 0 1 $T0 .raSearch = $eip $T0 ^ = $esp $T0 4 + = 
STACK WIN 4 127b1 1c 0 0 4 4 0 0 1 $T0 .raSearch = $eip $T0 ^ = $esp $T0 4 + =  $23 $T0 4 - ^ = 
STACK WIN 4 127d0 ec 9 0 4 10 8 0 1 $T0 .raSearch = $eip $T0 ^ = $esp $T0 4 + =  $20 $T0 12 - ^ =  $22 $T0 16 - ^ =  $23 $T0 20 - ^ =  $24 $T0 24 - ^ = 
STACK WIN 4 128c0 5c 4 0 0 0 0 0 1 $T0 .raSearch = $eip $T0 ^ = $esp $T0 4 + = 
STACK WIN 4 128c1 5a 3 0 0 4 0 0 1 $T0 .raSearch = $eip $T0 ^ = $esp $T0 4 + =  $22 $T0 4 - ^ = 
STACK WIN 4 128c2 58 2 0 0 8 0 0 1 $T0 .raSearch = $eip $T0 ^ = $esp $T0 4 + =  $22 $T0 4 - ^ =  $24 $T0 8 - ^ = 
STACK WIN 4 128d5 44 0 0 0 c 0 0 1 $T0 .raSearch = $eip $T0 ^ = $esp $T0 4 + =  $22 $T0 4 - ^ =  $24 $T0 8 - ^ =  $23 $T0 12 - ^ = 
STACK WIN 4 128dc 22 0 0 0 10 0 0 1 $T0 .raSearch = $eip $T0 ^ = $esp $T0 4 + =  $22 $T0 4 - ^ =  $24 $T0 8 - ^ =  $23 $T0 12 - ^ =  $20 $T0 16 - ^ = 
STACK WIN 4 12920 67 3 0 0 0 0 0 1 $T0 .raSearch = $eip $T0 ^ = $esp $T0 4 + = 
STACK WIN 4 12921 65 2 0 0 4 0 0 1 $T0 .raSearch = $eip $T0 ^ = $esp $T0 4 + =  $23 $T0 4 - ^ = 
STACK WIN 4 12990 4d3 15 0 0 10 10 0 1 $T1 .raSearch = $T0  $T1 4 - 8 @ = $ebp $T1 4 - ^ = $eip $T1 ^ = $esp $T1 4 + = $20 $T0 20 - ^ =  $23 $T0 28 - ^ =  $24 $T0 32 - ^ = 
STACK WIN 4 12e70 7c 4 0 0 c 0 0 1 $T0 .raSearch = $eip $T0 ^ = $esp $T0 4 + =  $20 $T0 4 - ^ =  $23 $T0 8 - ^ =  $24 $T0 12 - ^ = 
STACK WIN 4 12ef0 3f 4 0 0 0 0 0 1 $T0 .raSearch = $eip $T0 ^ = $esp $T0 4 + = 
STACK WIN 4 12ef1 3d 3 0 0 4 0 0 1 $T0 .raSearch = $eip $T0 ^ = $esp $T0 4 + =  $23 $T0 4 - ^ = 
STACK WIN 4 12ef4 37 0 0 0 8 0 0 1 $T0 .raSearch = $eip $T0 ^ = $esp $T0 4 + =  $23 $T0 4 - ^ =  $24 $T0 8 - ^ = 
STACK WIN 4 12f30 7f 11 0 8 4 3c 0 1 $T1 .raSearch = $T0  $T1 4 - 16 @ = $ebp $T1 4 - ^ = $eip $T1 ^ = $esp $T1 4 + = $23 $T0 64 - ^ = 
STACK WIN 4 12fb0 3a 6 0 0 0 0 0 1 $T0 .raSearch = $eip $T0 ^ = $esp $T0 4 + = 
STACK WIN 4 12fb1 38 5 0 0 4 0 0 1 $T0 .raSearch = $eip $T0 ^ = $esp $T0 4 + =  $23 $T0 4 - ^ = 
STACK WIN 4 12fb2 36 4 0 0 8 0 0 1 $T0 .raSearch = $eip $T0 ^ = $esp $T0 4 + =  $23 $T0 4 - ^ =  $24 $T0 8 - ^ = 
STACK WIN 4 12ff0 32 3 0 0 0 14 0 1 $T0 .raSearch = $eip $T0 ^ = $esp $T0 4 + = 
STACK WIN 4 13030 22 0 0 0 0 0 0 1 $T0 .raSearch = $eip $T0 ^ = $esp $T0 4 + = 
STACK WIN 4 13060 21 0 0 0 0 0 0 1 $T0 .raSearch = $eip $T0 ^ = $esp $T0 4 + = 
STACK WIN 4 1306e 12 0 0 0 4 0 0 1 $T0 .raSearch = $eip $T0 ^ = $esp $T0 4 + =  $23 $T0 4 - ^ = 
STACK WIN 4 13090 66 5 0 0 8 4 0 1 $T0 .raSearch = $eip $T0 ^ = $esp $T0 4 + =  $20 $T0 8 - ^ =  $23 $T0 12 - ^ = 
STACK WIN 4 13100 17 1 0 0 0 4 0 1 $T0 .raSearch = $eip $T0 ^ = $esp $T0 4 + = 
STACK WIN 4 13120 b8 6 0 c 8 0 0 1 $T0 .raSearch = $eip $T0 ^ = $esp $T0 4 + =  $20 $T0 4 - ^ =  $23 $T0 8 - ^ = 
STACK WIN 4 131e0 e9 f 0 8 c 0 0 1 $T0 .raSearch = $eip $T0 ^ = $esp $T0 4 + =  $20 $T0 4 - ^ =  $23 $T0 8 - ^ =  $24 $T0 12 - ^ = 
STACK WIN 4 132d0 5d 3 0 0 0 0 0 1 $T0 .raSearch = $eip $T0 ^ = $esp $T0 4 + = 
STACK WIN 4 132e6 43 0 0 0 4 c 0 1 $T0 .raSearch = $eip $T0 ^ = $esp $T0 4 + =  $20 $T0 16 - ^ = 
STACK WIN 4 13330 24 0 0 0 0 0 0 1 $T0 .raSearch = $eip $T0 ^ = $esp $T0 4 + = 
STACK WIN 4 1333b 18 0 0 0 4 0 0 1 $T0 .raSearch = $eip $T0 ^ = $esp $T0 4 + =  $23 $T0 4 - ^ = 
STACK WIN 4 13360 22 0 0 8 0 0 0 1 $T0 .raSearch = $eip $T0 ^ = $esp $T0 4 + = 
STACK WIN 4 13390 46 8 0 0 0 0 0 1 $T0 .raSearch = $eip $T0 ^ = $esp $T0 4 + = 
STACK WIN 4 13391 44 7 0 0 4 0 0 1 $T0 .raSearch = $eip $T0 ^ = $esp $T0 4 + =  $20 $T0 4 - ^ = 
STACK WIN 4 13392 42 6 0 0 8 0 0 1 $T0 .raSearch = $eip $T0 ^ = $esp $T0 4 + =  $20 $T0 4 - ^ =  $23 $T0 8 - ^ = 
STACK WIN 4 13396 3d 2 0 0 c 0 0 1 $T0 .raSearch = $eip $T0 ^ = $esp $T0 4 + =  $20 $T0 4 - ^ =  $23 $T0 8 - ^ =  $24 $T0 12 - ^ = 
STACK WIN 4 133e0 74 1 0 c 0 0 0 1 $T0 .raSearch = $eip $T0 ^ = $esp $T0 4 + = 
STACK WIN 4 133e1 69 0 0 c 4 0 0 1 $T0 .raSearch = $eip $T0 ^ = $esp $T0 4 + =  $23 $T0 4 - ^ = 
STACK WIN 4 133f4 4b 0 0 c 8 0 0 1 $T0 .raSearch = $eip $T0 ^ = $esp $T0 4 + =  $23 $T0 4 - ^ =  $24 $T0 8 - ^ = 
STACK WIN 4 13460 56d 9 0 8 10 44 0 1 $T0 .raSearch = $eip $T0 ^ = $esp $T0 4 + =  $20 $T0 72 - ^ =  $22 $T0 76 - ^ =  $23 $T0 80 - ^ =  $24 $T0 84 - ^ = 
STACK WIN 4 139d0 216 11 0 8 10 24 0 1 $T0 .raSearch = $eip $T0 ^ = $esp $T0 4 + =  $20 $T0 40 - ^ =  $22 $T0 44 - ^ =  $23 $T0 48 - ^ =  $24 $T0 52 - ^ = 
STACK WIN 4 13bf0 103 9 0 0 10 1c 0 1 $T0 .raSearch = $eip $T0 ^ = $esp $T0 4 + =  $20 $T0 32 - ^ =  $22 $T0 36 - ^ =  $23 $T0 40 - ^ =  $24 $T0 44 - ^ = 
STACK WIN 4 13d00 174 12 0 0 10 10 0 1 $T1 .raSearch = $T0  $T1 4 - 8 @ = $ebp $T1 4 - ^ = $eip $T1 ^ = $esp $T1 4 + = $20 $T0 20 - ^ =  $23 $T0 28 - ^ =  $24 $T0 32 - ^ = 
STACK WIN 4 13e80 1d 1 0 0 0 4 0 1 $T0 .raSearch = $eip $T0 ^ = $esp $T0 4 + = 
STACK WIN 4 13ea0 105 17 0 8 0 0 0 1 $T0 .raSearch = $eip $T0 ^ = $esp $T0 4 + = 
STACK WIN 4 13eb5 e5 2 0 8 4 10 0 1 $T0 .raSearch = $eip $T0 ^ = $esp $T0 4 + =  $20 $T0 20 - ^ = 
STACK WIN 4 13f59 40 0 0 8 8 10 0 1 $T0 .raSearch = $eip $T0 ^ = $esp $T0 4 + =  $20 $T0 20 - ^ =  $23 $T0 24 - ^ = 
STACK WIN 4 13f5a 3e 0 0 8 c 10 0 1 $T0 .raSearch = $eip $T0 ^ = $esp $T0 4 + =  $20 $T0 20 - ^ =  $23 $T0 24 - ^ =  $24 $T0 28 - ^ = 
STACK WIN 4 13fb0 54 5 0 8 4 0 0 1 $T0 .raSearch = $eip $T0 ^ = $esp $T0 4 + =  $23 $T0 4 - ^ = 
STACK WIN 4 14010 179 4 0 0 0 0 0 1 $T0 .raSearch = $eip $T0 ^ = $esp $T0 4 + = 
STACK WIN 4 14011 177 3 0 0 4 0 0 1 $T0 .raSearch = $eip $T0 ^ = $esp $T0 4 + =  $20 $T0 4 - ^ = 
STACK WIN 4 14012 175 2 0 0 8 0 0 1 $T0 .raSearch = $eip $T0 ^ = $esp $T0 4 + =  $20 $T0 4 - ^ =  $23 $T0 8 - ^ = 
STACK WIN 4 14015 171 0 0 0 c 0 0 1 $T0 .raSearch = $eip $T0 ^ = $esp $T0 4 + =  $20 $T0 4 - ^ =  $23 $T0 8 - ^ =  $24 $T0 12 - ^ = 
STACK WIN 4 14190 76 6 0 0 8 8 0 1 $T0 .raSearch = $eip $T0 ^ = $esp $T0 4 + =  $23 $T0 12 - ^ =  $24 $T0 16 - ^ = 
STACK WIN 4 14210 8b 11 0 4 10 8 0 1 $T0 .raSearch = $eip $T0 ^ = $esp $T0 4 + =  $20 $T0 12 - ^ =  $22 $T0 16 - ^ =  $23 $T0 20 - ^ =  $24 $T0 24 - ^ = 
STACK WIN 4 142a0 6c 1 0 0 0 4 0 1 $T0 .raSearch = $eip $T0 ^ = $esp $T0 4 + = 
STACK WIN 4 14310 94 9 0 8 10 4 0 1 $T0 .raSearch = $eip $T0 ^ = $esp $T0 4 + =  $20 $T0 8 - ^ =  $22 $T0 12 - ^ =  $23 $T0 16 - ^ =  $24 $T0 20 - ^ = 
STACK WIN 4 143b0 111 d 0 8 10 4 0 1 $T0 .raSearch = $eip $T0 ^ = $esp $T0 4 + =  $20 $T0 8 - ^ =  $22 $T0 12 - ^ =  $23 $T0 16 - ^ =  $24 $T0 20 - ^ = 
STACK WIN 4 144d0 17 0 0 0 0 0 0 1 $T0 .raSearch = $eip $T0 ^ = $esp $T0 4 + = 
STACK WIN 4 144f0 60 1 0 0 0 0 0 1 $T0 .raSearch = $eip $T0 ^ = $esp $T0 4 + = 
STACK WIN 4 144f1 55 0 0 0 4 0 0 1 $T0 .raSearch = $eip $T0 ^ = $esp $T0 4 + =  $23 $T0 4 - ^ = 
STACK WIN 4 14550 9d 0 0 8 0 0 0 1 $T0 .raSearch = $eip $T0 ^ = $esp $T0 4 + = 
STACK WIN 4 145f0 98 3 0 0 0 0 0 1 $T0 .raSearch = $eip $T0 ^ = $esp $T0 4 + = 
STACK WIN 4 145f1 96 2 0 0 4 0 0 1 $T0 .raSearch = $eip $T0 ^ = $esp $T0 4 + =  $20 $T0 4 - ^ = 
STACK WIN 4 145f4 8b 0 0 0 8 0 0 1 $T0 .raSearch = $eip $T0 ^ = $esp $T0 4 + =  $20 $T0 4 - ^ =  $23 $T0 8 - ^ = 
STACK WIN 4 14620 5e 0 0 0 c 0 0 1 $T0 .raSearch = $eip $T0 ^ = $esp $T0 4 + =  $20 $T0 4 - ^ =  $23 $T0 8 - ^ =  $24 $T0 16 - ^ = 
STACK WIN 4 14690 2e 0 0 0 0 0 0 1 $T0 .raSearch = $eip $T0 ^ = $esp $T0 4 + = 
STACK WIN 4 146c0 5f 8 0 4 0 0 0 1 $T0 .raSearch = $eip $T0 ^ = $esp $T0 4 + = 
STACK WIN 4 146c1 5d 7 0 4 4 0 0 1 $T0 .raSearch = $eip $T0 ^ = $esp $T0 4 + =  $23 $T0 4 - ^ = 
STACK WIN 4 146c6 57 2 0 4 8 0 0 1 $T0 .raSearch = $eip $T0 ^ = $esp $T0 4 + =  $23 $T0 4 - ^ =  $24 $T0 8 - ^ = 
STACK WIN 4 14720 143 18 0 0 10 4 0 1 $T0 .raSearch = $eip $T0 ^ = $esp $T0 4 + =  $20 $T0 8 - ^ =  $22 $T0 12 - ^ =  $23 $T0 16 - ^ =  $24 $T0 20 - ^ = 
STACK WIN 4 14870 cb d 0 4 0 0 0 1 $T0 .raSearch = $eip $T0 ^ = $esp $T0 4 + = 
STACK WIN 4 14872 c7 b 0 4 4 4 0 1 $T0 .raSearch = $eip $T0 ^ = $esp $T0 4 + =  $20 $T0 8 - ^ = 
STACK WIN 4 14873 c5 a 0 4 8 4 0 1 $T0 .raSearch = $eip $T0 ^ = $esp $T0 4 + =  $20 $T0 8 - ^ =  $22 $T0 12 - ^ = 
STACK WIN 4 14877 c0 6 0 4 c 4 0 1 $T0 .raSearch = $eip $T0 ^ = $esp $T0 4 + =  $20 $T0 8 - ^ =  $22 $T0 12 - ^ =  $23 $T0 16 - ^ = 
STACK WIN 4 1487e b8 0 0 4 10 4 0 1 $T0 .raSearch = $eip $T0 ^ = $esp $T0 4 + =  $20 $T0 8 - ^ =  $22 $T0 12 - ^ =  $23 $T0 16 - ^ =  $24 $T0 20 - ^ = 
STACK WIN 4 14940 53 5 0 4 0 0 0 1 $T0 .raSearch = $eip $T0 ^ = $esp $T0 4 + = 
STACK WIN 4 14943 4f 2 0 4 4 0 0 1 $T0 .raSearch = $eip $T0 ^ = $esp $T0 4 + =  $23 $T0 4 - ^ = 
STACK WIN 4 149a0 1a 1 0 0 0 4 0 1 $T0 .raSearch = $eip $T0 ^ = $esp $T0 4 + = 
STACK WIN 4 149c0 133 19 0 4 c c 0 1 $T1 .raSearch = $T0  $T1 4 - 8 @ = $ebp $T1 4 - ^ = $eip $T1 ^ = $esp $T1 4 + = $20 $T0 16 - ^ =  $23 $T0 20 - ^ =  $24 $T0 24 - ^ = 
STACK WIN 4 14b00 f5 1 0 c 0 0 0 1 $T0 .raSearch = $eip $T0 ^ = $esp $T0 4 + = 
STACK WIN 4 14b01 f3 0 0 c 4 0 0 1 $T0 .raSearch = $eip $T0 ^ = $esp $T0 4 + =  $20 $T0 4 - ^ = 
STACK WIN 4 14b6f 7b 0 0 c 8 0 0 1 $T0 .raSearch = $eip $T0 ^ = $esp $T0 4 + =  $20 $T0 4 - ^ =  $23 $T0 8 - ^ = 
STACK WIN 4 14b70 79 0 0 c c 0 0 1 $T0 .raSearch = $eip $T0 ^ = $esp $T0 4 + =  $20 $T0 4 - ^ =  $23 $T0 8 - ^ =  $24 $T0 12 - ^ = 
STACK WIN 4 14c00 61 7 0 8 0 0 0 1 $T0 .raSearch = $eip $T0 ^ = $esp $T0 4 + = 
STACK WIN 4 14c01 5f 6 0 8 4 0 0 1 $T0 .raSearch = $eip $T0 ^ = $esp $T0 4 + =  $20 $T0 4 - ^ = 
STACK WIN 4 14c06 59 1 0 8 8 0 0 1 $T0 .raSearch = $eip $T0 ^ = $esp $T0 4 + =  $20 $T0 4 - ^ =  $23 $T0 8 - ^ = 
STACK WIN 4 14c07 57 0 0 8 c 0 0 1 $T0 .raSearch = $eip $T0 ^ = $esp $T0 4 + =  $20 $T0 4 - ^ =  $23 $T0 8 - ^ =  $24 $T0 12 - ^ = 
STACK WIN 4 14c70 88 6 0 8 0 0 0 1 $T0 .raSearch = $eip $T0 ^ = $esp $T0 4 + = 
STACK WIN 4 14c71 86 5 0 8 4 0 0 1 $T0 .raSearch = $eip $T0 ^ = $esp $T0 4 + =  $20 $T0 4 - ^ = 
STACK WIN 4 14c76 80 0 0 8 8 0 0 1 $T0 .raSearch = $eip $T0 ^ = $esp $T0 4 + =  $20 $T0 4 - ^ =  $23 $T0 8 - ^ = 
STACK WIN 4 14c7e 48 0 0 8 c 0 0 1 $T0 .raSearch = $eip $T0 ^ = $esp $T0 4 + =  $20 $T0 4 - ^ =  $23 $T0 8 - ^ =  $24 $T0 12 - ^ = 
STACK WIN 4 14d00 7f 12 0 0 10 0 0 1 $T1 .raSearch = $T0  $T1 4 - 8 @ = $ebp $T1 4 - ^ = $eip $T1 ^ = $esp $T1 4 + = $20 $T0 4 - ^ =  $23 $T0 12 - ^ =  $24 $T0 16 - ^ = 
STACK WIN 4 14d80 86 16 0 0 10 0 0 1 $T1 .raSearch = $T0  $T1 4 - 8 @ = $ebp $T1 4 - ^ = $eip $T1 ^ = $esp $T1 4 + = $20 $T0 4 - ^ =  $23 $T0 12 - ^ =  $24 $T0 16 - ^ = 
STACK WIN 4 14e10 a4 18 0 4 c c 0 1 $T1 .raSearch = $T0  $T1 4 - 8 @ = $ebp $T1 4 - ^ = $eip $T1 ^ = $esp $T1 4 + = $20 $T0 16 - ^ =  $23 $T0 20 - ^ =  $24 $T0 24 - ^ = 
STACK WIN 4 14ec0 b5 2e 0 c 10 200 0 1 $T0 .raSearch = $eip $T0 ^ = $esp $T0 4 + =  $20 $T0 516 - ^ =  $22 $T0 520 - ^ =  $23 $T0 524 - ^ =  $24 $T0 528 - ^ = 
STACK WIN 4 14f80 3b 3 0 10 0 14 0 1 $T0 .raSearch = $eip $T0 ^ = $esp $T0 4 + = 
STACK WIN 4 14fc0 37 3 0 c 0 14 0 1 $T0 .raSearch = $eip $T0 ^ = $esp $T0 4 + = 
STACK WIN 4 15000 76 2 0 4 8 0 0 1 $T0 .raSearch = $eip $T0 ^ = $esp $T0 4 + =  $23 $T0 4 - ^ =  $24 $T0 8 - ^ = 
STACK WIN 4 15080 1a5 13 0 14 0 0 0 1 $T0 .raSearch = $eip $T0 ^ = $esp $T0 4 + = 
STACK WIN 4 1508c 195 7 0 14 4 14 0 1 $T0 .raSearch = $eip $T0 ^ = $esp $T0 4 + =  $20 $T0 24 - ^ = 
STACK WIN 4 1508d 193 6 0 14 8 14 0 1 $T0 .raSearch = $eip $T0 ^ = $esp $T0 4 + =  $20 $T0 24 - ^ =  $22 $T0 28 - ^ = 
STACK WIN 4 15092 18d 1 0 14 c 14 0 1 $T0 .raSearch = $eip $T0 ^ = $esp $T0 4 + =  $20 $T0 24 - ^ =  $22 $T0 28 - ^ =  $23 $T0 32 - ^ = 
STACK WIN 4 15093 18b 0 0 14 10 14 0 1 $T0 .raSearch = $eip $T0 ^ = $esp $T0 4 + =  $20 $T0 24 - ^ =  $22 $T0 28 - ^ =  $23 $T0 32 - ^ =  $24 $T0 36 - ^ = 
STACK WIN 4 15230 183 31 0 14 0 0 0 1 $T0 .raSearch = $eip $T0 ^ = $esp $T0 4 + = 
STACK WIN 4 1523b 174 26 0 14 4 14 0 1 $T0 .raSearch = $eip $T0 ^ = $esp $T0 4 + =  $20 $T0 24 - ^ = 
STACK WIN 4 15242 16c 1f 0 14 8 14 0 1 $T0 .raSearch = $eip $T0 ^ = $esp $T0 4 + =  $20 $T0 24 - ^ =  $22 $T0 28 - ^ = 
STACK WIN 4 15252 15b f 0 14 c 14 0 1 $T0 .raSearch = $eip $T0 ^ = $esp $T0 4 + =  $20 $T0 24 - ^ =  $22 $T0 28 - ^ =  $23 $T0 32 - ^ = 
STACK WIN 4 15261 14b 0 0 14 10 14 0 1 $T0 .raSearch = $eip $T0 ^ = $esp $T0 4 + =  $20 $T0 24 - ^ =  $22 $T0 28 - ^ =  $23 $T0 32 - ^ =  $24 $T0 36 - ^ = 
STACK WIN 4 153c0 112 d 0 c c 4 0 1 $T1 .raSearch = $T0  $T1 4 - 8 @ = $ebp $T1 4 - ^ = $eip $T1 ^ = $esp $T1 4 + = $20 $T0 8 - ^ =  $23 $T0 12 - ^ =  $24 $T0 16 - ^ = 
STACK WIN 4 154e0 78 1 0 8 0 0 0 1 $T0 .raSearch = $eip $T0 ^ = $esp $T0 4 + = 
STACK WIN 4 154e1 76 0 0 8 4 0 0 1 $T0 .raSearch = $eip $T0 ^ = $esp $T0 4 + =  $23 $T0 4 - ^ = 
STACK WIN 4 15560 63 3 0 8 8 4 0 1 $T0 .raSearch = $eip $T0 ^ = $esp $T0 4 + =  $23 $T0 8 - ^ =  $24 $T0 12 - ^ = 
STACK WIN 4 155d0 5b 23 0 0 0 0 0 1 $T0 .raSearch = $eip $T0 ^ = $esp $T0 4 + = 
STACK WIN 4 155dc 4b 17 0 0 4 14 0 1 $T0 .raSearch = $eip $T0 ^ = $esp $T0 4 + =  $23 $T0 24 - ^ = 
STACK WIN 4 155dd 49 16 0 0 8 14 0 1 $T0 .raSearch = $eip $T0 ^ = $esp $T0 4 + =  $23 $T0 24 - ^ =  $24 $T0 28 - ^ = 
STACK WIN 4 15630 7c 23 0 0 0 0 0 1 $T0 .raSearch = $eip $T0 ^ = $esp $T0 4 + = 
STACK WIN 4 1563c 6c 17 0 0 4 14 0 1 $T0 .raSearch = $eip $T0 ^ = $esp $T0 4 + =  $23 $T0 24 - ^ = 
STACK WIN 4 1563d 6a 16 0 0 8 14 0 1 $T0 .raSearch = $eip $T0 ^ = $esp $T0 4 + =  $23 $T0 24 - ^ =  $24 $T0 28 - ^ = 
STACK WIN 4 156b0 1f3 f 0 8 0 0 0 1 $T0 .raSearch = $eip $T0 ^ = $esp $T0 4 + = 
STACK WIN 4 156b8 1e7 7 0 8 4 14 0 1 $T0 .raSearch = $eip $T0 ^ = $esp $T0 4 + =  $20 $T0 24 - ^ = 
STACK WIN 4 156bd 1de 2 0 8 8 14 0 1 $T0 .raSearch = $eip $T0 ^ = $esp $T0 4 + =  $20 $T0 24 - ^ =  $22 $T0 28 - ^ = 
STACK WIN 4 156be 1d9 1 0 8 c 14 0 1 $T0 .raSearch = $eip $T0 ^ = $esp $T0 4 + =  $20 $T0 24 - ^ =  $22 $T0 28 - ^ =  $23 $T0 32 - ^ = 
STACK WIN 4 156bf 1d7 0 0 8 10 14 0 1 $T0 .raSearch = $eip $T0 ^ = $esp $T0 4 + =  $20 $T0 24 - ^ =  $22 $T0 28 - ^ =  $23 $T0 32 - ^ =  $24 $T0 36 - ^ = 
STACK WIN 4 158b0 aa 4 0 8 0 0 0 1 $T0 .raSearch = $eip $T0 ^ = $esp $T0 4 + = 
STACK WIN 4 158b4 a2 0 0 8 4 14 0 1 $T0 .raSearch = $eip $T0 ^ = $esp $T0 4 + =  $23 $T0 24 - ^ = 
STACK WIN 4 158d8 76 0 0 8 8 14 0 1 $T0 .raSearch = $eip $T0 ^ = $esp $T0 4 + =  $23 $T0 24 - ^ =  $24 $T0 28 - ^ = 
STACK WIN 4 15960 149 11 0 8 0 0 0 1 $T0 .raSearch = $eip $T0 ^ = $esp $T0 4 + = 
STACK WIN 4 15964 141 d 0 8 4 14 0 1 $T0 .raSearch = $eip $T0 ^ = $esp $T0 4 + =  $20 $T0 24 - ^ = 
STACK WIN 4 15969 13b 8 0 8 8 14 0 1 $T0 .raSearch = $eip $T0 ^ = $esp $T0 4 + =  $20 $T0 24 - ^ =  $22 $T0 28 - ^ = 
STACK WIN 4 1596a 139 7 0 8 c 14 0 1 $T0 .raSearch = $eip $T0 ^ = $esp $T0 4 + =  $20 $T0 24 - ^ =  $22 $T0 28 - ^ =  $23 $T0 32 - ^ = 
STACK WIN 4 15971 12c 0 0 8 10 14 0 1 $T0 .raSearch = $eip $T0 ^ = $esp $T0 4 + =  $20 $T0 24 - ^ =  $22 $T0 28 - ^ =  $23 $T0 32 - ^ =  $24 $T0 36 - ^ = 
STACK WIN 4 15ab0 28 1 0 4 0 0 0 1 $T0 .raSearch = $eip $T0 ^ = $esp $T0 4 + = 
STACK WIN 4 15ab1 26 0 0 4 4 0 0 1 $T0 .raSearch = $eip $T0 ^ = $esp $T0 4 + =  $23 $T0 4 - ^ = 
STACK WIN 4 15ae0 23a 10 0 c c c 0 1 $T1 .raSearch = $T0  $T1 4 - 8 @ = $ebp $T1 4 - ^ = $eip $T1 ^ = $esp $T1 4 + = $20 $T0 16 - ^ =  $23 $T0 20 - ^ =  $24 $T0 24 - ^ = 
STACK WIN 4 15d20 6 0 0 4 0 0 0 1 $T0 .raSearch = $eip $T0 ^ = $esp $T0 4 + = 
STACK WIN 4 15d30 12 0 0 4 0 0 0 1 $T0 .raSearch = $eip $T0 ^ = $esp $T0 4 + = 
STACK WIN 4 15d50 177 10 0 0 10 4 0 1 $T0 .raSearch = $eip $T0 ^ = $esp $T0 4 + =  $20 $T0 8 - ^ =  $22 $T0 12 - ^ =  $23 $T0 16 - ^ =  $24 $T0 20 - ^ = 
STACK WIN 4 15ef0 3bd 11 0 0 10 1c 0 1 $T0 .raSearch = $eip $T0 ^ = $esp $T0 4 + =  $20 $T0 32 - ^ =  $22 $T0 36 - ^ =  $23 $T0 40 - ^ =  $24 $T0 44 - ^ = 
STACK WIN 4 162b0 106 6 0 8 0 0 0 1 $T0 .raSearch = $eip $T0 ^ = $esp $T0 4 + = 
STACK WIN 4 162b1 104 5 0 8 4 0 0 1 $T0 .raSearch = $eip $T0 ^ = $esp $T0 4 + =  $20 $T0 4 - ^ = 
STACK WIN 4 162b6 fc 0 0 8 8 0 0 1 $T0 .raSearch = $eip $T0 ^ = $esp $T0 4 + =  $20 $T0 4 - ^ =  $23 $T0 8 - ^ = 
STACK WIN 4 162c2 bf 0 0 8 c 0 0 1 $T0 .raSearch = $eip $T0 ^ = $esp $T0 4 + =  $20 $T0 4 - ^ =  $23 $T0 8 - ^ =  $24 $T0 12 - ^ = 
STACK WIN 4 163c0 21f 1f 0 10 0 0 0 1 $T0 .raSearch = $eip $T0 ^ = $esp $T0 4 + = 
STACK WIN 4 163d1 20a e 0 10 4 14 0 1 $T0 .raSearch = $eip $T0 ^ = $esp $T0 4 + =  $20 $T0 24 - ^ = 
STACK WIN 4 163d7 203 8 0 10 8 14 0 1 $T0 .raSearch = $eip $T0 ^ = $esp $T0 4 + =  $20 $T0 24 - ^ =  $22 $T0 28 - ^ = 
STACK WIN 4 163d8 201 7 0 10 c 14 0 1 $T0 .raSearch = $eip $T0 ^ = $esp $T0 4 + =  $20 $T0 24 - ^ =  $22 $T0 28 - ^ =  $23 $T0 32 - ^ = 
STACK WIN 4 163df 1f7 0 0 10 10 14 0 1 $T0 .raSearch = $eip $T0 ^ = $esp $T0 4 + =  $20 $T0 24 - ^ =  $22 $T0 28 - ^ =  $23 $T0 32 - ^ =  $24 $T0 36 - ^ = 
STACK WIN 4 165e0 45 0 0 4 0 0 0 1 $T0 .raSearch = $eip $T0 ^ = $esp $T0 4 + = 
STACK WIN 4 16630 206 c 0 14 c c 0 1 $T1 .raSearch = $T0  $T1 4 - 8 @ = $ebp $T1 4 - ^ = $eip $T1 ^ = $esp $T1 4 + = $20 $T0 16 - ^ =  $23 $T0 20 - ^ =  $24 $T0 24 - ^ = 
STACK WIN 4 16840 a3 3 0 0 4 0 0 1 $T0 .raSearch = $eip $T0 ^ = $esp $T0 4 + =  $23 $T0 4 - ^ = 
STACK WIN 4 168f0 154 7 0 8 c 8 0 1 $T0 .raSearch = $eip $T0 ^ = $esp $T0 4 + =  $20 $T0 12 - ^ =  $23 $T0 16 - ^ =  $24 $T0 20 - ^ = 
STACK WIN 4 16a50 63 b 0 14 8 0 0 1 $T1 .raSearch = $T0  $T1 4 - 8 @ = $ebp $T1 4 - ^ = $eip $T1 ^ = $esp $T1 4 + = $23 $T0 4 - ^ =  $24 $T0 8 - ^ = 
STACK WIN 4 16ac0 1d 0 0 10 0 0 0 1 $T0 .raSearch = $eip $T0 ^ = $esp $T0 4 + = 
STACK WIN 4 16ae0 46 1 0 0 0 0 0 1 $T0 .raSearch = $eip $T0 ^ = $esp $T0 4 + = 
STACK WIN 4 16ae1 44 0 0 0 4 0 0 1 $T0 .raSearch = $eip $T0 ^ = $esp $T0 4 + =  $23 $T0 4 - ^ = 
STACK WIN 4 16ae8 12 0 0 0 8 0 0 1 $T0 .raSearch = $eip $T0 ^ = $esp $T0 4 + =  $23 $T0 4 - ^ =  $24 $T0 8 - ^ = 
STACK WIN 4 16b30 2b5 11 0 0 10 c 0 1 $T0 .raSearch = $eip $T0 ^ = $esp $T0 4 + =  $20 $T0 16 - ^ =  $22 $T0 20 - ^ =  $23 $T0 24 - ^ =  $24 $T0 28 - ^ = 
STACK WIN 4 16df0 b3 17 0 0 0 0 0 1 $T0 .raSearch = $eip $T0 ^ = $esp $T0 4 + = 
STACK WIN 4 16dff 99 8 0 0 4 28 0 1 $T0 .raSearch = $eip $T0 ^ = $esp $T0 4 + =  $23 $T0 44 - ^ = 
STACK WIN 4 16e05 92 2 0 0 8 28 0 1 $T0 .raSearch = $eip $T0 ^ = $esp $T0 4 + =  $23 $T0 44 - ^ =  $24 $T0 48 - ^ = 
STACK WIN 4 16eb0 33a f 0 14 c 2c 0 1 $T1 .raSearch = $T0  $T1 4 - 8 @ = $ebp $T1 4 - ^ = $eip $T1 ^ = $esp $T1 4 + = $20 $T0 48 - ^ =  $23 $T0 52 - ^ =  $24 $T0 56 - ^ = 
STACK WIN 4 171f0 127 d 0 c c 4 0 1 $T1 .raSearch = $T0  $T1 4 - 8 @ = $ebp $T1 4 - ^ = $eip $T1 ^ = $esp $T1 4 + = $20 $T0 8 - ^ =  $23 $T0 12 - ^ =  $24 $T0 16 - ^ = 
STACK WIN 4 17320 1b5 22 0 10 8 58 0 1 $T1 .raSearch = $T0  $T1 4 - 16 @ = $ebp $T1 4 - ^ = $eip $T1 ^ = $esp $T1 4 + = $23 $T0 92 - ^ =  $24 $T0 96 - ^ = 
STACK WIN 4 174e0 191 f 0 10 c c 0 1 $T1 .raSearch = $T0  $T1 4 - 8 @ = $ebp $T1 4 - ^ = $eip $T1 ^ = $esp $T1 4 + = $20 $T0 16 - ^ =  $23 $T0 20 - ^ =  $24 $T0 24 - ^ = 
STACK WIN 4 17680 36 b 0 8 8 0 0 1 $T1 .raSearch = $T0  $T1 4 - 8 @ = $ebp $T1 4 - ^ = $eip $T1 ^ = $esp $T1 4 + = $23 $T0 4 - ^ =  $24 $T0 8 - ^ = 
STACK WIN 4 176c0 17 0 0 c 0 0 0 1 $T0 .raSearch = $eip $T0 ^ = $esp $T0 4 + = 
STACK WIN 4 176e0 f 0 0 c 0 0 0 1 $T0 .raSearch = $eip $T0 ^ = $esp $T0 4 + = 
STACK WIN 4 176f0 b 0 0 8 0 0 0 1 $T0 .raSearch = $eip $T0 ^ = $esp $T0 4 + = 
STACK WIN 4 17700 1b3 1a 0 c c 1c 0 1 $T1 .raSearch = $T0  $T1 4 - 8 @ = $ebp $T1 4 - ^ = $eip $T1 ^ = $esp $T1 4 + = $20 $T0 32 - ^ =  $23 $T0 36 - ^ =  $24 $T0 40 - ^ = 
STACK WIN 4 178c0 2b a 0 8 0 0 0 1 $T0 .raSearch = $eip $T0 ^ = $esp $T0 4 + = 
STACK WIN 4 178ca 20 0 0 8 4 0 0 1 $T0 .raSearch = $eip $T0 ^ = $esp $T0 4 + =  $23 $T0 4 - ^ = 
STACK WIN 4 178f0 41 3 0 8 0 8 0 1 $T0 .raSearch = $eip $T0 ^ = $esp $T0 4 + = 
STACK WIN 4 17940 4f 3 0 8 0 8 0 1 $T0 .raSearch = $eip $T0 ^ = $esp $T0 4 + = 
STACK WIN 4 17990 23 1 0 c 0 0 0 1 $T0 .raSearch = $eip $T0 ^ = $esp $T0 4 + = 
STACK WIN 4 17991 21 0 0 c 4 0 0 1 $T0 .raSearch = $eip $T0 ^ = $esp $T0 4 + =  $23 $T0 4 - ^ = 
STACK WIN 4 179c0 5c 0 0 0 0 0 0 1 $T0 .raSearch = $eip $T0 ^ = $esp $T0 4 + = 
STACK WIN 4 17a20 90 3 0 0 0 0 0 1 $T0 .raSearch = $eip $T0 ^ = $esp $T0 4 + = 
STACK WIN 4 17a21 8e 2 0 0 4 0 0 1 $T0 .raSearch = $eip $T0 ^ = $esp $T0 4 + =  $23 $T0 4 - ^ = 
STACK WIN 4 17a24 85 0 0 0 8 0 0 1 $T0 .raSearch = $eip $T0 ^ = $esp $T0 4 + =  $23 $T0 4 - ^ =  $24 $T0 8 - ^ = 
STACK WIN 4 17ab0 196 5 0 0 10 4 0 1 $T0 .raSearch = $eip $T0 ^ = $esp $T0 4 + =  $20 $T0 8 - ^ =  $22 $T0 12 - ^ =  $23 $T0 16 - ^ =  $24 $T0 20 - ^ = 
STACK WIN 4 17c50 c2 3 0 4 0 0 0 1 $T0 .raSearch = $eip $T0 ^ = $esp $T0 4 + = 
STACK WIN 4 17c51 c0 2 0 4 4 0 0 1 $T0 .raSearch = $eip $T0 ^ = $esp $T0 4 + =  $20 $T0 4 - ^ = 
STACK WIN 4 17c54 bc 0 0 4 8 0 0 1 $T0 .raSearch = $eip $T0 ^ = $esp $T0 4 + =  $20 $T0 4 - ^ =  $22 $T0 8 - ^ = 
STACK WIN 4 17ca0 6f 0 0 4 c 0 0 1 $T0 .raSearch = $eip $T0 ^ = $esp $T0 4 + =  $20 $T0 4 - ^ =  $22 $T0 8 - ^ =  $23 $T0 12 - ^ = 
STACK WIN 4 17ca1 6d 0 0 4 10 0 0 1 $T0 .raSearch = $eip $T0 ^ = $esp $T0 4 + =  $20 $T0 4 - ^ =  $22 $T0 8 - ^ =  $23 $T0 12 - ^ =  $24 $T0 16 - ^ = 
STACK WIN 4 17d20 82 3 0 0 0 0 0 1 $T0 .raSearch = $eip $T0 ^ = $esp $T0 4 + = 
STACK WIN 4 17d21 80 2 0 0 4 0 0 1 $T0 .raSearch = $eip $T0 ^ = $esp $T0 4 + =  $20 $T0 4 - ^ = 
STACK WIN 4 17d2e 1a 0 0 0 8 0 0 1 $T0 .raSearch = $eip $T0 ^ = $esp $T0 4 + =  $20 $T0 4 - ^ =  $23 $T0 8 - ^ = 
STACK WIN 4 17d2f 18 0 0 0 c 0 0 1 $T0 .raSearch = $eip $T0 ^ = $esp $T0 4 + =  $20 $T0 4 - ^ =  $23 $T0 8 - ^ =  $24 $T0 12 - ^ = 
STACK WIN 4 17db0 2cf 1e 0 0 10 20 0 1 $T1 .raSearch = $T0  $T1 4 - 8 @ = $ebp $T1 4 - ^ = $eip $T1 ^ = $esp $T1 4 + = $20 $T0 36 - ^ =  $23 $T0 44 - ^ =  $24 $T0 48 - ^ = 
STACK WIN 4 18080 84 3 0 0 0 0 0 1 $T0 .raSearch = $eip $T0 ^ = $esp $T0 4 + = 
STACK WIN 4 18081 82 2 0 0 4 0 0 1 $T0 .raSearch = $eip $T0 ^ = $esp $T0 4 + =  $20 $T0 4 - ^ = 
STACK WIN 4 18084 7e 0 0 0 8 0 0 1 $T0 .raSearch = $eip $T0 ^ = $esp $T0 4 + =  $20 $T0 4 - ^ =  $23 $T0 8 - ^ = 
STACK WIN 4 18110 55 10 0 10 0 0 0 1 $T0 .raSearch = $eip $T0 ^ = $esp $T0 4 + = 
STACK WIN 4 18111 4f f 0 10 4 0 0 1 $T0 .raSearch = $eip $T0 ^ = $esp $T0 4 + =  $20 $T0 4 - ^ = 
STACK WIN 4 18112 4d e 0 10 8 0 0 1 $T0 .raSearch = $eip $T0 ^ = $esp $T0 4 + =  $20 $T0 4 - ^ =  $23 $T0 8 - ^ = 
STACK WIN 4 18113 4b d 0 10 c 0 0 1 $T0 .raSearch = $eip $T0 ^ = $esp $T0 4 + =  $20 $T0 4 - ^ =  $23 $T0 8 - ^ =  $24 $T0 12 - ^ = 
STACK WIN 4 18170 89 6 0 0 0 0 0 1 $T0 .raSearch = $eip $T0 ^ = $esp $T0 4 + = 
STACK WIN 4 18172 85 4 0 0 4 4 0 1 $T0 .raSearch = $eip $T0 ^ = $esp $T0 4 + =  $20 $T0 8 - ^ = 
STACK WIN 4 18173 81 3 0 0 8 4 0 1 $T0 .raSearch = $eip $T0 ^ = $esp $T0 4 + =  $20 $T0 8 - ^ =  $23 $T0 12 - ^ = 
STACK WIN 4 18174 7f 2 0 0 c 4 0 1 $T0 .raSearch = $eip $T0 ^ = $esp $T0 4 + =  $20 $T0 8 - ^ =  $23 $T0 12 - ^ =  $24 $T0 16 - ^ = 
STACK WIN 4 181a7 37 0 0 0 10 4 0 1 $T0 .raSearch = $eip $T0 ^ = $esp $T0 4 + =  $20 $T0 8 - ^ =  $23 $T0 12 - ^ =  $24 $T0 16 - ^ =  $22 $T0 20 - ^ = 
STACK WIN 4 18200 9d 3 0 4 0 0 0 1 $T0 .raSearch = $eip $T0 ^ = $esp $T0 4 + = 
STACK WIN 4 18201 9b 2 0 4 4 0 0 1 $T0 .raSearch = $eip $T0 ^ = $esp $T0 4 + =  $23 $T0 4 - ^ = 
STACK WIN 4 18204 97 0 0 4 8 0 0 1 $T0 .raSearch = $eip $T0 ^ = $esp $T0 4 + =  $23 $T0 4 - ^ =  $24 $T0 8 - ^ = 
STACK WIN 4 182a0 5b d 0 4 0 0 0 1 $T0 .raSearch = $eip $T0 ^ = $esp $T0 4 + = 
STACK WIN 4 182a1 59 c 0 4 4 0 0 1 $T0 .raSearch = $eip $T0 ^ = $esp $T0 4 + =  $20 $T0 4 - ^ = 
STACK WIN 4 182a2 57 b 0 4 8 0 0 1 $T0 .raSearch = $eip $T0 ^ = $esp $T0 4 + =  $20 $T0 4 - ^ =  $22 $T0 8 - ^ = 
STACK WIN 4 182a3 55 a 0 4 c 0 0 1 $T0 .raSearch = $eip $T0 ^ = $esp $T0 4 + =  $20 $T0 4 - ^ =  $22 $T0 8 - ^ =  $23 $T0 12 - ^ = 
STACK WIN 4 182a4 53 9 0 4 10 0 0 1 $T0 .raSearch = $eip $T0 ^ = $esp $T0 4 + =  $20 $T0 4 - ^ =  $22 $T0 8 - ^ =  $23 $T0 12 - ^ =  $24 $T0 16 - ^ = 
STACK WIN 4 18300 21 1 0 4 0 0 0 1 $T0 .raSearch = $eip $T0 ^ = $esp $T0 4 + = 
STACK WIN 4 18301 1f 0 0 4 4 0 0 1 $T0 .raSearch = $eip $T0 ^ = $esp $T0 4 + =  $23 $T0 4 - ^ = 
STACK WIN 4 18330 3a 0 0 0 0 0 0 1 $T0 .raSearch = $eip $T0 ^ = $esp $T0 4 + = 
STACK WIN 4 18370 69 0 0 0 0 0 0 1 $T0 .raSearch = $eip $T0 ^ = $esp $T0 4 + = 
STACK WIN 4 18388 37 0 0 0 4 0 0 1 $T0 .raSearch = $eip $T0 ^ = $esp $T0 4 + =  $23 $T0 4 - ^ = 
STACK WIN 4 183e0 4c 0 0 0 0 0 0 1 $T0 .raSearch = $eip $T0 ^ = $esp $T0 4 + = 
STACK WIN 4 18430 84 0 0 0 0 0 0 1 $T0 .raSearch = $eip $T0 ^ = $esp $T0 4 + = 
STACK WIN 4 18448 50 0 0 0 4 0 0 1 $T0 .raSearch = $eip $T0 ^ = $esp $T0 4 + =  $23 $T0 4 - ^ = 
STACK WIN 4 184c0 1f 3 0 0 0 0 0 1 $T0 .raSearch = $eip $T0 ^ = $esp $T0 4 + = 
STACK WIN 4 184c1 1d 2 0 0 4 0 0 1 $T0 .raSearch = $eip $T0 ^ = $esp $T0 4 + =  $23 $T0 4 - ^ = 
STACK WIN 4 184e0 a0 4 0 0 0 0 0 1 $T0 .raSearch = $eip $T0 ^ = $esp $T0 4 + = 
STACK WIN 4 184e1 9e 3 0 0 4 0 0 1 $T0 .raSearch = $eip $T0 ^ = $esp $T0 4 + =  $23 $T0 4 - ^ = 
STACK WIN 4 184e2 9c 2 0 0 8 0 0 1 $T0 .raSearch = $eip $T0 ^ = $esp $T0 4 + =  $23 $T0 4 - ^ =  $24 $T0 8 - ^ = 
STACK WIN 4 18580 69 3 0 0 0 0 0 1 $T0 .raSearch = $eip $T0 ^ = $esp $T0 4 + = 
STACK WIN 4 18581 67 2 0 0 4 0 0 1 $T0 .raSearch = $eip $T0 ^ = $esp $T0 4 + =  $20 $T0 4 - ^ = 
STACK WIN 4 18584 63 0 0 0 8 0 0 1 $T0 .raSearch = $eip $T0 ^ = $esp $T0 4 + =  $20 $T0 4 - ^ =  $24 $T0 8 - ^ = 
STACK WIN 4 18593 14 0 0 0 c 0 0 1 $T0 .raSearch = $eip $T0 ^ = $esp $T0 4 + =  $20 $T0 4 - ^ =  $24 $T0 8 - ^ =  $23 $T0 12 - ^ = 
STACK WIN 4 185f0 66 4 0 0 0 0 0 1 $T0 .raSearch = $eip $T0 ^ = $esp $T0 4 + = 
STACK WIN 4 185f1 64 3 0 0 4 0 0 1 $T0 .raSearch = $eip $T0 ^ = $esp $T0 4 + =  $20 $T0 4 - ^ = 
STACK WIN 4 185f2 62 2 0 0 8 0 0 1 $T0 .raSearch = $eip $T0 ^ = $esp $T0 4 + =  $20 $T0 4 - ^ =  $24 $T0 8 - ^ = 
STACK WIN 4 18602 14 0 0 0 c 0 0 1 $T0 .raSearch = $eip $T0 ^ = $esp $T0 4 + =  $20 $T0 4 - ^ =  $24 $T0 8 - ^ =  $23 $T0 12 - ^ = 
STACK WIN 4 18660 155 28 0 0 c b4 0 1 $T1 .raSearch = $T0  $T1 4 - 8 @ = $ebp $T1 4 - ^ = $eip $T1 ^ = $esp $T1 4 + = $20 $T0 184 - ^ =  $23 $T0 188 - ^ =  $24 $T0 192 - ^ = 
STACK WIN 4 187c0 19 0 0 0 0 0 0 1 $T0 .raSearch = $eip $T0 ^ = $esp $T0 4 + = 
STACK WIN 4 187e0 64 4 0 0 0 0 0 1 $T0 .raSearch = $eip $T0 ^ = $esp $T0 4 + = 
STACK WIN 4 187e1 62 3 0 0 4 0 0 1 $T0 .raSearch = $eip $T0 ^ = $esp $T0 4 + =  $20 $T0 4 - ^ = 
STACK WIN 4 187e2 5e 2 0 0 8 0 0 1 $T0 .raSearch = $eip $T0 ^ = $esp $T0 4 + =  $20 $T0 4 - ^ =  $22 $T0 8 - ^ = 
STACK WIN 4 187e5 5a 0 0 0 c 0 0 1 $T0 .raSearch = $eip $T0 ^ = $esp $T0 4 + =  $20 $T0 4 - ^ =  $22 $T0 8 - ^ =  $23 $T0 12 - ^ = 
STACK WIN 4 187e6 58 0 0 0 10 0 0 1 $T0 .raSearch = $eip $T0 ^ = $esp $T0 4 + =  $20 $T0 4 - ^ =  $22 $T0 8 - ^ =  $23 $T0 12 - ^ =  $24 $T0 16 - ^ = 
STACK WIN 4 18850 89 0 0 4 0 0 0 1 $T0 .raSearch = $eip $T0 ^ = $esp $T0 4 + = 
STACK WIN 4 1885a 7e 0 0 4 4 0 0 1 $T0 .raSearch = $eip $T0 ^ = $esp $T0 4 + =  $23 $T0 4 - ^ = 
STACK WIN 4 1885f 72 0 0 4 8 0 0 1 $T0 .raSearch = $eip $T0 ^ = $esp $T0 4 + =  $23 $T0 4 - ^ =  $24 $T0 8 - ^ = 
STACK WIN 4 188e0 c0 9 0 0 c 0 0 1 $T0 .raSearch = $eip $T0 ^ = $esp $T0 4 + =  $20 $T0 4 - ^ =  $23 $T0 8 - ^ =  $24 $T0 12 - ^ = 
STACK WIN 4 189a0 10f 5 0 0 c 0 0 1 $T0 .raSearch = $eip $T0 ^ = $esp $T0 4 + =  $20 $T0 4 - ^ =  $23 $T0 8 - ^ =  $24 $T0 12 - ^ = 
STACK WIN 4 18ab0 ba 3 0 0 0 0 0 1 $T0 .raSearch = $eip $T0 ^ = $esp $T0 4 + = 
STACK WIN 4 18ab1 b8 2 0 0 4 0 0 1 $T0 .raSearch = $eip $T0 ^ = $esp $T0 4 + =  $23 $T0 4 - ^ = 
STACK WIN 4 18b24 2d 0 0 0 8 0 0 1 $T0 .raSearch = $eip $T0 ^ = $esp $T0 4 + =  $23 $T0 4 - ^ =  $24 $T0 8 - ^ = 
STACK WIN 4 18b70 93 e 0 0 10 0 0 1 $T1 .raSearch = $T0  $T1 4 - 8 @ = $ebp $T1 4 - ^ = $eip $T1 ^ = $esp $T1 4 + = $20 $T0 4 - ^ =  $23 $T0 12 - ^ =  $24 $T0 16 - ^ = 
STACK WIN 4 18c10 29 5 0 0 0 0 0 1 $T0 .raSearch = $eip $T0 ^ = $esp $T0 4 + = 
STACK WIN 4 18c15 23 0 0 0 4 0 0 1 $T0 .raSearch = $eip $T0 ^ = $esp $T0 4 + =  $23 $T0 4 - ^ = 
STACK WIN 4 18c40 133 1b 0 0 10 8 0 1 $T1 .raSearch = $T0  $T1 4 - 8 @ = $ebp $T1 4 - ^ = $eip $T1 ^ = $esp $T1 4 + = $20 $T0 12 - ^ =  $23 $T0 20 - ^ =  $24 $T0 24 - ^ = 
STACK WIN 4 18d80 ce 3 0 0 0 0 0 1 $T0 .raSearch = $eip $T0 ^ = $esp $T0 4 + = 
STACK WIN 4 18d81 cc 2 0 0 4 0 0 1 $T0 .raSearch = $eip $T0 ^ = $esp $T0 4 + =  $20 $T0 4 - ^ = 
STACK WIN 4 18d84 c8 0 0 0 8 0 0 1 $T0 .raSearch = $eip $T0 ^ = $esp $T0 4 + =  $20 $T0 4 - ^ =  $24 $T0 8 - ^ = 
STACK WIN 4 18d93 94 0 0 0 c 0 0 1 $T0 .raSearch = $eip $T0 ^ = $esp $T0 4 + =  $20 $T0 4 - ^ =  $24 $T0 8 - ^ =  $23 $T0 12 - ^ = 
STACK WIN 4 18e50 d7 7 0 0 0 0 0 1 $T0 .raSearch = $eip $T0 ^ = $esp $T0 4 + = 
STACK WIN 4 18e54 cf 3 0 0 4 8 0 1 $T0 .raSearch = $eip $T0 ^ = $esp $T0 4 + =  $20 $T0 12 - ^ = 
STACK WIN 4 18e55 cd 2 0 0 8 8 0 1 $T0 .raSearch = $eip $T0 ^ = $esp $T0 4 + =  $20 $T0 12 - ^ =  $22 $T0 16 - ^ = 
STACK WIN 4 18e5a c7 0 0 0 c 8 0 1 $T0 .raSearch = $eip $T0 ^ = $esp $T0 4 + =  $20 $T0 12 - ^ =  $22 $T0 16 - ^ =  $23 $T0 20 - ^ = 
STACK WIN 4 18e5b c5 0 0 0 10 8 0 1 $T0 .raSearch = $eip $T0 ^ = $esp $T0 4 + =  $20 $T0 12 - ^ =  $22 $T0 16 - ^ =  $23 $T0 20 - ^ =  $24 $T0 24 - ^ = 
STACK WIN 4 18f30 a6 0 0 4 0 0 0 1 $T0 .raSearch = $eip $T0 ^ = $esp $T0 4 + = 
STACK WIN 4 18fe0 12 0 0 4 0 0 0 1 $T0 .raSearch = $eip $T0 ^ = $esp $T0 4 + = 
STACK WIN 4 19000 d2 11 0 c c 4 0 1 $T1 .raSearch = $T0  $T1 4 - 8 @ = $ebp $T1 4 - ^ = $eip $T1 ^ = $esp $T1 4 + = $20 $T0 8 - ^ =  $23 $T0 12 - ^ =  $24 $T0 16 - ^ = 
STACK WIN 4 190e0 3f 0 0 8 0 0 0 1 $T0 .raSearch = $eip $T0 ^ = $esp $T0 4 + = 
STACK WIN 4 190ed 26 0 0 8 4 0 0 1 $T0 .raSearch = $eip $T0 ^ = $esp $T0 4 + =  $23 $T0 4 - ^ = 
STACK WIN 4 19120 23 0 0 4 0 0 0 1 $T0 .raSearch = $eip $T0 ^ = $esp $T0 4 + = 
STACK WIN 4 1912b 17 0 0 4 4 0 0 1 $T0 .raSearch = $eip $T0 ^ = $esp $T0 4 + =  $23 $T0 4 - ^ = 
STACK WIN 4 1912c 15 0 0 4 8 0 0 1 $T0 .raSearch = $eip $T0 ^ = $esp $T0 4 + =  $23 $T0 4 - ^ =  $24 $T0 8 - ^ = 
STACK WIN 4 19150 8 0 0 4 0 0 0 1 $T0 .raSearch = $eip $T0 ^ = $esp $T0 4 + = 
STACK WIN 4 19160 19a 14 0 4 10 8 0 1 $T0 .raSearch = $eip $T0 ^ = $esp $T0 4 + =  $20 $T0 12 - ^ =  $22 $T0 16 - ^ =  $23 $T0 20 - ^ =  $24 $T0 24 - ^ = 
STACK WIN 4 19300 6f 4 0 4 4 4 0 1 $T0 .raSearch = $eip $T0 ^ = $esp $T0 4 + =  $23 $T0 8 - ^ = 
STACK WIN 4 19370 15 0 0 c 0 0 0 1 $T0 .raSearch = $eip $T0 ^ = $esp $T0 4 + = 
STACK WIN 4 19390 8b 6 0 c 0 0 0 1 $T0 .raSearch = $eip $T0 ^ = $esp $T0 4 + = 
STACK WIN 4 19396 84 0 0 c 4 0 0 1 $T0 .raSearch = $eip $T0 ^ = $esp $T0 4 + =  $23 $T0 4 - ^ = 
STACK WIN 4 19420 56 8 0 10 0 0 0 1 $T0 .raSearch = $eip $T0 ^ = $esp $T0 4 + = 
STACK WIN 4 19427 4e 1 0 10 4 0 0 1 $T0 .raSearch = $eip $T0 ^ = $esp $T0 4 + =  $23 $T0 4 - ^ = 
STACK WIN 4 19428 4c 0 0 10 8 0 0 1 $T0 .raSearch = $eip $T0 ^ = $esp $T0 4 + =  $23 $T0 4 - ^ =  $24 $T0 8 - ^ = 
STACK WIN 4 19480 21 6 0 8 0 0 0 1 $T0 .raSearch = $eip $T0 ^ = $esp $T0 4 + = 
STACK WIN 4 19481 1f 5 0 8 4 0 0 1 $T0 .raSearch = $eip $T0 ^ = $esp $T0 4 + =  $23 $T0 4 - ^ = 
STACK WIN 4 19486 19 0 0 8 8 0 0 1 $T0 .raSearch = $eip $T0 ^ = $esp $T0 4 + =  $23 $T0 4 - ^ =  $24 $T0 8 - ^ = 
STACK WIN 4 194b0 52 6 0 4 0 0 0 1 $T0 .raSearch = $eip $T0 ^ = $esp $T0 4 + = 
STACK WIN 4 194b1 50 5 0 4 4 0 0 1 $T0 .raSearch = $eip $T0 ^ = $esp $T0 4 + =  $23 $T0 4 - ^ = 
STACK WIN 4 194b6 4a 0 0 4 8 0 0 1 $T0 .raSearch = $eip $T0 ^ = $esp $T0 4 + =  $23 $T0 4 - ^ =  $24 $T0 8 - ^ = 
STACK WIN 4 19510 19 6 0 0 0 0 0 1 $T1 .raSearch = $T0  $T1 4 - 8 @ = $ebp $T1 4 - ^ = $eip $T1 ^ = $esp $T1 4 + =
STACK WIN 4 19530 85 3 0 0 0 0 0 1 $T0 .raSearch = $eip $T0 ^ = $esp $T0 4 + = 
STACK WIN 4 19531 83 2 0 0 4 0 0 1 $T0 .raSearch = $eip $T0 ^ = $esp $T0 4 + =  $23 $T0 4 - ^ = 
STACK WIN 4 1953a 57 0 0 0 8 0 0 1 $T0 .raSearch = $eip $T0 ^ = $esp $T0 4 + =  $23 $T0 4 - ^ =  $24 $T0 8 - ^ = 
STACK WIN 4 195c0 90 4 0 8 8 4 0 1 $T0 .raSearch = $eip $T0 ^ = $esp $T0 4 + =  $23 $T0 8 - ^ =  $24 $T0 12 - ^ = 
STACK WIN 4 19650 64 a 0 0 10 14 0 1 $T0 .raSearch = $eip $T0 ^ = $esp $T0 4 + =  $20 $T0 24 - ^ =  $22 $T0 28 - ^ =  $23 $T0 32 - ^ =  $24 $T0 36 - ^ = 
STACK WIN 4 196c0 ba 23 0 0 10 ac 0 1 $T0 .raSearch = $eip $T0 ^ = $esp $T0 4 + =  $20 $T0 176 - ^ =  $22 $T0 180 - ^ =  $23 $T0 184 - ^ =  $24 $T0 188 - ^ = 
STACK WIN 4 19780 3a 4 0 4 0 0 0 1 $T0 .raSearch = $eip $T0 ^ = $esp $T0 4 + = 
STACK WIN 4 19782 36 2 0 4 4 4 0 1 $T0 .raSearch = $eip $T0 ^ = $esp $T0 4 + =  $23 $T0 8 - ^ = 
STACK WIN 4 197c0 58 4 0 0 0 0 0 1 $T0 .raSearch = $eip $T0 ^ = $esp $T0 4 + = 
STACK WIN 4 197c1 56 3 0 0 4 0 0 1 $T0 .raSearch = $eip $T0 ^ = $esp $T0 4 + =  $23 $T0 4 - ^ = 
STACK WIN 4 197c2 54 2 0 0 8 0 0 1 $T0 .raSearch = $eip $T0 ^ = $esp $T0 4 + =  $23 $T0 4 - ^ =  $24 $T0 8 - ^ = 
STACK WIN 4 197d0 45 0 0 0 c 0 0 1 $T0 .raSearch = $eip $T0 ^ = $esp $T0 4 + =  $23 $T0 4 - ^ =  $24 $T0 8 - ^ =  $20 $T0 12 - ^ = 
STACK WIN 4 19820 aa 8 0 0 0 0 0 1 $T0 .raSearch = $eip $T0 ^ = $esp $T0 4 + = 
STACK WIN 4 19822 a6 6 0 0 4 4 0 1 $T0 .raSearch = $eip $T0 ^ = $esp $T0 4 + =  $22 $T0 8 - ^ = 
STACK WIN 4 19829 9c 0 0 0 8 4 0 1 $T0 .raSearch = $eip $T0 ^ = $esp $T0 4 + =  $22 $T0 8 - ^ =  $24 $T0 12 - ^ = 
STACK WIN 4 19847 7d 0 0 0 c 4 0 1 $T0 .raSearch = $eip $T0 ^ = $esp $T0 4 + =  $22 $T0 8 - ^ =  $24 $T0 12 - ^ =  $20 $T0 16 - ^ = 
STACK WIN 4 19848 7b 0 0 0 10 4 0 1 $T0 .raSearch = $eip $T0 ^ = $esp $T0 4 + =  $22 $T0 8 - ^ =  $24 $T0 12 - ^ =  $20 $T0 16 - ^ =  $23 $T0 20 - ^ = 
STACK WIN 4 198d0 15a 8 0 8 10 c 0 1 $T0 .raSearch = $eip $T0 ^ = $esp $T0 4 + =  $20 $T0 16 - ^ =  $22 $T0 20 - ^ =  $23 $T0 24 - ^ =  $24 $T0 28 - ^ = 
STACK WIN 4 19a30 4b a 0 0 0 0 0 1 $T0 .raSearch = $eip $T0 ^ = $esp $T0 4 + = 
STACK WIN 4 19a31 49 9 0 0 4 0 0 1 $T0 .raSearch = $eip $T0 ^ = $esp $T0 4 + =  $20 $T0 4 - ^ = 
STACK WIN 4 19a35 3f 5 0 0 8 0 0 1 $T0 .raSearch = $eip $T0 ^ = $esp $T0 4 + =  $20 $T0 4 - ^ =  $22 $T0 8 - ^ = 
STACK WIN 4 19a36 3d 4 0 0 c 0 0 1 $T0 .raSearch = $eip $T0 ^ = $esp $T0 4 + =  $20 $T0 4 - ^ =  $22 $T0 8 - ^ =  $23 $T0 12 - ^ = 
STACK WIN 4 19a3a 38 0 0 0 10 0 0 1 $T0 .raSearch = $eip $T0 ^ = $esp $T0 4 + =  $20 $T0 4 - ^ =  $22 $T0 8 - ^ =  $23 $T0 12 - ^ =  $24 $T0 16 - ^ = 
STACK WIN 4 19a80 31 f 0 8 4 8 0 1 $T0 .raSearch = $eip $T0 ^ = $esp $T0 4 + =  $23 $T0 12 - ^ = 
STACK WIN 4 19ac0 35 4 0 0 0 0 0 1 $T0 .raSearch = $eip $T0 ^ = $esp $T0 4 + = 
STACK WIN 4 19ac1 33 3 0 0 4 0 0 1 $T0 .raSearch = $eip $T0 ^ = $esp $T0 4 + =  $20 $T0 4 - ^ = 
STACK WIN 4 19ac2 31 2 0 0 8 0 0 1 $T0 .raSearch = $eip $T0 ^ = $esp $T0 4 + =  $20 $T0 4 - ^ =  $23 $T0 8 - ^ = 
STACK WIN 4 19b00 4b 5 0 0 0 0 0 1 $T0 .raSearch = $eip $T0 ^ = $esp $T0 4 + = 
STACK WIN 4 19b01 49 4 0 0 4 0 0 1 $T0 .raSearch = $eip $T0 ^ = $esp $T0 4 + =  $20 $T0 4 - ^ = 
STACK WIN 4 19b02 47 3 0 0 8 0 0 1 $T0 .raSearch = $eip $T0 ^ = $esp $T0 4 + =  $20 $T0 4 - ^ =  $23 $T0 8 - ^ = 
STACK WIN 4 19b03 45 2 0 0 c 0 0 1 $T0 .raSearch = $eip $T0 ^ = $esp $T0 4 + =  $20 $T0 4 - ^ =  $23 $T0 8 - ^ =  $24 $T0 12 - ^ = 
STACK WIN 4 19b50 15b 13 0 4 c 1c 0 1 $T0 .raSearch = $eip $T0 ^ = $esp $T0 4 + =  $20 $T0 32 - ^ =  $23 $T0 36 - ^ =  $24 $T0 40 - ^ = 
STACK WIN 4 19cb0 54 b 0 0 8 c 0 1 $T0 .raSearch = $eip $T0 ^ = $esp $T0 4 + =  $23 $T0 16 - ^ =  $24 $T0 20 - ^ = 
STACK WIN 4 19d10 ca 7 0 0 c 8 0 1 $T0 .raSearch = $eip $T0 ^ = $esp $T0 4 + =  $20 $T0 12 - ^ =  $23 $T0 16 - ^ =  $24 $T0 20 - ^ = 
STACK WIN 4 19de0 163 8 0 0 10 c 0 1 $T0 .raSearch = $eip $T0 ^ = $esp $T0 4 + =  $20 $T0 16 - ^ =  $22 $T0 20 - ^ =  $23 $T0 24 - ^ =  $24 $T0 28 - ^ = 
STACK WIN 4 19f50 26f 1b 0 10 10 24 0 1 $T0 .raSearch = $eip $T0 ^ = $esp $T0 4 + =  $20 $T0 40 - ^ =  $22 $T0 44 - ^ =  $23 $T0 48 - ^ =  $24 $T0 52 - ^ = 
STACK WIN 4 1a1c0 1fd b 0 0 10 24 0 1 $T0 .raSearch = $eip $T0 ^ = $esp $T0 4 + =  $20 $T0 40 - ^ =  $22 $T0 44 - ^ =  $23 $T0 48 - ^ =  $24 $T0 52 - ^ = 
STACK WIN 4 1a3c0 29 0 0 0 0 0 0 1 $T0 .raSearch = $eip $T0 ^ = $esp $T0 4 + = 
STACK WIN 4 1a3f0 c3 3 0 0 0 0 0 1 $T0 .raSearch = $eip $T0 ^ = $esp $T0 4 + = 
STACK WIN 4 1a3f1 c1 2 0 0 4 0 0 1 $T0 .raSearch = $eip $T0 ^ = $esp $T0 4 + =  $23 $T0 4 - ^ = 
STACK WIN 4 1a3f4 a8 0 0 0 8 0 0 1 $T0 .raSearch = $eip $T0 ^ = $esp $T0 4 + =  $23 $T0 4 - ^ =  $24 $T0 8 - ^ = 
STACK WIN 4 1a3fc 1a 0 0 0 c 0 0 1 $T0 .raSearch = $eip $T0 ^ = $esp $T0 4 + =  $23 $T0 4 - ^ =  $24 $T0 8 - ^ =  $20 $T0 12 - ^ = 
STACK WIN 4 1a4c0 4b 5 0 0 10 4 0 1 $T0 .raSearch = $eip $T0 ^ = $esp $T0 4 + =  $20 $T0 8 - ^ =  $22 $T0 12 - ^ =  $23 $T0 16 - ^ =  $24 $T0 20 - ^ = 
STACK WIN 4 1a510 146 9 0 0 8 0 0 1 $T1 .raSearch = $T0  $T1 4 - 8 @ = $ebp $T1 4 - ^ = $eip $T1 ^ = $esp $T1 4 + = $23 $T0 4 - ^ =  $24 $T0 8 - ^ = 
STACK WIN 4 1a660 17 0 0 0 0 0 0 1 $T0 .raSearch = $eip $T0 ^ = $esp $T0 4 + = 
STACK WIN 4 1a680 292 5 0 4 10 0 0 1 $T0 .raSearch = $eip $T0 ^ = $esp $T0 4 + =  $20 $T0 4 - ^ =  $22 $T0 8 - ^ =  $23 $T0 12 - ^ =  $24 $T0 16 - ^ = 
STACK WIN 4 1a920 60 a 0 0 4 4 0 1 $T1 .raSearch = $T0  $T1 4 - 8 @ = $ebp $T1 4 - ^ = $eip $T1 ^ = $esp $T1 4 + = $23 $T0 8 - ^ = 
STACK WIN 4 1a980 67 3 0 0 0 0 0 1 $T0 .raSearch = $eip $T0 ^ = $esp $T0 4 + = 
STACK WIN 4 1a981 65 2 0 0 4 0 0 1 $T0 .raSearch = $eip $T0 ^ = $esp $T0 4 + =  $20 $T0 4 - ^ = 
STACK WIN 4 1a98d 56 0 0 0 8 0 0 1 $T0 .raSearch = $eip $T0 ^ = $esp $T0 4 + =  $20 $T0 4 - ^ =  $23 $T0 8 - ^ = 
STACK WIN 4 1a98e 54 0 0 0 c 0 0 1 $T0 .raSearch = $eip $T0 ^ = $esp $T0 4 + =  $20 $T0 4 - ^ =  $23 $T0 8 - ^ =  $24 $T0 12 - ^ = 
STACK WIN 4 1a9f0 2af e 0 c 10 18 0 1 $T0 .raSearch = $eip $T0 ^ = $esp $T0 4 + =  $20 $T0 28 - ^ =  $22 $T0 32 - ^ =  $23 $T0 36 - ^ =  $24 $T0 40 - ^ = 
STACK WIN 4 1aca0 249 c 0 0 10 24 0 1 $T0 .raSearch = $eip $T0 ^ = $esp $T0 4 + =  $20 $T0 40 - ^ =  $22 $T0 44 - ^ =  $23 $T0 48 - ^ =  $24 $T0 52 - ^ = 
STACK WIN 4 1aef0 106 9 0 0 10 1c 0 1 $T0 .raSearch = $eip $T0 ^ = $esp $T0 4 + =  $20 $T0 32 - ^ =  $22 $T0 36 - ^ =  $23 $T0 40 - ^ =  $24 $T0 44 - ^ = 
STACK WIN 4 1b000 6d 3 0 0 0 0 0 1 $T0 .raSearch = $eip $T0 ^ = $esp $T0 4 + = 
STACK WIN 4 1b001 6b 2 0 0 4 0 0 1 $T0 .raSearch = $eip $T0 ^ = $esp $T0 4 + =  $23 $T0 4 - ^ = 
STACK WIN 4 1b070 3a1 9 0 0 10 24 0 1 $T0 .raSearch = $eip $T0 ^ = $esp $T0 4 + =  $20 $T0 40 - ^ =  $22 $T0 44 - ^ =  $23 $T0 48 - ^ =  $24 $T0 52 - ^ = 
STACK WIN 4 1b420 dd 10 0 0 10 8 0 1 $T1 .raSearch = $T0  $T1 4 - 8 @ = $ebp $T1 4 - ^ = $eip $T1 ^ = $esp $T1 4 + = $20 $T0 12 - ^ =  $23 $T0 20 - ^ =  $24 $T0 24 - ^ = 
STACK WIN 4 1b500 e6 13 0 8 10 4 0 1 $T0 .raSearch = $eip $T0 ^ = $esp $T0 4 + =  $20 $T0 8 - ^ =  $22 $T0 12 - ^ =  $23 $T0 16 - ^ =  $24 $T0 20 - ^ = 
STACK WIN 4 1b5f0 61 3 0 0 c 0 0 1 $T0 .raSearch = $eip $T0 ^ = $esp $T0 4 + =  $20 $T0 4 - ^ =  $23 $T0 8 - ^ =  $24 $T0 12 - ^ = 
STACK WIN 4 1b660 ba 16 0 8 c 8 0 1 $T0 .raSearch = $eip $T0 ^ = $esp $T0 4 + =  $20 $T0 12 - ^ =  $23 $T0 16 - ^ =  $24 $T0 20 - ^ = 
STACK WIN 4 1b720 9d c 0 0 10 8 0 1 $T1 .raSearch = $T0  $T1 4 - 8 @ = $ebp $T1 4 - ^ = $eip $T1 ^ = $esp $T1 4 + = $20 $T0 12 - ^ =  $23 $T0 20 - ^ =  $24 $T0 24 - ^ = 
STACK WIN 4 1b7c0 15a 9 0 0 8 14 0 1 $T0 .raSearch = $eip $T0 ^ = $esp $T0 4 + =  $23 $T0 24 - ^ =  $24 $T0 28 - ^ = 
STACK WIN 4 1b920 2c8 17 0 0 10 24 0 1 $T0 .raSearch = $eip $T0 ^ = $esp $T0 4 + =  $20 $T0 40 - ^ =  $22 $T0 44 - ^ =  $23 $T0 48 - ^ =  $24 $T0 52 - ^ = 
STACK WIN 4 1bbf0 53 4 0 0 4 8 0 1 $T0 .raSearch = $eip $T0 ^ = $esp $T0 4 + =  $23 $T0 12 - ^ = 
STACK WIN 4 1bc50 59 e 0 8 8 4 0 1 $T0 .raSearch = $eip $T0 ^ = $esp $T0 4 + =  $23 $T0 8 - ^ =  $24 $T0 12 - ^ = 
STACK WIN 4 1bcb0 86 1 0 0 0 0 0 1 $T0 .raSearch = $eip $T0 ^ = $esp $T0 4 + = 
STACK WIN 4 1bcb1 37 0 0 0 4 0 0 1 $T0 .raSearch = $eip $T0 ^ = $esp $T0 4 + =  $23 $T0 4 - ^ = 
STACK WIN 4 1bd40 166 f 0 4 c 14 0 1 $T1 .raSearch = $T0  $T1 4 - 8 @ = $ebp $T1 4 - ^ = $eip $T1 ^ = $esp $T1 4 + = $20 $T0 24 - ^ =  $23 $T0 28 - ^ =  $24 $T0 32 - ^ = 
STACK WIN 4 1beb0 43 c 0 4 4 4 0 1 $T0 .raSearch = $eip $T0 ^ = $esp $T0 4 + =  $23 $T0 8 - ^ = 
STACK WIN 4 1bf00 69 7 0 0 0 0 0 1 $T0 .raSearch = $eip $T0 ^ = $esp $T0 4 + = 
STACK WIN 4 1bf01 67 6 0 0 4 0 0 1 $T0 .raSearch = $eip $T0 ^ = $esp $T0 4 + =  $20 $T0 4 - ^ = 
STACK WIN 4 1bf02 63 5 0 0 8 0 0 1 $T0 .raSearch = $eip $T0 ^ = $esp $T0 4 + =  $20 $T0 4 - ^ =  $23 $T0 8 - ^ = 
STACK WIN 4 1bf03 61 4 0 0 c 0 0 1 $T0 .raSearch = $eip $T0 ^ = $esp $T0 4 + =  $20 $T0 4 - ^ =  $23 $T0 8 - ^ =  $24 $T0 12 - ^ = 
STACK WIN 4 1bf70 31 3 0 0 0 0 0 1 $T0 .raSearch = $eip $T0 ^ = $esp $T0 4 + = 
STACK WIN 4 1bf71 2f 2 0 0 4 0 0 1 $T0 .raSearch = $eip $T0 ^ = $esp $T0 4 + =  $23 $T0 4 - ^ = 
STACK WIN 4 1bfb0 dc a 0 8 c 4 0 1 $T1 .raSearch = $T0  $T1 4 - 8 @ = $ebp $T1 4 - ^ = $eip $T1 ^ = $esp $T1 4 + = $20 $T0 8 - ^ =  $23 $T0 12 - ^ =  $24 $T0 16 - ^ = 
STACK WIN 4 1c090 4e b 0 0 8 0 0 1 $T1 .raSearch = $T0  $T1 4 - 8 @ = $ebp $T1 4 - ^ = $eip $T1 ^ = $esp $T1 4 + = $23 $T0 4 - ^ =  $24 $T0 8 - ^ = 
STACK WIN 4 1c0e0 72 1 0 0 0 0 0 1 $T0 .raSearch = $eip $T0 ^ = $esp $T0 4 + = 
STACK WIN 4 1c0e1 70 0 0 0 4 0 0 1 $T0 .raSearch = $eip $T0 ^ = $esp $T0 4 + =  $23 $T0 4 - ^ = 
STACK WIN 4 1c0f1 5f 0 0 0 8 0 0 1 $T0 .raSearch = $eip $T0 ^ = $esp $T0 4 + =  $23 $T0 4 - ^ =  $24 $T0 8 - ^ = 
STACK WIN 4 1c160 127 9 0 0 c 0 0 1 $T0 .raSearch = $eip $T0 ^ = $esp $T0 4 + =  $20 $T0 4 - ^ =  $23 $T0 8 - ^ =  $24 $T0 12 - ^ = 
STACK WIN 4 1c290 1fd 13 0 0 10 24 0 1 $T0 .raSearch = $eip $T0 ^ = $esp $T0 4 + =  $20 $T0 40 - ^ =  $22 $T0 44 - ^ =  $23 $T0 48 - ^ =  $24 $T0 52 - ^ = 
STACK WIN 4 1c490 14d 8 0 0 10 c 0 1 $T0 .raSearch = $eip $T0 ^ = $esp $T0 4 + =  $20 $T0 16 - ^ =  $22 $T0 20 - ^ =  $23 $T0 24 - ^ =  $24 $T0 28 - ^ = 
STACK WIN 4 1c5e0 79 1 0 0 0 0 0 1 $T0 .raSearch = $eip $T0 ^ = $esp $T0 4 + = 
STACK WIN 4 1c5e1 77 0 0 0 4 0 0 1 $T0 .raSearch = $eip $T0 ^ = $esp $T0 4 + =  $23 $T0 4 - ^ = 
STACK WIN 4 1c5ee 57 0 0 0 8 0 0 1 $T0 .raSearch = $eip $T0 ^ = $esp $T0 4 + =  $23 $T0 4 - ^ =  $24 $T0 8 - ^ = 
STACK WIN 4 1c600 3f 0 0 0 c 0 0 1 $T0 .raSearch = $eip $T0 ^ = $esp $T0 4 + =  $23 $T0 4 - ^ =  $24 $T0 8 - ^ =  $20 $T0 12 - ^ = 
STACK WIN 4 1c660 ac 7 0 0 10 c 0 1 $T0 .raSearch = $eip $T0 ^ = $esp $T0 4 + =  $20 $T0 16 - ^ =  $22 $T0 20 - ^ =  $23 $T0 24 - ^ =  $24 $T0 28 - ^ = 
STACK WIN 4 1c710 bb d 0 8 c 4 0 1 $T1 .raSearch = $T0  $T1 4 - 8 @ = $ebp $T1 4 - ^ = $eip $T1 ^ = $esp $T1 4 + = $20 $T0 8 - ^ =  $23 $T0 12 - ^ =  $24 $T0 16 - ^ = 
STACK WIN 4 1c7d0 63 3 0 0 0 0 0 1 $T0 .raSearch = $eip $T0 ^ = $esp $T0 4 + = 
STACK WIN 4 1c7d1 61 2 0 0 4 0 0 1 $T0 .raSearch = $eip $T0 ^ = $esp $T0 4 + =  $20 $T0 4 - ^ = 
STACK WIN 4 1c7d4 5d 0 0 0 8 0 0 1 $T0 .raSearch = $eip $T0 ^ = $esp $T0 4 + =  $20 $T0 4 - ^ =  $23 $T0 8 - ^ = 
STACK WIN 4 1c808 21 0 0 0 c 0 0 1 $T0 .raSearch = $eip $T0 ^ = $esp $T0 4 + =  $20 $T0 4 - ^ =  $23 $T0 8 - ^ =  $24 $T0 12 - ^ = 
STACK WIN 4 1c840 565 20 0 14 10 28 0 1 $T0 .raSearch = $eip $T0 ^ = $esp $T0 4 + =  $20 $T0 44 - ^ =  $22 $T0 48 - ^ =  $23 $T0 52 - ^ =  $24 $T0 56 - ^ = 
STACK WIN 4 1cdb0 42 1 0 0 0 4 0 1 $T0 .raSearch = $eip $T0 ^ = $esp $T0 4 + = 
STACK WIN 4 1ce00 1f2 9 0 0 10 1c 0 1 $T0 .raSearch = $eip $T0 ^ = $esp $T0 4 + =  $20 $T0 32 - ^ =  $22 $T0 36 - ^ =  $23 $T0 40 - ^ =  $24 $T0 44 - ^ = 
STACK WIN 4 1d000 356 18 0 0 8 38 0 1 $T1 .raSearch = $T0  $T1 4 - 16 @ = $ebp $T1 4 - ^ = $eip $T1 ^ = $esp $T1 4 + = $23 $T0 60 - ^ =  $24 $T0 64 - ^ = 
STACK WIN 4 1d360 24 6 0 0 0 0 0 1 $T1 .raSearch = $T0  $T1 4 - 8 @ = $ebp $T1 4 - ^ = $eip $T1 ^ = $esp $T1 4 + =
STACK WIN 4 1d390 3a6 10 0 8 c 24 0 1 $T1 .raSearch = $T0  $T1 4 - 8 @ = $ebp $T1 4 - ^ = $eip $T1 ^ = $esp $T1 4 + = $20 $T0 40 - ^ =  $23 $T0 44 - ^ =  $24 $T0 48 - ^ = 
STACK WIN 4 1d740 4a 3 0 0 0 0 0 1 $T0 .raSearch = $eip $T0 ^ = $esp $T0 4 + = 
STACK WIN 4 1d741 48 2 0 0 4 0 0 1 $T0 .raSearch = $eip $T0 ^ = $esp $T0 4 + =  $23 $T0 4 - ^ = 
STACK WIN 4 1d744 44 0 0 0 8 0 0 1 $T0 .raSearch = $eip $T0 ^ = $esp $T0 4 + =  $23 $T0 4 - ^ =  $24 $T0 8 - ^ = 
STACK WIN 4 1d790 2a 1 0 0 4 0 0 1 $T0 .raSearch = $eip $T0 ^ = $esp $T0 4 + =  $23 $T0 4 - ^ = 
STACK WIN 4 1d7c0 152 6 0 0 10 4 0 1 $T0 .raSearch = $eip $T0 ^ = $esp $T0 4 + =  $20 $T0 8 - ^ =  $22 $T0 12 - ^ =  $23 $T0 16 - ^ =  $24 $T0 20 - ^ = 
STACK WIN 4 1d920 e9 3 0 4 0 0 0 1 $T0 .raSearch = $eip $T0 ^ = $esp $T0 4 + = 
STACK WIN 4 1d921 e7 2 0 4 4 0 0 1 $T0 .raSearch = $eip $T0 ^ = $esp $T0 4 + =  $23 $T0 4 - ^ = 
STACK WIN 4 1d926 e1 0 0 4 8 0 0 1 $T0 .raSearch = $eip $T0 ^ = $esp $T0 4 + =  $23 $T0 4 - ^ =  $24 $T0 8 - ^ = 
STACK WIN 4 1da10 ef 6 0 0 10 14 0 1 $T0 .raSearch = $eip $T0 ^ = $esp $T0 4 + =  $20 $T0 24 - ^ =  $22 $T0 28 - ^ =  $23 $T0 32 - ^ =  $24 $T0 36 - ^ = 
STACK WIN 4 1db00 dc 6 0 0 10 4 0 1 $T0 .raSearch = $eip $T0 ^ = $esp $T0 4 + =  $20 $T0 8 - ^ =  $22 $T0 12 - ^ =  $23 $T0 16 - ^ =  $24 $T0 20 - ^ = 
STACK WIN 4 1dbe0 20a c 0 0 10 1c 0 1 $T0 .raSearch = $eip $T0 ^ = $esp $T0 4 + =  $20 $T0 32 - ^ =  $22 $T0 36 - ^ =  $23 $T0 40 - ^ =  $24 $T0 44 - ^ = 
STACK WIN 4 1ddf0 6a a 0 0 4 4 0 1 $T1 .raSearch = $T0  $T1 4 - 8 @ = $ebp $T1 4 - ^ = $eip $T1 ^ = $esp $T1 4 + = $23 $T0 8 - ^ = 
STACK WIN 4 1de60 ae 6 0 0 c 8 0 1 $T0 .raSearch = $eip $T0 ^ = $esp $T0 4 + =  $20 $T0 12 - ^ =  $23 $T0 16 - ^ =  $24 $T0 20 - ^ = 
STACK WIN 4 1df10 42 3 0 0 0 0 0 1 $T0 .raSearch = $eip $T0 ^ = $esp $T0 4 + = 
STACK WIN 4 1df11 40 2 0 0 4 0 0 1 $T0 .raSearch = $eip $T0 ^ = $esp $T0 4 + =  $23 $T0 4 - ^ = 
STACK WIN 4 1df60 1b0 8 0 4 10 8 0 1 $T0 .raSearch = $eip $T0 ^ = $esp $T0 4 + =  $20 $T0 12 - ^ =  $22 $T0 16 - ^ =  $23 $T0 20 - ^ =  $24 $T0 24 - ^ = 
STACK WIN 4 1e110 48 3 0 0 4 0 0 1 $T0 .raSearch = $eip $T0 ^ = $esp $T0 4 + =  $23 $T0 4 - ^ = 
STACK WIN 4 1e160 c3 b 0 0 c 4 0 1 $T1 .raSearch = $T0  $T1 4 - 8 @ = $ebp $T1 4 - ^ = $eip $T1 ^ = $esp $T1 4 + = $20 $T0 8 - ^ =  $23 $T0 12 - ^ =  $24 $T0 16 - ^ = 
STACK WIN 4 1e230 122 f 0 0 10 c 0 1 $T0 .raSearch = $eip $T0 ^ = $esp $T0 4 + =  $20 $T0 16 - ^ =  $22 $T0 20 - ^ =  $23 $T0 24 - ^ =  $24 $T0 28 - ^ = 
STACK WIN 4 1e360 db d 0 4 c 14 0 1 $T1 .raSearch = $T0  $T1 4 - 8 @ = $ebp $T1 4 - ^ = $eip $T1 ^ = $esp $T1 4 + = $20 $T0 24 - ^ =  $23 $T0 28 - ^ =  $24 $T0 32 - ^ = 
STACK WIN 4 1e440 1d8 5 0 8 10 4 0 1 $T0 .raSearch = $eip $T0 ^ = $esp $T0 4 + =  $20 $T0 8 - ^ =  $22 $T0 12 - ^ =  $23 $T0 16 - ^ =  $24 $T0 20 - ^ = 
STACK WIN 4 1e620 22 0 0 0 0 0 0 1 $T0 .raSearch = $eip $T0 ^ = $esp $T0 4 + = 
STACK WIN 4 1e650 108 4 0 0 8 4 0 1 $T0 .raSearch = $eip $T0 ^ = $esp $T0 4 + =  $23 $T0 8 - ^ =  $24 $T0 12 - ^ = 
STACK WIN 4 1e760 3f 5 0 8 4 0 0 1 $T0 .raSearch = $eip $T0 ^ = $esp $T0 4 + =  $23 $T0 4 - ^ = 
STACK WIN 4 1e7a0 6c 3 0 0 0 0 0 1 $T0 .raSearch = $eip $T0 ^ = $esp $T0 4 + = 
STACK WIN 4 1e7a1 6a 2 0 0 4 0 0 1 $T0 .raSearch = $eip $T0 ^ = $esp $T0 4 + =  $23 $T0 4 - ^ = 
STACK WIN 4 1e7b9 51 0 0 0 8 0 0 1 $T0 .raSearch = $eip $T0 ^ = $esp $T0 4 + =  $23 $T0 4 - ^ =  $24 $T0 8 - ^ = 
STACK WIN 4 1e810 97 6 0 0 8 c 0 1 $T0 .raSearch = $eip $T0 ^ = $esp $T0 4 + =  $23 $T0 16 - ^ =  $24 $T0 20 - ^ = 
STACK WIN 4 1e8b0 e1 4 0 0 8 4 0 1 $T0 .raSearch = $eip $T0 ^ = $esp $T0 4 + =  $23 $T0 8 - ^ =  $24 $T0 12 - ^ = 
STACK WIN 4 1e9a0 12d d 0 4 c c 0 1 $T1 .raSearch = $T0  $T1 4 - 8 @ = $ebp $T1 4 - ^ = $eip $T1 ^ = $esp $T1 4 + = $20 $T0 16 - ^ =  $23 $T0 20 - ^ =  $24 $T0 24 - ^ = 
STACK WIN 4 1ead0 af 7 0 c 0 0 0 1 $T0 .raSearch = $eip $T0 ^ = $esp $T0 4 + = 
STACK WIN 4 1ead1 ad 6 0 c 4 0 0 1 $T0 .raSearch = $eip $T0 ^ = $esp $T0 4 + =  $22 $T0 4 - ^ = 
STACK WIN 4 1ead6 a7 1 0 c 8 0 0 1 $T0 .raSearch = $eip $T0 ^ = $esp $T0 4 + =  $22 $T0 4 - ^ =  $23 $T0 8 - ^ = 
STACK WIN 4 1ead7 a3 0 0 c c 0 0 1 $T0 .raSearch = $eip $T0 ^ = $esp $T0 4 + =  $22 $T0 4 - ^ =  $23 $T0 8 - ^ =  $24 $T0 12 - ^ = 
STACK WIN 4 1eb12 64 0 0 c 10 0 0 1 $T0 .raSearch = $eip $T0 ^ = $esp $T0 4 + =  $22 $T0 4 - ^ =  $23 $T0 8 - ^ =  $24 $T0 12 - ^ =  $20 $T0 16 - ^ = 
STACK WIN 4 1eb80 86 5 0 0 0 0 0 1 $T0 .raSearch = $eip $T0 ^ = $esp $T0 4 + = 
STACK WIN 4 1eb82 82 3 0 0 4 4 0 1 $T0 .raSearch = $eip $T0 ^ = $esp $T0 4 + =  $20 $T0 8 - ^ = 
STACK WIN 4 1eb83 7c 2 0 0 8 4 0 1 $T0 .raSearch = $eip $T0 ^ = $esp $T0 4 + =  $20 $T0 8 - ^ =  $22 $T0 12 - ^ = 
STACK WIN 4 1eb88 67 0 0 0 c 4 0 1 $T0 .raSearch = $eip $T0 ^ = $esp $T0 4 + =  $20 $T0 8 - ^ =  $22 $T0 12 - ^ =  $23 $T0 16 - ^ = 
STACK WIN 4 1eb89 65 0 0 0 10 4 0 1 $T0 .raSearch = $eip $T0 ^ = $esp $T0 4 + =  $20 $T0 8 - ^ =  $22 $T0 12 - ^ =  $23 $T0 16 - ^ =  $24 $T0 20 - ^ = 
STACK WIN 4 1ec10 9c 5 0 0 10 4 0 1 $T0 .raSearch = $eip $T0 ^ = $esp $T0 4 + =  $20 $T0 8 - ^ =  $22 $T0 12 - ^ =  $23 $T0 16 - ^ =  $24 $T0 20 - ^ = 
STACK WIN 4 1ecb0 f4 12 0 4 10 10 0 1 $T0 .raSearch = $eip $T0 ^ = $esp $T0 4 + =  $20 $T0 20 - ^ =  $22 $T0 24 - ^ =  $23 $T0 28 - ^ =  $24 $T0 32 - ^ = 
STACK WIN 4 1edb0 3a8 13 0 0 10 64 0 1 $T0 .raSearch = $eip $T0 ^ = $esp $T0 4 + =  $20 $T0 104 - ^ =  $22 $T0 108 - ^ =  $23 $T0 112 - ^ =  $24 $T0 116 - ^ = 
STACK WIN 4 1f160 96 3 0 0 0 0 0 1 $T0 .raSearch = $eip $T0 ^ = $esp $T0 4 + = 
STACK WIN 4 1f161 94 2 0 0 4 0 0 1 $T0 .raSearch = $eip $T0 ^ = $esp $T0 4 + =  $20 $T0 4 - ^ = 
STACK WIN 4 1f16a 79 0 0 0 8 0 0 1 $T0 .raSearch = $eip $T0 ^ = $esp $T0 4 + =  $20 $T0 4 - ^ =  $23 $T0 8 - ^ = 
STACK WIN 4 1f172 70 0 0 0 c 0 0 1 $T0 .raSearch = $eip $T0 ^ = $esp $T0 4 + =  $20 $T0 4 - ^ =  $23 $T0 8 - ^ =  $24 $T0 12 - ^ = 
STACK WIN 4 1f200 124 22 0 14 10 8 0 1 $T0 .raSearch = $eip $T0 ^ = $esp $T0 4 + =  $20 $T0 12 - ^ =  $22 $T0 16 - ^ =  $23 $T0 20 - ^ =  $24 $T0 24 - ^ = 
STACK WIN 4 1f330 a0 17 0 4 0 0 0 1 $T0 .raSearch = $eip $T0 ^ = $esp $T0 4 + = 
STACK WIN 4 1f336 8c 11 0 4 4 10 0 1 $T0 .raSearch = $eip $T0 ^ = $esp $T0 4 + =  $24 $T0 20 - ^ = 
STACK WIN 4 1f35b 60 0 0 4 8 10 0 1 $T0 .raSearch = $eip $T0 ^ = $esp $T0 4 + =  $24 $T0 20 - ^ =  $20 $T0 24 - ^ = 
STACK WIN 4 1f35c 5e 0 0 4 c 10 0 1 $T0 .raSearch = $eip $T0 ^ = $esp $T0 4 + =  $24 $T0 20 - ^ =  $20 $T0 24 - ^ =  $22 $T0 28 - ^ = 
STACK WIN 4 1f35d 5c 0 0 4 10 10 0 1 $T0 .raSearch = $eip $T0 ^ = $esp $T0 4 + =  $24 $T0 20 - ^ =  $20 $T0 24 - ^ =  $22 $T0 28 - ^ =  $23 $T0 32 - ^ = 
STACK WIN 4 1f3d0 dd 12 0 10 0 0 0 1 $T0 .raSearch = $eip $T0 ^ = $esp $T0 4 + = 
STACK WIN 4 1f3d4 60 e 0 10 4 10 0 1 $T0 .raSearch = $eip $T0 ^ = $esp $T0 4 + =  $20 $T0 20 - ^ = 
STACK WIN 4 1f3d5 5e d 0 10 8 10 0 1 $T0 .raSearch = $eip $T0 ^ = $esp $T0 4 + =  $20 $T0 20 - ^ =  $22 $T0 24 - ^ = 
STACK WIN 4 1f3dc 56 6 0 10 c 10 0 1 $T0 .raSearch = $eip $T0 ^ = $esp $T0 4 + =  $20 $T0 20 - ^ =  $22 $T0 24 - ^ =  $23 $T0 28 - ^ = 
STACK WIN 4 1f3e7 4a 0 0 10 10 10 0 1 $T0 .raSearch = $eip $T0 ^ = $esp $T0 4 + =  $20 $T0 20 - ^ =  $22 $T0 24 - ^ =  $23 $T0 28 - ^ =  $24 $T0 32 - ^ = 
STACK WIN 4 1f4b0 13d 48 0 8 10 94 0 1 $T0 .raSearch = $eip $T0 ^ = $esp $T0 4 + =  $20 $T0 152 - ^ =  $22 $T0 156 - ^ =  $23 $T0 160 - ^ =  $24 $T0 164 - ^ = 
STACK WIN 4 1f5f0 230 15 0 0 10 28 0 1 $T1 .raSearch = $T0  $T1 4 - 8 @ = $ebp $T1 4 - ^ = $eip $T1 ^ = $esp $T1 4 + = $20 $T0 44 - ^ =  $23 $T0 52 - ^ =  $24 $T0 56 - ^ = 
STACK WIN 4 1f820 4e 8 0 c 0 0 0 1 $T0 .raSearch = $eip $T0 ^ = $esp $T0 4 + = 
STACK WIN 4 1f821 4c 7 0 c 4 0 0 1 $T0 .raSearch = $eip $T0 ^ = $esp $T0 4 + =  $20 $T0 4 - ^ = 
STACK WIN 4 1f822 4a 6 0 c 8 0 0 1 $T0 .raSearch = $eip $T0 ^ = $esp $T0 4 + =  $20 $T0 4 - ^ =  $22 $T0 8 - ^ = 
STACK WIN 4 1f829 42 0 0 c c 0 0 1 $T0 .raSearch = $eip $T0 ^ = $esp $T0 4 + =  $20 $T0 4 - ^ =  $22 $T0 8 - ^ =  $23 $T0 12 - ^ = 
STACK WIN 4 1f82a 3e 0 0 c 10 0 0 1 $T0 .raSearch = $eip $T0 ^ = $esp $T0 4 + =  $20 $T0 4 - ^ =  $22 $T0 8 - ^ =  $23 $T0 12 - ^ =  $24 $T0 16 - ^ = 
STACK WIN 4 1f870 53 4 0 0 0 0 0 1 $T0 .raSearch = $eip $T0 ^ = $esp $T0 4 + = 
STACK WIN 4 1f874 40 0 0 0 4 0 0 1 $T0 .raSearch = $eip $T0 ^ = $esp $T0 4 + =  $23 $T0 4 - ^ = 
STACK WIN 4 1f8d0 36f 6 0 10 10 3c 0 1 $T0 .raSearch = $eip $T0 ^ = $esp $T0 4 + =  $20 $T0 64 - ^ =  $22 $T0 68 - ^ =  $23 $T0 72 - ^ =  $24 $T0 76 - ^ = 
STACK WIN 4 1fc40 7b d 0 8 c 8 0 1 $T0 .raSearch = $eip $T0 ^ = $esp $T0 4 + =  $20 $T0 12 - ^ =  $23 $T0 16 - ^ =  $24 $T0 20 - ^ = 
STACK WIN 4 1fcc0 116 d 0 8 c c 0 1 $T1 .raSearch = $T0  $T1 4 - 8 @ = $ebp $T1 4 - ^ = $eip $T1 ^ = $esp $T1 4 + = $20 $T0 16 - ^ =  $23 $T0 20 - ^ =  $24 $T0 24 - ^ = 
STACK WIN 4 1fde0 176 17 0 0 10 9c 0 1 $T0 .raSearch = $eip $T0 ^ = $esp $T0 4 + =  $20 $T0 160 - ^ =  $22 $T0 164 - ^ =  $23 $T0 168 - ^ =  $24 $T0 172 - ^ = 
STACK WIN 4 1ff60 13b 10 0 0 10 4 0 1 $T0 .raSearch = $eip $T0 ^ = $esp $T0 4 + =  $20 $T0 8 - ^ =  $22 $T0 12 - ^ =  $23 $T0 16 - ^ =  $24 $T0 20 - ^ = 
STACK WIN 4 200a0 2f8 11 0 8 10 c 0 1 $T0 .raSearch = $eip $T0 ^ = $esp $T0 4 + =  $20 $T0 16 - ^ =  $22 $T0 20 - ^ =  $23 $T0 24 - ^ =  $24 $T0 28 - ^ = 
STACK WIN 4 203a0 61 3 0 0 0 0 0 1 $T0 .raSearch = $eip $T0 ^ = $esp $T0 4 + = 
STACK WIN 4 203a1 5f 2 0 0 4 0 0 1 $T0 .raSearch = $eip $T0 ^ = $esp $T0 4 + =  $23 $T0 4 - ^ = 
STACK WIN 4 20410 159 12 0 4 10 20 0 1 $T0 .raSearch = $eip $T0 ^ = $esp $T0 4 + =  $20 $T0 36 - ^ =  $22 $T0 40 - ^ =  $23 $T0 44 - ^ =  $24 $T0 48 - ^ = 
STACK WIN 4 20570 87 3 0 0 0 0 0 1 $T0 .raSearch = $eip $T0 ^ = $esp $T0 4 + = 
STACK WIN 4 20571 85 2 0 0 4 0 0 1 $T0 .raSearch = $eip $T0 ^ = $esp $T0 4 + =  $23 $T0 4 - ^ = 
STACK WIN 4 20585 70 0 0 0 8 0 0 1 $T0 .raSearch = $eip $T0 ^ = $esp $T0 4 + =  $23 $T0 4 - ^ =  $20 $T0 8 - ^ = 
STACK WIN 4 205ac 48 0 0 0 c 0 0 1 $T0 .raSearch = $eip $T0 ^ = $esp $T0 4 + =  $23 $T0 4 - ^ =  $20 $T0 8 - ^ =  $24 $T0 12 - ^ = 
STACK WIN 4 20600 b2 9 0 4 10 8 0 1 $T0 .raSearch = $eip $T0 ^ = $esp $T0 4 + =  $20 $T0 12 - ^ =  $22 $T0 16 - ^ =  $23 $T0 20 - ^ =  $24 $T0 24 - ^ = 
STACK WIN 4 206c0 bd 8 0 0 8 c 0 1 $T0 .raSearch = $eip $T0 ^ = $esp $T0 4 + =  $23 $T0 16 - ^ =  $24 $T0 20 - ^ = 
STACK WIN 4 20780 b1 6 0 c 10 8 0 1 $T0 .raSearch = $eip $T0 ^ = $esp $T0 4 + =  $20 $T0 12 - ^ =  $22 $T0 16 - ^ =  $23 $T0 20 - ^ =  $24 $T0 24 - ^ = 
STACK WIN 4 20840 db 18 0 c 10 20 0 1 $T0 .raSearch = $eip $T0 ^ = $esp $T0 4 + =  $20 $T0 36 - ^ =  $22 $T0 40 - ^ =  $23 $T0 44 - ^ =  $24 $T0 48 - ^ = 
STACK WIN 4 20920 249 18 0 0 c 34 0 1 $T1 .raSearch = $T0  $T1 4 - 8 @ = $ebp $T1 4 - ^ = $eip $T1 ^ = $esp $T1 4 + = $20 $T0 56 - ^ =  $23 $T0 60 - ^ =  $24 $T0 64 - ^ = 
STACK WIN 4 20b70 505 18 0 10 10 5c 0 1 $T0 .raSearch = $eip $T0 ^ = $esp $T0 4 + =  $20 $T0 96 - ^ =  $22 $T0 100 - ^ =  $23 $T0 104 - ^ =  $24 $T0 108 - ^ = 
STACK WIN 4 21080 1ba 10 0 1c c c 0 1 $T1 .raSearch = $T0  $T1 4 - 8 @ = $ebp $T1 4 - ^ = $eip $T1 ^ = $esp $T1 4 + = $20 $T0 16 - ^ =  $23 $T0 20 - ^ =  $24 $T0 24 - ^ = 
STACK WIN 4 21240 1d 3 0 0 0 0 0 1 $T0 .raSearch = $eip $T0 ^ = $esp $T0 4 + = 
STACK WIN 4 21241 1b 2 0 0 4 0 0 1 $T0 .raSearch = $eip $T0 ^ = $esp $T0 4 + =  $23 $T0 4 - ^ = 
STACK WIN 4 21260 14 0 0 0 0 0 0 1 $T0 .raSearch = $eip $T0 ^ = $esp $T0 4 + = 
STACK WIN 4 21280 a0 3 0 0 0 0 0 1 $T0 .raSearch = $eip $T0 ^ = $esp $T0 4 + = 
STACK WIN 4 21281 9e 2 0 0 4 0 0 1 $T0 .raSearch = $eip $T0 ^ = $esp $T0 4 + =  $24 $T0 4 - ^ = 
STACK WIN 4 212a0 70 0 0 0 8 0 0 1 $T0 .raSearch = $eip $T0 ^ = $esp $T0 4 + =  $24 $T0 4 - ^ =  $23 $T0 12 - ^ = 
STACK WIN 4 21320 3c 3 0 0 0 0 0 1 $T0 .raSearch = $eip $T0 ^ = $esp $T0 4 + = 
STACK WIN 4 21321 3a 2 0 0 4 0 0 1 $T0 .raSearch = $eip $T0 ^ = $esp $T0 4 + =  $20 $T0 4 - ^ = 
STACK WIN 4 21324 36 0 0 0 8 0 0 1 $T0 .raSearch = $eip $T0 ^ = $esp $T0 4 + =  $20 $T0 4 - ^ =  $23 $T0 8 - ^ = 
STACK WIN 4 2132c 2d 0 0 0 c 0 0 1 $T0 .raSearch = $eip $T0 ^ = $esp $T0 4 + =  $20 $T0 4 - ^ =  $23 $T0 8 - ^ =  $24 $T0 12 - ^ = 
STACK WIN 4 21360 39 3 0 0 0 0 0 1 $T0 .raSearch = $eip $T0 ^ = $esp $T0 4 + = 
STACK WIN 4 21361 37 2 0 0 4 0 0 1 $T0 .raSearch = $eip $T0 ^ = $esp $T0 4 + =  $20 $T0 4 - ^ = 
STACK WIN 4 21364 33 0 0 0 8 0 0 1 $T0 .raSearch = $eip $T0 ^ = $esp $T0 4 + =  $20 $T0 4 - ^ =  $23 $T0 8 - ^ = 
STACK WIN 4 2136c 2a 0 0 0 c 0 0 1 $T0 .raSearch = $eip $T0 ^ = $esp $T0 4 + =  $20 $T0 4 - ^ =  $23 $T0 8 - ^ =  $24 $T0 12 - ^ = 
STACK WIN 4 213a0 c 0 0 4 0 0 0 1 $T0 .raSearch = $eip $T0 ^ = $esp $T0 4 + = 
STACK WIN 4 213b0 4f b 0 4 0 0 0 1 $T0 .raSearch = $eip $T0 ^ = $esp $T0 4 + = 
STACK WIN 4 213b5 49 6 0 4 4 0 0 1 $T0 .raSearch = $eip $T0 ^ = $esp $T0 4 + =  $23 $T0 4 - ^ = 
STACK WIN 4 213b9 3f 2 0 4 8 0 0 1 $T0 .raSearch = $eip $T0 ^ = $esp $T0 4 + =  $23 $T0 4 - ^ =  $24 $T0 8 - ^ = 
STACK WIN 4 21400 b2 4 0 0 0 0 0 1 $T0 .raSearch = $eip $T0 ^ = $esp $T0 4 + = 
STACK WIN 4 21401 b0 3 0 0 4 0 0 1 $T0 .raSearch = $eip $T0 ^ = $esp $T0 4 + =  $20 $T0 4 - ^ = 
STACK WIN 4 21402 ae 2 0 0 8 0 0 1 $T0 .raSearch = $eip $T0 ^ = $esp $T0 4 + =  $20 $T0 4 - ^ =  $22 $T0 8 - ^ = 
STACK WIN 4 21405 aa 0 0 0 c 0 0 1 $T0 .raSearch = $eip $T0 ^ = $esp $T0 4 + =  $20 $T0 4 - ^ =  $22 $T0 8 - ^ =  $24 $T0 12 - ^ = 
STACK WIN 4 21412 74 0 0 0 10 0 0 1 $T0 .raSearch = $eip $T0 ^ = $esp $T0 4 + =  $20 $T0 4 - ^ =  $22 $T0 8 - ^ =  $24 $T0 12 - ^ =  $23 $T0 16 - ^ = 
STACK WIN 4 214c0 65 7 0 0 10 4 0 1 $T0 .raSearch = $eip $T0 ^ = $esp $T0 4 + =  $20 $T0 8 - ^ =  $22 $T0 12 - ^ =  $23 $T0 16 - ^ =  $24 $T0 20 - ^ = 
STACK WIN 4 21530 90 b 0 0 c 4 0 1 $T1 .raSearch = $T0  $T1 4 - 8 @ = $ebp $T1 4 - ^ = $eip $T1 ^ = $esp $T1 4 + = $20 $T0 8 - ^ =  $23 $T0 12 - ^ =  $24 $T0 16 - ^ = 
STACK WIN 4 215c0 7e 6 0 0 10 4 0 1 $T0 .raSearch = $eip $T0 ^ = $esp $T0 4 + =  $20 $T0 8 - ^ =  $22 $T0 12 - ^ =  $23 $T0 16 - ^ =  $24 $T0 20 - ^ = 
STACK WIN 4 21640 3c 0 0 4 0 0 0 1 $T0 .raSearch = $eip $T0 ^ = $esp $T0 4 + = 
STACK WIN 4 21680 91 a 0 4 10 8 0 1 $T0 .raSearch = $eip $T0 ^ = $esp $T0 4 + =  $20 $T0 12 - ^ =  $22 $T0 16 - ^ =  $23 $T0 20 - ^ =  $24 $T0 24 - ^ = 
STACK WIN 4 21720 1b 3 0 0 0 0 0 1 $T0 .raSearch = $eip $T0 ^ = $esp $T0 4 + = 
STACK WIN 4 21721 19 2 0 0 4 0 0 1 $T0 .raSearch = $eip $T0 ^ = $esp $T0 4 + =  $23 $T0 4 - ^ = 
STACK WIN 4 21740 147 2d 0 10 10 194 0 1 $T0 .raSearch = $eip $T0 ^ = $esp $T0 4 + =  $20 $T0 408 - ^ =  $22 $T0 412 - ^ =  $23 $T0 416 - ^ =  $24 $T0 420 - ^ = 
STACK WIN 4 21890 5b 4 0 0 8 4 0 1 $T0 .raSearch = $eip $T0 ^ = $esp $T0 4 + =  $23 $T0 8 - ^ =  $24 $T0 12 - ^ = 
STACK WIN 4 218f0 41 3 0 0 0 0 0 1 $T0 .raSearch = $eip $T0 ^ = $esp $T0 4 + = 
STACK WIN 4 218f1 3f 2 0 0 4 0 0 1 $T0 .raSearch = $eip $T0 ^ = $esp $T0 4 + =  $24 $T0 4 - ^ = 
STACK WIN 4 218fd 30 0 0 0 8 0 0 1 $T0 .raSearch = $eip $T0 ^ = $esp $T0 4 + =  $24 $T0 4 - ^ =  $23 $T0 8 - ^ = 
STACK WIN 4 21940 130 f 0 c 10 0 0 1 $T0 .raSearch = $eip $T0 ^ = $esp $T0 4 + =  $20 $T0 4 - ^ =  $22 $T0 8 - ^ =  $23 $T0 12 - ^ =  $24 $T0 16 - ^ = 
STACK WIN 4 21a70 108 a 0 8 c 8 0 1 $T0 .raSearch = $eip $T0 ^ = $esp $T0 4 + =  $20 $T0 12 - ^ =  $23 $T0 16 - ^ =  $24 $T0 20 - ^ = 
STACK WIN 4 21b80 4c f 0 4 0 0 0 1 $T0 .raSearch = $eip $T0 ^ = $esp $T0 4 + = 
STACK WIN 4 21b84 47 b 0 4 4 0 0 1 $T0 .raSearch = $eip $T0 ^ = $esp $T0 4 + =  $20 $T0 4 - ^ = 
STACK WIN 4 21b89 41 6 0 4 8 0 0 1 $T0 .raSearch = $eip $T0 ^ = $esp $T0 4 + =  $20 $T0 4 - ^ =  $22 $T0 8 - ^ = 
STACK WIN 4 21b8a 3f 5 0 4 c 0 0 1 $T0 .raSearch = $eip $T0 ^ = $esp $T0 4 + =  $20 $T0 4 - ^ =  $22 $T0 8 - ^ =  $23 $T0 12 - ^ = 
STACK WIN 4 21b90 38 0 0 4 10 0 0 1 $T0 .raSearch = $eip $T0 ^ = $esp $T0 4 + =  $20 $T0 4 - ^ =  $22 $T0 8 - ^ =  $23 $T0 12 - ^ =  $24 $T0 16 - ^ = 
STACK WIN 4 21bd0 30 5 0 c 0 0 0 1 $T0 .raSearch = $eip $T0 ^ = $esp $T0 4 + = 
STACK WIN 4 21bd5 2a 0 0 c 4 0 0 1 $T0 .raSearch = $eip $T0 ^ = $esp $T0 4 + =  $23 $T0 4 - ^ = 
STACK WIN 4 21c00 118 11 0 c c c 0 1 $T1 .raSearch = $T0  $T1 4 - 8 @ = $ebp $T1 4 - ^ = $eip $T1 ^ = $esp $T1 4 + = $20 $T0 16 - ^ =  $23 $T0 20 - ^ =  $24 $T0 24 - ^ = 
STACK WIN 4 21d20 86 b 0 c 0 0 0 1 $T0 .raSearch = $eip $T0 ^ = $esp $T0 4 + = 
STACK WIN 4 21d21 84 a 0 c 4 0 0 1 $T0 .raSearch = $eip $T0 ^ = $esp $T0 4 + =  $20 $T0 4 - ^ = 
STACK WIN 4 21d26 7e 5 0 c 8 0 0 1 $T0 .raSearch = $eip $T0 ^ = $esp $T0 4 + =  $20 $T0 4 - ^ =  $22 $T0 8 - ^ = 
STACK WIN 4 21d2b 78 0 0 c c 0 0 1 $T0 .raSearch = $eip $T0 ^ = $esp $T0 4 + =  $20 $T0 4 - ^ =  $22 $T0 8 - ^ =  $23 $T0 12 - ^ = 
STACK WIN 4 21d3d 1d 0 0 c 10 0 0 1 $T0 .raSearch = $eip $T0 ^ = $esp $T0 4 + =  $20 $T0 4 - ^ =  $22 $T0 8 - ^ =  $23 $T0 12 - ^ =  $24 $T0 16 - ^ = 
STACK WIN 4 21db0 a4 7 0 8 0 0 0 1 $T0 .raSearch = $eip $T0 ^ = $esp $T0 4 + = 
STACK WIN 4 21db1 a2 6 0 8 4 0 0 1 $T0 .raSearch = $eip $T0 ^ = $esp $T0 4 + =  $20 $T0 4 - ^ = 
STACK WIN 4 21db2 9e 5 0 8 8 0 0 1 $T0 .raSearch = $eip $T0 ^ = $esp $T0 4 + =  $20 $T0 4 - ^ =  $22 $T0 8 - ^ = 
STACK WIN 4 21db7 92 0 0 8 c 0 0 1 $T0 .raSearch = $eip $T0 ^ = $esp $T0 4 + =  $20 $T0 4 - ^ =  $22 $T0 8 - ^ =  $23 $T0 12 - ^ = 
STACK WIN 4 21e28 20 0 0 8 10 0 0 1 $T0 .raSearch = $eip $T0 ^ = $esp $T0 4 + =  $20 $T0 4 - ^ =  $22 $T0 8 - ^ =  $23 $T0 12 - ^ =  $24 $T0 16 - ^ = 
STACK WIN 4 21e60 1f 1 0 8 0 0 0 1 $T0 .raSearch = $eip $T0 ^ = $esp $T0 4 + = 
STACK WIN 4 21e61 1d 0 0 8 4 0 0 1 $T0 .raSearch = $eip $T0 ^ = $esp $T0 4 + =  $23 $T0 4 - ^ = 
STACK WIN 4 21e80 210 2d 0 0 10 2c 0 1 $T0 .raSearch = $eip $T0 ^ = $esp $T0 4 + =  $20 $T0 48 - ^ =  $22 $T0 52 - ^ =  $23 $T0 56 - ^ =  $24 $T0 60 - ^ = 
STACK WIN 4 22090 127 14 0 4 10 18 0 1 $T0 .raSearch = $eip $T0 ^ = $esp $T0 4 + =  $20 $T0 28 - ^ =  $22 $T0 32 - ^ =  $23 $T0 36 - ^ =  $24 $T0 40 - ^ = 
STACK WIN 4 221c0 11b 7 0 4 10 10 0 1 $T0 .raSearch = $eip $T0 ^ = $esp $T0 4 + =  $20 $T0 20 - ^ =  $22 $T0 24 - ^ =  $23 $T0 28 - ^ =  $24 $T0 32 - ^ = 
STACK WIN 4 222e0 313 2a 0 4 10 20 0 1 $T0 .raSearch = $eip $T0 ^ = $esp $T0 4 + =  $20 $T0 36 - ^ =  $22 $T0 40 - ^ =  $23 $T0 44 - ^ =  $24 $T0 48 - ^ = 
STACK WIN 4 22600 dd 5 0 0 8 4 0 1 $T0 .raSearch = $eip $T0 ^ = $esp $T0 4 + =  $20 $T0 8 - ^ =  $23 $T0 12 - ^ = 
STACK WIN 4 226e0 326 8 0 0 10 24 0 1 $T0 .raSearch = $eip $T0 ^ = $esp $T0 4 + =  $20 $T0 40 - ^ =  $22 $T0 44 - ^ =  $23 $T0 48 - ^ =  $24 $T0 52 - ^ = 
STACK WIN 4 22a10 c9 9 0 0 10 c 0 1 $T0 .raSearch = $eip $T0 ^ = $esp $T0 4 + =  $20 $T0 16 - ^ =  $22 $T0 20 - ^ =  $23 $T0 24 - ^ =  $24 $T0 28 - ^ = 
STACK WIN 4 22ae0 52 9 0 8 8 4 0 1 $T0 .raSearch = $eip $T0 ^ = $esp $T0 4 + =  $23 $T0 8 - ^ =  $24 $T0 12 - ^ = 
STACK WIN 4 22b40 7b 3 0 0 0 0 0 1 $T0 .raSearch = $eip $T0 ^ = $esp $T0 4 + = 
STACK WIN 4 22b41 79 2 0 0 4 0 0 1 $T0 .raSearch = $eip $T0 ^ = $esp $T0 4 + =  $20 $T0 4 - ^ = 
STACK WIN 4 22b44 73 0 0 0 8 0 0 1 $T0 .raSearch = $eip $T0 ^ = $esp $T0 4 + =  $20 $T0 4 - ^ =  $23 $T0 8 - ^ = 
STACK WIN 4 22b45 71 0 0 0 c 0 0 1 $T0 .raSearch = $eip $T0 ^ = $esp $T0 4 + =  $20 $T0 4 - ^ =  $23 $T0 8 - ^ =  $24 $T0 12 - ^ = 
STACK WIN 4 22bc0 fe 13 0 c 10 8 0 1 $T0 .raSearch = $eip $T0 ^ = $esp $T0 4 + =  $20 $T0 12 - ^ =  $22 $T0 16 - ^ =  $23 $T0 20 - ^ =  $24 $T0 24 - ^ = 
STACK WIN 4 22cc0 2d 1 0 0 4 0 0 1 $T0 .raSearch = $eip $T0 ^ = $esp $T0 4 + =  $23 $T0 4 - ^ = 
STACK WIN 4 22cf0 c8 10 0 8 c 8 0 1 $T0 .raSearch = $eip $T0 ^ = $esp $T0 4 + =  $20 $T0 12 - ^ =  $23 $T0 16 - ^ =  $24 $T0 20 - ^ = 
STACK WIN 4 22dc0 1b 0 0 4 0 0 0 1 $T0 .raSearch = $eip $T0 ^ = $esp $T0 4 + = 
STACK WIN 4 22de0 3c 5 0 4 0 0 0 1 $T0 .raSearch = $eip $T0 ^ = $esp $T0 4 + = 
STACK WIN 4 22de5 36 0 0 4 4 0 0 1 $T0 .raSearch = $eip $T0 ^ = $esp $T0 4 + =  $23 $T0 4 - ^ = 
STACK WIN 4 22e20 661 21 0 10 10 94 0 1 $T0 .raSearch = $eip $T0 ^ = $esp $T0 4 + =  $20 $T0 152 - ^ =  $22 $T0 156 - ^ =  $23 $T0 160 - ^ =  $24 $T0 164 - ^ = 
STACK WIN 4 23490 8f 6 0 0 0 0 0 1 $T0 .raSearch = $eip $T0 ^ = $esp $T0 4 + = 
STACK WIN 4 23491 8d 5 0 0 4 0 0 1 $T0 .raSearch = $eip $T0 ^ = $esp $T0 4 + =  $20 $T0 4 - ^ = 
STACK WIN 4 23492 89 4 0 0 8 0 0 1 $T0 .raSearch = $eip $T0 ^ = $esp $T0 4 + =  $20 $T0 4 - ^ =  $23 $T0 8 - ^ = 
STACK WIN 4 23497 83 0 0 0 c 0 0 1 $T0 .raSearch = $eip $T0 ^ = $esp $T0 4 + =  $20 $T0 4 - ^ =  $23 $T0 8 - ^ =  $24 $T0 12 - ^ = 
STACK WIN 4 23520 1e 3 0 0 0 0 0 1 $T0 .raSearch = $eip $T0 ^ = $esp $T0 4 + = 
STACK WIN 4 23521 1c 2 0 0 4 0 0 1 $T0 .raSearch = $eip $T0 ^ = $esp $T0 4 + =  $23 $T0 4 - ^ = 
STACK WIN 4 23540 dd 4 0 0 c 0 0 1 $T0 .raSearch = $eip $T0 ^ = $esp $T0 4 + =  $20 $T0 4 - ^ =  $23 $T0 8 - ^ =  $24 $T0 12 - ^ = 
STACK WIN 4 23620 72 6 0 0 0 0 0 1 $T0 .raSearch = $eip $T0 ^ = $esp $T0 4 + = 
STACK WIN 4 23621 70 5 0 0 4 0 0 1 $T0 .raSearch = $eip $T0 ^ = $esp $T0 4 + =  $20 $T0 4 - ^ = 
STACK WIN 4 23622 6c 4 0 0 8 0 0 1 $T0 .raSearch = $eip $T0 ^ = $esp $T0 4 + =  $20 $T0 4 - ^ =  $22 $T0 8 - ^ = 
STACK WIN 4 23623 6a 3 0 0 c 0 0 1 $T0 .raSearch = $eip $T0 ^ = $esp $T0 4 + =  $20 $T0 4 - ^ =  $22 $T0 8 - ^ =  $23 $T0 12 - ^ = 
STACK WIN 4 23624 68 2 0 0 10 0 0 1 $T0 .raSearch = $eip $T0 ^ = $esp $T0 4 + =  $20 $T0 4 - ^ =  $22 $T0 8 - ^ =  $23 $T0 12 - ^ =  $24 $T0 16 - ^ = 
STACK WIN 4 236a0 92 5 0 0 0 0 0 1 $T0 .raSearch = $eip $T0 ^ = $esp $T0 4 + = 
STACK WIN 4 236a1 90 4 0 0 4 0 0 1 $T0 .raSearch = $eip $T0 ^ = $esp $T0 4 + =  $20 $T0 4 - ^ = 
STACK WIN 4 236a2 8c 3 0 0 8 0 0 1 $T0 .raSearch = $eip $T0 ^ = $esp $T0 4 + =  $20 $T0 4 - ^ =  $23 $T0 8 - ^ = 
STACK WIN 4 236a3 8a 2 0 0 c 0 0 1 $T0 .raSearch = $eip $T0 ^ = $esp $T0 4 + =  $20 $T0 4 - ^ =  $23 $T0 8 - ^ =  $24 $T0 12 - ^ = 
STACK WIN 4 236c1 5c 0 0 0 10 0 0 1 $T0 .raSearch = $eip $T0 ^ = $esp $T0 4 + =  $20 $T0 4 - ^ =  $23 $T0 8 - ^ =  $24 $T0 12 - ^ =  $22 $T0 16 - ^ = 
STACK WIN 4 23740 89 4 0 8 c 0 0 1 $T0 .raSearch = $eip $T0 ^ = $esp $T0 4 + =  $20 $T0 4 - ^ =  $23 $T0 8 - ^ =  $24 $T0 12 - ^ = 
STACK WIN 4 237d0 40 4 0 0 0 0 0 1 $T0 .raSearch = $eip $T0 ^ = $esp $T0 4 + = 
STACK WIN 4 237d1 3e 3 0 0 4 0 0 1 $T0 .raSearch = $eip $T0 ^ = $esp $T0 4 + =  $20 $T0 4 - ^ = 
STACK WIN 4 237d2 3a 2 0 0 8 0 0 1 $T0 .raSearch = $eip $T0 ^ = $esp $T0 4 + =  $20 $T0 4 - ^ =  $23 $T0 8 - ^ = 
STACK WIN 4 237d5 36 0 0 0 c 0 0 1 $T0 .raSearch = $eip $T0 ^ = $esp $T0 4 + =  $20 $T0 4 - ^ =  $23 $T0 8 - ^ =  $24 $T0 12 - ^ = 
STACK WIN 4 23810 c8 7 0 8 10 4 0 1 $T0 .raSearch = $eip $T0 ^ = $esp $T0 4 + =  $20 $T0 8 - ^ =  $22 $T0 12 - ^ =  $23 $T0 16 - ^ =  $24 $T0 20 - ^ = 
STACK WIN 4 238e0 39 3 0 0 0 0 0 1 $T0 .raSearch = $eip $T0 ^ = $esp $T0 4 + = 
STACK WIN 4 238e1 37 2 0 0 4 0 0 1 $T0 .raSearch = $eip $T0 ^ = $esp $T0 4 + =  $23 $T0 4 - ^ = 
STACK WIN 4 238e4 33 0 0 0 8 0 0 1 $T0 .raSearch = $eip $T0 ^ = $esp $T0 4 + =  $23 $T0 4 - ^ =  $24 $T0 8 - ^ = 
STACK WIN 4 23920 64 3 0 0 0 0 0 1 $T0 .raSearch = $eip $T0 ^ = $esp $T0 4 + = 
STACK WIN 4 23921 62 2 0 0 4 0 0 1 $T0 .raSearch = $eip $T0 ^ = $esp $T0 4 + =  $23 $T0 4 - ^ = 
STACK WIN 4 23924 5e 0 0 0 8 0 0 1 $T0 .raSearch = $eip $T0 ^ = $esp $T0 4 + =  $23 $T0 4 - ^ =  $24 $T0 8 - ^ = 
STACK WIN 4 23990 6e 5 0 0 0 0 0 1 $T0 .raSearch = $eip $T0 ^ = $esp $T0 4 + = 
STACK WIN 4 23992 6a 3 0 0 4 4 0 1 $T0 .raSearch = $eip $T0 ^ = $esp $T0 4 + =  $20 $T0 8 - ^ = 
STACK WIN 4 23993 68 2 0 0 8 4 0 1 $T0 .raSearch = $eip $T0 ^ = $esp $T0 4 + =  $20 $T0 8 - ^ =  $23 $T0 12 - ^ = 
STACK WIN 4 2399a 60 0 0 0 c 4 0 1 $T0 .raSearch = $eip $T0 ^ = $esp $T0 4 + =  $20 $T0 8 - ^ =  $23 $T0 12 - ^ =  $24 $T0 16 - ^ = 
STACK WIN 4 23a00 41 4 0 0 0 0 0 1 $T0 .raSearch = $eip $T0 ^ = $esp $T0 4 + = 
STACK WIN 4 23a01 3f 3 0 0 4 0 0 1 $T0 .raSearch = $eip $T0 ^ = $esp $T0 4 + =  $20 $T0 4 - ^ = 
STACK WIN 4 23a02 3b 2 0 0 8 0 0 1 $T0 .raSearch = $eip $T0 ^ = $esp $T0 4 + =  $20 $T0 4 - ^ =  $23 $T0 8 - ^ = 
STACK WIN 4 23a50 305 9 0 0 10 14 0 1 $T0 .raSearch = $eip $T0 ^ = $esp $T0 4 + =  $20 $T0 24 - ^ =  $22 $T0 28 - ^ =  $23 $T0 32 - ^ =  $24 $T0 36 - ^ = 
STACK WIN 4 23d60 97 4 0 0 c 0 0 1 $T0 .raSearch = $eip $T0 ^ = $esp $T0 4 + =  $20 $T0 4 - ^ =  $23 $T0 8 - ^ =  $24 $T0 12 - ^ = 
STACK WIN 4 23e00 280 5 0 0 10 4 0 1 $T0 .raSearch = $eip $T0 ^ = $esp $T0 4 + =  $20 $T0 8 - ^ =  $22 $T0 12 - ^ =  $23 $T0 16 - ^ =  $24 $T0 20 - ^ = 
STACK WIN 4 24080 127 8 0 0 10 34 0 1 $T0 .raSearch = $eip $T0 ^ = $esp $T0 4 + =  $20 $T0 56 - ^ =  $22 $T0 60 - ^ =  $23 $T0 64 - ^ =  $24 $T0 68 - ^ = 
STACK WIN 4 241b0 171 10 0 8 10 24 0 1 $T0 .raSearch = $eip $T0 ^ = $esp $T0 4 + =  $20 $T0 40 - ^ =  $22 $T0 44 - ^ =  $23 $T0 48 - ^ =  $24 $T0 52 - ^ = 
STACK WIN 4 24330 119 17 0 10 10 c 0 1 $T0 .raSearch = $eip $T0 ^ = $esp $T0 4 + =  $20 $T0 16 - ^ =  $22 $T0 20 - ^ =  $23 $T0 24 - ^ =  $24 $T0 28 - ^ = 
STACK WIN 4 24450 202 c 0 8 10 1c 0 1 $T0 .raSearch = $eip $T0 ^ = $esp $T0 4 + =  $20 $T0 32 - ^ =  $22 $T0 36 - ^ =  $23 $T0 40 - ^ =  $24 $T0 44 - ^ = 
STACK WIN 4 24660 c6 14 0 4 0 0 0 1 $T0 .raSearch = $eip $T0 ^ = $esp $T0 4 + = 
STACK WIN 4 24664 be 10 0 4 4 8 0 1 $T0 .raSearch = $eip $T0 ^ = $esp $T0 4 + =  $20 $T0 12 - ^ = 
STACK WIN 4 24670 af 4 0 4 8 8 0 1 $T0 .raSearch = $eip $T0 ^ = $esp $T0 4 + =  $20 $T0 12 - ^ =  $22 $T0 16 - ^ = 
STACK WIN 4 24671 ad 3 0 4 c 8 0 1 $T0 .raSearch = $eip $T0 ^ = $esp $T0 4 + =  $20 $T0 12 - ^ =  $22 $T0 16 - ^ =  $23 $T0 20 - ^ = 
STACK WIN 4 24672 ab 2 0 4 10 8 0 1 $T0 .raSearch = $eip $T0 ^ = $esp $T0 4 + =  $20 $T0 12 - ^ =  $22 $T0 16 - ^ =  $23 $T0 20 - ^ =  $24 $T0 24 - ^ = 
STACK WIN 4 24730 fb 6 0 0 10 4 0 1 $T0 .raSearch = $eip $T0 ^ = $esp $T0 4 + =  $20 $T0 8 - ^ =  $22 $T0 12 - ^ =  $23 $T0 16 - ^ =  $24 $T0 20 - ^ = 
STACK WIN 4 24830 19d 7 0 0 10 c 0 1 $T0 .raSearch = $eip $T0 ^ = $esp $T0 4 + =  $20 $T0 16 - ^ =  $22 $T0 20 - ^ =  $23 $T0 24 - ^ =  $24 $T0 28 - ^ = 
STACK WIN 4 249d0 8f 6 0 0 10 4 0 1 $T0 .raSearch = $eip $T0 ^ = $esp $T0 4 + =  $20 $T0 8 - ^ =  $22 $T0 12 - ^ =  $23 $T0 16 - ^ =  $24 $T0 20 - ^ = 
STACK WIN 4 24a60 ac 5 0 0 8 4 0 1 $T0 .raSearch = $eip $T0 ^ = $esp $T0 4 + =  $23 $T0 8 - ^ =  $24 $T0 12 - ^ = 
STACK WIN 4 24b10 90 6 0 0 10 4 0 1 $T0 .raSearch = $eip $T0 ^ = $esp $T0 4 + =  $20 $T0 8 - ^ =  $22 $T0 12 - ^ =  $23 $T0 16 - ^ =  $24 $T0 20 - ^ = 
STACK WIN 4 24ba0 4c 4 0 0 8 4 0 1 $T0 .raSearch = $eip $T0 ^ = $esp $T0 4 + =  $23 $T0 8 - ^ =  $24 $T0 12 - ^ = 
STACK WIN 4 24bf0 11c 18 0 4 c 14 0 1 $T1 .raSearch = $T0  $T1 4 - 8 @ = $ebp $T1 4 - ^ = $eip $T1 ^ = $esp $T1 4 + = $20 $T0 24 - ^ =  $23 $T0 28 - ^ =  $24 $T0 32 - ^ = 
STACK WIN 4 24d10 133 8 0 4 10 8 0 1 $T0 .raSearch = $eip $T0 ^ = $esp $T0 4 + =  $20 $T0 12 - ^ =  $22 $T0 16 - ^ =  $23 $T0 20 - ^ =  $24 $T0 24 - ^ = 
STACK WIN 4 24e50 aa 8 0 c 10 0 0 1 $T0 .raSearch = $eip $T0 ^ = $esp $T0 4 + =  $20 $T0 4 - ^ =  $22 $T0 8 - ^ =  $23 $T0 12 - ^ =  $24 $T0 16 - ^ = 
STACK WIN 4 24f10 15f 8 0 0 10 c 0 1 $T0 .raSearch = $eip $T0 ^ = $esp $T0 4 + =  $20 $T0 16 - ^ =  $22 $T0 20 - ^ =  $23 $T0 24 - ^ =  $24 $T0 28 - ^ = 
STACK WIN 4 25070 40 0 0 0 0 0 0 1 $T0 .raSearch = $eip $T0 ^ = $esp $T0 4 + = 
STACK WIN 4 25083 2c 0 0 0 4 0 0 1 $T0 .raSearch = $eip $T0 ^ = $esp $T0 4 + =  $23 $T0 4 - ^ = 
STACK WIN 4 250b0 175 8 0 8 10 14 0 1 $T0 .raSearch = $eip $T0 ^ = $esp $T0 4 + =  $20 $T0 24 - ^ =  $22 $T0 28 - ^ =  $23 $T0 32 - ^ =  $24 $T0 36 - ^ = 
STACK WIN 4 25230 40 b 0 c 8 0 0 1 $T0 .raSearch = $eip $T0 ^ = $esp $T0 4 + =  $23 $T0 4 - ^ =  $24 $T0 8 - ^ = 
STACK WIN 4 25270 309 7 0 c 10 28 0 1 $T0 .raSearch = $eip $T0 ^ = $esp $T0 4 + =  $20 $T0 44 - ^ =  $22 $T0 48 - ^ =  $23 $T0 52 - ^ =  $24 $T0 56 - ^ = 
STACK WIN 4 25580 45 8 0 10 4 4 0 1 $T1 .raSearch = $T0  $T1 4 - 8 @ = $ebp $T1 4 - ^ = $eip $T1 ^ = $esp $T1 4 + = $23 $T0 8 - ^ = 
STACK WIN 4 255d0 6a 9 0 0 8 4 0 1 $T0 .raSearch = $eip $T0 ^ = $esp $T0 4 + =  $23 $T0 8 - ^ =  $24 $T0 12 - ^ = 
STACK WIN 4 25640 146 4 0 0 c 0 0 1 $T0 .raSearch = $eip $T0 ^ = $esp $T0 4 + =  $20 $T0 4 - ^ =  $23 $T0 8 - ^ =  $24 $T0 12 - ^ = 
STACK WIN 4 25790 ae 4 0 0 c 0 0 1 $T0 .raSearch = $eip $T0 ^ = $esp $T0 4 + =  $20 $T0 4 - ^ =  $23 $T0 8 - ^ =  $24 $T0 12 - ^ = 
STACK WIN 4 25840 b7 4 0 0 8 4 0 1 $T0 .raSearch = $eip $T0 ^ = $esp $T0 4 + =  $23 $T0 8 - ^ =  $24 $T0 12 - ^ = 
STACK WIN 4 25900 4cd 1b 0 10 10 2c 0 1 $T0 .raSearch = $eip $T0 ^ = $esp $T0 4 + =  $20 $T0 48 - ^ =  $22 $T0 52 - ^ =  $23 $T0 56 - ^ =  $24 $T0 60 - ^ = 
STACK WIN 4 25dd0 10a 4 0 0 c 0 0 1 $T0 .raSearch = $eip $T0 ^ = $esp $T0 4 + =  $20 $T0 4 - ^ =  $23 $T0 8 - ^ =  $24 $T0 12 - ^ = 
STACK WIN 4 25ee0 67 10 0 8 4 4 0 1 $T1 .raSearch = $T0  $T1 4 - 8 @ = $ebp $T1 4 - ^ = $eip $T1 ^ = $esp $T1 4 + = $23 $T0 8 - ^ = 
STACK WIN 4 25f50 11e 4 0 0 c 0 0 1 $T0 .raSearch = $eip $T0 ^ = $esp $T0 4 + =  $20 $T0 4 - ^ =  $23 $T0 8 - ^ =  $24 $T0 12 - ^ = 
STACK WIN 4 26070 5b d 0 8 8 0 0 1 $T1 .raSearch = $T0  $T1 4 - 8 @ = $ebp $T1 4 - ^ = $eip $T1 ^ = $esp $T1 4 + = $23 $T0 4 - ^ =  $24 $T0 8 - ^ = 
STACK WIN 4 260d0 675 13 0 c 10 38 0 1 $T0 .raSearch = $eip $T0 ^ = $esp $T0 4 + =  $20 $T0 60 - ^ =  $22 $T0 64 - ^ =  $23 $T0 68 - ^ =  $24 $T0 72 - ^ = 
STACK WIN 4 26750 2a7 b 0 4 10 18 0 1 $T0 .raSearch = $eip $T0 ^ = $esp $T0 4 + =  $20 $T0 28 - ^ =  $22 $T0 32 - ^ =  $23 $T0 36 - ^ =  $24 $T0 40 - ^ = 
STACK WIN 4 26a00 1c 3 0 0 4 0 0 1 $T0 .raSearch = $eip $T0 ^ = $esp $T0 4 + =  $23 $T0 4 - ^ = 
STACK WIN 4 26a20 1b0 9 0 4 10 20 0 1 $T0 .raSearch = $eip $T0 ^ = $esp $T0 4 + =  $20 $T0 36 - ^ =  $22 $T0 40 - ^ =  $23 $T0 44 - ^ =  $24 $T0 48 - ^ = 
STACK WIN 4 26bd0 39d 16 0 8 10 2c 0 1 $T0 .raSearch = $eip $T0 ^ = $esp $T0 4 + =  $20 $T0 48 - ^ =  $22 $T0 52 - ^ =  $23 $T0 56 - ^ =  $24 $T0 60 - ^ = 
STACK WIN 4 26f70 121 e 0 8 10 4 0 1 $T0 .raSearch = $eip $T0 ^ = $esp $T0 4 + =  $20 $T0 8 - ^ =  $22 $T0 12 - ^ =  $23 $T0 16 - ^ =  $24 $T0 20 - ^ = 
STACK WIN 4 270a0 16f d 0 14 10 20 0 1 $T0 .raSearch = $eip $T0 ^ = $esp $T0 4 + =  $20 $T0 36 - ^ =  $22 $T0 40 - ^ =  $23 $T0 44 - ^ =  $24 $T0 48 - ^ = 
STACK WIN 4 27210 24 5 0 0 0 0 0 1 $T0 .raSearch = $eip $T0 ^ = $esp $T0 4 + = 
STACK WIN 4 27211 22 4 0 0 4 0 0 1 $T0 .raSearch = $eip $T0 ^ = $esp $T0 4 + =  $20 $T0 4 - ^ = 
STACK WIN 4 27212 1c 3 0 0 8 0 0 1 $T0 .raSearch = $eip $T0 ^ = $esp $T0 4 + =  $20 $T0 4 - ^ =  $23 $T0 8 - ^ = 
STACK WIN 4 27213 1a 2 0 0 c 0 0 1 $T0 .raSearch = $eip $T0 ^ = $esp $T0 4 + =  $20 $T0 4 - ^ =  $23 $T0 8 - ^ =  $24 $T0 12 - ^ = 
STACK WIN 4 27240 13c 21 0 8 10 1c 0 1 $T0 .raSearch = $eip $T0 ^ = $esp $T0 4 + =  $20 $T0 32 - ^ =  $22 $T0 36 - ^ =  $23 $T0 40 - ^ =  $24 $T0 44 - ^ = 
STACK WIN 4 27380 e4 17 0 14 10 10 0 1 $T0 .raSearch = $eip $T0 ^ = $esp $T0 4 + =  $20 $T0 20 - ^ =  $22 $T0 24 - ^ =  $23 $T0 28 - ^ =  $24 $T0 32 - ^ = 
STACK WIN 4 27470 d6 1c 0 8 10 14 0 1 $T0 .raSearch = $eip $T0 ^ = $esp $T0 4 + =  $20 $T0 24 - ^ =  $22 $T0 28 - ^ =  $23 $T0 32 - ^ =  $24 $T0 36 - ^ = 
STACK WIN 4 27550 2b1 33 0 c 10 28 0 1 $T0 .raSearch = $eip $T0 ^ = $esp $T0 4 + =  $20 $T0 44 - ^ =  $22 $T0 48 - ^ =  $23 $T0 52 - ^ =  $24 $T0 56 - ^ = 
STACK WIN 4 27810 208 b 0 4 10 38 0 1 $T0 .raSearch = $eip $T0 ^ = $esp $T0 4 + =  $20 $T0 60 - ^ =  $22 $T0 64 - ^ =  $23 $T0 68 - ^ =  $24 $T0 72 - ^ = 
STACK WIN 4 27a20 c3 16 0 4 10 10 0 1 $T0 .raSearch = $eip $T0 ^ = $esp $T0 4 + =  $20 $T0 20 - ^ =  $22 $T0 24 - ^ =  $23 $T0 28 - ^ =  $24 $T0 32 - ^ = 
STACK WIN 4 27af0 139c 2f 0 c c 124 0 1 $T1 .raSearch = $T0  $T1 4 - 8 @ = $ebp $T1 4 - ^ = $eip $T1 ^ = $esp $T1 4 + = $20 $T0 296 - ^ =  $23 $T0 300 - ^ =  $24 $T0 304 - ^ = 
STACK WIN 4 28e90 12d 8 0 0 10 14 0 1 $T0 .raSearch = $eip $T0 ^ = $esp $T0 4 + =  $20 $T0 24 - ^ =  $22 $T0 28 - ^ =  $23 $T0 32 - ^ =  $24 $T0 36 - ^ = 
STACK WIN 4 28fc0 1e0 17 0 0 c 2c 0 1 $T1 .raSearch = $T0  $T1 4 - 8 @ = $ebp $T1 4 - ^ = $eip $T1 ^ = $esp $T1 4 + = $20 $T0 48 - ^ =  $23 $T0 52 - ^ =  $24 $T0 56 - ^ = 
STACK WIN 4 291a0 23b e 0 8 10 c 0 1 $T0 .raSearch = $eip $T0 ^ = $esp $T0 4 + =  $20 $T0 16 - ^ =  $22 $T0 20 - ^ =  $23 $T0 24 - ^ =  $24 $T0 28 - ^ = 
STACK WIN 4 293e0 40c f 0 0 10 28 0 1 $T1 .raSearch = $T0  $T1 4 - 8 @ = $ebp $T1 4 - ^ = $eip $T1 ^ = $esp $T1 4 + = $20 $T0 44 - ^ =  $23 $T0 52 - ^ =  $24 $T0 56 - ^ = 
STACK WIN 4 297f0 2cf 6 0 4 10 18 0 1 $T0 .raSearch = $eip $T0 ^ = $esp $T0 4 + =  $20 $T0 28 - ^ =  $22 $T0 32 - ^ =  $23 $T0 36 - ^ =  $24 $T0 40 - ^ = 
STACK WIN 4 29ac0 1fe f 0 8 10 c 0 1 $T0 .raSearch = $eip $T0 ^ = $esp $T0 4 + =  $20 $T0 16 - ^ =  $22 $T0 20 - ^ =  $23 $T0 24 - ^ =  $24 $T0 28 - ^ = 
STACK WIN 4 29cc0 a3 5 0 4 10 0 0 1 $T0 .raSearch = $eip $T0 ^ = $esp $T0 4 + =  $20 $T0 4 - ^ =  $22 $T0 8 - ^ =  $23 $T0 12 - ^ =  $24 $T0 16 - ^ = 
STACK WIN 4 29d70 208 f 0 4 10 10 0 1 $T0 .raSearch = $eip $T0 ^ = $esp $T0 4 + =  $20 $T0 20 - ^ =  $22 $T0 24 - ^ =  $23 $T0 28 - ^ =  $24 $T0 32 - ^ = 
STACK WIN 4 29f80 59 4 0 4 0 0 0 1 $T0 .raSearch = $eip $T0 ^ = $esp $T0 4 + = 
STACK WIN 4 29f81 57 3 0 4 4 0 0 1 $T0 .raSearch = $eip $T0 ^ = $esp $T0 4 + =  $20 $T0 4 - ^ = 
STACK WIN 4 29f82 55 2 0 4 8 0 0 1 $T0 .raSearch = $eip $T0 ^ = $esp $T0 4 + =  $20 $T0 4 - ^ =  $23 $T0 8 - ^ = 
STACK WIN 4 29f85 51 0 0 4 c 0 0 1 $T0 .raSearch = $eip $T0 ^ = $esp $T0 4 + =  $20 $T0 4 - ^ =  $23 $T0 8 - ^ =  $24 $T0 12 - ^ = 
STACK WIN 4 29fe0 6b 6 0 4 10 4 0 1 $T0 .raSearch = $eip $T0 ^ = $esp $T0 4 + =  $20 $T0 8 - ^ =  $22 $T0 12 - ^ =  $23 $T0 16 - ^ =  $24 $T0 20 - ^ = 
STACK WIN 4 2a050 1b6 8 0 0 10 14 0 1 $T0 .raSearch = $eip $T0 ^ = $esp $T0 4 + =  $20 $T0 24 - ^ =  $22 $T0 28 - ^ =  $23 $T0 32 - ^ =  $24 $T0 36 - ^ = 
STACK WIN 4 2a210 82 1 0 8 4 0 0 1 $T0 .raSearch = $eip $T0 ^ = $esp $T0 4 + =  $23 $T0 4 - ^ = 
STACK WIN 4 2a2a0 66 7 0 0 c 0 0 1 $T0 .raSearch = $eip $T0 ^ = $esp $T0 4 + =  $20 $T0 4 - ^ =  $23 $T0 8 - ^ =  $24 $T0 12 - ^ = 
STACK WIN 4 2a310 83 c 0 8 c 8 0 1 $T0 .raSearch = $eip $T0 ^ = $esp $T0 4 + =  $20 $T0 12 - ^ =  $23 $T0 16 - ^ =  $24 $T0 20 - ^ = 
STACK WIN 4 2a3a0 21c 14 0 8 10 14 0 1 $T0 .raSearch = $eip $T0 ^ = $esp $T0 4 + =  $20 $T0 24 - ^ =  $22 $T0 28 - ^ =  $23 $T0 32 - ^ =  $24 $T0 36 - ^ = 
STACK WIN 4 2a5c0 5e 1 0 0 0 0 0 1 $T0 .raSearch = $eip $T0 ^ = $esp $T0 4 + = 
STACK WIN 4 2a5c1 5c 0 0 0 4 0 0 1 $T0 .raSearch = $eip $T0 ^ = $esp $T0 4 + =  $23 $T0 4 - ^ = 
STACK WIN 4 2a5e5 32 0 0 0 8 0 0 1 $T0 .raSearch = $eip $T0 ^ = $esp $T0 4 + =  $23 $T0 4 - ^ =  $24 $T0 8 - ^ = 
STACK WIN 4 2a620 651 17 0 c 10 70 0 1 $T0 .raSearch = $eip $T0 ^ = $esp $T0 4 + =  $20 $T0 116 - ^ =  $22 $T0 120 - ^ =  $23 $T0 124 - ^ =  $24 $T0 128 - ^ = 
STACK WIN 4 2ac80 4eb 2e 0 c c d4 0 1 $T1 .raSearch = $T0  $T1 4 - 8 @ = $ebp $T1 4 - ^ = $eip $T1 ^ = $esp $T1 4 + = $20 $T0 216 - ^ =  $23 $T0 220 - ^ =  $24 $T0 224 - ^ = 
STACK WIN 4 2b170 18 0 0 0 0 0 0 1 $T0 .raSearch = $eip $T0 ^ = $esp $T0 4 + = 
STACK WIN 4 2b190 9e 4 0 8 c 0 0 1 $T0 .raSearch = $eip $T0 ^ = $esp $T0 4 + =  $20 $T0 4 - ^ =  $23 $T0 8 - ^ =  $24 $T0 12 - ^ = 
STACK WIN 4 2b230 6f 3 0 0 0 0 0 1 $T0 .raSearch = $eip $T0 ^ = $esp $T0 4 + = 
STACK WIN 4 2b231 6d 2 0 0 4 0 0 1 $T0 .raSearch = $eip $T0 ^ = $esp $T0 4 + =  $23 $T0 4 - ^ = 
STACK WIN 4 2b234 69 0 0 0 8 0 0 1 $T0 .raSearch = $eip $T0 ^ = $esp $T0 4 + =  $23 $T0 4 - ^ =  $24 $T0 8 - ^ = 
STACK WIN 4 2b2a0 bc 5 0 4 c 4 0 1 $T0 .raSearch = $eip $T0 ^ = $esp $T0 4 + =  $20 $T0 8 - ^ =  $23 $T0 12 - ^ =  $24 $T0 16 - ^ = 
STACK WIN 4 2b360 65 8 0 10 4 4 0 1 $T1 .raSearch = $T0  $T1 4 - 8 @ = $ebp $T1 4 - ^ = $eip $T1 ^ = $esp $T1 4 + = $23 $T0 8 - ^ = 
STACK WIN 4 2b3d0 74 5 0 0 10 4 0 1 $T0 .raSearch = $eip $T0 ^ = $esp $T0 4 + =  $20 $T0 8 - ^ =  $22 $T0 12 - ^ =  $23 $T0 16 - ^ =  $24 $T0 20 - ^ = 
STACK WIN 4 2b450 10f d 0 4 10 1e8 0 1 $T0 .raSearch = $eip $T0 ^ = $esp $T0 4 + =  $20 $T0 492 - ^ =  $22 $T0 496 - ^ =  $23 $T0 500 - ^ =  $24 $T0 504 - ^ = 
STACK WIN 4 2b560 118 d 0 10 c 4 0 1 $T1 .raSearch = $T0  $T1 4 - 8 @ = $ebp $T1 4 - ^ = $eip $T1 ^ = $esp $T1 4 + = $20 $T0 8 - ^ =  $23 $T0 12 - ^ =  $24 $T0 16 - ^ = 
STACK WIN 4 2b680 1ae 16 0 8 10 3c 0 1 $T0 .raSearch = $eip $T0 ^ = $esp $T0 4 + =  $20 $T0 64 - ^ =  $22 $T0 68 - ^ =  $23 $T0 72 - ^ =  $24 $T0 76 - ^ = 
STACK WIN 4 2b830 85a f 0 8 c 3c 0 1 $T1 .raSearch = $T0  $T1 4 - 8 @ = $ebp $T1 4 - ^ = $eip $T1 ^ = $esp $T1 4 + = $20 $T0 64 - ^ =  $23 $T0 68 - ^ =  $24 $T0 72 - ^ = 
STACK WIN 4 2c090 f0 8 0 4 c 4 0 1 $T0 .raSearch = $eip $T0 ^ = $esp $T0 4 + =  $20 $T0 8 - ^ =  $23 $T0 12 - ^ =  $24 $T0 16 - ^ = 
STACK WIN 4 2c180 8 0 0 4 0 0 0 1 $T0 .raSearch = $eip $T0 ^ = $esp $T0 4 + = 
STACK WIN 4 2c190 8 0 0 4 0 0 0 1 $T0 .raSearch = $eip $T0 ^ = $esp $T0 4 + = 
STACK WIN 4 2c1a0 70 c 0 4 10 0 0 1 $T0 .raSearch = $eip $T0 ^ = $esp $T0 4 + =  $20 $T0 4 - ^ =  $22 $T0 8 - ^ =  $23 $T0 12 - ^ =  $24 $T0 16 - ^ = 
STACK WIN 4 2c210 139 8 0 0 10 3c 0 1 $T0 .raSearch = $eip $T0 ^ = $esp $T0 4 + =  $20 $T0 64 - ^ =  $22 $T0 68 - ^ =  $23 $T0 72 - ^ =  $24 $T0 76 - ^ = 
STACK WIN 4 2c350 15 0 0 0 0 0 0 1 $T0 .raSearch = $eip $T0 ^ = $esp $T0 4 + = 
STACK WIN 4 2c370 130 b 0 4 c 4 0 1 $T1 .raSearch = $T0  $T1 4 - 8 @ = $ebp $T1 4 - ^ = $eip $T1 ^ = $esp $T1 4 + = $20 $T0 8 - ^ =  $23 $T0 12 - ^ =  $24 $T0 16 - ^ = 
STACK WIN 4 2c4a0 1e 0 0 0 0 0 0 1 $T0 .raSearch = $eip $T0 ^ = $esp $T0 4 + = 
STACK WIN 4 2c4c0 71 3 0 0 4 0 0 1 $T0 .raSearch = $eip $T0 ^ = $esp $T0 4 + =  $23 $T0 4 - ^ = 
STACK WIN 4 2c540 4b 3 0 0 4 0 0 1 $T0 .raSearch = $eip $T0 ^ = $esp $T0 4 + =  $23 $T0 4 - ^ = 
STACK WIN 4 2c590 40 3 0 0 4 0 0 1 $T0 .raSearch = $eip $T0 ^ = $esp $T0 4 + =  $23 $T0 4 - ^ = 
STACK WIN 4 2c5d0 1e 1 0 0 0 4 0 1 $T0 .raSearch = $eip $T0 ^ = $esp $T0 4 + = 
STACK WIN 4 2c5f0 da d 0 4 8 38 0 1 $T1 .raSearch = $T0  $T1 4 - 64 @ = $ebp $T1 4 - ^ = $eip $T1 ^ = $esp $T1 4 + = $20 $T0 60 - ^ =  $23 $T0 64 - ^ = 
STACK WIN 4 2c6d0 a0 c 0 0 4 5c 0 1 $T1 .raSearch = $T0  $T1 4 - 16 @ = $ebp $T1 4 - ^ = $eip $T1 ^ = $esp $T1 4 + = $23 $T0 96 - ^ = 
STACK WIN 4 2c770 6e 3 0 0 4 0 0 1 $T0 .raSearch = $eip $T0 ^ = $esp $T0 4 + =  $23 $T0 4 - ^ = 
STACK WIN 4 2c7e0 92 3 0 0 4 0 0 1 $T0 .raSearch = $eip $T0 ^ = $esp $T0 4 + =  $23 $T0 4 - ^ = 
STACK WIN 4 2c880 19 1 0 0 0 4 0 1 $T0 .raSearch = $eip $T0 ^ = $esp $T0 4 + = 
STACK WIN 4 2c8a0 ab c 0 0 4 c 0 1 $T1 .raSearch = $T0  $T1 4 - 8 @ = $ebp $T1 4 - ^ = $eip $T1 ^ = $esp $T1 4 + = $23 $T0 16 - ^ = 
STACK WIN 4 2c950 58 d 0 0 0 8 0 1 $T1 .raSearch = $T0  $T1 4 - 8 @ = $ebp $T1 4 - ^ = $eip $T1 ^ = $esp $T1 4 + =
STACK WIN 4 2c9b0 99 4 0 0 c 0 0 1 $T0 .raSearch = $eip $T0 ^ = $esp $T0 4 + =  $20 $T0 4 - ^ =  $23 $T0 8 - ^ =  $24 $T0 12 - ^ = 
STACK WIN 4 2ca50 25 3 0 0 4 0 0 1 $T0 .raSearch = $eip $T0 ^ = $esp $T0 4 + =  $23 $T0 4 - ^ = 
STACK WIN 4 2ca80 73 c 0 0 4 c 0 1 $T1 .raSearch = $T0  $T1 4 - 8 @ = $ebp $T1 4 - ^ = $eip $T1 ^ = $esp $T1 4 + = $23 $T0 16 - ^ = 
STACK WIN 4 2cb00 ca c 0 0 4 c 0 1 $T1 .raSearch = $T0  $T1 4 - 8 @ = $ebp $T1 4 - ^ = $eip $T1 ^ = $esp $T1 4 + = $23 $T0 16 - ^ = 
STACK WIN 4 2cbd0 d4 4 0 4 4 4 0 1 $T0 .raSearch = $eip $T0 ^ = $esp $T0 4 + =  $23 $T0 8 - ^ = 
STACK WIN 4 2ccb0 1e 1 0 0 0 4 0 1 $T0 .raSearch = $eip $T0 ^ = $esp $T0 4 + = 
STACK WIN 4 2ccd0 36 3 0 8 4 0 0 1 $T0 .raSearch = $eip $T0 ^ = $esp $T0 4 + =  $23 $T0 4 - ^ = 
STACK WIN 4 2cd10 36 1 0 8 0 4 0 1 $T0 .raSearch = $eip $T0 ^ = $esp $T0 4 + = 
STACK WIN 4 2cd50 c1 4 0 0 8 4 0 1 $T0 .raSearch = $eip $T0 ^ = $esp $T0 4 + =  $23 $T0 8 - ^ =  $24 $T0 12 - ^ = 
STACK WIN 4 2ce20 1e 6 0 4 8 0 0 1 $T0 .raSearch = $eip $T0 ^ = $esp $T0 4 + =  $23 $T0 4 - ^ =  $24 $T0 8 - ^ = 
STACK WIN 4 2ce40 4f 6 0 4 0 0 0 1 $T1 .raSearch = $T0  $T1 4 - 8 @ = $ebp $T1 4 - ^ = $eip $T1 ^ = $esp $T1 4 + =
STACK WIN 4 2ce90 69 4 0 0 8 4 0 1 $T0 .raSearch = $eip $T0 ^ = $esp $T0 4 + =  $23 $T0 8 - ^ =  $24 $T0 12 - ^ = 
STACK WIN 4 2cf00 221 f 0 c 10 8 0 1 $T0 .raSearch = $eip $T0 ^ = $esp $T0 4 + =  $20 $T0 12 - ^ =  $22 $T0 16 - ^ =  $23 $T0 20 - ^ =  $24 $T0 24 - ^ = 
STACK WIN 4 2d130 e5 1d 0 c c c 0 1 $T1 .raSearch = $T0  $T1 4 - 8 @ = $ebp $T1 4 - ^ = $eip $T1 ^ = $esp $T1 4 + = $20 $T0 16 - ^ =  $23 $T0 20 - ^ =  $24 $T0 24 - ^ = 
STACK WIN 4 2d220 8a 5 0 0 8 4 0 1 $T0 .raSearch = $eip $T0 ^ = $esp $T0 4 + =  $20 $T0 8 - ^ =  $23 $T0 12 - ^ = 
STACK WIN 4 2d2b0 45 a 0 0 4 4 0 1 $T1 .raSearch = $T0  $T1 4 - 8 @ = $ebp $T1 4 - ^ = $eip $T1 ^ = $esp $T1 4 + = $23 $T0 8 - ^ = 
STACK WIN 4 2d300 44b d 0 10 8 18 0 1 $T1 .raSearch = $T0  $T1 4 - 8 @ = $ebp $T1 4 - ^ = $eip $T1 ^ = $esp $T1 4 + = $23 $T0 28 - ^ =  $24 $T0 32 - ^ = 
STACK WIN 4 2d750 27 6 0 c 0 0 0 1 $T1 .raSearch = $T0  $T1 4 - 8 @ = $ebp $T1 4 - ^ = $eip $T1 ^ = $esp $T1 4 + =
STACK WIN 4 2d780 66 3 0 0 4 0 0 1 $T0 .raSearch = $eip $T0 ^ = $esp $T0 4 + =  $23 $T0 4 - ^ = 
STACK WIN 4 2d7f0 15 3 0 0 4 0 0 1 $T0 .raSearch = $eip $T0 ^ = $esp $T0 4 + =  $23 $T0 4 - ^ = 
STACK WIN 4 2d810 69 1 0 8 4 0 0 1 $T0 .raSearch = $eip $T0 ^ = $esp $T0 4 + =  $23 $T0 4 - ^ = 
STACK WIN 4 2d880 86 11 0 0 c d4 0 1 $T1 .raSearch = $T0  $T1 4 - 8 @ = $ebp $T1 4 - ^ = $eip $T1 ^ = $esp $T1 4 + = $20 $T0 216 - ^ =  $23 $T0 220 - ^ =  $24 $T0 224 - ^ = 
STACK WIN 4 2d910 c0 5 0 0 10 4 0 1 $T0 .raSearch = $eip $T0 ^ = $esp $T0 4 + =  $20 $T0 8 - ^ =  $22 $T0 12 - ^ =  $23 $T0 16 - ^ =  $24 $T0 20 - ^ = 
STACK WIN 4 2d9d0 32 6 0 c 8 0 0 1 $T0 .raSearch = $eip $T0 ^ = $esp $T0 4 + =  $23 $T0 4 - ^ =  $24 $T0 8 - ^ = 
STACK WIN 4 2da10 75 b 0 c c 4 0 1 $T1 .raSearch = $T0  $T1 4 - 8 @ = $ebp $T1 4 - ^ = $eip $T1 ^ = $esp $T1 4 + = $20 $T0 8 - ^ =  $23 $T0 12 - ^ =  $24 $T0 16 - ^ = 
STACK WIN 4 2da90 70 9 0 0 8 0 0 1 $T1 .raSearch = $T0  $T1 4 - 8 @ = $ebp $T1 4 - ^ = $eip $T1 ^ = $esp $T1 4 + = $23 $T0 4 - ^ =  $24 $T0 8 - ^ = 
STACK WIN 4 2db00 75 b 0 4 c 4 0 1 $T1 .raSearch = $T0  $T1 4 - 8 @ = $ebp $T1 4 - ^ = $eip $T1 ^ = $esp $T1 4 + = $20 $T0 8 - ^ =  $23 $T0 12 - ^ =  $24 $T0 16 - ^ = 
STACK WIN 4 2db80 75 b 0 8 c 4 0 1 $T1 .raSearch = $T0  $T1 4 - 8 @ = $ebp $T1 4 - ^ = $eip $T1 ^ = $esp $T1 4 + = $20 $T0 8 - ^ =  $23 $T0 12 - ^ =  $24 $T0 16 - ^ = 
STACK WIN 4 2dc00 6e 9 0 0 8 0 0 1 $T1 .raSearch = $T0  $T1 4 - 8 @ = $ebp $T1 4 - ^ = $eip $T1 ^ = $esp $T1 4 + = $23 $T0 4 - ^ =  $24 $T0 8 - ^ = 
STACK WIN 4 2dc70 7d a 0 4 8 0 0 1 $T1 .raSearch = $T0  $T1 4 - 8 @ = $ebp $T1 4 - ^ = $eip $T1 ^ = $esp $T1 4 + = $23 $T0 4 - ^ =  $24 $T0 8 - ^ = 
STACK WIN 4 2dcf0 146 15 0 c c c 0 1 $T1 .raSearch = $T0  $T1 4 - 8 @ = $ebp $T1 4 - ^ = $eip $T1 ^ = $esp $T1 4 + = $20 $T0 16 - ^ =  $23 $T0 20 - ^ =  $24 $T0 24 - ^ = 
STACK WIN 4 2de40 7f a 0 14 8 0 0 1 $T1 .raSearch = $T0  $T1 4 - 8 @ = $ebp $T1 4 - ^ = $eip $T1 ^ = $esp $T1 4 + = $23 $T0 4 - ^ =  $24 $T0 8 - ^ = 
STACK WIN 4 2dec0 ca b 0 4 c 4 0 1 $T1 .raSearch = $T0  $T1 4 - 8 @ = $ebp $T1 4 - ^ = $eip $T1 ^ = $esp $T1 4 + = $20 $T0 8 - ^ =  $23 $T0 12 - ^ =  $24 $T0 16 - ^ = 
STACK WIN 4 2df90 cd a 0 10 8 0 0 1 $T1 .raSearch = $T0  $T1 4 - 8 @ = $ebp $T1 4 - ^ = $eip $T1 ^ = $esp $T1 4 + = $23 $T0 4 - ^ =  $24 $T0 8 - ^ = 
STACK WIN 4 2e060 7a a 0 0 4 4 0 1 $T1 .raSearch = $T0  $T1 4 - 8 @ = $ebp $T1 4 - ^ = $eip $T1 ^ = $esp $T1 4 + = $23 $T0 8 - ^ = 
STACK WIN 4 2e0e0 46 3 0 0 8 4 0 1 $T0 .raSearch = $eip $T0 ^ = $esp $T0 4 + =  $23 $T0 8 - ^ =  $24 $T0 12 - ^ = 
STACK WIN 4 2e130 1e 4 0 0 0 0 0 1 $T0 .raSearch = $eip $T0 ^ = $esp $T0 4 + = 
STACK WIN 4 2e134 19 0 0 0 4 0 0 1 $T0 .raSearch = $eip $T0 ^ = $esp $T0 4 + =  $23 $T0 4 - ^ = 
STACK WIN 4 2e150 184 8 0 0 0 0 0 1 $T0 .raSearch = $eip $T0 ^ = $esp $T0 4 + = 
STACK WIN 4 2e152 14c 6 0 0 4 4 0 1 $T0 .raSearch = $eip $T0 ^ = $esp $T0 4 + =  $20 $T0 8 - ^ = 
STACK WIN 4 2e153 14a 5 0 0 8 4 0 1 $T0 .raSearch = $eip $T0 ^ = $esp $T0 4 + =  $20 $T0 8 - ^ =  $22 $T0 12 - ^ = 
STACK WIN 4 2e156 146 2 0 0 c 4 0 1 $T0 .raSearch = $eip $T0 ^ = $esp $T0 4 + =  $20 $T0 8 - ^ =  $22 $T0 12 - ^ =  $23 $T0 16 - ^ = 
STACK WIN 4 2e15d 13e 0 0 0 10 4 0 1 $T0 .raSearch = $eip $T0 ^ = $esp $T0 4 + =  $20 $T0 8 - ^ =  $22 $T0 12 - ^ =  $23 $T0 16 - ^ =  $24 $T0 20 - ^ = 
STACK WIN 4 2e2e0 b0 7 0 8 10 4 0 1 $T0 .raSearch = $eip $T0 ^ = $esp $T0 4 + =  $20 $T0 8 - ^ =  $22 $T0 12 - ^ =  $23 $T0 16 - ^ =  $24 $T0 20 - ^ = 
STACK WIN 4 2e390 34 3 0 4 0 0 0 1 $T0 .raSearch = $eip $T0 ^ = $esp $T0 4 + = 
STACK WIN 4 2e391 29 2 0 4 4 0 0 1 $T0 .raSearch = $eip $T0 ^ = $esp $T0 4 + =  $23 $T0 4 - ^ = 
STACK WIN 4 2e3d0 33 3 0 4 0 0 0 1 $T0 .raSearch = $eip $T0 ^ = $esp $T0 4 + = 
STACK WIN 4 2e3d1 27 2 0 4 4 0 0 1 $T0 .raSearch = $eip $T0 ^ = $esp $T0 4 + =  $23 $T0 4 - ^ = 
STACK WIN 4 2e410 17 0 0 0 0 0 0 1 $T0 .raSearch = $eip $T0 ^ = $esp $T0 4 + = 
STACK WIN 4 2e41b b 0 0 0 4 0 0 1 $T0 .raSearch = $eip $T0 ^ = $esp $T0 4 + =  $23 $T0 4 - ^ = 
STACK WIN 4 2e430 2f 4 0 0 0 0 0 1 $T0 .raSearch = $eip $T0 ^ = $esp $T0 4 + = 
STACK WIN 4 2e431 2d 3 0 0 4 0 0 1 $T0 .raSearch = $eip $T0 ^ = $esp $T0 4 + =  $23 $T0 4 - ^ = 
STACK WIN 4 2e432 27 2 0 0 8 0 0 1 $T0 .raSearch = $eip $T0 ^ = $esp $T0 4 + =  $23 $T0 4 - ^ =  $24 $T0 8 - ^ = 
STACK WIN 4 2e460 44 0 0 0 0 0 0 1 $T0 .raSearch = $eip $T0 ^ = $esp $T0 4 + = 
STACK WIN 4 2e4b0 a5 6 0 0 0 0 0 1 $T0 .raSearch = $eip $T0 ^ = $esp $T0 4 + = 
STACK WIN 4 2e4b1 a3 5 0 0 4 0 0 1 $T0 .raSearch = $eip $T0 ^ = $esp $T0 4 + =  $23 $T0 4 - ^ = 
STACK WIN 4 2e4b2 a1 4 0 0 8 0 0 1 $T0 .raSearch = $eip $T0 ^ = $esp $T0 4 + =  $23 $T0 4 - ^ =  $24 $T0 8 - ^ = 
STACK WIN 4 2e560 a1 6 0 0 0 0 0 1 $T0 .raSearch = $eip $T0 ^ = $esp $T0 4 + = 
STACK WIN 4 2e561 9f 5 0 0 4 0 0 1 $T0 .raSearch = $eip $T0 ^ = $esp $T0 4 + =  $23 $T0 4 - ^ = 
STACK WIN 4 2e562 9d 4 0 0 8 0 0 1 $T0 .raSearch = $eip $T0 ^ = $esp $T0 4 + =  $23 $T0 4 - ^ =  $24 $T0 8 - ^ = 
STACK WIN 4 2e610 b5 0 0 4 0 0 0 1 $T0 .raSearch = $eip $T0 ^ = $esp $T0 4 + = 
STACK WIN 4 2e6d0 a0 8 0 4 10 0 0 1 $T0 .raSearch = $eip $T0 ^ = $esp $T0 4 + =  $20 $T0 4 - ^ =  $22 $T0 8 - ^ =  $23 $T0 12 - ^ =  $24 $T0 16 - ^ = 
STACK WIN 4 2e770 41 3 0 0 8 4 0 1 $T0 .raSearch = $eip $T0 ^ = $esp $T0 4 + =  $23 $T0 8 - ^ =  $24 $T0 12 - ^ = 
STACK WIN 4 2e7c0 ce 9 0 8 10 4 0 1 $T0 .raSearch = $eip $T0 ^ = $esp $T0 4 + =  $20 $T0 8 - ^ =  $22 $T0 12 - ^ =  $23 $T0 16 - ^ =  $24 $T0 20 - ^ = 
STACK WIN 4 2e890 88 a 0 8 4 4 0 1 $T1 .raSearch = $T0  $T1 4 - 8 @ = $ebp $T1 4 - ^ = $eip $T1 ^ = $esp $T1 4 + = $23 $T0 8 - ^ = 
STACK WIN 4 2e920 6b 8 0 0 8 0 0 1 $T1 .raSearch = $T0  $T1 4 - 8 @ = $ebp $T1 4 - ^ = $eip $T1 ^ = $esp $T1 4 + = $23 $T0 4 - ^ =  $24 $T0 8 - ^ = 
STACK WIN 4 2e990 28 3 0 0 0 0 0 1 $T0 .raSearch = $eip $T0 ^ = $esp $T0 4 + = 
STACK WIN 4 2e991 23 2 0 0 4 0 0 1 $T0 .raSearch = $eip $T0 ^ = $esp $T0 4 + =  $23 $T0 4 - ^ = 
STACK WIN 4 2e9c0 41c 15 0 4 10 20 0 1 $T0 .raSearch = $eip $T0 ^ = $esp $T0 4 + =  $20 $T0 36 - ^ =  $22 $T0 40 - ^ =  $23 $T0 44 - ^ =  $24 $T0 48 - ^ = 
STACK WIN 4 2ede0 3b 3 0 0 0 0 0 1 $T0 .raSearch = $eip $T0 ^ = $esp $T0 4 + = 
STACK WIN 4 2ede1 39 2 0 0 4 0 0 1 $T0 .raSearch = $eip $T0 ^ = $esp $T0 4 + =  $23 $T0 4 - ^ = 
STACK WIN 4 2ee20 6b 4 0 0 0 0 0 1 $T0 .raSearch = $eip $T0 ^ = $esp $T0 4 + = 
STACK WIN 4 2ee22 67 2 0 0 4 4 0 1 $T0 .raSearch = $eip $T0 ^ = $esp $T0 4 + =  $22 $T0 8 - ^ = 
STACK WIN 4 2ee31 57 0 0 0 8 4 0 1 $T0 .raSearch = $eip $T0 ^ = $esp $T0 4 + =  $22 $T0 8 - ^ =  $20 $T0 12 - ^ = 
STACK WIN 4 2ee32 55 0 0 0 c 4 0 1 $T0 .raSearch = $eip $T0 ^ = $esp $T0 4 + =  $22 $T0 8 - ^ =  $20 $T0 12 - ^ =  $24 $T0 16 - ^ = 
STACK WIN 4 2ee43 43 0 0 0 10 4 0 1 $T0 .raSearch = $eip $T0 ^ = $esp $T0 4 + =  $22 $T0 8 - ^ =  $20 $T0 12 - ^ =  $24 $T0 16 - ^ =  $23 $T0 20 - ^ = 
STACK WIN 4 2ee90 5d 5 0 0 0 0 0 1 $T0 .raSearch = $eip $T0 ^ = $esp $T0 4 + = 
STACK WIN 4 2ee92 59 3 0 0 4 4 0 1 $T0 .raSearch = $eip $T0 ^ = $esp $T0 4 + =  $20 $T0 8 - ^ = 
STACK WIN 4 2ee93 57 2 0 0 8 4 0 1 $T0 .raSearch = $eip $T0 ^ = $esp $T0 4 + =  $20 $T0 8 - ^ =  $22 $T0 12 - ^ = 
STACK WIN 4 2ee96 53 0 0 0 c 4 0 1 $T0 .raSearch = $eip $T0 ^ = $esp $T0 4 + =  $20 $T0 8 - ^ =  $22 $T0 12 - ^ =  $24 $T0 16 - ^ = 
STACK WIN 4 2eeaa 3e 0 0 0 10 4 0 1 $T0 .raSearch = $eip $T0 ^ = $esp $T0 4 + =  $20 $T0 8 - ^ =  $22 $T0 12 - ^ =  $24 $T0 16 - ^ =  $23 $T0 20 - ^ = 
STACK WIN 4 2eef0 115 5 0 0 10 4 0 1 $T0 .raSearch = $eip $T0 ^ = $esp $T0 4 + =  $20 $T0 8 - ^ =  $22 $T0 12 - ^ =  $23 $T0 16 - ^ =  $24 $T0 20 - ^ = 
STACK WIN 4 2f010 a4 6 0 0 10 4 0 1 $T0 .raSearch = $eip $T0 ^ = $esp $T0 4 + =  $20 $T0 8 - ^ =  $22 $T0 12 - ^ =  $23 $T0 16 - ^ =  $24 $T0 20 - ^ = 
STACK WIN 4 2f0c0 443 9 0 0 10 1c 0 1 $T0 .raSearch = $eip $T0 ^ = $esp $T0 4 + =  $20 $T0 32 - ^ =  $22 $T0 36 - ^ =  $23 $T0 40 - ^ =  $24 $T0 44 - ^ = 
STACK WIN 4 2f510 28b a 0 0 10 1c 0 1 $T0 .raSearch = $eip $T0 ^ = $esp $T0 4 + =  $20 $T0 32 - ^ =  $22 $T0 36 - ^ =  $23 $T0 40 - ^ =  $24 $T0 44 - ^ = 
STACK WIN 4 2f7a0 d1 3 0 0 c 0 0 1 $T0 .raSearch = $eip $T0 ^ = $esp $T0 4 + =  $20 $T0 4 - ^ =  $23 $T0 8 - ^ =  $24 $T0 12 - ^ = 
STACK WIN 4 2f880 a3 3 0 0 c 0 0 1 $T0 .raSearch = $eip $T0 ^ = $esp $T0 4 + =  $20 $T0 4 - ^ =  $23 $T0 8 - ^ =  $24 $T0 12 - ^ = 
STACK WIN 4 2f930 be 4 0 0 8 4 0 1 $T0 .raSearch = $eip $T0 ^ = $esp $T0 4 + =  $23 $T0 8 - ^ =  $24 $T0 12 - ^ = 
STACK WIN 4 2f9f0 7b 3 0 0 0 0 0 1 $T0 .raSearch = $eip $T0 ^ = $esp $T0 4 + = 
STACK WIN 4 2f9f1 79 2 0 0 4 0 0 1 $T0 .raSearch = $eip $T0 ^ = $esp $T0 4 + =  $23 $T0 4 - ^ = 
STACK WIN 4 2fa70 bb 4 0 0 10 4 0 1 $T0 .raSearch = $eip $T0 ^ = $esp $T0 4 + =  $20 $T0 8 - ^ =  $22 $T0 12 - ^ =  $23 $T0 16 - ^ =  $24 $T0 20 - ^ = 
STACK WIN 4 2fb30 42 4 0 c 4 4 0 1 $T0 .raSearch = $eip $T0 ^ = $esp $T0 4 + =  $23 $T0 8 - ^ = 
STACK WIN 4 2fb80 6ea 11 0 0 10 20 0 1 $T1 .raSearch = $T0  $T1 4 - 8 @ = $ebp $T1 4 - ^ = $eip $T1 ^ = $esp $T1 4 + = $20 $T0 36 - ^ =  $23 $T0 44 - ^ =  $24 $T0 48 - ^ = 
STACK WIN 4 30270 1ed 13 0 0 10 1c 0 1 $T0 .raSearch = $eip $T0 ^ = $esp $T0 4 + =  $20 $T0 32 - ^ =  $22 $T0 36 - ^ =  $23 $T0 40 - ^ =  $24 $T0 44 - ^ = 
STACK WIN 4 30460 5e 1 0 0 4 0 0 1 $T0 .raSearch = $eip $T0 ^ = $esp $T0 4 + =  $23 $T0 4 - ^ = 
STACK WIN 4 304c0 2ee 6 0 0 10 4 0 1 $T0 .raSearch = $eip $T0 ^ = $esp $T0 4 + =  $20 $T0 8 - ^ =  $22 $T0 12 - ^ =  $23 $T0 16 - ^ =  $24 $T0 20 - ^ = 
STACK WIN 4 307b0 84 3 0 0 c 0 0 1 $T0 .raSearch = $eip $T0 ^ = $esp $T0 4 + =  $20 $T0 4 - ^ =  $23 $T0 8 - ^ =  $24 $T0 12 - ^ = 
STACK WIN 4 30840 e1 4 0 0 c 0 0 1 $T0 .raSearch = $eip $T0 ^ = $esp $T0 4 + =  $20 $T0 4 - ^ =  $23 $T0 8 - ^ =  $24 $T0 12 - ^ = 
STACK WIN 4 30930 2c 4 0 0 8 4 0 1 $T0 .raSearch = $eip $T0 ^ = $esp $T0 4 + =  $23 $T0 8 - ^ =  $24 $T0 12 - ^ = 
STACK WIN 4 30960 a2 6 0 8 0 0 0 1 $T0 .raSearch = $eip $T0 ^ = $esp $T0 4 + = 
STACK WIN 4 30961 a0 5 0 8 4 0 0 1 $T0 .raSearch = $eip $T0 ^ = $esp $T0 4 + =  $20 $T0 4 - ^ = 
STACK WIN 4 30964 9c 2 0 8 8 0 0 1 $T0 .raSearch = $eip $T0 ^ = $esp $T0 4 + =  $20 $T0 4 - ^ =  $24 $T0 8 - ^ = 
STACK WIN 4 30970 8f 0 0 8 c 0 0 1 $T0 .raSearch = $eip $T0 ^ = $esp $T0 4 + =  $20 $T0 4 - ^ =  $24 $T0 8 - ^ =  $22 $T0 12 - ^ = 
STACK WIN 4 30975 89 0 0 8 10 0 0 1 $T0 .raSearch = $eip $T0 ^ = $esp $T0 4 + =  $20 $T0 4 - ^ =  $24 $T0 8 - ^ =  $22 $T0 12 - ^ =  $23 $T0 16 - ^ = 
STACK WIN 4 30a10 25a 8 0 0 10 4 0 1 $T0 .raSearch = $eip $T0 ^ = $esp $T0 4 + =  $20 $T0 8 - ^ =  $22 $T0 12 - ^ =  $23 $T0 16 - ^ =  $24 $T0 20 - ^ = 
STACK WIN 4 30c70 93 4 0 0 8 4 0 1 $T0 .raSearch = $eip $T0 ^ = $esp $T0 4 + =  $23 $T0 8 - ^ =  $24 $T0 12 - ^ = 
STACK WIN 4 30d10 64 c 0 0 4 8 0 1 $T0 .raSearch = $eip $T0 ^ = $esp $T0 4 + =  $23 $T0 12 - ^ = 
STACK WIN 4 30d80 42 4 0 0 8 4 0 1 $T0 .raSearch = $eip $T0 ^ = $esp $T0 4 + =  $23 $T0 8 - ^ =  $24 $T0 12 - ^ = 
STACK WIN 4 30dd0 15a 2 0 4 c 0 0 1 $T0 .raSearch = $eip $T0 ^ = $esp $T0 4 + =  $20 $T0 4 - ^ =  $23 $T0 8 - ^ =  $24 $T0 12 - ^ = 
STACK WIN 4 30f30 16 0 0 0 0 0 0 1 $T0 .raSearch = $eip $T0 ^ = $esp $T0 4 + = 
STACK WIN 4 30f50 f4 b 0 4 10 10 0 1 $T0 .raSearch = $eip $T0 ^ = $esp $T0 4 + =  $20 $T0 20 - ^ =  $22 $T0 24 - ^ =  $23 $T0 28 - ^ =  $24 $T0 32 - ^ = 
STACK WIN 4 31050 1c8 7 0 4 c 4 0 1 $T0 .raSearch = $eip $T0 ^ = $esp $T0 4 + =  $20 $T0 8 - ^ =  $23 $T0 12 - ^ =  $24 $T0 16 - ^ = 
STACK WIN 4 31220 75 4 0 8 8 4 0 1 $T0 .raSearch = $eip $T0 ^ = $esp $T0 4 + =  $23 $T0 8 - ^ =  $24 $T0 12 - ^ = 
STACK WIN 4 312a0 13c d 0 8 c 1c 0 1 $T1 .raSearch = $T0  $T1 4 - 8 @ = $ebp $T1 4 - ^ = $eip $T1 ^ = $esp $T1 4 + = $20 $T0 32 - ^ =  $23 $T0 36 - ^ =  $24 $T0 40 - ^ = 
STACK WIN 4 313e0 18b 12 0 8 c 54 0 1 $T1 .raSearch = $T0  $T1 4 - 8 @ = $ebp $T1 4 - ^ = $eip $T1 ^ = $esp $T1 4 + = $20 $T0 88 - ^ =  $23 $T0 92 - ^ =  $24 $T0 96 - ^ = 
STACK WIN 4 31570 1a 0 0 0 0 0 0 1 $T0 .raSearch = $eip $T0 ^ = $esp $T0 4 + = 
STACK WIN 4 31590 f1 7 0 0 0 0 0 1 $T0 .raSearch = $eip $T0 ^ = $esp $T0 4 + = 
STACK WIN 4 31591 ef 6 0 0 4 0 0 1 $T0 .raSearch = $eip $T0 ^ = $esp $T0 4 + =  $20 $T0 4 - ^ = 
STACK WIN 4 31595 ea 2 0 0 8 0 0 1 $T0 .raSearch = $eip $T0 ^ = $esp $T0 4 + =  $20 $T0 4 - ^ =  $22 $T0 8 - ^ = 
STACK WIN 4 3159c e2 0 0 0 c 0 0 1 $T0 .raSearch = $eip $T0 ^ = $esp $T0 4 + =  $20 $T0 4 - ^ =  $22 $T0 8 - ^ =  $23 $T0 12 - ^ = 
STACK WIN 4 3159f de 0 0 0 10 0 0 1 $T0 .raSearch = $eip $T0 ^ = $esp $T0 4 + =  $20 $T0 4 - ^ =  $22 $T0 8 - ^ =  $23 $T0 12 - ^ =  $24 $T0 16 - ^ = 
STACK WIN 4 31690 98 16 0 8 4 10 0 1 $T0 .raSearch = $eip $T0 ^ = $esp $T0 4 + =  $23 $T0 20 - ^ = 
STACK WIN 4 31730 135 e 0 4 c 4 0 1 $T1 .raSearch = $T0  $T1 4 - 8 @ = $ebp $T1 4 - ^ = $eip $T1 ^ = $esp $T1 4 + = $20 $T0 8 - ^ =  $23 $T0 12 - ^ =  $24 $T0 16 - ^ = 
STACK WIN 4 31870 160 3 0 0 c 0 0 1 $T0 .raSearch = $eip $T0 ^ = $esp $T0 4 + =  $20 $T0 4 - ^ =  $23 $T0 8 - ^ =  $24 $T0 12 - ^ = 
STACK WIN 4 319d0 60b 20 0 8 c 5c 0 1 $T1 .raSearch = $T0  $T1 4 - 8 @ = $ebp $T1 4 - ^ = $eip $T1 ^ = $esp $T1 4 + = $20 $T0 96 - ^ =  $23 $T0 100 - ^ =  $24 $T0 104 - ^ = 
STACK WIN 4 31fe0 17 0 0 c 0 0 0 1 $T0 .raSearch = $eip $T0 ^ = $esp $T0 4 + = 
STACK WIN 4 32000 22c 13 0 c c c 0 1 $T1 .raSearch = $T0  $T1 4 - 8 @ = $ebp $T1 4 - ^ = $eip $T1 ^ = $esp $T1 4 + = $20 $T0 16 - ^ =  $23 $T0 20 - ^ =  $24 $T0 24 - ^ = 
STACK WIN 4 32230 15e 15 0 c c c 0 1 $T1 .raSearch = $T0  $T1 4 - 8 @ = $ebp $T1 4 - ^ = $eip $T1 ^ = $esp $T1 4 + = $20 $T0 16 - ^ =  $23 $T0 20 - ^ =  $24 $T0 24 - ^ = 
STACK WIN 4 32390 52 1 0 0 0 0 0 1 $T0 .raSearch = $eip $T0 ^ = $esp $T0 4 + = 
STACK WIN 4 32391 50 0 0 0 4 0 0 1 $T0 .raSearch = $eip $T0 ^ = $esp $T0 4 + =  $23 $T0 4 - ^ = 
STACK WIN 4 323f0 152 a 0 4 10 58 0 1 $T0 .raSearch = $eip $T0 ^ = $esp $T0 4 + =  $20 $T0 92 - ^ =  $22 $T0 96 - ^ =  $23 $T0 100 - ^ =  $24 $T0 104 - ^ = 
STACK WIN 4 32550 102 b 0 8 c 30 0 1 $T0 .raSearch = $eip $T0 ^ = $esp $T0 4 + =  $20 $T0 52 - ^ =  $23 $T0 56 - ^ =  $24 $T0 60 - ^ = 
STACK WIN 4 32660 1f 0 0 0 0 0 0 1 $T0 .raSearch = $eip $T0 ^ = $esp $T0 4 + = 
STACK WIN 4 32680 84 a 0 4 c 4 0 1 $T1 .raSearch = $T0  $T1 4 - 8 @ = $ebp $T1 4 - ^ = $eip $T1 ^ = $esp $T1 4 + = $20 $T0 8 - ^ =  $23 $T0 12 - ^ =  $24 $T0 16 - ^ = 
STACK WIN 4 32710 28 3 0 0 0 0 0 1 $T0 .raSearch = $eip $T0 ^ = $esp $T0 4 + = 
STACK WIN 4 32711 26 2 0 0 4 0 0 1 $T0 .raSearch = $eip $T0 ^ = $esp $T0 4 + =  $23 $T0 4 - ^ = 
STACK WIN 4 32740 cf 9 0 0 10 4 0 1 $T0 .raSearch = $eip $T0 ^ = $esp $T0 4 + =  $20 $T0 8 - ^ =  $22 $T0 12 - ^ =  $23 $T0 16 - ^ =  $24 $T0 20 - ^ = 
STACK WIN 4 32810 1a 0 0 4 0 0 0 1 $T0 .raSearch = $eip $T0 ^ = $esp $T0 4 + = 
STACK WIN 4 32830 d3 d 0 0 8 18 0 1 $T1 .raSearch = $T0  $T1 4 - 8 @ = $ebp $T1 4 - ^ = $eip $T1 ^ = $esp $T1 4 + = $23 $T0 28 - ^ =  $24 $T0 32 - ^ = 
STACK WIN 4 32910 d4 8 0 4 c 4 0 1 $T0 .raSearch = $eip $T0 ^ = $esp $T0 4 + =  $20 $T0 8 - ^ =  $23 $T0 12 - ^ =  $24 $T0 16 - ^ = 
STACK WIN 4 329f0 c1 8 0 4 c 4 0 1 $T0 .raSearch = $eip $T0 ^ = $esp $T0 4 + =  $20 $T0 8 - ^ =  $23 $T0 12 - ^ =  $24 $T0 16 - ^ = 
STACK WIN 4 32ac0 97 2 0 4 0 0 0 1 $T0 .raSearch = $eip $T0 ^ = $esp $T0 4 + = 
STACK WIN 4 32ac1 95 1 0 4 4 0 0 1 $T0 .raSearch = $eip $T0 ^ = $esp $T0 4 + =  $22 $T0 4 - ^ = 
STACK WIN 4 32ac2 91 0 0 4 8 0 0 1 $T0 .raSearch = $eip $T0 ^ = $esp $T0 4 + =  $22 $T0 4 - ^ =  $23 $T0 8 - ^ = 
STACK WIN 4 32ade 4d 0 0 4 c 0 0 1 $T0 .raSearch = $eip $T0 ^ = $esp $T0 4 + =  $22 $T0 4 - ^ =  $23 $T0 8 - ^ =  $20 $T0 12 - ^ = 
STACK WIN 4 32ae9 3b 0 0 4 10 0 0 1 $T0 .raSearch = $eip $T0 ^ = $esp $T0 4 + =  $22 $T0 4 - ^ =  $23 $T0 8 - ^ =  $20 $T0 12 - ^ =  $24 $T0 16 - ^ = 
STACK WIN 4 32b60 5d 2 0 4 4 4 0 1 $T0 .raSearch = $eip $T0 ^ = $esp $T0 4 + =  $23 $T0 8 - ^ = 
STACK WIN 4 32bc0 35 0 0 4 0 0 0 1 $T0 .raSearch = $eip $T0 ^ = $esp $T0 4 + = 
STACK WIN 4 32c00 35 0 0 4 0 0 0 1 $T0 .raSearch = $eip $T0 ^ = $esp $T0 4 + = 
STACK WIN 4 32c40 73 c 0 4 0 8 0 1 $T1 .raSearch = $T0  $T1 4 - 8 @ = $ebp $T1 4 - ^ = $eip $T1 ^ = $esp $T1 4 + =
STACK WIN 4 32cc0 9 0 0 4 0 0 0 1 $T0 .raSearch = $eip $T0 ^ = $esp $T0 4 + = 
STACK WIN 4 32cd0 13 0 0 4 0 0 0 1 $T0 .raSearch = $eip $T0 ^ = $esp $T0 4 + = 
STACK WIN 4 32cf0 33 0 0 4 0 0 0 1 $T0 .raSearch = $eip $T0 ^ = $esp $T0 4 + = 
STACK WIN 4 32d30 33 0 0 4 0 0 0 1 $T0 .raSearch = $eip $T0 ^ = $esp $T0 4 + = 
STACK WIN 4 32d70 33 0 0 4 0 0 0 1 $T0 .raSearch = $eip $T0 ^ = $esp $T0 4 + = 
STACK WIN 4 32db0 13 0 0 4 0 0 0 1 $T0 .raSearch = $eip $T0 ^ = $esp $T0 4 + = 
STACK WIN 4 32dd0 94 8 0 4 8 0 0 1 $T1 .raSearch = $T0  $T1 4 - 8 @ = $ebp $T1 4 - ^ = $eip $T1 ^ = $esp $T1 4 + = $23 $T0 4 - ^ =  $24 $T0 8 - ^ = 
STACK WIN 4 32e70 9 0 0 4 0 0 0 1 $T0 .raSearch = $eip $T0 ^ = $esp $T0 4 + = 
STACK WIN 4 32e80 40 5 0 10 4 0 0 1 $T0 .raSearch = $eip $T0 ^ = $esp $T0 4 + =  $23 $T0 4 - ^ = 
STACK WIN 4 32ec0 7e 7 0 14 4 4 0 1 $T0 .raSearch = $eip $T0 ^ = $esp $T0 4 + =  $23 $T0 8 - ^ = 
STACK WIN 4 32f40 67 d 0 c 4 14 0 1 $T1 .raSearch = $T0  $T1 4 - 8 @ = $ebp $T1 4 - ^ = $eip $T1 ^ = $esp $T1 4 + = $23 $T0 24 - ^ = 
STACK WIN 4 32fb0 26 0 0 c 0 0 0 1 $T0 .raSearch = $eip $T0 ^ = $esp $T0 4 + = 
STACK WIN 4 32fe0 26 0 0 c 0 0 0 1 $T0 .raSearch = $eip $T0 ^ = $esp $T0 4 + = 
STACK WIN 4 33010 3e e 0 8 4 4 0 1 $T1 .raSearch = $T0  $T1 4 - 8 @ = $ebp $T1 4 - ^ = $eip $T1 ^ = $esp $T1 4 + = $23 $T0 8 - ^ = 
STACK WIN 4 33050 40 6 0 c 0 0 0 1 $T1 .raSearch = $T0  $T1 4 - 8 @ = $ebp $T1 4 - ^ = $eip $T1 ^ = $esp $T1 4 + =
STACK WIN 4 33090 22 0 0 4 0 0 0 1 $T0 .raSearch = $eip $T0 ^ = $esp $T0 4 + = 
STACK WIN 4 330c0 17 0 0 8 0 0 0 1 $T0 .raSearch = $eip $T0 ^ = $esp $T0 4 + = 
STACK WIN 4 330e0 40 5 0 10 4 0 0 1 $T0 .raSearch = $eip $T0 ^ = $esp $T0 4 + =  $23 $T0 4 - ^ = 
STACK WIN 4 33120 8d 18 0 18 4 0 0 1 $T0 .raSearch = $eip $T0 ^ = $esp $T0 4 + =  $23 $T0 4 - ^ = 
STACK WIN 4 331b0 40 5 0 10 0 0 0 1 $T0 .raSearch = $eip $T0 ^ = $esp $T0 4 + = 
STACK WIN 4 331b5 3a 0 0 10 4 0 0 1 $T0 .raSearch = $eip $T0 ^ = $esp $T0 4 + =  $23 $T0 4 - ^ = 
STACK WIN 4 331f0 40 5 0 10 0 0 0 1 $T0 .raSearch = $eip $T0 ^ = $esp $T0 4 + = 
STACK WIN 4 331f5 3a 0 0 10 4 0 0 1 $T0 .raSearch = $eip $T0 ^ = $esp $T0 4 + =  $23 $T0 4 - ^ = 
STACK WIN 4 33230 12 1 0 8 0 4 0 1 $T0 .raSearch = $eip $T0 ^ = $esp $T0 4 + = 
STACK WIN 4 33250 49 5 0 8 0 0 0 1 $T0 .raSearch = $eip $T0 ^ = $esp $T0 4 + = 
STACK WIN 4 33255 43 0 0 8 4 0 0 1 $T0 .raSearch = $eip $T0 ^ = $esp $T0 4 + =  $23 $T0 4 - ^ = 
STACK WIN 4 332a0 62 6 0 c 8 0 0 1 $T0 .raSearch = $eip $T0 ^ = $esp $T0 4 + =  $23 $T0 4 - ^ =  $24 $T0 8 - ^ = 
STACK WIN 4 33310 63 9 0 8 4 0 0 1 $T0 .raSearch = $eip $T0 ^ = $esp $T0 4 + =  $23 $T0 4 - ^ = 
STACK WIN 4 33380 25 0 0 4 0 0 0 1 $T0 .raSearch = $eip $T0 ^ = $esp $T0 4 + = 
STACK WIN 4 333b0 61 2 0 4 4 4 0 1 $T0 .raSearch = $eip $T0 ^ = $esp $T0 4 + =  $23 $T0 8 - ^ = 
STACK WIN 4 33420 c8 7 0 0 0 0 0 1 $T0 .raSearch = $eip $T0 ^ = $esp $T0 4 + = 
STACK WIN 4 33424 c0 3 0 0 4 8 0 1 $T0 .raSearch = $eip $T0 ^ = $esp $T0 4 + =  $22 $T0 12 - ^ = 
STACK WIN 4 33425 be 2 0 0 8 8 0 1 $T0 .raSearch = $eip $T0 ^ = $esp $T0 4 + =  $22 $T0 12 - ^ =  $24 $T0 16 - ^ = 
STACK WIN 4 33439 a9 0 0 0 c 8 0 1 $T0 .raSearch = $eip $T0 ^ = $esp $T0 4 + =  $22 $T0 12 - ^ =  $24 $T0 16 - ^ =  $20 $T0 20 - ^ = 
STACK WIN 4 3343a a7 0 0 0 10 8 0 1 $T0 .raSearch = $eip $T0 ^ = $esp $T0 4 + =  $22 $T0 12 - ^ =  $24 $T0 16 - ^ =  $20 $T0 20 - ^ =  $23 $T0 24 - ^ = 
STACK WIN 4 334f0 175 4 0 0 c 0 0 1 $T0 .raSearch = $eip $T0 ^ = $esp $T0 4 + =  $20 $T0 4 - ^ =  $23 $T0 8 - ^ =  $24 $T0 12 - ^ = 
STACK WIN 4 33670 1fa 1f 0 4 c c 0 1 $T1 .raSearch = $T0  $T1 4 - 8 @ = $ebp $T1 4 - ^ = $eip $T1 ^ = $esp $T1 4 + = $20 $T0 16 - ^ =  $23 $T0 20 - ^ =  $24 $T0 24 - ^ = 
STACK WIN 4 33870 b 0 0 4 0 0 0 1 $T0 .raSearch = $eip $T0 ^ = $esp $T0 4 + = 
STACK WIN 4 33880 a 0 0 4 0 0 0 1 $T0 .raSearch = $eip $T0 ^ = $esp $T0 4 + = 
STACK WIN 4 33890 74 4 0 0 0 0 0 1 $T0 .raSearch = $eip $T0 ^ = $esp $T0 4 + = 
STACK WIN 4 33894 6c 0 0 0 4 8 0 1 $T0 .raSearch = $eip $T0 ^ = $esp $T0 4 + =  $23 $T0 12 - ^ = 
STACK WIN 4 338a4 47 0 0 0 8 8 0 1 $T0 .raSearch = $eip $T0 ^ = $esp $T0 4 + =  $23 $T0 12 - ^ =  $24 $T0 16 - ^ = 
STACK WIN 4 33910 41 2 0 c 8 0 0 1 $T0 .raSearch = $eip $T0 ^ = $esp $T0 4 + =  $23 $T0 4 - ^ =  $24 $T0 8 - ^ = 
STACK WIN 4 33960 8b 4 0 0 c 0 0 1 $T0 .raSearch = $eip $T0 ^ = $esp $T0 4 + =  $20 $T0 4 - ^ =  $23 $T0 8 - ^ =  $24 $T0 12 - ^ = 
STACK WIN 4 339f0 23 1 0 8 0 4 0 1 $T0 .raSearch = $eip $T0 ^ = $esp $T0 4 + = 
STACK WIN 4 33a20 2f 0 0 8 0 0 0 1 $T0 .raSearch = $eip $T0 ^ = $esp $T0 4 + = 
STACK WIN 4 33a50 e3 d 0 10 c 4 0 1 $T1 .raSearch = $T0  $T1 4 - 8 @ = $ebp $T1 4 - ^ = $eip $T1 ^ = $esp $T1 4 + = $20 $T0 8 - ^ =  $23 $T0 12 - ^ =  $24 $T0 16 - ^ = 
STACK WIN 4 33b40 b 0 0 4 0 0 0 1 $T0 .raSearch = $eip $T0 ^ = $esp $T0 4 + = 
STACK WIN 4 33b50 13 0 0 4 0 0 0 1 $T0 .raSearch = $eip $T0 ^ = $esp $T0 4 + = 
STACK WIN 4 33b70 19 0 0 4 0 0 0 1 $T0 .raSearch = $eip $T0 ^ = $esp $T0 4 + = 
STACK WIN 4 33b90 f4 3 0 8 8 4 0 1 $T0 .raSearch = $eip $T0 ^ = $esp $T0 4 + =  $23 $T0 8 - ^ =  $24 $T0 12 - ^ = 
STACK WIN 4 33c90 cd 3 0 8 8 4 0 1 $T0 .raSearch = $eip $T0 ^ = $esp $T0 4 + =  $23 $T0 8 - ^ =  $24 $T0 12 - ^ = 
STACK WIN 4 33d60 cb 2 0 8 0 0 0 1 $T0 .raSearch = $eip $T0 ^ = $esp $T0 4 + = 
STACK WIN 4 33d61 c9 1 0 8 4 0 0 1 $T0 .raSearch = $eip $T0 ^ = $esp $T0 4 + =  $23 $T0 4 - ^ = 
STACK WIN 4 33d62 c5 0 0 8 8 0 0 1 $T0 .raSearch = $eip $T0 ^ = $esp $T0 4 + =  $23 $T0 4 - ^ =  $24 $T0 8 - ^ = 
STACK WIN 4 33e30 ed a 0 8 4 c 0 1 $T1 .raSearch = $T0  $T1 4 - 8 @ = $ebp $T1 4 - ^ = $eip $T1 ^ = $esp $T1 4 + = $23 $T0 16 - ^ = 
STACK WIN 4 33f20 9e 7 0 8 8 4 0 1 $T0 .raSearch = $eip $T0 ^ = $esp $T0 4 + =  $23 $T0 8 - ^ =  $24 $T0 12 - ^ = 
STACK WIN 4 33fc0 aa d 0 8 c 4 0 1 $T1 .raSearch = $T0  $T1 4 - 8 @ = $ebp $T1 4 - ^ = $eip $T1 ^ = $esp $T1 4 + = $20 $T0 8 - ^ =  $23 $T0 12 - ^ =  $24 $T0 16 - ^ = 
STACK WIN 4 34070 d3 7 0 8 8 4 0 1 $T0 .raSearch = $eip $T0 ^ = $esp $T0 4 + =  $23 $T0 8 - ^ =  $24 $T0 12 - ^ = 
STACK WIN 4 34150 b0 7 0 8 8 4 0 1 $T0 .raSearch = $eip $T0 ^ = $esp $T0 4 + =  $23 $T0 8 - ^ =  $24 $T0 12 - ^ = 
STACK WIN 4 34200 d1 6 0 8 0 0 0 1 $T0 .raSearch = $eip $T0 ^ = $esp $T0 4 + = 
STACK WIN 4 34201 cf 5 0 8 4 0 0 1 $T0 .raSearch = $eip $T0 ^ = $esp $T0 4 + =  $23 $T0 4 - ^ = 
STACK WIN 4 34206 c9 0 0 8 8 0 0 1 $T0 .raSearch = $eip $T0 ^ = $esp $T0 4 + =  $23 $T0 4 - ^ =  $24 $T0 8 - ^ = 
STACK WIN 4 342e0 a5 7 0 8 8 4 0 1 $T0 .raSearch = $eip $T0 ^ = $esp $T0 4 + =  $23 $T0 8 - ^ =  $24 $T0 12 - ^ = 
STACK WIN 4 34390 85 3 0 8 0 0 0 1 $T0 .raSearch = $eip $T0 ^ = $esp $T0 4 + = 
STACK WIN 4 34391 83 2 0 8 4 0 0 1 $T0 .raSearch = $eip $T0 ^ = $esp $T0 4 + =  $20 $T0 4 - ^ = 
STACK WIN 4 34394 7d 0 0 8 8 0 0 1 $T0 .raSearch = $eip $T0 ^ = $esp $T0 4 + =  $20 $T0 4 - ^ =  $23 $T0 8 - ^ = 
STACK WIN 4 34395 7b 0 0 8 c 0 0 1 $T0 .raSearch = $eip $T0 ^ = $esp $T0 4 + =  $20 $T0 4 - ^ =  $23 $T0 8 - ^ =  $24 $T0 12 - ^ = 
STACK WIN 4 34420 18 0 0 8 0 0 0 1 $T0 .raSearch = $eip $T0 ^ = $esp $T0 4 + = 
STACK WIN 4 34440 18 0 0 8 0 0 0 1 $T0 .raSearch = $eip $T0 ^ = $esp $T0 4 + = 
STACK WIN 4 34460 18 0 0 8 0 0 0 1 $T0 .raSearch = $eip $T0 ^ = $esp $T0 4 + = 
STACK WIN 4 34480 18 0 0 8 0 0 0 1 $T0 .raSearch = $eip $T0 ^ = $esp $T0 4 + = 
STACK WIN 4 344a0 192 7 0 0 10 4 0 1 $T0 .raSearch = $eip $T0 ^ = $esp $T0 4 + =  $20 $T0 8 - ^ =  $22 $T0 12 - ^ =  $23 $T0 16 - ^ =  $24 $T0 20 - ^ = 
STACK WIN 4 34640 db 7 0 10 c 0 0 1 $T0 .raSearch = $eip $T0 ^ = $esp $T0 4 + =  $20 $T0 4 - ^ =  $23 $T0 8 - ^ =  $24 $T0 12 - ^ = 
STACK WIN 4 34720 1f 0 0 14 0 0 0 1 $T0 .raSearch = $eip $T0 ^ = $esp $T0 4 + = 
STACK WIN 4 34740 4a 0 0 18 0 0 0 1 $T0 .raSearch = $eip $T0 ^ = $esp $T0 4 + = 
STACK WIN 4 34790 9b 11 0 10 c 14 0 1 $T1 .raSearch = $T0  $T1 4 - 8 @ = $ebp $T1 4 - ^ = $eip $T1 ^ = $esp $T1 4 + = $20 $T0 24 - ^ =  $23 $T0 28 - ^ =  $24 $T0 32 - ^ = 
STACK WIN 4 34830 1e 6 0 c 0 0 0 1 $T1 .raSearch = $T0  $T1 4 - 8 @ = $ebp $T1 4 - ^ = $eip $T1 ^ = $esp $T1 4 + =
STACK WIN 4 34850 76 f 0 10 c 4 0 1 $T1 .raSearch = $T0  $T1 4 - 8 @ = $ebp $T1 4 - ^ = $eip $T1 ^ = $esp $T1 4 + = $20 $T0 8 - ^ =  $23 $T0 12 - ^ =  $24 $T0 16 - ^ = 
STACK WIN 4 348d0 31 7 0 8 8 4 0 1 $T0 .raSearch = $eip $T0 ^ = $esp $T0 4 + =  $23 $T0 8 - ^ =  $24 $T0 12 - ^ = 
STACK WIN 4 34910 1f 0 0 14 0 0 0 1 $T0 .raSearch = $eip $T0 ^ = $esp $T0 4 + = 
STACK WIN 4 34930 60 0 0 1c 0 0 0 1 $T0 .raSearch = $eip $T0 ^ = $esp $T0 4 + = 
STACK WIN 4 34990 1f 0 0 14 0 0 0 1 $T0 .raSearch = $eip $T0 ^ = $esp $T0 4 + = 
STACK WIN 4 349b0 ec 17 0 c 8 38 0 1 $T1 .raSearch = $T0  $T1 4 - 64 @ = $ebp $T1 4 - ^ = $eip $T1 ^ = $esp $T1 4 + = $23 $T0 60 - ^ =  $24 $T0 64 - ^ = 
STACK WIN 4 34aa0 7f a 0 c c 4 0 1 $T0 .raSearch = $eip $T0 ^ = $esp $T0 4 + =  $20 $T0 8 - ^ =  $23 $T0 12 - ^ =  $24 $T0 16 - ^ = 
STACK WIN 4 34b20 7a 2 0 10 0 0 0 1 $T0 .raSearch = $eip $T0 ^ = $esp $T0 4 + = 
STACK WIN 4 34b21 78 1 0 10 4 0 0 1 $T0 .raSearch = $eip $T0 ^ = $esp $T0 4 + =  $23 $T0 4 - ^ = 
STACK WIN 4 34b22 74 0 0 10 8 0 0 1 $T0 .raSearch = $eip $T0 ^ = $esp $T0 4 + =  $23 $T0 4 - ^ =  $24 $T0 8 - ^ = 
STACK WIN 4 34ba0 10 0 0 4 0 0 0 1 $T0 .raSearch = $eip $T0 ^ = $esp $T0 4 + = 
STACK WIN 4 34bb0 24 0 0 8 0 0 0 1 $T0 .raSearch = $eip $T0 ^ = $esp $T0 4 + = 
STACK WIN 4 34be0 62 4 0 4 0 0 0 1 $T0 .raSearch = $eip $T0 ^ = $esp $T0 4 + = 
STACK WIN 4 34be2 5e 2 0 4 4 4 0 1 $T0 .raSearch = $eip $T0 ^ = $esp $T0 4 + =  $20 $T0 8 - ^ = 
STACK WIN 4 34bf2 4d 0 0 4 8 4 0 1 $T0 .raSearch = $eip $T0 ^ = $esp $T0 4 + =  $20 $T0 8 - ^ =  $22 $T0 12 - ^ = 
STACK WIN 4 34bf3 4b 0 0 4 c 4 0 1 $T0 .raSearch = $eip $T0 ^ = $esp $T0 4 + =  $20 $T0 8 - ^ =  $22 $T0 12 - ^ =  $23 $T0 16 - ^ = 
STACK WIN 4 34bf4 46 0 0 4 10 4 0 1 $T0 .raSearch = $eip $T0 ^ = $esp $T0 4 + =  $20 $T0 8 - ^ =  $22 $T0 12 - ^ =  $23 $T0 16 - ^ =  $24 $T0 20 - ^ = 
STACK WIN 4 34c50 3d 0 0 8 0 0 0 1 $T0 .raSearch = $eip $T0 ^ = $esp $T0 4 + = 
STACK WIN 4 34c6b 18 0 0 8 4 0 0 1 $T0 .raSearch = $eip $T0 ^ = $esp $T0 4 + =  $23 $T0 4 - ^ = 
STACK WIN 4 34c90 bf d 0 0 10 c 0 1 $T0 .raSearch = $eip $T0 ^ = $esp $T0 4 + =  $20 $T0 16 - ^ =  $22 $T0 20 - ^ =  $23 $T0 24 - ^ =  $24 $T0 28 - ^ = 
STACK WIN 4 34d50 5b 0 0 8 0 0 0 1 $T0 .raSearch = $eip $T0 ^ = $esp $T0 4 + = 
STACK WIN 4 34db0 e 0 0 4 0 0 0 1 $T0 .raSearch = $eip $T0 ^ = $esp $T0 4 + = 
STACK WIN 4 34dc0 1b 0 0 4 0 0 0 1 $T0 .raSearch = $eip $T0 ^ = $esp $T0 4 + = 
STACK WIN 4 34de0 20 0 0 4 0 0 0 1 $T0 .raSearch = $eip $T0 ^ = $esp $T0 4 + = 
STACK WIN 4 34e00 3d 2 0 8 0 0 0 1 $T0 .raSearch = $eip $T0 ^ = $esp $T0 4 + = 
STACK WIN 4 34e01 3b 1 0 8 4 0 0 1 $T0 .raSearch = $eip $T0 ^ = $esp $T0 4 + =  $23 $T0 4 - ^ = 
STACK WIN 4 34e02 37 0 0 8 8 0 0 1 $T0 .raSearch = $eip $T0 ^ = $esp $T0 4 + =  $23 $T0 4 - ^ =  $24 $T0 8 - ^ = 
STACK WIN 4 34e40 23 0 0 c 0 0 0 1 $T0 .raSearch = $eip $T0 ^ = $esp $T0 4 + = 
STACK WIN 4 34e70 12 0 0 4 0 0 0 1 $T0 .raSearch = $eip $T0 ^ = $esp $T0 4 + = 
STACK WIN 4 34e90 53 1 0 4 0 0 0 1 $T0 .raSearch = $eip $T0 ^ = $esp $T0 4 + = 
STACK WIN 4 34e91 51 0 0 4 4 0 0 1 $T0 .raSearch = $eip $T0 ^ = $esp $T0 4 + =  $23 $T0 4 - ^ = 
STACK WIN 4 34e9a 41 0 0 4 8 0 0 1 $T0 .raSearch = $eip $T0 ^ = $esp $T0 4 + =  $23 $T0 4 - ^ =  $24 $T0 8 - ^ = 
STACK WIN 4 34ef0 4a9 2b 0 0 8 e8 0 1 $T1 .raSearch = $T0  $T1 4 - 16 @ = $ebp $T1 4 - ^ = $eip $T1 ^ = $esp $T1 4 + = $23 $T0 236 - ^ =  $24 $T0 240 - ^ = 
STACK WIN 4 353a0 e3 3 0 c 10 0 0 1 $T0 .raSearch = $eip $T0 ^ = $esp $T0 4 + =  $20 $T0 4 - ^ =  $22 $T0 8 - ^ =  $23 $T0 12 - ^ =  $24 $T0 16 - ^ = 
STACK WIN 4 35490 82 d 0 0 8 10 0 1 $T1 .raSearch = $T0  $T1 4 - 8 @ = $ebp $T1 4 - ^ = $eip $T1 ^ = $esp $T1 4 + = $20 $T0 20 - ^ =  $23 $T0 24 - ^ = 
STACK WIN 4 35520 59 4 0 4 4 4 0 1 $T0 .raSearch = $eip $T0 ^ = $esp $T0 4 + =  $23 $T0 8 - ^ = 
STACK WIN 4 35580 a2 a 0 4 4 14 0 1 $T1 .raSearch = $T0  $T1 4 - 8 @ = $ebp $T1 4 - ^ = $eip $T1 ^ = $esp $T1 4 + = $23 $T0 24 - ^ = 
STACK WIN 4 35630 43 3 0 0 4 0 0 1 $T0 .raSearch = $eip $T0 ^ = $esp $T0 4 + =  $23 $T0 4 - ^ = 
STACK WIN 4 35680 36 3 0 0 4 0 0 1 $T0 .raSearch = $eip $T0 ^ = $esp $T0 4 + =  $23 $T0 4 - ^ = 
STACK WIN 4 356c0 6b2c 2a 0 0 8 338 0 1 $T1 .raSearch = $T0  $T1 4 - 16 @ = $ebp $T1 4 - ^ = $eip $T1 ^ = $esp $T1 4 + = $23 $T0 828 - ^ =  $24 $T0 832 - ^ = 
STACK WIN 4 3c1f0 146 6 0 8 10 4 0 1 $T0 .raSearch = $eip $T0 ^ = $esp $T0 4 + =  $20 $T0 8 - ^ =  $22 $T0 12 - ^ =  $23 $T0 16 - ^ =  $24 $T0 20 - ^ = 
STACK WIN 4 3c340 8aa 1e 0 20 c 2c 0 1 $T1 .raSearch = $T0  $T1 4 - 8 @ = $ebp $T1 4 - ^ = $eip $T1 ^ = $esp $T1 4 + = $20 $T0 48 - ^ =  $23 $T0 52 - ^ =  $24 $T0 56 - ^ = 
STACK WIN 4 3cbf0 8f 8 0 4 c 4 0 1 $T0 .raSearch = $eip $T0 ^ = $esp $T0 4 + =  $20 $T0 8 - ^ =  $23 $T0 12 - ^ =  $24 $T0 16 - ^ = 
STACK WIN 4 3cc80 14b 7 0 c 10 8 0 1 $T0 .raSearch = $eip $T0 ^ = $esp $T0 4 + =  $20 $T0 12 - ^ =  $22 $T0 16 - ^ =  $23 $T0 20 - ^ =  $24 $T0 24 - ^ = 
STACK WIN 4 3cdd0 20 1 0 10 0 4 0 1 $T0 .raSearch = $eip $T0 ^ = $esp $T0 4 + = 
STACK WIN 4 3cdf0 20 1 0 10 0 4 0 1 $T0 .raSearch = $eip $T0 ^ = $esp $T0 4 + = 
STACK WIN 4 3ce10 15 0 0 4 0 0 0 1 $T0 .raSearch = $eip $T0 ^ = $esp $T0 4 + = 
STACK WIN 4 3ce30 cf d 0 c c 4 0 1 $T1 .raSearch = $T0  $T1 4 - 8 @ = $ebp $T1 4 - ^ = $eip $T1 ^ = $esp $T1 4 + = $20 $T0 8 - ^ =  $23 $T0 12 - ^ =  $24 $T0 16 - ^ = 
STACK WIN 4 3cf00 54 a 0 0 4 4 0 1 $T1 .raSearch = $T0  $T1 4 - 8 @ = $ebp $T1 4 - ^ = $eip $T1 ^ = $esp $T1 4 + = $23 $T0 8 - ^ = 
STACK WIN 4 3cf60 16d 8 0 4 10 10 0 1 $T0 .raSearch = $eip $T0 ^ = $esp $T0 4 + =  $20 $T0 20 - ^ =  $22 $T0 24 - ^ =  $23 $T0 28 - ^ =  $24 $T0 32 - ^ = 
STACK WIN 4 3d0d0 db 13 0 0 c 20 0 1 $T0 .raSearch = $eip $T0 ^ = $esp $T0 4 + =  $20 $T0 36 - ^ =  $23 $T0 40 - ^ =  $24 $T0 44 - ^ = 
STACK WIN 4 3d1b0 15e 11 0 c c c 0 1 $T1 .raSearch = $T0  $T1 4 - 8 @ = $ebp $T1 4 - ^ = $eip $T1 ^ = $esp $T1 4 + = $20 $T0 16 - ^ =  $23 $T0 20 - ^ =  $24 $T0 24 - ^ = 
STACK WIN 4 3d310 98 d 0 0 c c 0 1 $T1 .raSearch = $T0  $T1 4 - 8 @ = $ebp $T1 4 - ^ = $eip $T1 ^ = $esp $T1 4 + = $20 $T0 16 - ^ =  $23 $T0 20 - ^ =  $24 $T0 24 - ^ = 
STACK WIN 4 3d3b0 45 a 0 18 0 0 0 1 $T0 .raSearch = $eip $T0 ^ = $esp $T0 4 + = 
STACK WIN 4 3d3b5 3f 5 0 18 4 0 0 1 $T0 .raSearch = $eip $T0 ^ = $esp $T0 4 + =  $23 $T0 4 - ^ = 
STACK WIN 4 3d3ba 39 0 0 18 8 0 0 1 $T0 .raSearch = $eip $T0 ^ = $esp $T0 4 + =  $23 $T0 4 - ^ =  $24 $T0 8 - ^ = 
STACK WIN 4 3d400 13e 12 0 18 c c 0 1 $T1 .raSearch = $T0  $T1 4 - 8 @ = $ebp $T1 4 - ^ = $eip $T1 ^ = $esp $T1 4 + = $20 $T0 16 - ^ =  $23 $T0 20 - ^ =  $24 $T0 24 - ^ = 
STACK WIN 4 3d540 119 f 0 18 0 0 0 1 $T0 .raSearch = $eip $T0 ^ = $esp $T0 4 + = 
STACK WIN 4 3d545 fd a 0 18 4 0 0 1 $T0 .raSearch = $eip $T0 ^ = $esp $T0 4 + =  $20 $T0 4 - ^ = 
STACK WIN 4 3d546 f9 9 0 18 8 0 0 1 $T0 .raSearch = $eip $T0 ^ = $esp $T0 4 + =  $20 $T0 4 - ^ =  $22 $T0 8 - ^ = 
STACK WIN 4 3d54e f0 1 0 18 c 0 0 1 $T0 .raSearch = $eip $T0 ^ = $esp $T0 4 + =  $20 $T0 4 - ^ =  $22 $T0 8 - ^ =  $23 $T0 12 - ^ = 
STACK WIN 4 3d54f ee 0 0 18 10 0 0 1 $T0 .raSearch = $eip $T0 ^ = $esp $T0 4 + =  $20 $T0 4 - ^ =  $22 $T0 8 - ^ =  $23 $T0 12 - ^ =  $24 $T0 16 - ^ = 
STACK WIN 4 3d660 1cf 7 0 4 10 18 0 1 $T0 .raSearch = $eip $T0 ^ = $esp $T0 4 + =  $20 $T0 28 - ^ =  $22 $T0 32 - ^ =  $23 $T0 36 - ^ =  $24 $T0 40 - ^ = 
STACK WIN 4 3d830 59 3 0 0 0 0 0 1 $T0 .raSearch = $eip $T0 ^ = $esp $T0 4 + = 
STACK WIN 4 3d831 57 2 0 0 4 0 0 1 $T0 .raSearch = $eip $T0 ^ = $esp $T0 4 + =  $23 $T0 4 - ^ = 
STACK WIN 4 3d838 4f 0 0 0 8 0 0 1 $T0 .raSearch = $eip $T0 ^ = $esp $T0 4 + =  $23 $T0 4 - ^ =  $24 $T0 8 - ^ = 
STACK WIN 4 3d890 d3 4 0 0 0 0 0 1 $T0 .raSearch = $eip $T0 ^ = $esp $T0 4 + = 
STACK WIN 4 3d891 d1 3 0 0 4 0 0 1 $T0 .raSearch = $eip $T0 ^ = $esp $T0 4 + =  $23 $T0 4 - ^ = 
STACK WIN 4 3d892 cf 2 0 0 8 0 0 1 $T0 .raSearch = $eip $T0 ^ = $esp $T0 4 + =  $23 $T0 4 - ^ =  $24 $T0 8 - ^ = 
STACK WIN 4 3d970 87 8 0 0 c 0 0 1 $T0 .raSearch = $eip $T0 ^ = $esp $T0 4 + =  $20 $T0 4 - ^ =  $23 $T0 8 - ^ =  $24 $T0 12 - ^ = 
STACK WIN 4 3da00 db c 0 0 10 0 0 1 $T1 .raSearch = $T0  $T1 4 - 8 @ = $ebp $T1 4 - ^ = $eip $T1 ^ = $esp $T1 4 + = $20 $T0 4 - ^ =  $23 $T0 12 - ^ =  $24 $T0 16 - ^ = 
STACK WIN 4 3dae0 98 4 0 0 0 0 0 1 $T0 .raSearch = $eip $T0 ^ = $esp $T0 4 + = 
STACK WIN 4 3dae2 94 2 0 0 4 4 0 1 $T0 .raSearch = $eip $T0 ^ = $esp $T0 4 + =  $23 $T0 8 - ^ = 
STACK WIN 4 3daf3 71 0 0 0 8 4 0 1 $T0 .raSearch = $eip $T0 ^ = $esp $T0 4 + =  $23 $T0 8 - ^ =  $24 $T0 12 - ^ = 
STACK WIN 4 3db80 1ae b 0 0 10 c 0 1 $T0 .raSearch = $eip $T0 ^ = $esp $T0 4 + =  $20 $T0 16 - ^ =  $22 $T0 20 - ^ =  $23 $T0 24 - ^ =  $24 $T0 28 - ^ = 
STACK WIN 4 3dd30 86 12 0 8 4 c 0 1 $T1 .raSearch = $T0  $T1 4 - 8 @ = $ebp $T1 4 - ^ = $eip $T1 ^ = $esp $T1 4 + = $23 $T0 16 - ^ = 
STACK WIN 4 3ddc0 dd e 0 8 10 c 0 1 $T0 .raSearch = $eip $T0 ^ = $esp $T0 4 + =  $20 $T0 16 - ^ =  $22 $T0 20 - ^ =  $23 $T0 24 - ^ =  $24 $T0 28 - ^ = 
STACK WIN 4 3dea0 7b 17 0 4 0 0 0 1 $T0 .raSearch = $eip $T0 ^ = $esp $T0 4 + = 
STACK WIN 4 3dea4 73 13 0 4 4 8 0 1 $T0 .raSearch = $eip $T0 ^ = $esp $T0 4 + =  $20 $T0 12 - ^ = 
STACK WIN 4 3dea9 6d e 0 4 8 8 0 1 $T0 .raSearch = $eip $T0 ^ = $esp $T0 4 + =  $20 $T0 12 - ^ =  $22 $T0 16 - ^ = 
STACK WIN 4 3deaa 6b d 0 4 c 8 0 1 $T0 .raSearch = $eip $T0 ^ = $esp $T0 4 + =  $20 $T0 12 - ^ =  $22 $T0 16 - ^ =  $23 $T0 20 - ^ = 
STACK WIN 4 3deab 69 c 0 4 10 8 0 1 $T0 .raSearch = $eip $T0 ^ = $esp $T0 4 + =  $20 $T0 12 - ^ =  $22 $T0 16 - ^ =  $23 $T0 20 - ^ =  $24 $T0 24 - ^ = 
STACK WIN 4 3df20 1c9 e 0 0 10 c 0 1 $T0 .raSearch = $eip $T0 ^ = $esp $T0 4 + =  $20 $T0 16 - ^ =  $22 $T0 20 - ^ =  $23 $T0 24 - ^ =  $24 $T0 28 - ^ = 
STACK WIN 4 3e0f0 7a 12 0 c 10 8 0 1 $T0 .raSearch = $eip $T0 ^ = $esp $T0 4 + =  $20 $T0 12 - ^ =  $22 $T0 16 - ^ =  $23 $T0 20 - ^ =  $24 $T0 24 - ^ = 
STACK WIN 4 3e170 c4 12 0 4 10 10 0 1 $T0 .raSearch = $eip $T0 ^ = $esp $T0 4 + =  $20 $T0 20 - ^ =  $22 $T0 24 - ^ =  $23 $T0 28 - ^ =  $24 $T0 32 - ^ = 
STACK WIN 4 3e240 7b 5 0 0 10 4 0 1 $T0 .raSearch = $eip $T0 ^ = $esp $T0 4 + =  $20 $T0 8 - ^ =  $22 $T0 12 - ^ =  $23 $T0 16 - ^ =  $24 $T0 20 - ^ = 
STACK WIN 4 3e2c0 8a 15 0 8 4 10 0 1 $T0 .raSearch = $eip $T0 ^ = $esp $T0 4 + =  $23 $T0 20 - ^ = 
STACK WIN 4 3e350 242 2e 0 0 8 48 0 1 $T1 .raSearch = $T0  $T1 4 - 16 @ = $ebp $T1 4 - ^ = $eip $T1 ^ = $esp $T1 4 + = $23 $T0 76 - ^ =  $24 $T0 80 - ^ = 
STACK WIN 4 3e5a0 183 7 0 0 0 0 0 1 $T0 .raSearch = $eip $T0 ^ = $esp $T0 4 + = 
STACK WIN 4 3e5a4 17b 3 0 0 4 10 0 1 $T0 .raSearch = $eip $T0 ^ = $esp $T0 4 + =  $20 $T0 20 - ^ = 
STACK WIN 4 3e5a5 179 2 0 0 8 10 0 1 $T0 .raSearch = $eip $T0 ^ = $esp $T0 4 + =  $20 $T0 20 - ^ =  $22 $T0 24 - ^ = 
STACK WIN 4 3e5ac 171 0 0 0 c 10 0 1 $T0 .raSearch = $eip $T0 ^ = $esp $T0 4 + =  $20 $T0 20 - ^ =  $22 $T0 24 - ^ =  $23 $T0 28 - ^ = 
STACK WIN 4 3e5e9 10c 0 0 0 10 10 0 1 $T0 .raSearch = $eip $T0 ^ = $esp $T0 4 + =  $20 $T0 20 - ^ =  $22 $T0 24 - ^ =  $23 $T0 28 - ^ =  $24 $T0 32 - ^ = 
STACK WIN 4 3e730 18 1 0 4 4 0 0 1 $T0 .raSearch = $eip $T0 ^ = $esp $T0 4 + =  $23 $T0 4 - ^ = 
STACK WIN 4 3e750 11c 4 0 0 10 4 0 1 $T0 .raSearch = $eip $T0 ^ = $esp $T0 4 + =  $20 $T0 8 - ^ =  $22 $T0 12 - ^ =  $23 $T0 16 - ^ =  $24 $T0 20 - ^ = 
STACK WIN 4 3e870 1af 6 0 0 10 c 0 1 $T0 .raSearch = $eip $T0 ^ = $esp $T0 4 + =  $20 $T0 16 - ^ =  $22 $T0 20 - ^ =  $23 $T0 24 - ^ =  $24 $T0 28 - ^ = 
STACK WIN 4 3ea20 248 34 0 0 8 78 0 1 $T1 .raSearch = $T0  $T1 4 - 16 @ = $ebp $T1 4 - ^ = $eip $T1 ^ = $esp $T1 4 + = $23 $T0 124 - ^ =  $24 $T0 128 - ^ = 
STACK WIN 4 3ec70 17 1 0 4 4 0 0 1 $T0 .raSearch = $eip $T0 ^ = $esp $T0 4 + =  $23 $T0 4 - ^ = 
STACK WIN 4 3ec90 9b 4 0 0 8 4 0 1 $T0 .raSearch = $eip $T0 ^ = $esp $T0 4 + =  $23 $T0 8 - ^ =  $24 $T0 12 - ^ = 
STACK WIN 4 3ed30 92 5 0 0 0 0 0 1 $T0 .raSearch = $eip $T0 ^ = $esp $T0 4 + = 
STACK WIN 4 3ed32 8e 3 0 0 4 4 0 1 $T0 .raSearch = $eip $T0 ^ = $esp $T0 4 + =  $20 $T0 8 - ^ = 
STACK WIN 4 3ed33 8c 2 0 0 8 4 0 1 $T0 .raSearch = $eip $T0 ^ = $esp $T0 4 + =  $20 $T0 8 - ^ =  $22 $T0 12 - ^ = 
STACK WIN 4 3ed36 88 0 0 0 c 4 0 1 $T0 .raSearch = $eip $T0 ^ = $esp $T0 4 + =  $20 $T0 8 - ^ =  $22 $T0 12 - ^ =  $23 $T0 16 - ^ = 
STACK WIN 4 3ed37 86 0 0 0 10 4 0 1 $T0 .raSearch = $eip $T0 ^ = $esp $T0 4 + =  $20 $T0 8 - ^ =  $22 $T0 12 - ^ =  $23 $T0 16 - ^ =  $24 $T0 20 - ^ = 
STACK WIN 4 3edd0 c7 16 0 4 c 14 0 1 $T1 .raSearch = $T0  $T1 4 - 8 @ = $ebp $T1 4 - ^ = $eip $T1 ^ = $esp $T1 4 + = $20 $T0 24 - ^ =  $23 $T0 28 - ^ =  $24 $T0 32 - ^ = 
STACK WIN 4 3eea0 ff 15 0 0 10 10 0 1 $T1 .raSearch = $T0  $T1 4 - 8 @ = $ebp $T1 4 - ^ = $eip $T1 ^ = $esp $T1 4 + = $20 $T0 20 - ^ =  $23 $T0 28 - ^ =  $24 $T0 32 - ^ = 
STACK WIN 4 3efa0 1f 1 0 4 4 0 0 1 $T0 .raSearch = $eip $T0 ^ = $esp $T0 4 + =  $23 $T0 4 - ^ = 
STACK WIN 4 3efc0 100 10 0 8 10 24 0 1 $T0 .raSearch = $eip $T0 ^ = $esp $T0 4 + =  $20 $T0 40 - ^ =  $22 $T0 44 - ^ =  $23 $T0 48 - ^ =  $24 $T0 52 - ^ = 
STACK WIN 4 3f0c0 278 12 0 c 10 18 0 1 $T0 .raSearch = $eip $T0 ^ = $esp $T0 4 + =  $20 $T0 28 - ^ =  $22 $T0 32 - ^ =  $23 $T0 36 - ^ =  $24 $T0 40 - ^ = 
STACK WIN 4 3f340 2d8 1a 0 0 10 34 0 1 $T0 .raSearch = $eip $T0 ^ = $esp $T0 4 + =  $20 $T0 56 - ^ =  $22 $T0 60 - ^ =  $23 $T0 64 - ^ =  $24 $T0 68 - ^ = 
STACK WIN 4 3f620 28c 6 0 0 10 14 0 1 $T0 .raSearch = $eip $T0 ^ = $esp $T0 4 + =  $20 $T0 24 - ^ =  $22 $T0 28 - ^ =  $23 $T0 32 - ^ =  $24 $T0 36 - ^ = 
STACK WIN 4 3f8b0 b8 12 0 0 10 c 0 1 $T0 .raSearch = $eip $T0 ^ = $esp $T0 4 + =  $20 $T0 16 - ^ =  $22 $T0 20 - ^ =  $23 $T0 24 - ^ =  $24 $T0 28 - ^ = 
STACK WIN 4 3f970 9d c 0 0 c 0 0 1 $T0 .raSearch = $eip $T0 ^ = $esp $T0 4 + =  $20 $T0 4 - ^ =  $23 $T0 8 - ^ =  $24 $T0 12 - ^ = 
STACK WIN 4 3fa10 e6 15 0 8 10 c 0 1 $T0 .raSearch = $eip $T0 ^ = $esp $T0 4 + =  $20 $T0 16 - ^ =  $22 $T0 20 - ^ =  $23 $T0 24 - ^ =  $24 $T0 28 - ^ = 
STACK WIN 4 3fb00 107 13 0 14 0 0 0 1 $T0 .raSearch = $eip $T0 ^ = $esp $T0 4 + = 
STACK WIN 4 3fb08 fb b 0 14 4 10 0 1 $T0 .raSearch = $eip $T0 ^ = $esp $T0 4 + =  $20 $T0 20 - ^ = 
STACK WIN 4 3fb09 ee a 0 14 8 10 0 1 $T0 .raSearch = $eip $T0 ^ = $esp $T0 4 + =  $20 $T0 20 - ^ =  $22 $T0 24 - ^ = 
STACK WIN 4 3fb0e e8 5 0 14 c 10 0 1 $T0 .raSearch = $eip $T0 ^ = $esp $T0 4 + =  $20 $T0 20 - ^ =  $22 $T0 24 - ^ =  $23 $T0 28 - ^ = 
STACK WIN 4 3fb13 e2 0 0 14 10 10 0 1 $T0 .raSearch = $eip $T0 ^ = $esp $T0 4 + =  $20 $T0 20 - ^ =  $22 $T0 24 - ^ =  $23 $T0 28 - ^ =  $24 $T0 32 - ^ = 
STACK WIN 4 3fc10 79 3 0 0 0 0 0 1 $T0 .raSearch = $eip $T0 ^ = $esp $T0 4 + = 
STACK WIN 4 3fc11 77 2 0 0 4 0 0 1 $T0 .raSearch = $eip $T0 ^ = $esp $T0 4 + =  $20 $T0 4 - ^ = 
STACK WIN 4 3fc14 6c 0 0 0 8 0 0 1 $T0 .raSearch = $eip $T0 ^ = $esp $T0 4 + =  $20 $T0 4 - ^ =  $23 $T0 8 - ^ = 
STACK WIN 4 3fc21 5e 0 0 0 c 0 0 1 $T0 .raSearch = $eip $T0 ^ = $esp $T0 4 + =  $20 $T0 4 - ^ =  $23 $T0 8 - ^ =  $24 $T0 12 - ^ = 
STACK WIN 4 3fc90 19f 9 0 0 10 a4 0 1 $T0 .raSearch = $eip $T0 ^ = $esp $T0 4 + =  $20 $T0 168 - ^ =  $22 $T0 172 - ^ =  $23 $T0 176 - ^ =  $24 $T0 180 - ^ = 
STACK WIN 4 3fe30 12a 14 0 14 c c 0 1 $T1 .raSearch = $T0  $T1 4 - 8 @ = $ebp $T1 4 - ^ = $eip $T1 ^ = $esp $T1 4 + = $20 $T0 16 - ^ =  $23 $T0 20 - ^ =  $24 $T0 24 - ^ = 
STACK WIN 4 3ff60 4b 0 0 c 0 0 0 1 $T0 .raSearch = $eip $T0 ^ = $esp $T0 4 + = 
STACK WIN 4 3ff6b 3d 0 0 c 4 0 0 1 $T0 .raSearch = $eip $T0 ^ = $esp $T0 4 + =  $23 $T0 4 - ^ = 
STACK WIN 4 3ffb0 c 0 0 4 0 0 0 1 $T0 .raSearch = $eip $T0 ^ = $esp $T0 4 + = 
STACK WIN 4 3ffc0 16 0 0 8 0 0 0 1 $T0 .raSearch = $eip $T0 ^ = $esp $T0 4 + = 
STACK WIN 4 3ffe0 66 11 0 c 0 0 0 1 $T0 .raSearch = $eip $T0 ^ = $esp $T0 4 + = 
STACK WIN 4 3ffe1 64 10 0 c 4 0 0 1 $T0 .raSearch = $eip $T0 ^ = $esp $T0 4 + =  $20 $T0 4 - ^ = 
STACK WIN 4 3ffe2 62 f 0 c 8 0 0 1 $T0 .raSearch = $eip $T0 ^ = $esp $T0 4 + =  $20 $T0 4 - ^ =  $22 $T0 8 - ^ = 
STACK WIN 4 3ffe3 60 e 0 c c 0 0 1 $T0 .raSearch = $eip $T0 ^ = $esp $T0 4 + =  $20 $T0 4 - ^ =  $22 $T0 8 - ^ =  $23 $T0 12 - ^ = 
STACK WIN 4 3ffea 4d 7 0 c 10 0 0 1 $T0 .raSearch = $eip $T0 ^ = $esp $T0 4 + =  $20 $T0 4 - ^ =  $22 $T0 8 - ^ =  $23 $T0 12 - ^ =  $24 $T0 16 - ^ = 
STACK WIN 4 40050 82 4 0 0 0 0 0 1 $T0 .raSearch = $eip $T0 ^ = $esp $T0 4 + = 
STACK WIN 4 40051 80 3 0 0 4 0 0 1 $T0 .raSearch = $eip $T0 ^ = $esp $T0 4 + =  $23 $T0 4 - ^ = 
STACK WIN 4 40052 7b 2 0 0 8 0 0 1 $T0 .raSearch = $eip $T0 ^ = $esp $T0 4 + =  $23 $T0 4 - ^ =  $24 $T0 8 - ^ = 
STACK WIN 4 400e0 b 0 0 0 0 0 0 1 $T0 .raSearch = $eip $T0 ^ = $esp $T0 4 + = 
STACK WIN 4 400f0 36 3 0 0 0 0 0 1 $T0 .raSearch = $eip $T0 ^ = $esp $T0 4 + = 
STACK WIN 4 400f1 34 2 0 0 4 0 0 1 $T0 .raSearch = $eip $T0 ^ = $esp $T0 4 + =  $20 $T0 4 - ^ = 
STACK WIN 4 400f4 2b 0 0 0 8 0 0 1 $T0 .raSearch = $eip $T0 ^ = $esp $T0 4 + =  $20 $T0 4 - ^ =  $23 $T0 8 - ^ = 
STACK WIN 4 400f5 29 0 0 0 c 0 0 1 $T0 .raSearch = $eip $T0 ^ = $esp $T0 4 + =  $20 $T0 4 - ^ =  $23 $T0 8 - ^ =  $24 $T0 12 - ^ = 
STACK WIN 4 40130 9b 6 0 0 0 0 0 1 $T0 .raSearch = $eip $T0 ^ = $esp $T0 4 + = 
STACK WIN 4 40131 99 5 0 0 4 0 0 1 $T0 .raSearch = $eip $T0 ^ = $esp $T0 4 + =  $20 $T0 4 - ^ = 
STACK WIN 4 40132 92 4 0 0 8 0 0 1 $T0 .raSearch = $eip $T0 ^ = $esp $T0 4 + =  $20 $T0 4 - ^ =  $22 $T0 8 - ^ = 
STACK WIN 4 40137 8c 0 0 0 c 0 0 1 $T0 .raSearch = $eip $T0 ^ = $esp $T0 4 + =  $20 $T0 4 - ^ =  $22 $T0 8 - ^ =  $23 $T0 12 - ^ = 
STACK WIN 4 40138 8a 0 0 0 10 0 0 1 $T0 .raSearch = $eip $T0 ^ = $esp $T0 4 + =  $20 $T0 4 - ^ =  $22 $T0 8 - ^ =  $23 $T0 12 - ^ =  $24 $T0 16 - ^ = 
STACK WIN 4 401d0 7b b 0 0 0 0 0 1 $T0 .raSearch = $eip $T0 ^ = $esp $T0 4 + = 
STACK WIN 4 401d2 77 9 0 0 4 4 0 1 $T0 .raSearch = $eip $T0 ^ = $esp $T0 4 + =  $20 $T0 8 - ^ = 
STACK WIN 4 401dc 6a 0 0 0 8 4 0 1 $T0 .raSearch = $eip $T0 ^ = $esp $T0 4 + =  $20 $T0 8 - ^ =  $22 $T0 12 - ^ = 
STACK WIN 4 401dd 68 0 0 0 c 4 0 1 $T0 .raSearch = $eip $T0 ^ = $esp $T0 4 + =  $20 $T0 8 - ^ =  $22 $T0 12 - ^ =  $23 $T0 16 - ^ = 
STACK WIN 4 401de 66 0 0 0 10 4 0 1 $T0 .raSearch = $eip $T0 ^ = $esp $T0 4 + =  $20 $T0 8 - ^ =  $22 $T0 12 - ^ =  $23 $T0 16 - ^ =  $24 $T0 20 - ^ = 
STACK WIN 4 40250 80 6 0 0 0 0 0 1 $T0 .raSearch = $eip $T0 ^ = $esp $T0 4 + = 
STACK WIN 4 40251 7e 5 0 0 4 0 0 1 $T0 .raSearch = $eip $T0 ^ = $esp $T0 4 + =  $23 $T0 4 - ^ = 
STACK WIN 4 40252 7a 4 0 0 8 0 0 1 $T0 .raSearch = $eip $T0 ^ = $esp $T0 4 + =  $23 $T0 4 - ^ =  $24 $T0 8 - ^ = 
STACK WIN 4 40267 61 0 0 0 c 0 0 1 $T0 .raSearch = $eip $T0 ^ = $esp $T0 4 + =  $23 $T0 4 - ^ =  $24 $T0 8 - ^ =  $20 $T0 12 - ^ = 
STACK WIN 4 402d0 16 0 0 8 0 0 0 1 $T0 .raSearch = $eip $T0 ^ = $esp $T0 4 + = 
STACK WIN 4 402f0 140 12 0 10 8 28 0 1 $T1 .raSearch = $T0  $T1 4 - 16 @ = $ebp $T1 4 - ^ = $eip $T1 ^ = $esp $T1 4 + = $23 $T0 44 - ^ =  $24 $T0 48 - ^ = 
STACK WIN 4 40430 97 6 0 0 0 0 0 1 $T0 .raSearch = $eip $T0 ^ = $esp $T0 4 + = 
STACK WIN 4 40437 8c 0 0 0 4 c 0 1 $T0 .raSearch = $eip $T0 ^ = $esp $T0 4 + =  $20 $T0 16 - ^ = 
STACK WIN 4 40438 85 0 0 0 8 c 0 1 $T0 .raSearch = $eip $T0 ^ = $esp $T0 4 + =  $20 $T0 16 - ^ =  $22 $T0 20 - ^ = 
STACK WIN 4 40439 83 0 0 0 c c 0 1 $T0 .raSearch = $eip $T0 ^ = $esp $T0 4 + =  $20 $T0 16 - ^ =  $22 $T0 20 - ^ =  $23 $T0 24 - ^ = 
STACK WIN 4 4043a 81 0 0 0 10 c 0 1 $T0 .raSearch = $eip $T0 ^ = $esp $T0 4 + =  $20 $T0 16 - ^ =  $22 $T0 20 - ^ =  $23 $T0 24 - ^ =  $24 $T0 28 - ^ = 
STACK WIN 4 404d0 da 6 0 8 0 0 0 1 $T0 .raSearch = $eip $T0 ^ = $esp $T0 4 + = 
STACK WIN 4 404d1 d8 5 0 8 4 0 0 1 $T0 .raSearch = $eip $T0 ^ = $esp $T0 4 + =  $20 $T0 4 - ^ = 
STACK WIN 4 404d2 d1 4 0 8 8 0 0 1 $T0 .raSearch = $eip $T0 ^ = $esp $T0 4 + =  $20 $T0 4 - ^ =  $22 $T0 8 - ^ = 
STACK WIN 4 404d3 cf 3 0 8 c 0 0 1 $T0 .raSearch = $eip $T0 ^ = $esp $T0 4 + =  $20 $T0 4 - ^ =  $22 $T0 8 - ^ =  $23 $T0 12 - ^ = 
STACK WIN 4 404d4 cd 2 0 8 10 0 0 1 $T0 .raSearch = $eip $T0 ^ = $esp $T0 4 + =  $20 $T0 4 - ^ =  $22 $T0 8 - ^ =  $23 $T0 12 - ^ =  $24 $T0 16 - ^ = 
STACK WIN 4 405b0 896 17 0 10 c 44 0 1 $T1 .raSearch = $T0  $T1 4 - 8 @ = $ebp $T1 4 - ^ = $eip $T1 ^ = $esp $T1 4 + = $20 $T0 72 - ^ =  $23 $T0 76 - ^ =  $24 $T0 80 - ^ = 
STACK WIN 4 40e50 a2 9 0 8 8 4 0 1 $T0 .raSearch = $eip $T0 ^ = $esp $T0 4 + =  $23 $T0 8 - ^ =  $24 $T0 12 - ^ = 
STACK WIN 4 40f00 4f 5 0 8 4 0 0 1 $T0 .raSearch = $eip $T0 ^ = $esp $T0 4 + =  $23 $T0 4 - ^ = 
STACK WIN 4 40f50 71 f 0 0 4 10 0 1 $T0 .raSearch = $eip $T0 ^ = $esp $T0 4 + =  $23 $T0 20 - ^ = 
STACK WIN 4 40fd0 470 f 0 8 c 24 0 1 $T1 .raSearch = $T0  $T1 4 - 8 @ = $ebp $T1 4 - ^ = $eip $T1 ^ = $esp $T1 4 + = $20 $T0 40 - ^ =  $23 $T0 44 - ^ =  $24 $T0 48 - ^ = 
STACK WIN 4 41440 96 c 0 4 0 0 0 1 $T0 .raSearch = $eip $T0 ^ = $esp $T0 4 + = 
STACK WIN 4 41446 8e 6 0 4 4 4 0 1 $T0 .raSearch = $eip $T0 ^ = $esp $T0 4 + =  $20 $T0 8 - ^ = 
STACK WIN 4 41447 8c 5 0 4 8 4 0 1 $T0 .raSearch = $eip $T0 ^ = $esp $T0 4 + =  $20 $T0 8 - ^ =  $22 $T0 12 - ^ = 
STACK WIN 4 41448 8a 4 0 4 c 4 0 1 $T0 .raSearch = $eip $T0 ^ = $esp $T0 4 + =  $20 $T0 8 - ^ =  $22 $T0 12 - ^ =  $23 $T0 16 - ^ = 
STACK WIN 4 4144c 85 0 0 4 10 4 0 1 $T0 .raSearch = $eip $T0 ^ = $esp $T0 4 + =  $20 $T0 8 - ^ =  $22 $T0 12 - ^ =  $23 $T0 16 - ^ =  $24 $T0 20 - ^ = 
STACK WIN 4 414e0 388 1d 0 0 c 54 0 1 $T1 .raSearch = $T0  $T1 4 - 16 @ = $ebp $T1 4 - ^ = $eip $T1 ^ = $esp $T1 4 + = $20 $T0 88 - ^ =  $23 $T0 92 - ^ =  $24 $T0 96 - ^ = 
STACK WIN 4 41870 a8 a 0 8 10 4 0 1 $T0 .raSearch = $eip $T0 ^ = $esp $T0 4 + =  $20 $T0 8 - ^ =  $22 $T0 12 - ^ =  $23 $T0 16 - ^ =  $24 $T0 20 - ^ = 
STACK WIN 4 41920 1ae 17 0 8 10 1c 0 1 $T0 .raSearch = $eip $T0 ^ = $esp $T0 4 + =  $20 $T0 32 - ^ =  $22 $T0 36 - ^ =  $23 $T0 40 - ^ =  $24 $T0 44 - ^ = 
STACK WIN 4 41ad0 437 b 0 8 8 58 0 1 $T1 .raSearch = $T0  $T1 4 - 16 @ = $ebp $T1 4 - ^ = $eip $T1 ^ = $esp $T1 4 + = $23 $T0 92 - ^ =  $24 $T0 96 - ^ = 
STACK WIN 4 41f10 da a 0 0 c 20 0 1 $T0 .raSearch = $eip $T0 ^ = $esp $T0 4 + =  $20 $T0 36 - ^ =  $23 $T0 40 - ^ =  $24 $T0 44 - ^ = 
STACK WIN 4 41ff0 41 7 0 0 10 4 0 1 $T0 .raSearch = $eip $T0 ^ = $esp $T0 4 + =  $20 $T0 8 - ^ =  $22 $T0 12 - ^ =  $23 $T0 16 - ^ =  $24 $T0 20 - ^ = 
STACK WIN 4 42040 3f 3 0 4 0 1c 0 1 $T0 .raSearch = $eip $T0 ^ = $esp $T0 4 + = 
STACK WIN 4 42080 af 33 0 c 10 80 0 1 $T0 .raSearch = $eip $T0 ^ = $esp $T0 4 + =  $20 $T0 132 - ^ =  $22 $T0 136 - ^ =  $23 $T0 140 - ^ =  $24 $T0 144 - ^ = 
STACK WIN 4 42130 b3 1 0 0 0 4 0 1 $T0 .raSearch = $eip $T0 ^ = $esp $T0 4 + = 
STACK WIN 4 421f0 35 7 0 8 4 0 0 1 $T0 .raSearch = $eip $T0 ^ = $esp $T0 4 + =  $23 $T0 4 - ^ = 
STACK WIN 4 42230 5d 6 0 4 8 8 0 1 $T0 .raSearch = $eip $T0 ^ = $esp $T0 4 + =  $23 $T0 12 - ^ =  $24 $T0 16 - ^ = 
STACK WIN 4 42290 29 0 0 0 0 0 0 1 $T0 .raSearch = $eip $T0 ^ = $esp $T0 4 + = 
STACK WIN 4 422c0 16d c 0 0 10 c 0 1 $T0 .raSearch = $eip $T0 ^ = $esp $T0 4 + =  $20 $T0 16 - ^ =  $22 $T0 20 - ^ =  $23 $T0 24 - ^ =  $24 $T0 28 - ^ = 
STACK WIN 4 42430 8c 5 0 0 8 4 0 1 $T0 .raSearch = $eip $T0 ^ = $esp $T0 4 + =  $20 $T0 8 - ^ =  $23 $T0 12 - ^ = 
STACK WIN 4 424c0 45 b 0 4 8 0 0 1 $T0 .raSearch = $eip $T0 ^ = $esp $T0 4 + =  $23 $T0 4 - ^ =  $24 $T0 8 - ^ = 
STACK WIN 4 42510 b6 18 0 18 10 4 0 1 $T0 .raSearch = $eip $T0 ^ = $esp $T0 4 + =  $20 $T0 8 - ^ =  $22 $T0 12 - ^ =  $23 $T0 16 - ^ =  $24 $T0 20 - ^ = 
STACK WIN 4 425d0 3c 0 0 0 0 0 0 1 $T0 .raSearch = $eip $T0 ^ = $esp $T0 4 + = 
STACK WIN 4 42610 25 0 0 0 0 0 0 1 $T0 .raSearch = $eip $T0 ^ = $esp $T0 4 + = 
STACK WIN 4 42640 9c e 0 4 c 4 0 1 $T1 .raSearch = $T0  $T1 4 - 8 @ = $ebp $T1 4 - ^ = $eip $T1 ^ = $esp $T1 4 + = $20 $T0 8 - ^ =  $23 $T0 12 - ^ =  $24 $T0 16 - ^ = 
STACK WIN 4 426e0 d1 6 0 10 c 0 0 1 $T0 .raSearch = $eip $T0 ^ = $esp $T0 4 + =  $20 $T0 4 - ^ =  $23 $T0 8 - ^ =  $24 $T0 12 - ^ = 
STACK WIN 4 427c0 396 11 0 c c 3c 0 1 $T1 .raSearch = $T0  $T1 4 - 8 @ = $ebp $T1 4 - ^ = $eip $T1 ^ = $esp $T1 4 + = $20 $T0 64 - ^ =  $23 $T0 68 - ^ =  $24 $T0 72 - ^ = 
STACK WIN 4 42b60 d5 3 0 0 0 0 0 1 $T0 .raSearch = $eip $T0 ^ = $esp $T0 4 + = 
STACK WIN 4 42b61 d3 2 0 0 4 0 0 1 $T0 .raSearch = $eip $T0 ^ = $esp $T0 4 + =  $24 $T0 4 - ^ = 
STACK WIN 4 42b6c c7 0 0 0 8 0 0 1 $T0 .raSearch = $eip $T0 ^ = $esp $T0 4 + =  $24 $T0 4 - ^ =  $23 $T0 8 - ^ = 
STACK WIN 4 42c40 a8 4 0 0 0 0 0 1 $T0 .raSearch = $eip $T0 ^ = $esp $T0 4 + = 
STACK WIN 4 42c42 a4 2 0 0 4 4 0 1 $T0 .raSearch = $eip $T0 ^ = $esp $T0 4 + =  $24 $T0 8 - ^ = 
STACK WIN 4 42c91 51 0 0 0 8 4 0 1 $T0 .raSearch = $eip $T0 ^ = $esp $T0 4 + =  $24 $T0 8 - ^ =  $22 $T0 12 - ^ = 
STACK WIN 4 42c99 45 0 0 0 c 4 0 1 $T0 .raSearch = $eip $T0 ^ = $esp $T0 4 + =  $24 $T0 8 - ^ =  $22 $T0 12 - ^ =  $20 $T0 16 - ^ = 
STACK WIN 4 42c9a 43 0 0 0 10 4 0 1 $T0 .raSearch = $eip $T0 ^ = $esp $T0 4 + =  $24 $T0 8 - ^ =  $22 $T0 12 - ^ =  $20 $T0 16 - ^ =  $23 $T0 20 - ^ = 
STACK WIN 4 42cf0 31 4 0 0 8 4 0 1 $T0 .raSearch = $eip $T0 ^ = $esp $T0 4 + =  $23 $T0 8 - ^ =  $24 $T0 12 - ^ = 
STACK WIN 4 42d30 15 1 0 0 0 4 0 1 $T0 .raSearch = $eip $T0 ^ = $esp $T0 4 + = 
STACK WIN 4 42d50 ed 18 0 8 c 8 0 1 $T0 .raSearch = $eip $T0 ^ = $esp $T0 4 + =  $20 $T0 12 - ^ =  $23 $T0 16 - ^ =  $24 $T0 20 - ^ = 
STACK WIN 4 42e40 46 10 0 4 8 8 0 1 $T0 .raSearch = $eip $T0 ^ = $esp $T0 4 + =  $23 $T0 12 - ^ =  $24 $T0 16 - ^ = 
STACK WIN 4 42e90 63 a 0 8 4 4 0 1 $T1 .raSearch = $T0  $T1 4 - 8 @ = $ebp $T1 4 - ^ = $eip $T1 ^ = $esp $T1 4 + = $23 $T0 8 - ^ = 
STACK WIN 4 42f00 c1 c 0 c c 4 0 1 $T1 .raSearch = $T0  $T1 4 - 8 @ = $ebp $T1 4 - ^ = $eip $T1 ^ = $esp $T1 4 + = $20 $T0 8 - ^ =  $23 $T0 12 - ^ =  $24 $T0 16 - ^ = 
STACK WIN 4 42fd0 62 c 0 4 8 0 0 1 $T1 .raSearch = $T0  $T1 4 - 8 @ = $ebp $T1 4 - ^ = $eip $T1 ^ = $esp $T1 4 + = $23 $T0 4 - ^ =  $24 $T0 8 - ^ = 
STACK WIN 4 43040 6d 1 0 0 0 4 0 1 $T0 .raSearch = $eip $T0 ^ = $esp $T0 4 + = 
STACK WIN 4 430b0 6d 1 0 0 0 4 0 1 $T0 .raSearch = $eip $T0 ^ = $esp $T0 4 + = 
STACK WIN 4 43120 bf 12 0 4 c 4 0 1 $T1 .raSearch = $T0  $T1 4 - 8 @ = $ebp $T1 4 - ^ = $eip $T1 ^ = $esp $T1 4 + = $20 $T0 8 - ^ =  $23 $T0 12 - ^ =  $24 $T0 16 - ^ = 
STACK WIN 4 431e0 69 6 0 4 10 0 0 1 $T0 .raSearch = $eip $T0 ^ = $esp $T0 4 + =  $20 $T0 4 - ^ =  $22 $T0 8 - ^ =  $23 $T0 12 - ^ =  $24 $T0 16 - ^ = 
STACK WIN 4 43250 230 c 0 4 10 10 0 1 $T0 .raSearch = $eip $T0 ^ = $esp $T0 4 + =  $20 $T0 20 - ^ =  $22 $T0 24 - ^ =  $23 $T0 28 - ^ =  $24 $T0 32 - ^ = 
STACK WIN 4 43480 10e c 0 0 8 0 0 1 $T1 .raSearch = $T0  $T1 4 - 8 @ = $ebp $T1 4 - ^ = $eip $T1 ^ = $esp $T1 4 + = $23 $T0 4 - ^ =  $24 $T0 8 - ^ = 
STACK WIN 4 43590 13 6 0 0 0 0 0 1 $T1 .raSearch = $T0  $T1 4 - 8 @ = $ebp $T1 4 - ^ = $eip $T1 ^ = $esp $T1 4 + =
STACK WIN 4 435b0 5a 0 0 0 0 0 0 1 $T0 .raSearch = $eip $T0 ^ = $esp $T0 4 + = 
STACK WIN 4 435e8 1b 0 0 0 4 0 0 1 $T0 .raSearch = $eip $T0 ^ = $esp $T0 4 + =  $23 $T0 4 - ^ = 
STACK WIN 4 43610 3c 4 0 0 0 0 0 1 $T0 .raSearch = $eip $T0 ^ = $esp $T0 4 + = 
STACK WIN 4 43611 3a 3 0 0 4 0 0 1 $T0 .raSearch = $eip $T0 ^ = $esp $T0 4 + =  $20 $T0 4 - ^ = 
STACK WIN 4 43612 36 2 0 0 8 0 0 1 $T0 .raSearch = $eip $T0 ^ = $esp $T0 4 + =  $20 $T0 4 - ^ =  $24 $T0 8 - ^ = 
STACK WIN 4 4361b 29 0 0 0 c 0 0 1 $T0 .raSearch = $eip $T0 ^ = $esp $T0 4 + =  $20 $T0 4 - ^ =  $24 $T0 8 - ^ =  $22 $T0 12 - ^ = 
STACK WIN 4 4362d 16 0 0 0 10 0 0 1 $T0 .raSearch = $eip $T0 ^ = $esp $T0 4 + =  $20 $T0 4 - ^ =  $24 $T0 8 - ^ =  $22 $T0 12 - ^ =  $23 $T0 16 - ^ = 
STACK WIN 4 43650 267 12 0 8 10 14 0 1 $T0 .raSearch = $eip $T0 ^ = $esp $T0 4 + =  $20 $T0 24 - ^ =  $22 $T0 28 - ^ =  $23 $T0 32 - ^ =  $24 $T0 36 - ^ = 
STACK WIN 4 438c0 13f b 0 0 10 1c 0 1 $T0 .raSearch = $eip $T0 ^ = $esp $T0 4 + =  $20 $T0 32 - ^ =  $22 $T0 36 - ^ =  $23 $T0 40 - ^ =  $24 $T0 44 - ^ = 
STACK WIN 4 43a00 21 6 0 4 0 0 0 1 $T1 .raSearch = $T0  $T1 4 - 8 @ = $ebp $T1 4 - ^ = $eip $T1 ^ = $esp $T1 4 + =
STACK WIN 4 43a30 1fc a 0 4 10 18 0 1 $T0 .raSearch = $eip $T0 ^ = $esp $T0 4 + =  $20 $T0 28 - ^ =  $22 $T0 32 - ^ =  $23 $T0 36 - ^ =  $24 $T0 40 - ^ = 
STACK WIN 4 43c30 2a2 11 0 4 10 18 0 1 $T0 .raSearch = $eip $T0 ^ = $esp $T0 4 + =  $20 $T0 28 - ^ =  $22 $T0 32 - ^ =  $23 $T0 36 - ^ =  $24 $T0 40 - ^ = 
STACK WIN 4 43ee0 f5 12 0 0 10 14 0 1 $T0 .raSearch = $eip $T0 ^ = $esp $T0 4 + =  $20 $T0 24 - ^ =  $22 $T0 28 - ^ =  $23 $T0 32 - ^ =  $24 $T0 36 - ^ = 
STACK WIN 4 43fe0 12d e 0 4 c 4 0 1 $T1 .raSearch = $T0  $T1 4 - 8 @ = $ebp $T1 4 - ^ = $eip $T1 ^ = $esp $T1 4 + = $20 $T0 8 - ^ =  $23 $T0 12 - ^ =  $24 $T0 16 - ^ = 
STACK WIN 4 44110 b1 9 0 4 8 0 0 1 $T1 .raSearch = $T0  $T1 4 - 8 @ = $ebp $T1 4 - ^ = $eip $T1 ^ = $esp $T1 4 + = $23 $T0 4 - ^ =  $24 $T0 8 - ^ = 
STACK WIN 4 441d0 136 11 0 8 c 14 0 1 $T1 .raSearch = $T0  $T1 4 - 8 @ = $ebp $T1 4 - ^ = $eip $T1 ^ = $esp $T1 4 + = $20 $T0 24 - ^ =  $23 $T0 28 - ^ =  $24 $T0 32 - ^ = 
STACK WIN 4 44310 19 3 0 0 0 0 0 1 $T0 .raSearch = $eip $T0 ^ = $esp $T0 4 + = 
STACK WIN 4 44311 17 2 0 0 4 0 0 1 $T0 .raSearch = $eip $T0 ^ = $esp $T0 4 + =  $20 $T0 4 - ^ = 
STACK WIN 4 44330 7b 5 0 8 10 4 0 1 $T0 .raSearch = $eip $T0 ^ = $esp $T0 4 + =  $20 $T0 8 - ^ =  $22 $T0 12 - ^ =  $23 $T0 16 - ^ =  $24 $T0 20 - ^ = 
STACK WIN 4 443b0 b3 6 0 4 10 0 0 1 $T0 .raSearch = $eip $T0 ^ = $esp $T0 4 + =  $20 $T0 4 - ^ =  $22 $T0 8 - ^ =  $23 $T0 12 - ^ =  $24 $T0 16 - ^ = 
STACK WIN 4 44470 24 2 0 4 4 4 0 1 $T0 .raSearch = $eip $T0 ^ = $esp $T0 4 + =  $23 $T0 8 - ^ = 
STACK WIN 4 444a0 165 a 0 0 0 0 0 1 $T0 .raSearch = $eip $T0 ^ = $esp $T0 4 + = 
STACK WIN 4 444a1 163 9 0 0 4 0 0 1 $T0 .raSearch = $eip $T0 ^ = $esp $T0 4 + =  $20 $T0 4 - ^ = 
STACK WIN 4 444a2 161 8 0 0 8 0 0 1 $T0 .raSearch = $eip $T0 ^ = $esp $T0 4 + =  $20 $T0 4 - ^ =  $22 $T0 8 - ^ = 
STACK WIN 4 444a7 15b 3 0 0 c 0 0 1 $T0 .raSearch = $eip $T0 ^ = $esp $T0 4 + =  $20 $T0 4 - ^ =  $22 $T0 8 - ^ =  $23 $T0 12 - ^ = 
STACK WIN 4 444a8 159 2 0 0 10 0 0 1 $T0 .raSearch = $eip $T0 ^ = $esp $T0 4 + =  $20 $T0 4 - ^ =  $22 $T0 8 - ^ =  $23 $T0 12 - ^ =  $24 $T0 16 - ^ = 
STACK WIN 4 44610 1f 0 0 0 0 0 0 1 $T0 .raSearch = $eip $T0 ^ = $esp $T0 4 + = 
STACK WIN 4 44617 17 0 0 0 4 0 0 1 $T0 .raSearch = $eip $T0 ^ = $esp $T0 4 + =  $23 $T0 4 - ^ = 
STACK WIN 4 44630 e8 5 0 8 0 0 0 1 $T0 .raSearch = $eip $T0 ^ = $esp $T0 4 + = 
STACK WIN 4 44635 6c 0 0 8 4 0 0 1 $T0 .raSearch = $eip $T0 ^ = $esp $T0 4 + =  $23 $T0 4 - ^ = 
STACK WIN 4 44720 e 0 0 8 0 0 0 1 $T0 .raSearch = $eip $T0 ^ = $esp $T0 4 + = 
STACK WIN 4 44730 54 3 0 0 0 1c 0 1 $T0 .raSearch = $eip $T0 ^ = $esp $T0 4 + = 
STACK WIN 4 44790 54 3 0 0 0 1c 0 1 $T0 .raSearch = $eip $T0 ^ = $esp $T0 4 + = 
STACK WIN 4 447f0 5c e 0 0 0 0 0 1 $T0 .raSearch = $eip $T0 ^ = $esp $T0 4 + = 
STACK WIN 4 447f2 58 c 0 0 4 4 0 1 $T0 .raSearch = $eip $T0 ^ = $esp $T0 4 + =  $23 $T0 8 - ^ = 
STACK WIN 4 447fc 4b 2 0 0 8 4 0 1 $T0 .raSearch = $eip $T0 ^ = $esp $T0 4 + =  $23 $T0 8 - ^ =  $24 $T0 12 - ^ = 
STACK WIN 4 44850 a4 2 0 0 0 0 0 1 $T0 .raSearch = $eip $T0 ^ = $esp $T0 4 + = 
STACK WIN 4 44900 b4 0 0 0 0 0 0 1 $T0 .raSearch = $eip $T0 ^ = $esp $T0 4 + = 
STACK WIN 4 449c0 73 3 0 0 0 0 0 1 $T0 .raSearch = $eip $T0 ^ = $esp $T0 4 + = 
STACK WIN 4 449c1 71 2 0 0 4 0 0 1 $T0 .raSearch = $eip $T0 ^ = $esp $T0 4 + =  $20 $T0 4 - ^ = 
STACK WIN 4 449c4 68 0 0 0 8 0 0 1 $T0 .raSearch = $eip $T0 ^ = $esp $T0 4 + =  $20 $T0 4 - ^ =  $23 $T0 8 - ^ = 
STACK WIN 4 449c5 66 0 0 0 c 0 0 1 $T0 .raSearch = $eip $T0 ^ = $esp $T0 4 + =  $20 $T0 4 - ^ =  $23 $T0 8 - ^ =  $24 $T0 12 - ^ = 
STACK WIN 4 44a40 6f 0 0 0 0 0 0 1 $T0 .raSearch = $eip $T0 ^ = $esp $T0 4 + = 
STACK WIN 4 44a52 5c 0 0 0 4 0 0 1 $T0 .raSearch = $eip $T0 ^ = $esp $T0 4 + =  $23 $T0 4 - ^ = 
STACK WIN 4 44a8d 1e 0 0 0 8 0 0 1 $T0 .raSearch = $eip $T0 ^ = $esp $T0 4 + =  $23 $T0 4 - ^ =  $24 $T0 8 - ^ = 
STACK WIN 4 44ab0 16e e 0 4 c 4 0 1 $T1 .raSearch = $T0  $T1 4 - 8 @ = $ebp $T1 4 - ^ = $eip $T1 ^ = $esp $T1 4 + = $20 $T0 8 - ^ =  $23 $T0 12 - ^ =  $24 $T0 16 - ^ = 
STACK WIN 4 44c20 980 1b 0 c 8 78 0 1 $T1 .raSearch = $T0  $T1 4 - 16 @ = $ebp $T1 4 - ^ = $eip $T1 ^ = $esp $T1 4 + = $23 $T0 124 - ^ =  $24 $T0 128 - ^ = 
STACK WIN 4 455a0 15c a 0 0 10 c 0 1 $T0 .raSearch = $eip $T0 ^ = $esp $T0 4 + =  $20 $T0 16 - ^ =  $22 $T0 20 - ^ =  $23 $T0 24 - ^ =  $24 $T0 28 - ^ = 
STACK WIN 4 45700 608 d 0 8 c 44 0 1 $T1 .raSearch = $T0  $T1 4 - 8 @ = $ebp $T1 4 - ^ = $eip $T1 ^ = $esp $T1 4 + = $20 $T0 72 - ^ =  $23 $T0 76 - ^ =  $24 $T0 80 - ^ = 
STACK WIN 4 45d10 a0 8 0 0 8 4 0 1 $T0 .raSearch = $eip $T0 ^ = $esp $T0 4 + =  $23 $T0 8 - ^ =  $24 $T0 12 - ^ = 
STACK WIN 4 45db0 f67 23 0 8 c 44 0 1 $T1 .raSearch = $T0  $T1 4 - 8 @ = $ebp $T1 4 - ^ = $eip $T1 ^ = $esp $T1 4 + = $20 $T0 72 - ^ =  $23 $T0 76 - ^ =  $24 $T0 80 - ^ = 
STACK WIN 4 46d20 9b 11 0 8 8 10 0 1 $T1 .raSearch = $T0  $T1 4 - 8 @ = $ebp $T1 4 - ^ = $eip $T1 ^ = $esp $T1 4 + = $23 $T0 20 - ^ =  $24 $T0 24 - ^ = 
STACK WIN 4 46dc0 140 13 0 8 c c 0 1 $T1 .raSearch = $T0  $T1 4 - 8 @ = $ebp $T1 4 - ^ = $eip $T1 ^ = $esp $T1 4 + = $20 $T0 16 - ^ =  $23 $T0 20 - ^ =  $24 $T0 24 - ^ = 
STACK WIN 4 46f00 109 3 0 8 0 0 0 1 $T0 .raSearch = $eip $T0 ^ = $esp $T0 4 + = 
STACK WIN 4 46f01 107 2 0 8 4 0 0 1 $T0 .raSearch = $eip $T0 ^ = $esp $T0 4 + =  $23 $T0 4 - ^ = 
STACK WIN 4 46f04 103 0 0 8 8 0 0 1 $T0 .raSearch = $eip $T0 ^ = $esp $T0 4 + =  $23 $T0 4 - ^ =  $24 $T0 8 - ^ = 
STACK WIN 4 47010 76 6 0 4 0 0 0 1 $T0 .raSearch = $eip $T0 ^ = $esp $T0 4 + = 
STACK WIN 4 47011 74 5 0 4 4 0 0 1 $T0 .raSearch = $eip $T0 ^ = $esp $T0 4 + =  $20 $T0 4 - ^ = 
STACK WIN 4 47012 72 4 0 4 8 0 0 1 $T0 .raSearch = $eip $T0 ^ = $esp $T0 4 + =  $20 $T0 4 - ^ =  $24 $T0 8 - ^ = 
STACK WIN 4 4701d 66 0 0 4 c 0 0 1 $T0 .raSearch = $eip $T0 ^ = $esp $T0 4 + =  $20 $T0 4 - ^ =  $24 $T0 8 - ^ =  $22 $T0 12 - ^ = 
STACK WIN 4 47022 60 0 0 4 10 0 0 1 $T0 .raSearch = $eip $T0 ^ = $esp $T0 4 + =  $20 $T0 4 - ^ =  $24 $T0 8 - ^ =  $22 $T0 12 - ^ =  $23 $T0 16 - ^ = 
STACK WIN 4 47090 6c 4 0 0 0 0 0 1 $T0 .raSearch = $eip $T0 ^ = $esp $T0 4 + = 
STACK WIN 4 47094 67 0 0 0 4 0 0 1 $T0 .raSearch = $eip $T0 ^ = $esp $T0 4 + =  $24 $T0 4 - ^ = 
STACK WIN 4 4709d 5d 0 0 0 8 0 0 1 $T0 .raSearch = $eip $T0 ^ = $esp $T0 4 + =  $24 $T0 4 - ^ =  $23 $T0 8 - ^ = 
STACK WIN 4 47100 e8 15 0 c c c 0 1 $T1 .raSearch = $T0  $T1 4 - 8 @ = $ebp $T1 4 - ^ = $eip $T1 ^ = $esp $T1 4 + = $20 $T0 16 - ^ =  $23 $T0 20 - ^ =  $24 $T0 24 - ^ = 
STACK WIN 4 471f0 d7 11 0 10 10 c 0 1 $T0 .raSearch = $eip $T0 ^ = $esp $T0 4 + =  $20 $T0 16 - ^ =  $22 $T0 20 - ^ =  $23 $T0 24 - ^ =  $24 $T0 28 - ^ = 
STACK WIN 4 472d0 3f 1 0 0 0 0 0 1 $T0 .raSearch = $eip $T0 ^ = $esp $T0 4 + = 
STACK WIN 4 472d1 3d 0 0 0 4 0 0 1 $T0 .raSearch = $eip $T0 ^ = $esp $T0 4 + =  $24 $T0 4 - ^ = 
STACK WIN 4 472da 2f 0 0 0 8 0 0 1 $T0 .raSearch = $eip $T0 ^ = $esp $T0 4 + =  $24 $T0 4 - ^ =  $23 $T0 8 - ^ = 
STACK WIN 4 47310 83 f 0 8 c 4 0 1 $T1 .raSearch = $T0  $T1 4 - 8 @ = $ebp $T1 4 - ^ = $eip $T1 ^ = $esp $T1 4 + = $20 $T0 8 - ^ =  $23 $T0 12 - ^ =  $24 $T0 16 - ^ = 
STACK WIN 4 473a0 b5 f 0 4 10 8 0 1 $T0 .raSearch = $eip $T0 ^ = $esp $T0 4 + =  $20 $T0 12 - ^ =  $22 $T0 16 - ^ =  $23 $T0 20 - ^ =  $24 $T0 24 - ^ = 
STACK WIN 4 47460 eff 1e 0 4 8 98 0 1 $T1 .raSearch = $T0  $T1 4 - 16 @ = $ebp $T1 4 - ^ = $eip $T1 ^ = $esp $T1 4 + = $23 $T0 156 - ^ =  $24 $T0 160 - ^ = 
STACK WIN 4 48360 61 9 0 8 8 0 0 1 $T1 .raSearch = $T0  $T1 4 - 8 @ = $ebp $T1 4 - ^ = $eip $T1 ^ = $esp $T1 4 + = $23 $T0 4 - ^ =  $24 $T0 8 - ^ = 
STACK WIN 4 483d0 145 11 0 4 c 4 0 1 $T1 .raSearch = $T0  $T1 4 - 8 @ = $ebp $T1 4 - ^ = $eip $T1 ^ = $esp $T1 4 + = $20 $T0 8 - ^ =  $23 $T0 12 - ^ =  $24 $T0 16 - ^ = 
STACK WIN 4 48520 5b 9 0 4 8 0 0 1 $T1 .raSearch = $T0  $T1 4 - 8 @ = $ebp $T1 4 - ^ = $eip $T1 ^ = $esp $T1 4 + = $23 $T0 4 - ^ =  $24 $T0 8 - ^ = 
STACK WIN 4 48580 ca d 0 4 8 28 0 1 $T1 .raSearch = $T0  $T1 4 - 16 @ = $ebp $T1 4 - ^ = $eip $T1 ^ = $esp $T1 4 + = $23 $T0 44 - ^ =  $24 $T0 48 - ^ = 
STACK WIN 4 48650 d6 c 0 4 c c 0 1 $T1 .raSearch = $T0  $T1 4 - 8 @ = $ebp $T1 4 - ^ = $eip $T1 ^ = $esp $T1 4 + = $20 $T0 16 - ^ =  $23 $T0 20 - ^ =  $24 $T0 24 - ^ = 
STACK WIN 4 48730 257 12 0 c 8 48 0 1 $T1 .raSearch = $T0  $T1 4 - 16 @ = $ebp $T1 4 - ^ = $eip $T1 ^ = $esp $T1 4 + = $23 $T0 76 - ^ =  $24 $T0 80 - ^ = 
STACK WIN 4 48990 182 1e 0 c c c4 0 1 $T0 .raSearch = $eip $T0 ^ = $esp $T0 4 + =  $20 $T0 200 - ^ =  $23 $T0 204 - ^ =  $24 $T0 208 - ^ = 
STACK WIN 4 48b20 2fa b 0 10 10 c 0 1 $T0 .raSearch = $eip $T0 ^ = $esp $T0 4 + =  $20 $T0 16 - ^ =  $22 $T0 20 - ^ =  $23 $T0 24 - ^ =  $24 $T0 28 - ^ = 
STACK WIN 4 48e20 30a f 0 10 c 1c 0 1 $T1 .raSearch = $T0  $T1 4 - 8 @ = $ebp $T1 4 - ^ = $eip $T1 ^ = $esp $T1 4 + = $20 $T0 32 - ^ =  $23 $T0 36 - ^ =  $24 $T0 40 - ^ = 
STACK WIN 4 49130 19b 4 0 4 0 0 0 1 $T0 .raSearch = $eip $T0 ^ = $esp $T0 4 + = 
STACK WIN 4 49131 199 3 0 4 4 0 0 1 $T0 .raSearch = $eip $T0 ^ = $esp $T0 4 + =  $23 $T0 4 - ^ = 
STACK WIN 4 49132 194 2 0 4 8 0 0 1 $T0 .raSearch = $eip $T0 ^ = $esp $T0 4 + =  $23 $T0 4 - ^ =  $24 $T0 8 - ^ = 
STACK WIN 4 4914a 16d 0 0 4 c 0 0 1 $T0 .raSearch = $eip $T0 ^ = $esp $T0 4 + =  $23 $T0 4 - ^ =  $24 $T0 8 - ^ =  $20 $T0 12 - ^ = 
STACK WIN 4 4914e 168 0 0 4 10 0 0 1 $T0 .raSearch = $eip $T0 ^ = $esp $T0 4 + =  $23 $T0 4 - ^ =  $24 $T0 8 - ^ =  $20 $T0 12 - ^ =  $22 $T0 16 - ^ = 
STACK WIN 4 492d0 8d c 0 4 0 0 0 1 $T0 .raSearch = $eip $T0 ^ = $esp $T0 4 + = 
STACK WIN 4 492fc 5d 0 0 4 4 8 0 1 $T0 .raSearch = $eip $T0 ^ = $esp $T0 4 + =  $20 $T0 12 - ^ = 
STACK WIN 4 492fd 56 0 0 4 8 8 0 1 $T0 .raSearch = $eip $T0 ^ = $esp $T0 4 + =  $20 $T0 12 - ^ =  $22 $T0 16 - ^ = 
STACK WIN 4 492fe 54 0 0 4 c 8 0 1 $T0 .raSearch = $eip $T0 ^ = $esp $T0 4 + =  $20 $T0 12 - ^ =  $22 $T0 16 - ^ =  $23 $T0 20 - ^ = 
STACK WIN 4 49301 50 0 0 4 10 8 0 1 $T0 .raSearch = $eip $T0 ^ = $esp $T0 4 + =  $20 $T0 12 - ^ =  $22 $T0 16 - ^ =  $23 $T0 20 - ^ =  $24 $T0 24 - ^ = 
STACK WIN 4 49360 72 c 0 4 0 0 0 1 $T0 .raSearch = $eip $T0 ^ = $esp $T0 4 + = 
STACK WIN 4 49361 70 b 0 4 4 0 0 1 $T0 .raSearch = $eip $T0 ^ = $esp $T0 4 + =  $20 $T0 4 - ^ = 
STACK WIN 4 49366 68 6 0 4 8 0 0 1 $T0 .raSearch = $eip $T0 ^ = $esp $T0 4 + =  $20 $T0 4 - ^ =  $23 $T0 8 - ^ = 
STACK WIN 4 49367 66 5 0 4 c 0 0 1 $T0 .raSearch = $eip $T0 ^ = $esp $T0 4 + =  $20 $T0 4 - ^ =  $23 $T0 8 - ^ =  $24 $T0 12 - ^ = 
STACK WIN 4 493e0 5f 6 0 8 0 0 0 1 $T0 .raSearch = $eip $T0 ^ = $esp $T0 4 + = 
STACK WIN 4 493e1 5d 5 0 8 4 0 0 1 $T0 .raSearch = $eip $T0 ^ = $esp $T0 4 + =  $23 $T0 4 - ^ = 
STACK WIN 4 493e6 55 0 0 8 8 0 0 1 $T0 .raSearch = $eip $T0 ^ = $esp $T0 4 + =  $23 $T0 4 - ^ =  $24 $T0 8 - ^ = 
STACK WIN 4 49440 50 1 0 8 0 0 0 1 $T0 .raSearch = $eip $T0 ^ = $esp $T0 4 + = 
STACK WIN 4 49441 4e 0 0 8 4 0 0 1 $T0 .raSearch = $eip $T0 ^ = $esp $T0 4 + =  $24 $T0 4 - ^ = 
STACK WIN 4 49454 3a 0 0 8 8 0 0 1 $T0 .raSearch = $eip $T0 ^ = $esp $T0 4 + =  $24 $T0 4 - ^ =  $23 $T0 8 - ^ = 
STACK WIN 4 49490 88 10 0 0 0 0 0 1 $T0 .raSearch = $eip $T0 ^ = $esp $T0 4 + = 
STACK WIN 4 49494 80 c 0 0 4 28 0 1 $T0 .raSearch = $eip $T0 ^ = $esp $T0 4 + =  $23 $T0 44 - ^ = 
STACK WIN 4 494a0 6e 0 0 0 8 28 0 1 $T0 .raSearch = $eip $T0 ^ = $esp $T0 4 + =  $23 $T0 44 - ^ =  $24 $T0 48 - ^ = 
STACK WIN 4 49520 287 12 0 8 0 0 0 1 $T0 .raSearch = $eip $T0 ^ = $esp $T0 4 + = 
STACK WIN 4 49524 276 e 0 8 4 8 0 1 $T0 .raSearch = $eip $T0 ^ = $esp $T0 4 + =  $20 $T0 12 - ^ = 
STACK WIN 4 49529 26b 9 0 8 8 8 0 1 $T0 .raSearch = $eip $T0 ^ = $esp $T0 4 + =  $20 $T0 12 - ^ =  $22 $T0 16 - ^ = 
STACK WIN 4 4952a 269 8 0 8 c 8 0 1 $T0 .raSearch = $eip $T0 ^ = $esp $T0 4 + =  $20 $T0 12 - ^ =  $22 $T0 16 - ^ =  $23 $T0 20 - ^ = 
STACK WIN 4 49532 260 0 0 8 10 8 0 1 $T0 .raSearch = $eip $T0 ^ = $esp $T0 4 + =  $20 $T0 12 - ^ =  $22 $T0 16 - ^ =  $23 $T0 20 - ^ =  $24 $T0 24 - ^ = 
STACK WIN 4 497b0 69 9 0 0 0 0 0 1 $T0 .raSearch = $eip $T0 ^ = $esp $T0 4 + = 
STACK WIN 4 497b4 61 5 0 0 4 1c 0 1 $T0 .raSearch = $eip $T0 ^ = $esp $T0 4 + =  $20 $T0 32 - ^ = 
STACK WIN 4 497b7 5d 2 0 0 8 1c 0 1 $T0 .raSearch = $eip $T0 ^ = $esp $T0 4 + =  $20 $T0 32 - ^ =  $22 $T0 36 - ^ = 
STACK WIN 4 497be 55 0 0 0 c 1c 0 1 $T0 .raSearch = $eip $T0 ^ = $esp $T0 4 + =  $20 $T0 32 - ^ =  $22 $T0 36 - ^ =  $23 $T0 40 - ^ = 
STACK WIN 4 497c1 51 0 0 0 10 1c 0 1 $T0 .raSearch = $eip $T0 ^ = $esp $T0 4 + =  $20 $T0 32 - ^ =  $22 $T0 36 - ^ =  $23 $T0 40 - ^ =  $24 $T0 44 - ^ = 
STACK WIN 4 49820 1f 0 0 0 0 0 0 1 $T0 .raSearch = $eip $T0 ^ = $esp $T0 4 + = 
STACK WIN 4 49840 47 3 0 0 0 0 0 1 $T0 .raSearch = $eip $T0 ^ = $esp $T0 4 + = 
STACK WIN 4 49841 45 2 0 0 4 0 0 1 $T0 .raSearch = $eip $T0 ^ = $esp $T0 4 + =  $23 $T0 4 - ^ = 
STACK WIN 4 49848 39 0 0 0 8 0 0 1 $T0 .raSearch = $eip $T0 ^ = $esp $T0 4 + =  $23 $T0 4 - ^ =  $20 $T0 8 - ^ = 
STACK WIN 4 49851 2f 0 0 0 c 0 0 1 $T0 .raSearch = $eip $T0 ^ = $esp $T0 4 + =  $23 $T0 4 - ^ =  $20 $T0 8 - ^ =  $24 $T0 12 - ^ = 
STACK WIN 4 49890 53 3 0 0 0 0 0 1 $T0 .raSearch = $eip $T0 ^ = $esp $T0 4 + = 
STACK WIN 4 49891 51 2 0 0 4 0 0 1 $T0 .raSearch = $eip $T0 ^ = $esp $T0 4 + =  $23 $T0 4 - ^ = 
STACK WIN 4 498bc 25 0 0 0 8 0 0 1 $T0 .raSearch = $eip $T0 ^ = $esp $T0 4 + =  $23 $T0 4 - ^ =  $24 $T0 8 - ^ = 
STACK WIN 4 498f0 2b 8 0 4 0 0 0 1 $T0 .raSearch = $eip $T0 ^ = $esp $T0 4 + = 
STACK WIN 4 498f1 29 7 0 4 4 0 0 1 $T0 .raSearch = $eip $T0 ^ = $esp $T0 4 + =  $23 $T0 4 - ^ = 
STACK WIN 4 498f6 23 2 0 4 8 0 0 1 $T0 .raSearch = $eip $T0 ^ = $esp $T0 4 + =  $23 $T0 4 - ^ =  $24 $T0 8 - ^ = 
STACK WIN 4 49920 132 a 0 c 0 0 0 1 $T0 .raSearch = $eip $T0 ^ = $esp $T0 4 + = 
STACK WIN 4 49924 12a 6 0 c 4 8 0 1 $T0 .raSearch = $eip $T0 ^ = $esp $T0 4 + =  $20 $T0 12 - ^ = 
STACK WIN 4 49925 128 5 0 c 8 8 0 1 $T0 .raSearch = $eip $T0 ^ = $esp $T0 4 + =  $20 $T0 12 - ^ =  $23 $T0 16 - ^ = 
STACK WIN 4 4992a 122 0 0 c c 8 0 1 $T0 .raSearch = $eip $T0 ^ = $esp $T0 4 + =  $20 $T0 12 - ^ =  $23 $T0 16 - ^ =  $24 $T0 20 - ^ = 
STACK WIN 4 499c5 86 0 0 c 10 8 0 1 $T0 .raSearch = $eip $T0 ^ = $esp $T0 4 + =  $20 $T0 12 - ^ =  $23 $T0 16 - ^ =  $24 $T0 20 - ^ =  $22 $T0 24 - ^ = 
STACK WIN 4 49a60 2cc 1c 0 c c 24 0 1 $T1 .raSearch = $T0  $T1 4 - 8 @ = $ebp $T1 4 - ^ = $eip $T1 ^ = $esp $T1 4 + = $20 $T0 40 - ^ =  $23 $T0 44 - ^ =  $24 $T0 48 - ^ = 
STACK WIN 4 49d30 161 a 0 c 0 0 0 1 $T0 .raSearch = $eip $T0 ^ = $esp $T0 4 + = 
STACK WIN 4 49d34 152 6 0 c 4 c 0 1 $T0 .raSearch = $eip $T0 ^ = $esp $T0 4 + =  $20 $T0 16 - ^ = 
STACK WIN 4 49d35 150 5 0 c 8 c 0 1 $T0 .raSearch = $eip $T0 ^ = $esp $T0 4 + =  $20 $T0 16 - ^ =  $23 $T0 20 - ^ = 
STACK WIN 4 49d3a 14a 0 0 c c c 0 1 $T0 .raSearch = $eip $T0 ^ = $esp $T0 4 + =  $20 $T0 16 - ^ =  $23 $T0 20 - ^ =  $24 $T0 24 - ^ = 
STACK WIN 4 49dda a9 0 0 c 10 c 0 1 $T0 .raSearch = $eip $T0 ^ = $esp $T0 4 + =  $20 $T0 16 - ^ =  $23 $T0 20 - ^ =  $24 $T0 24 - ^ =  $22 $T0 28 - ^ = 
STACK WIN 4 49ea0 c7 1a 0 0 10 c 0 1 $T0 .raSearch = $eip $T0 ^ = $esp $T0 4 + =  $20 $T0 16 - ^ =  $22 $T0 20 - ^ =  $23 $T0 24 - ^ =  $24 $T0 28 - ^ = 
STACK WIN 4 49f70 13d f 0 0 10 c 0 1 $T0 .raSearch = $eip $T0 ^ = $esp $T0 4 + =  $20 $T0 16 - ^ =  $22 $T0 20 - ^ =  $23 $T0 24 - ^ =  $24 $T0 28 - ^ = 
STACK WIN 4 4a0b0 1ec 18 0 4 c 14 0 1 $T1 .raSearch = $T0  $T1 4 - 8 @ = $ebp $T1 4 - ^ = $eip $T1 ^ = $esp $T1 4 + = $20 $T0 24 - ^ =  $23 $T0 28 - ^ =  $24 $T0 32 - ^ = 
STACK WIN 4 4a2a0 56 7 0 0 c 0 0 1 $T0 .raSearch = $eip $T0 ^ = $esp $T0 4 + =  $20 $T0 4 - ^ =  $23 $T0 8 - ^ =  $24 $T0 12 - ^ = 
STACK WIN 4 4a300 3e8 7 0 4 10 20 0 1 $T0 .raSearch = $eip $T0 ^ = $esp $T0 4 + =  $20 $T0 36 - ^ =  $22 $T0 40 - ^ =  $23 $T0 44 - ^ =  $24 $T0 48 - ^ = 
STACK WIN 4 4a6f0 2be c 0 0 10 20 0 1 $T1 .raSearch = $T0  $T1 4 - 8 @ = $ebp $T1 4 - ^ = $eip $T1 ^ = $esp $T1 4 + = $20 $T0 36 - ^ =  $23 $T0 44 - ^ =  $24 $T0 48 - ^ = 
STACK WIN 4 4a9b0 1d7 13 0 0 10 14 0 1 $T0 .raSearch = $eip $T0 ^ = $esp $T0 4 + =  $20 $T0 24 - ^ =  $22 $T0 28 - ^ =  $23 $T0 32 - ^ =  $24 $T0 36 - ^ = 
STACK WIN 4 4ab90 19c 14 0 c 10 30 0 1 $T0 .raSearch = $eip $T0 ^ = $esp $T0 4 + =  $20 $T0 52 - ^ =  $22 $T0 56 - ^ =  $23 $T0 60 - ^ =  $24 $T0 64 - ^ = 
STACK WIN 4 4ad30 46 0 0 4 0 0 0 1 $T0 .raSearch = $eip $T0 ^ = $esp $T0 4 + = 
STACK WIN 4 4ad80 e5 f 0 c c 14 0 1 $T1 .raSearch = $T0  $T1 4 - 8 @ = $ebp $T1 4 - ^ = $eip $T1 ^ = $esp $T1 4 + = $20 $T0 24 - ^ =  $23 $T0 28 - ^ =  $24 $T0 32 - ^ = 
STACK WIN 4 4ae70 121 2 0 c 0 0 0 1 $T0 .raSearch = $eip $T0 ^ = $esp $T0 4 + = 
STACK WIN 4 4ae71 11f 1 0 c 4 0 0 1 $T0 .raSearch = $eip $T0 ^ = $esp $T0 4 + =  $23 $T0 4 - ^ = 
STACK WIN 4 4ae72 11d 0 0 c 8 0 0 1 $T0 .raSearch = $eip $T0 ^ = $esp $T0 4 + =  $23 $T0 4 - ^ =  $24 $T0 8 - ^ = 
STACK WIN 4 4af15 4d 0 0 c c 0 0 1 $T0 .raSearch = $eip $T0 ^ = $esp $T0 4 + =  $23 $T0 4 - ^ =  $24 $T0 8 - ^ =  $20 $T0 12 - ^ = 
STACK WIN 4 4afa0 17a d 0 c c 4 0 1 $T1 .raSearch = $T0  $T1 4 - 8 @ = $ebp $T1 4 - ^ = $eip $T1 ^ = $esp $T1 4 + = $20 $T0 8 - ^ =  $23 $T0 12 - ^ =  $24 $T0 16 - ^ = 
STACK WIN 4 4b120 92 9 0 8 8 0 0 1 $T1 .raSearch = $T0  $T1 4 - 8 @ = $ebp $T1 4 - ^ = $eip $T1 ^ = $esp $T1 4 + = $23 $T0 4 - ^ =  $24 $T0 8 - ^ = 
STACK WIN 4 4b1c0 7a9 3f 0 10 c 54 0 1 $T1 .raSearch = $T0  $T1 4 - 8 @ = $ebp $T1 4 - ^ = $eip $T1 ^ = $esp $T1 4 + = $20 $T0 88 - ^ =  $23 $T0 92 - ^ =  $24 $T0 96 - ^ = 
STACK WIN 4 4b970 80 d 0 0 8 0 0 1 $T1 .raSearch = $T0  $T1 4 - 8 @ = $ebp $T1 4 - ^ = $eip $T1 ^ = $esp $T1 4 + = $23 $T0 4 - ^ =  $24 $T0 8 - ^ = 
STACK WIN 4 4b9f0 134 f 0 0 10 10 0 1 $T1 .raSearch = $T0  $T1 4 - 8 @ = $ebp $T1 4 - ^ = $eip $T1 ^ = $esp $T1 4 + = $20 $T0 20 - ^ =  $23 $T0 28 - ^ =  $24 $T0 32 - ^ = 
STACK WIN 4 4bb30 d1 10 0 4 10 8 0 1 $T0 .raSearch = $eip $T0 ^ = $esp $T0 4 + =  $20 $T0 12 - ^ =  $22 $T0 16 - ^ =  $23 $T0 20 - ^ =  $24 $T0 24 - ^ = 
STACK WIN 4 4bc10 145 9 0 4 10 8 0 1 $T0 .raSearch = $eip $T0 ^ = $esp $T0 4 + =  $20 $T0 12 - ^ =  $22 $T0 16 - ^ =  $23 $T0 20 - ^ =  $24 $T0 24 - ^ = 
STACK WIN 4 4bd60 125 5 0 c 10 0 0 1 $T0 .raSearch = $eip $T0 ^ = $esp $T0 4 + =  $20 $T0 4 - ^ =  $22 $T0 8 - ^ =  $23 $T0 12 - ^ =  $24 $T0 16 - ^ = 
STACK WIN 4 4be90 f6 f 0 10 c 4c 0 1 $T1 .raSearch = $T0  $T1 4 - 8 @ = $ebp $T1 4 - ^ = $eip $T1 ^ = $esp $T1 4 + = $20 $T0 80 - ^ =  $23 $T0 84 - ^ =  $24 $T0 88 - ^ = 
STACK WIN 4 4bf90 125 9 0 0 10 c 0 1 $T0 .raSearch = $eip $T0 ^ = $esp $T0 4 + =  $20 $T0 16 - ^ =  $22 $T0 20 - ^ =  $23 $T0 24 - ^ =  $24 $T0 28 - ^ = 
STACK WIN 4 4c0c0 5c7 20 0 c c 24 0 1 $T1 .raSearch = $T0  $T1 4 - 8 @ = $ebp $T1 4 - ^ = $eip $T1 ^ = $esp $T1 4 + = $20 $T0 40 - ^ =  $23 $T0 44 - ^ =  $24 $T0 48 - ^ = 
STACK WIN 4 4c690 1bc 2c 0 c 10 a0 0 1 $T0 .raSearch = $eip $T0 ^ = $esp $T0 4 + =  $20 $T0 164 - ^ =  $22 $T0 168 - ^ =  $23 $T0 172 - ^ =  $24 $T0 176 - ^ = 
STACK WIN 4 4c850 1d4 c 0 14 8 38 0 1 $T1 .raSearch = $T0  $T1 4 - 16 @ = $ebp $T1 4 - ^ = $eip $T1 ^ = $esp $T1 4 + = $23 $T0 60 - ^ =  $24 $T0 64 - ^ = 
STACK WIN 4 4ca30 37 0 0 c 0 0 0 1 $T0 .raSearch = $eip $T0 ^ = $esp $T0 4 + = 
STACK WIN 4 4ca70 106 10 0 0 10 8 0 1 $T1 .raSearch = $T0  $T1 4 - 8 @ = $ebp $T1 4 - ^ = $eip $T1 ^ = $esp $T1 4 + = $20 $T0 12 - ^ =  $23 $T0 20 - ^ =  $24 $T0 24 - ^ = 
STACK WIN 4 4cb80 127 11 0 0 10 8 0 1 $T1 .raSearch = $T0  $T1 4 - 8 @ = $ebp $T1 4 - ^ = $eip $T1 ^ = $esp $T1 4 + = $20 $T0 12 - ^ =  $23 $T0 20 - ^ =  $24 $T0 24 - ^ = 
STACK WIN 4 4ccb0 d4 13 0 0 10 8 0 1 $T1 .raSearch = $T0  $T1 4 - 8 @ = $ebp $T1 4 - ^ = $eip $T1 ^ = $esp $T1 4 + = $20 $T0 12 - ^ =  $23 $T0 20 - ^ =  $24 $T0 24 - ^ = 
STACK WIN 4 4cd90 77 b 0 0 10 4 0 1 $T0 .raSearch = $eip $T0 ^ = $esp $T0 4 + =  $20 $T0 8 - ^ =  $22 $T0 12 - ^ =  $23 $T0 16 - ^ =  $24 $T0 20 - ^ = 
STACK WIN 4 4ce10 54 1 0 c 0 0 0 1 $T0 .raSearch = $eip $T0 ^ = $esp $T0 4 + = 
STACK WIN 4 4ce11 42 0 0 c 4 0 0 1 $T0 .raSearch = $eip $T0 ^ = $esp $T0 4 + =  $23 $T0 4 - ^ = 
STACK WIN 4 4ce70 1a 3 0 0 4 0 0 1 $T0 .raSearch = $eip $T0 ^ = $esp $T0 4 + =  $23 $T0 4 - ^ = 
STACK WIN 4 4ce90 cf d 0 8 10 4 0 1 $T0 .raSearch = $eip $T0 ^ = $esp $T0 4 + =  $20 $T0 8 - ^ =  $22 $T0 12 - ^ =  $23 $T0 16 - ^ =  $24 $T0 20 - ^ = 
STACK WIN 4 4cf60 dd 11 0 8 10 4 0 1 $T0 .raSearch = $eip $T0 ^ = $esp $T0 4 + =  $20 $T0 8 - ^ =  $22 $T0 12 - ^ =  $23 $T0 16 - ^ =  $24 $T0 20 - ^ = 
STACK WIN 4 4d040 80 3 0 c 8 0 0 1 $T0 .raSearch = $eip $T0 ^ = $esp $T0 4 + =  $23 $T0 4 - ^ =  $24 $T0 8 - ^ = 
STACK WIN 4 4d0c0 d1 c 0 c 10 0 0 1 $T0 .raSearch = $eip $T0 ^ = $esp $T0 4 + =  $20 $T0 4 - ^ =  $22 $T0 8 - ^ =  $23 $T0 12 - ^ =  $24 $T0 16 - ^ = 
STACK WIN 4 4d1a0 de 16 0 0 10 18 0 1 $T1 .raSearch = $T0  $T1 4 - 8 @ = $ebp $T1 4 - ^ = $eip $T1 ^ = $esp $T1 4 + = $20 $T0 28 - ^ =  $23 $T0 36 - ^ =  $24 $T0 40 - ^ = 
STACK WIN 4 4d280 299 e 0 0 10 10 0 1 $T1 .raSearch = $T0  $T1 4 - 8 @ = $ebp $T1 4 - ^ = $eip $T1 ^ = $esp $T1 4 + = $20 $T0 20 - ^ =  $23 $T0 28 - ^ =  $24 $T0 32 - ^ = 
STACK WIN 4 4d520 15e b 0 8 10 54 0 1 $T0 .raSearch = $eip $T0 ^ = $esp $T0 4 + =  $20 $T0 88 - ^ =  $22 $T0 92 - ^ =  $23 $T0 96 - ^ =  $24 $T0 100 - ^ = 
STACK WIN 4 4d680 ea f 0 4 0 0 0 1 $T0 .raSearch = $eip $T0 ^ = $esp $T0 4 + = 
STACK WIN 4 4d690 d6 0 0 4 4 10 0 1 $T0 .raSearch = $eip $T0 ^ = $esp $T0 4 + =  $24 $T0 20 - ^ = 
STACK WIN 4 4d6a0 7a 0 0 4 8 10 0 1 $T0 .raSearch = $eip $T0 ^ = $esp $T0 4 + =  $24 $T0 20 - ^ =  $20 $T0 24 - ^ = 
STACK WIN 4 4d6a1 78 0 0 4 c 10 0 1 $T0 .raSearch = $eip $T0 ^ = $esp $T0 4 + =  $24 $T0 20 - ^ =  $20 $T0 24 - ^ =  $22 $T0 28 - ^ = 
STACK WIN 4 4d6a2 76 0 0 4 10 10 0 1 $T0 .raSearch = $eip $T0 ^ = $esp $T0 4 + =  $24 $T0 20 - ^ =  $20 $T0 24 - ^ =  $22 $T0 28 - ^ =  $23 $T0 32 - ^ = 
STACK WIN 4 4d770 102 8 0 8 10 14 0 1 $T0 .raSearch = $eip $T0 ^ = $esp $T0 4 + =  $20 $T0 24 - ^ =  $22 $T0 28 - ^ =  $23 $T0 32 - ^ =  $24 $T0 36 - ^ = 
STACK WIN 4 4d880 63 d 0 4 10 8 0 1 $T0 .raSearch = $eip $T0 ^ = $esp $T0 4 + =  $20 $T0 12 - ^ =  $22 $T0 16 - ^ =  $23 $T0 20 - ^ =  $24 $T0 24 - ^ = 
STACK WIN 4 4d8f0 d4 e 0 4 0 0 0 1 $T0 .raSearch = $eip $T0 ^ = $esp $T0 4 + = 
STACK WIN 4 4d8f7 c9 7 0 4 4 14 0 1 $T0 .raSearch = $eip $T0 ^ = $esp $T0 4 + =  $22 $T0 24 - ^ = 
STACK WIN 4 4d8f8 c5 6 0 4 8 14 0 1 $T0 .raSearch = $eip $T0 ^ = $esp $T0 4 + =  $22 $T0 24 - ^ =  $24 $T0 28 - ^ = 
STACK WIN 4 4d910 92 0 0 4 c 14 0 1 $T0 .raSearch = $eip $T0 ^ = $esp $T0 4 + =  $22 $T0 24 - ^ =  $24 $T0 28 - ^ =  $20 $T0 32 - ^ = 
STACK WIN 4 4d915 8c 0 0 4 10 14 0 1 $T0 .raSearch = $eip $T0 ^ = $esp $T0 4 + =  $22 $T0 24 - ^ =  $24 $T0 28 - ^ =  $20 $T0 32 - ^ =  $23 $T0 36 - ^ = 
STACK WIN 4 4d9d0 109 6 0 0 0 0 0 1 $T0 .raSearch = $eip $T0 ^ = $esp $T0 4 + = 
STACK WIN 4 4d9d1 107 5 0 0 4 0 0 1 $T0 .raSearch = $eip $T0 ^ = $esp $T0 4 + =  $23 $T0 4 - ^ = 
STACK WIN 4 4d9d2 105 4 0 0 8 0 0 1 $T0 .raSearch = $eip $T0 ^ = $esp $T0 4 + =  $23 $T0 4 - ^ =  $24 $T0 8 - ^ = 
STACK WIN 4 4dae0 ab c 0 4 c 4 0 1 $T1 .raSearch = $T0  $T1 4 - 8 @ = $ebp $T1 4 - ^ = $eip $T1 ^ = $esp $T1 4 + = $20 $T0 8 - ^ =  $23 $T0 12 - ^ =  $24 $T0 16 - ^ = 
STACK WIN 4 4db90 15d 7 0 0 0 0 0 1 $T0 .raSearch = $eip $T0 ^ = $esp $T0 4 + = 
STACK WIN 4 4db94 155 3 0 0 4 8 0 1 $T0 .raSearch = $eip $T0 ^ = $esp $T0 4 + =  $20 $T0 12 - ^ = 
STACK WIN 4 4db95 153 2 0 0 8 8 0 1 $T0 .raSearch = $eip $T0 ^ = $esp $T0 4 + =  $20 $T0 12 - ^ =  $23 $T0 16 - ^ = 
STACK WIN 4 4db9d 14a 0 0 0 c 8 0 1 $T0 .raSearch = $eip $T0 ^ = $esp $T0 4 + =  $20 $T0 12 - ^ =  $23 $T0 16 - ^ =  $24 $T0 20 - ^ = 
STACK WIN 4 4dbb8 b1 0 0 0 10 8 0 1 $T0 .raSearch = $eip $T0 ^ = $esp $T0 4 + =  $20 $T0 12 - ^ =  $23 $T0 16 - ^ =  $24 $T0 20 - ^ =  $22 $T0 24 - ^ = 
STACK WIN 4 4dcf0 31 5 0 0 c 0 0 1 $T0 .raSearch = $eip $T0 ^ = $esp $T0 4 + =  $20 $T0 4 - ^ =  $23 $T0 8 - ^ =  $24 $T0 12 - ^ = 
STACK WIN 4 4dd30 73 5 0 0 c 0 0 1 $T0 .raSearch = $eip $T0 ^ = $esp $T0 4 + =  $20 $T0 4 - ^ =  $23 $T0 8 - ^ =  $24 $T0 12 - ^ = 
STACK WIN 4 4ddb0 12c 7 0 0 0 0 0 1 $T0 .raSearch = $eip $T0 ^ = $esp $T0 4 + = 
STACK WIN 4 4ddb1 12a 6 0 0 4 0 0 1 $T0 .raSearch = $eip $T0 ^ = $esp $T0 4 + =  $22 $T0 4 - ^ = 
STACK WIN 4 4ddb4 126 3 0 0 8 0 0 1 $T0 .raSearch = $eip $T0 ^ = $esp $T0 4 + =  $22 $T0 4 - ^ =  $23 $T0 8 - ^ = 
STACK WIN 4 4ddb5 124 2 0 0 c 0 0 1 $T0 .raSearch = $eip $T0 ^ = $esp $T0 4 + =  $22 $T0 4 - ^ =  $23 $T0 8 - ^ =  $24 $T0 12 - ^ = 
STACK WIN 4 4ddc3 c7 0 0 0 10 0 0 1 $T0 .raSearch = $eip $T0 ^ = $esp $T0 4 + =  $22 $T0 4 - ^ =  $23 $T0 8 - ^ =  $24 $T0 12 - ^ =  $20 $T0 16 - ^ = 
STACK WIN 4 4dee0 16a 9 0 0 10 4 0 1 $T0 .raSearch = $eip $T0 ^ = $esp $T0 4 + =  $20 $T0 8 - ^ =  $22 $T0 12 - ^ =  $23 $T0 16 - ^ =  $24 $T0 20 - ^ = 
STACK WIN 4 4e050 24 1 0 0 0 4 0 1 $T0 .raSearch = $eip $T0 ^ = $esp $T0 4 + = 
STACK WIN 4 4e080 58 3 0 0 c 0 0 1 $T0 .raSearch = $eip $T0 ^ = $esp $T0 4 + =  $20 $T0 4 - ^ =  $23 $T0 8 - ^ =  $24 $T0 12 - ^ = 
STACK WIN 4 4e0e0 5d 4 0 0 c 0 0 1 $T0 .raSearch = $eip $T0 ^ = $esp $T0 4 + =  $20 $T0 4 - ^ =  $23 $T0 8 - ^ =  $24 $T0 12 - ^ = 
STACK WIN 4 4e140 97 6 0 0 0 0 0 1 $T0 .raSearch = $eip $T0 ^ = $esp $T0 4 + = 
STACK WIN 4 4e14f 7d 0 0 0 4 8 0 1 $T0 .raSearch = $eip $T0 ^ = $esp $T0 4 + =  $22 $T0 12 - ^ = 
STACK WIN 4 4e150 7b 0 0 0 8 8 0 1 $T0 .raSearch = $eip $T0 ^ = $esp $T0 4 + =  $22 $T0 12 - ^ =  $23 $T0 16 - ^ = 
STACK WIN 4 4e164 5c 0 0 0 c 8 0 1 $T0 .raSearch = $eip $T0 ^ = $esp $T0 4 + =  $22 $T0 12 - ^ =  $23 $T0 16 - ^ =  $24 $T0 20 - ^ = 
STACK WIN 4 4e165 5a 0 0 0 10 8 0 1 $T0 .raSearch = $eip $T0 ^ = $esp $T0 4 + =  $22 $T0 12 - ^ =  $23 $T0 16 - ^ =  $24 $T0 20 - ^ =  $20 $T0 24 - ^ = 
STACK WIN 4 4e1e0 be 7 0 0 10 4 0 1 $T0 .raSearch = $eip $T0 ^ = $esp $T0 4 + =  $20 $T0 8 - ^ =  $22 $T0 12 - ^ =  $23 $T0 16 - ^ =  $24 $T0 20 - ^ = 
STACK WIN 4 4e2a0 6d 7 0 8 8 4 0 1 $T0 .raSearch = $eip $T0 ^ = $esp $T0 4 + =  $23 $T0 8 - ^ =  $24 $T0 12 - ^ = 
STACK WIN 4 4e310 53 4 0 0 8 4 0 1 $T0 .raSearch = $eip $T0 ^ = $esp $T0 4 + =  $23 $T0 8 - ^ =  $24 $T0 12 - ^ = 
STACK WIN 4 4e370 1a 0 0 0 0 0 0 1 $T0 .raSearch = $eip $T0 ^ = $esp $T0 4 + = 
STACK WIN 4 4e390 22 1 0 0 0 0 0 1 $T0 .raSearch = $eip $T0 ^ = $esp $T0 4 + = 
STACK WIN 4 4e391 20 0 0 0 4 0 0 1 $T0 .raSearch = $eip $T0 ^ = $esp $T0 4 + =  $23 $T0 4 - ^ = 
STACK WIN 4 4e3c0 435 9 0 14 10 18 0 1 $T0 .raSearch = $eip $T0 ^ = $esp $T0 4 + =  $20 $T0 28 - ^ =  $22 $T0 32 - ^ =  $23 $T0 36 - ^ =  $24 $T0 40 - ^ = 
STACK WIN 4 4e800 1ef e 0 4 10 10 0 1 $T0 .raSearch = $eip $T0 ^ = $esp $T0 4 + =  $20 $T0 20 - ^ =  $22 $T0 24 - ^ =  $23 $T0 28 - ^ =  $24 $T0 32 - ^ = 
STACK WIN 4 4e9f0 13c 7 0 0 10 4 0 1 $T0 .raSearch = $eip $T0 ^ = $esp $T0 4 + =  $20 $T0 8 - ^ =  $22 $T0 12 - ^ =  $23 $T0 16 - ^ =  $24 $T0 20 - ^ = 
STACK WIN 4 4eb30 19a c 0 0 c 64 0 1 $T1 .raSearch = $T0  $T1 4 - 16 @ = $ebp $T1 4 - ^ = $eip $T1 ^ = $esp $T1 4 + = $20 $T0 104 - ^ =  $23 $T0 108 - ^ =  $24 $T0 112 - ^ = 
STACK WIN 4 4ecd0 281 12 0 c 10 30 0 1 $T0 .raSearch = $eip $T0 ^ = $esp $T0 4 + =  $20 $T0 52 - ^ =  $22 $T0 56 - ^ =  $23 $T0 60 - ^ =  $24 $T0 64 - ^ = 
STACK WIN 4 4ef60 7c b 0 0 c 4 0 1 $T1 .raSearch = $T0  $T1 4 - 8 @ = $ebp $T1 4 - ^ = $eip $T1 ^ = $esp $T1 4 + = $20 $T0 8 - ^ =  $23 $T0 12 - ^ =  $24 $T0 16 - ^ = 
STACK WIN 4 4efe0 d9 7 0 0 10 c 0 1 $T0 .raSearch = $eip $T0 ^ = $esp $T0 4 + =  $20 $T0 16 - ^ =  $22 $T0 20 - ^ =  $23 $T0 24 - ^ =  $24 $T0 28 - ^ = 
STACK WIN 4 4f0c0 5f 5 0 0 c 0 0 1 $T0 .raSearch = $eip $T0 ^ = $esp $T0 4 + =  $20 $T0 4 - ^ =  $23 $T0 8 - ^ =  $24 $T0 12 - ^ = 
STACK WIN 4 4f120 7a 14 0 0 8 0 0 1 $T1 .raSearch = $T0  $T1 4 - 8 @ = $ebp $T1 4 - ^ = $eip $T1 ^ = $esp $T1 4 + = $23 $T0 4 - ^ =  $24 $T0 8 - ^ = 
STACK WIN 4 4f1a0 b2 d 0 4 0 0 0 1 $T0 .raSearch = $eip $T0 ^ = $esp $T0 4 + = 
STACK WIN 4 4f1a2 ae b 0 4 4 4 0 1 $T0 .raSearch = $eip $T0 ^ = $esp $T0 4 + =  $20 $T0 8 - ^ = 
STACK WIN 4 4f1a3 ac a 0 4 8 4 0 1 $T0 .raSearch = $eip $T0 ^ = $esp $T0 4 + =  $20 $T0 8 - ^ =  $22 $T0 12 - ^ = 
STACK WIN 4 4f1a4 aa 9 0 4 c 4 0 1 $T0 .raSearch = $eip $T0 ^ = $esp $T0 4 + =  $20 $T0 8 - ^ =  $22 $T0 12 - ^ =  $23 $T0 16 - ^ = 
STACK WIN 4 4f1a5 a2 8 0 4 10 4 0 1 $T0 .raSearch = $eip $T0 ^ = $esp $T0 4 + =  $20 $T0 8 - ^ =  $22 $T0 12 - ^ =  $23 $T0 16 - ^ =  $24 $T0 20 - ^ = 
STACK WIN 4 4f260 24b 18 0 0 10 1c 0 1 $T0 .raSearch = $eip $T0 ^ = $esp $T0 4 + =  $20 $T0 32 - ^ =  $22 $T0 36 - ^ =  $23 $T0 40 - ^ =  $24 $T0 44 - ^ = 
STACK WIN 4 4f4b0 a9 a 0 4 10 0 0 1 $T0 .raSearch = $eip $T0 ^ = $esp $T0 4 + =  $20 $T0 4 - ^ =  $22 $T0 8 - ^ =  $23 $T0 12 - ^ =  $24 $T0 16 - ^ = 
STACK WIN 4 4f560 68 4 0 0 10 0 0 1 $T0 .raSearch = $eip $T0 ^ = $esp $T0 4 + =  $20 $T0 4 - ^ =  $22 $T0 8 - ^ =  $23 $T0 12 - ^ =  $24 $T0 16 - ^ = 
STACK WIN 4 4f5d0 5c 3 0 0 10 0 0 1 $T0 .raSearch = $eip $T0 ^ = $esp $T0 4 + =  $20 $T0 4 - ^ =  $22 $T0 8 - ^ =  $23 $T0 12 - ^ =  $24 $T0 16 - ^ = 
STACK WIN 4 4f630 4af 13 0 0 10 20 0 1 $T1 .raSearch = $T0  $T1 4 - 8 @ = $ebp $T1 4 - ^ = $eip $T1 ^ = $esp $T1 4 + = $20 $T0 36 - ^ =  $23 $T0 44 - ^ =  $24 $T0 48 - ^ = 
STACK WIN 4 4fae0 4a1 e 0 c 10 38 0 1 $T0 .raSearch = $eip $T0 ^ = $esp $T0 4 + =  $20 $T0 60 - ^ =  $22 $T0 64 - ^ =  $23 $T0 68 - ^ =  $24 $T0 72 - ^ = 
STACK WIN 4 4ff90 1a1 11 0 18 c 2c 0 1 $T1 .raSearch = $T0  $T1 4 - 8 @ = $ebp $T1 4 - ^ = $eip $T1 ^ = $esp $T1 4 + = $20 $T0 48 - ^ =  $23 $T0 52 - ^ =  $24 $T0 56 - ^ = 
STACK WIN 4 50140 17d 11 0 0 10 10 0 1 $T1 .raSearch = $T0  $T1 4 - 8 @ = $ebp $T1 4 - ^ = $eip $T1 ^ = $esp $T1 4 + = $20 $T0 20 - ^ =  $23 $T0 28 - ^ =  $24 $T0 32 - ^ = 
STACK WIN 4 502c0 5a 4 0 0 0 0 0 1 $T0 .raSearch = $eip $T0 ^ = $esp $T0 4 + = 
STACK WIN 4 502c1 58 3 0 0 4 0 0 1 $T0 .raSearch = $eip $T0 ^ = $esp $T0 4 + =  $20 $T0 4 - ^ = 
STACK WIN 4 502c2 56 2 0 0 8 0 0 1 $T0 .raSearch = $eip $T0 ^ = $esp $T0 4 + =  $20 $T0 4 - ^ =  $22 $T0 8 - ^ = 
STACK WIN 4 502c9 4e 0 0 0 c 0 0 1 $T0 .raSearch = $eip $T0 ^ = $esp $T0 4 + =  $20 $T0 4 - ^ =  $22 $T0 8 - ^ =  $23 $T0 12 - ^ = 
STACK WIN 4 502de 28 0 0 0 10 0 0 1 $T0 .raSearch = $eip $T0 ^ = $esp $T0 4 + =  $20 $T0 4 - ^ =  $22 $T0 8 - ^ =  $23 $T0 12 - ^ =  $24 $T0 16 - ^ = 
STACK WIN 4 50320 11d b 0 4 c 4 0 1 $T1 .raSearch = $T0  $T1 4 - 8 @ = $ebp $T1 4 - ^ = $eip $T1 ^ = $esp $T1 4 + = $20 $T0 8 - ^ =  $23 $T0 12 - ^ =  $24 $T0 16 - ^ = 
STACK WIN 4 50440 89 9 0 0 10 4 0 1 $T0 .raSearch = $eip $T0 ^ = $esp $T0 4 + =  $20 $T0 8 - ^ =  $22 $T0 12 - ^ =  $23 $T0 16 - ^ =  $24 $T0 20 - ^ = 
STACK WIN 4 504d0 87 1e 0 8 10 24 0 1 $T0 .raSearch = $eip $T0 ^ = $esp $T0 4 + =  $20 $T0 40 - ^ =  $22 $T0 44 - ^ =  $23 $T0 48 - ^ =  $24 $T0 52 - ^ = 
STACK WIN 4 50560 24c 11 0 8 c 24 0 1 $T1 .raSearch = $T0  $T1 4 - 8 @ = $ebp $T1 4 - ^ = $eip $T1 ^ = $esp $T1 4 + = $20 $T0 40 - ^ =  $23 $T0 44 - ^ =  $24 $T0 48 - ^ = 
STACK WIN 4 507b0 286 8 0 8 10 c 0 1 $T0 .raSearch = $eip $T0 ^ = $esp $T0 4 + =  $20 $T0 16 - ^ =  $22 $T0 20 - ^ =  $23 $T0 24 - ^ =  $24 $T0 28 - ^ = 
STACK WIN 4 50a40 426 f 0 c 10 30 0 1 $T0 .raSearch = $eip $T0 ^ = $esp $T0 4 + =  $20 $T0 52 - ^ =  $22 $T0 56 - ^ =  $23 $T0 60 - ^ =  $24 $T0 64 - ^ = 
STACK WIN 4 50e70 3ab 9 0 4 10 20 0 1 $T0 .raSearch = $eip $T0 ^ = $esp $T0 4 + =  $20 $T0 36 - ^ =  $22 $T0 40 - ^ =  $23 $T0 44 - ^ =  $24 $T0 48 - ^ = 
STACK WIN 4 51220 9c e 0 8 10 c 0 1 $T0 .raSearch = $eip $T0 ^ = $esp $T0 4 + =  $20 $T0 16 - ^ =  $22 $T0 20 - ^ =  $23 $T0 24 - ^ =  $24 $T0 28 - ^ = 
STACK WIN 4 512c0 b5f 1c 0 24 c 5c 0 1 $T1 .raSearch = $T0  $T1 4 - 8 @ = $ebp $T1 4 - ^ = $eip $T1 ^ = $esp $T1 4 + = $20 $T0 96 - ^ =  $23 $T0 100 - ^ =  $24 $T0 104 - ^ = 
STACK WIN 4 51e20 a4 8 0 0 0 0 0 1 $T0 .raSearch = $eip $T0 ^ = $esp $T0 4 + = 
STACK WIN 4 51e24 9c 4 0 0 4 c 0 1 $T0 .raSearch = $eip $T0 ^ = $esp $T0 4 + =  $20 $T0 16 - ^ = 
STACK WIN 4 51e25 9a 3 0 0 8 c 0 1 $T0 .raSearch = $eip $T0 ^ = $esp $T0 4 + =  $20 $T0 16 - ^ =  $23 $T0 20 - ^ = 
STACK WIN 4 51e26 98 2 0 0 c c 0 1 $T0 .raSearch = $eip $T0 ^ = $esp $T0 4 + =  $20 $T0 16 - ^ =  $23 $T0 20 - ^ =  $24 $T0 24 - ^ = 
STACK WIN 4 51ed0 1f8 8 0 4 10 18 0 1 $T0 .raSearch = $eip $T0 ^ = $esp $T0 4 + =  $20 $T0 28 - ^ =  $22 $T0 32 - ^ =  $23 $T0 36 - ^ =  $24 $T0 40 - ^ = 
STACK WIN 4 520d0 ca 11 0 c c c 0 1 $T1 .raSearch = $T0  $T1 4 - 8 @ = $ebp $T1 4 - ^ = $eip $T1 ^ = $esp $T1 4 + = $20 $T0 16 - ^ =  $23 $T0 20 - ^ =  $24 $T0 24 - ^ = 
STACK WIN 4 521a0 75 8 0 4 c 4 0 1 $T0 .raSearch = $eip $T0 ^ = $esp $T0 4 + =  $20 $T0 8 - ^ =  $23 $T0 12 - ^ =  $24 $T0 16 - ^ = 
STACK WIN 4 52220 105 6 0 0 0 0 0 1 $T0 .raSearch = $eip $T0 ^ = $esp $T0 4 + = 
STACK WIN 4 52221 103 5 0 0 4 0 0 1 $T0 .raSearch = $eip $T0 ^ = $esp $T0 4 + =  $23 $T0 4 - ^ = 
STACK WIN 4 52222 101 4 0 0 8 0 0 1 $T0 .raSearch = $eip $T0 ^ = $esp $T0 4 + =  $23 $T0 4 - ^ =  $24 $T0 8 - ^ = 
STACK WIN 4 5222f 60 0 0 0 c 0 0 1 $T0 .raSearch = $eip $T0 ^ = $esp $T0 4 + =  $23 $T0 4 - ^ =  $24 $T0 8 - ^ =  $20 $T0 12 - ^ = 
STACK WIN 4 52330 9e 6 0 0 0 0 0 1 $T0 .raSearch = $eip $T0 ^ = $esp $T0 4 + = 
STACK WIN 4 52345 85 0 0 0 4 c 0 1 $T0 .raSearch = $eip $T0 ^ = $esp $T0 4 + =  $20 $T0 16 - ^ = 
STACK WIN 4 52346 83 0 0 0 8 c 0 1 $T0 .raSearch = $eip $T0 ^ = $esp $T0 4 + =  $20 $T0 16 - ^ =  $22 $T0 20 - ^ = 
STACK WIN 4 52347 81 0 0 0 c c 0 1 $T0 .raSearch = $eip $T0 ^ = $esp $T0 4 + =  $20 $T0 16 - ^ =  $22 $T0 20 - ^ =  $23 $T0 24 - ^ = 
STACK WIN 4 52348 7f 0 0 0 10 c 0 1 $T0 .raSearch = $eip $T0 ^ = $esp $T0 4 + =  $20 $T0 16 - ^ =  $22 $T0 20 - ^ =  $23 $T0 24 - ^ =  $24 $T0 28 - ^ = 
STACK WIN 4 523d0 148 9 0 8 10 4 0 1 $T0 .raSearch = $eip $T0 ^ = $esp $T0 4 + =  $20 $T0 8 - ^ =  $22 $T0 12 - ^ =  $23 $T0 16 - ^ =  $24 $T0 20 - ^ = 
STACK WIN 4 52520 94 9 0 8 10 4 0 1 $T0 .raSearch = $eip $T0 ^ = $esp $T0 4 + =  $20 $T0 8 - ^ =  $22 $T0 12 - ^ =  $23 $T0 16 - ^ =  $24 $T0 20 - ^ = 
STACK WIN 4 525c0 43 6 0 0 0 0 0 1 $T0 .raSearch = $eip $T0 ^ = $esp $T0 4 + = 
STACK WIN 4 525c1 41 5 0 0 4 0 0 1 $T0 .raSearch = $eip $T0 ^ = $esp $T0 4 + =  $20 $T0 4 - ^ = 
STACK WIN 4 525c2 3f 4 0 0 8 0 0 1 $T0 .raSearch = $eip $T0 ^ = $esp $T0 4 + =  $20 $T0 4 - ^ =  $22 $T0 8 - ^ = 
STACK WIN 4 525cb 35 0 0 0 c 0 0 1 $T0 .raSearch = $eip $T0 ^ = $esp $T0 4 + =  $20 $T0 4 - ^ =  $22 $T0 8 - ^ =  $24 $T0 12 - ^ = 
STACK WIN 4 525d3 2c 0 0 0 10 0 0 1 $T0 .raSearch = $eip $T0 ^ = $esp $T0 4 + =  $20 $T0 4 - ^ =  $22 $T0 8 - ^ =  $24 $T0 12 - ^ =  $23 $T0 16 - ^ = 
STACK WIN 4 52610 216 8 0 0 10 4 0 1 $T0 .raSearch = $eip $T0 ^ = $esp $T0 4 + =  $20 $T0 8 - ^ =  $22 $T0 12 - ^ =  $23 $T0 16 - ^ =  $24 $T0 20 - ^ = 
STACK WIN 4 52830 c1 10 0 18 c 4 0 1 $T1 .raSearch = $T0  $T1 4 - 8 @ = $ebp $T1 4 - ^ = $eip $T1 ^ = $esp $T1 4 + = $20 $T0 8 - ^ =  $23 $T0 12 - ^ =  $24 $T0 16 - ^ = 
STACK WIN 4 52900 48 2 0 4 4 4 0 1 $T0 .raSearch = $eip $T0 ^ = $esp $T0 4 + =  $23 $T0 8 - ^ = 
STACK WIN 4 52950 27 0 0 4 0 0 0 1 $T0 .raSearch = $eip $T0 ^ = $esp $T0 4 + = 
STACK WIN 4 52980 34 3 0 0 0 0 0 1 $T0 .raSearch = $eip $T0 ^ = $esp $T0 4 + = 
STACK WIN 4 52981 32 2 0 0 4 0 0 1 $T0 .raSearch = $eip $T0 ^ = $esp $T0 4 + =  $23 $T0 4 - ^ = 
STACK WIN 4 529c0 11c f 0 0 10 8 0 1 $T1 .raSearch = $T0  $T1 4 - 8 @ = $ebp $T1 4 - ^ = $eip $T1 ^ = $esp $T1 4 + = $20 $T0 12 - ^ =  $23 $T0 20 - ^ =  $24 $T0 24 - ^ = 
STACK WIN 4 52ae0 42 11 0 0 4 0 0 1 $T0 .raSearch = $eip $T0 ^ = $esp $T0 4 + =  $23 $T0 4 - ^ = 
STACK WIN 4 52b30 44 11 0 0 4 0 0 1 $T0 .raSearch = $eip $T0 ^ = $esp $T0 4 + =  $23 $T0 4 - ^ = 
STACK WIN 4 52b80 108 11 0 4 10 8 0 1 $T0 .raSearch = $eip $T0 ^ = $esp $T0 4 + =  $20 $T0 12 - ^ =  $22 $T0 16 - ^ =  $23 $T0 20 - ^ =  $24 $T0 24 - ^ = 
STACK WIN 4 52c90 92 8 0 0 c 8 0 1 $T0 .raSearch = $eip $T0 ^ = $esp $T0 4 + =  $20 $T0 12 - ^ =  $23 $T0 16 - ^ =  $24 $T0 20 - ^ = 
STACK WIN 4 52d30 33 4 0 0 8 4 0 1 $T0 .raSearch = $eip $T0 ^ = $esp $T0 4 + =  $23 $T0 8 - ^ =  $24 $T0 12 - ^ = 
STACK WIN 4 52d70 d2 13 0 0 10 c 0 1 $T0 .raSearch = $eip $T0 ^ = $esp $T0 4 + =  $20 $T0 16 - ^ =  $22 $T0 20 - ^ =  $23 $T0 24 - ^ =  $24 $T0 28 - ^ = 
STACK WIN 4 52e50 52 a 0 4 c 4 0 1 $T0 .raSearch = $eip $T0 ^ = $esp $T0 4 + =  $20 $T0 8 - ^ =  $23 $T0 12 - ^ =  $24 $T0 16 - ^ = 
STACK WIN 4 52eb0 63 4 0 10 c 0 0 1 $T0 .raSearch = $eip $T0 ^ = $esp $T0 4 + =  $20 $T0 4 - ^ =  $23 $T0 8 - ^ =  $24 $T0 12 - ^ = 
STACK WIN 4 52f20 1bf 1a 0 4 c 2c 0 1 $T1 .raSearch = $T0  $T1 4 - 8 @ = $ebp $T1 4 - ^ = $eip $T1 ^ = $esp $T1 4 + = $20 $T0 48 - ^ =  $23 $T0 52 - ^ =  $24 $T0 56 - ^ = 
STACK WIN 4 530e0 aa 6 0 4 10 0 0 1 $T0 .raSearch = $eip $T0 ^ = $esp $T0 4 + =  $20 $T0 4 - ^ =  $22 $T0 8 - ^ =  $23 $T0 12 - ^ =  $24 $T0 16 - ^ = 
STACK WIN 4 53190 a2 17 0 0 0 0 0 1 $T0 .raSearch = $eip $T0 ^ = $esp $T0 4 + = 
STACK WIN 4 53194 9a 13 0 0 4 c 0 1 $T0 .raSearch = $eip $T0 ^ = $esp $T0 4 + =  $20 $T0 16 - ^ = 
STACK WIN 4 53195 93 12 0 0 8 c 0 1 $T0 .raSearch = $eip $T0 ^ = $esp $T0 4 + =  $20 $T0 16 - ^ =  $22 $T0 20 - ^ = 
STACK WIN 4 5319a 8d d 0 0 c c 0 1 $T0 .raSearch = $eip $T0 ^ = $esp $T0 4 + =  $20 $T0 16 - ^ =  $22 $T0 20 - ^ =  $23 $T0 24 - ^ = 
STACK WIN 4 5319b 8b c 0 0 10 c 0 1 $T0 .raSearch = $eip $T0 ^ = $esp $T0 4 + =  $20 $T0 16 - ^ =  $22 $T0 20 - ^ =  $23 $T0 24 - ^ =  $24 $T0 28 - ^ = 
STACK WIN 4 53240 c3 16 0 4 10 8 0 1 $T0 .raSearch = $eip $T0 ^ = $esp $T0 4 + =  $20 $T0 12 - ^ =  $22 $T0 16 - ^ =  $23 $T0 20 - ^ =  $24 $T0 24 - ^ = 
STACK WIN 4 53310 63 6 0 0 10 c 0 1 $T0 .raSearch = $eip $T0 ^ = $esp $T0 4 + =  $20 $T0 16 - ^ =  $22 $T0 20 - ^ =  $23 $T0 24 - ^ =  $24 $T0 28 - ^ = 
STACK WIN 4 53380 186 8 0 4 10 8 0 1 $T0 .raSearch = $eip $T0 ^ = $esp $T0 4 + =  $20 $T0 12 - ^ =  $22 $T0 16 - ^ =  $23 $T0 20 - ^ =  $24 $T0 24 - ^ = 
STACK WIN 4 53510 109 b 0 0 10 c 0 1 $T0 .raSearch = $eip $T0 ^ = $esp $T0 4 + =  $20 $T0 16 - ^ =  $22 $T0 20 - ^ =  $23 $T0 24 - ^ =  $24 $T0 28 - ^ = 
STACK WIN 4 53620 25c 16 0 c c 1c 0 1 $T1 .raSearch = $T0  $T1 4 - 8 @ = $ebp $T1 4 - ^ = $eip $T1 ^ = $esp $T1 4 + = $20 $T0 32 - ^ =  $23 $T0 36 - ^ =  $24 $T0 40 - ^ = 
STACK WIN 4 53880 da 6 0 0 0 0 0 1 $T0 .raSearch = $eip $T0 ^ = $esp $T0 4 + = 
STACK WIN 4 53881 d8 5 0 0 4 0 0 1 $T0 .raSearch = $eip $T0 ^ = $esp $T0 4 + =  $20 $T0 4 - ^ = 
STACK WIN 4 53884 d4 2 0 0 8 0 0 1 $T0 .raSearch = $eip $T0 ^ = $esp $T0 4 + =  $20 $T0 4 - ^ =  $23 $T0 8 - ^ = 
STACK WIN 4 5388f 80 0 0 0 c 0 0 1 $T0 .raSearch = $eip $T0 ^ = $esp $T0 4 + =  $20 $T0 4 - ^ =  $23 $T0 8 - ^ =  $22 $T0 12 - ^ = 
STACK WIN 4 53896 78 0 0 0 10 0 0 1 $T0 .raSearch = $eip $T0 ^ = $esp $T0 4 + =  $20 $T0 4 - ^ =  $23 $T0 8 - ^ =  $22 $T0 12 - ^ =  $24 $T0 16 - ^ = 
STACK WIN 4 53960 167 10 0 4 c c 0 1 $T1 .raSearch = $T0  $T1 4 - 8 @ = $ebp $T1 4 - ^ = $eip $T1 ^ = $esp $T1 4 + = $20 $T0 16 - ^ =  $23 $T0 20 - ^ =  $24 $T0 24 - ^ = 
STACK WIN 4 53ad0 6e 7 0 0 10 4 0 1 $T0 .raSearch = $eip $T0 ^ = $esp $T0 4 + =  $20 $T0 8 - ^ =  $22 $T0 12 - ^ =  $23 $T0 16 - ^ =  $24 $T0 20 - ^ = 
STACK WIN 4 53b40 c9 18 0 8 10 c 0 1 $T0 .raSearch = $eip $T0 ^ = $esp $T0 4 + =  $20 $T0 16 - ^ =  $22 $T0 20 - ^ =  $23 $T0 24 - ^ =  $24 $T0 28 - ^ = 
STACK WIN 4 53c10 f3 d 0 4 c c 0 1 $T1 .raSearch = $T0  $T1 4 - 8 @ = $ebp $T1 4 - ^ = $eip $T1 ^ = $esp $T1 4 + = $20 $T0 16 - ^ =  $23 $T0 20 - ^ =  $24 $T0 24 - ^ = 
STACK WIN 4 53d10 34 3 0 8 4 0 0 1 $T0 .raSearch = $eip $T0 ^ = $esp $T0 4 + =  $20 $T0 4 - ^ = 
STACK WIN 4 53d50 7a d 0 0 0 0 0 1 $T0 .raSearch = $eip $T0 ^ = $esp $T0 4 + = 
STACK WIN 4 53d52 76 b 0 0 4 4 0 1 $T0 .raSearch = $eip $T0 ^ = $esp $T0 4 + =  $20 $T0 8 - ^ = 
STACK WIN 4 53d53 74 a 0 0 8 4 0 1 $T0 .raSearch = $eip $T0 ^ = $esp $T0 4 + =  $20 $T0 8 - ^ =  $22 $T0 12 - ^ = 
STACK WIN 4 53d54 72 9 0 0 c 4 0 1 $T0 .raSearch = $eip $T0 ^ = $esp $T0 4 + =  $20 $T0 8 - ^ =  $22 $T0 12 - ^ =  $23 $T0 16 - ^ = 
STACK WIN 4 53d5e 65 0 0 0 10 4 0 1 $T0 .raSearch = $eip $T0 ^ = $esp $T0 4 + =  $20 $T0 8 - ^ =  $22 $T0 12 - ^ =  $23 $T0 16 - ^ =  $24 $T0 20 - ^ = 
STACK WIN 4 53dd0 88 3 0 0 0 0 0 1 $T0 .raSearch = $eip $T0 ^ = $esp $T0 4 + = 
STACK WIN 4 53dd1 86 2 0 0 4 0 0 1 $T0 .raSearch = $eip $T0 ^ = $esp $T0 4 + =  $22 $T0 4 - ^ = 
STACK WIN 4 53dd8 7e 0 0 0 8 0 0 1 $T0 .raSearch = $eip $T0 ^ = $esp $T0 4 + =  $22 $T0 4 - ^ =  $20 $T0 8 - ^ = 
STACK WIN 4 53dd9 7c 0 0 0 c 0 0 1 $T0 .raSearch = $eip $T0 ^ = $esp $T0 4 + =  $22 $T0 4 - ^ =  $20 $T0 8 - ^ =  $23 $T0 12 - ^ = 
STACK WIN 4 53dda 7a 0 0 0 10 0 0 1 $T0 .raSearch = $eip $T0 ^ = $esp $T0 4 + =  $22 $T0 4 - ^ =  $20 $T0 8 - ^ =  $23 $T0 12 - ^ =  $24 $T0 16 - ^ = 
STACK WIN 4 53e60 24f 1a 0 c c 1c 0 1 $T1 .raSearch = $T0  $T1 4 - 8 @ = $ebp $T1 4 - ^ = $eip $T1 ^ = $esp $T1 4 + = $20 $T0 32 - ^ =  $23 $T0 36 - ^ =  $24 $T0 40 - ^ = 
STACK WIN 4 540b0 13f e 0 4 8 38 0 1 $T1 .raSearch = $T0  $T1 4 - 16 @ = $ebp $T1 4 - ^ = $eip $T1 ^ = $esp $T1 4 + = $23 $T0 60 - ^ =  $24 $T0 64 - ^ = 
STACK WIN 4 541f0 14b 9 0 0 10 4 0 1 $T0 .raSearch = $eip $T0 ^ = $esp $T0 4 + =  $20 $T0 8 - ^ =  $22 $T0 12 - ^ =  $23 $T0 16 - ^ =  $24 $T0 20 - ^ = 
STACK WIN 4 54340 97 a 0 0 10 4 0 1 $T0 .raSearch = $eip $T0 ^ = $esp $T0 4 + =  $20 $T0 8 - ^ =  $22 $T0 12 - ^ =  $23 $T0 16 - ^ =  $24 $T0 20 - ^ = 
STACK WIN 4 543e0 81 5 0 4 8 0 0 1 $T0 .raSearch = $eip $T0 ^ = $esp $T0 4 + =  $20 $T0 4 - ^ =  $23 $T0 8 - ^ = 
STACK WIN 4 54470 1fe f 0 8 c 2c 0 1 $T1 .raSearch = $T0  $T1 4 - 8 @ = $ebp $T1 4 - ^ = $eip $T1 ^ = $esp $T1 4 + = $20 $T0 48 - ^ =  $23 $T0 52 - ^ =  $24 $T0 56 - ^ = 
STACK WIN 4 54670 9a6 4d 0 4 8 a8 0 1 $T1 .raSearch = $T0  $T1 4 - 16 @ = $ebp $T1 4 - ^ = $eip $T1 ^ = $esp $T1 4 + = $23 $T0 172 - ^ =  $24 $T0 176 - ^ = 
STACK WIN 4 55020 45a 1f 0 24 c 24 0 1 $T1 .raSearch = $T0  $T1 4 - 8 @ = $ebp $T1 4 - ^ = $eip $T1 ^ = $esp $T1 4 + = $20 $T0 40 - ^ =  $23 $T0 44 - ^ =  $24 $T0 48 - ^ = 
STACK WIN 4 55480 17d 19 0 10 c 14 0 1 $T1 .raSearch = $T0  $T1 4 - 8 @ = $ebp $T1 4 - ^ = $eip $T1 ^ = $esp $T1 4 + = $20 $T0 24 - ^ =  $23 $T0 28 - ^ =  $24 $T0 32 - ^ = 
STACK WIN 4 55600 314 d 0 18 c 1c 0 1 $T1 .raSearch = $T0  $T1 4 - 8 @ = $ebp $T1 4 - ^ = $eip $T1 ^ = $esp $T1 4 + = $20 $T0 32 - ^ =  $23 $T0 36 - ^ =  $24 $T0 40 - ^ = 
STACK WIN 4 55920 c1 8 0 c 0 0 0 1 $T0 .raSearch = $eip $T0 ^ = $esp $T0 4 + = 
STACK WIN 4 55928 b5 0 0 c 4 c 0 1 $T0 .raSearch = $eip $T0 ^ = $esp $T0 4 + =  $20 $T0 16 - ^ = 
STACK WIN 4 55967 75 0 0 c 8 c 0 1 $T0 .raSearch = $eip $T0 ^ = $esp $T0 4 + =  $20 $T0 16 - ^ =  $22 $T0 20 - ^ = 
STACK WIN 4 55968 73 0 0 c c c 0 1 $T0 .raSearch = $eip $T0 ^ = $esp $T0 4 + =  $20 $T0 16 - ^ =  $22 $T0 20 - ^ =  $23 $T0 24 - ^ = 
STACK WIN 4 5596e 6c 0 0 c 10 c 0 1 $T0 .raSearch = $eip $T0 ^ = $esp $T0 4 + =  $20 $T0 16 - ^ =  $22 $T0 20 - ^ =  $23 $T0 24 - ^ =  $24 $T0 28 - ^ = 
STACK WIN 4 559f0 8c 0 0 c 0 0 0 1 $T0 .raSearch = $eip $T0 ^ = $esp $T0 4 + = 
STACK WIN 4 55a33 36 0 0 c 4 0 0 1 $T0 .raSearch = $eip $T0 ^ = $esp $T0 4 + =  $23 $T0 4 - ^ = 
STACK WIN 4 55a80 140 b 0 c 4 4 0 1 $T1 .raSearch = $T0  $T1 4 - 8 @ = $ebp $T1 4 - ^ = $eip $T1 ^ = $esp $T1 4 + = $23 $T0 8 - ^ = 
STACK WIN 4 55bc0 16a f 0 c 4 14 0 1 $T1 .raSearch = $T0  $T1 4 - 8 @ = $ebp $T1 4 - ^ = $eip $T1 ^ = $esp $T1 4 + = $23 $T0 24 - ^ = 
STACK WIN 4 55d30 246 c 0 c c 14 0 1 $T1 .raSearch = $T0  $T1 4 - 8 @ = $ebp $T1 4 - ^ = $eip $T1 ^ = $esp $T1 4 + = $20 $T0 24 - ^ =  $23 $T0 28 - ^ =  $24 $T0 32 - ^ = 
STACK WIN 4 55f80 104 a 0 c 0 0 0 1 $T0 .raSearch = $eip $T0 ^ = $esp $T0 4 + = 
STACK WIN 4 55f84 fc 6 0 c 4 28 0 1 $T0 .raSearch = $eip $T0 ^ = $esp $T0 4 + =  $22 $T0 44 - ^ = 
STACK WIN 4 55f85 fa 5 0 c 8 28 0 1 $T0 .raSearch = $eip $T0 ^ = $esp $T0 4 + =  $22 $T0 44 - ^ =  $23 $T0 48 - ^ = 
STACK WIN 4 55f8a f4 0 0 c c 28 0 1 $T0 .raSearch = $eip $T0 ^ = $esp $T0 4 + =  $22 $T0 44 - ^ =  $23 $T0 48 - ^ =  $24 $T0 52 - ^ = 
STACK WIN 4 55f9d e0 0 0 c 10 28 0 1 $T0 .raSearch = $eip $T0 ^ = $esp $T0 4 + =  $22 $T0 44 - ^ =  $23 $T0 48 - ^ =  $24 $T0 52 - ^ =  $20 $T0 56 - ^ = 
STACK WIN 4 56090 3d4 c 0 c c 24 0 1 $T1 .raSearch = $T0  $T1 4 - 8 @ = $ebp $T1 4 - ^ = $eip $T1 ^ = $esp $T1 4 + = $20 $T0 40 - ^ =  $23 $T0 44 - ^ =  $24 $T0 48 - ^ = 
STACK WIN 4 56470 1f8 11 0 c 8 20 0 1 $T1 .raSearch = $T0  $T1 4 - 8 @ = $ebp $T1 4 - ^ = $eip $T1 ^ = $esp $T1 4 + = $23 $T0 36 - ^ =  $24 $T0 40 - ^ = 
STACK WIN 4 56670 63 9 0 8 8 4 0 1 $T0 .raSearch = $eip $T0 ^ = $esp $T0 4 + =  $23 $T0 8 - ^ =  $24 $T0 12 - ^ = 
STACK WIN 4 566e0 10f a 0 c c 4 0 1 $T1 .raSearch = $T0  $T1 4 - 8 @ = $ebp $T1 4 - ^ = $eip $T1 ^ = $esp $T1 4 + = $20 $T0 8 - ^ =  $23 $T0 12 - ^ =  $24 $T0 16 - ^ = 
STACK WIN 4 567f0 105 d 0 c c 4 0 1 $T1 .raSearch = $T0  $T1 4 - 8 @ = $ebp $T1 4 - ^ = $eip $T1 ^ = $esp $T1 4 + = $20 $T0 8 - ^ =  $23 $T0 12 - ^ =  $24 $T0 16 - ^ = 
STACK WIN 4 56900 6c a 0 c 4 c 0 1 $T1 .raSearch = $T0  $T1 4 - 8 @ = $ebp $T1 4 - ^ = $eip $T1 ^ = $esp $T1 4 + = $23 $T0 16 - ^ = 
STACK WIN 4 56970 b2 f 0 c c c 0 1 $T1 .raSearch = $T0  $T1 4 - 8 @ = $ebp $T1 4 - ^ = $eip $T1 ^ = $esp $T1 4 + = $20 $T0 16 - ^ =  $23 $T0 20 - ^ =  $24 $T0 24 - ^ = 
STACK WIN 4 56a30 43 b 0 c 4 4 0 1 $T1 .raSearch = $T0  $T1 4 - 8 @ = $ebp $T1 4 - ^ = $eip $T1 ^ = $esp $T1 4 + = $23 $T0 8 - ^ = 
STACK WIN 4 56a80 41 b 0 c 4 4 0 1 $T1 .raSearch = $T0  $T1 4 - 8 @ = $ebp $T1 4 - ^ = $eip $T1 ^ = $esp $T1 4 + = $23 $T0 8 - ^ = 
STACK WIN 4 56ad0 41 b 0 c 4 4 0 1 $T1 .raSearch = $T0  $T1 4 - 8 @ = $ebp $T1 4 - ^ = $eip $T1 ^ = $esp $T1 4 + = $23 $T0 8 - ^ = 
STACK WIN 4 56b20 38a 2e 0 8 0 0 0 1 $T0 .raSearch = $eip $T0 ^ = $esp $T0 4 + = 
STACK WIN 4 56b24 382 2a 0 8 4 18 0 1 $T0 .raSearch = $eip $T0 ^ = $esp $T0 4 + =  $20 $T0 28 - ^ = 
STACK WIN 4 56b25 37d 29 0 8 8 18 0 1 $T0 .raSearch = $eip $T0 ^ = $esp $T0 4 + =  $20 $T0 28 - ^ =  $22 $T0 32 - ^ = 
STACK WIN 4 56b2a 377 24 0 8 c 18 0 1 $T0 .raSearch = $eip $T0 ^ = $esp $T0 4 + =  $20 $T0 28 - ^ =  $22 $T0 32 - ^ =  $23 $T0 36 - ^ = 
STACK WIN 4 56b2b 375 23 0 8 10 18 0 1 $T0 .raSearch = $eip $T0 ^ = $esp $T0 4 + =  $20 $T0 28 - ^ =  $22 $T0 32 - ^ =  $23 $T0 36 - ^ =  $24 $T0 40 - ^ = 
STACK WIN 4 56eb0 1d 0 0 8 0 0 0 1 $T0 .raSearch = $eip $T0 ^ = $esp $T0 4 + = 
STACK WIN 4 56ed0 1f 0 0 c 0 0 0 1 $T0 .raSearch = $eip $T0 ^ = $esp $T0 4 + = 
STACK WIN 4 56ef0 1f4 b 0 c 10 8 0 1 $T0 .raSearch = $eip $T0 ^ = $esp $T0 4 + =  $20 $T0 12 - ^ =  $22 $T0 16 - ^ =  $23 $T0 20 - ^ =  $24 $T0 24 - ^ = 
STACK WIN 4 570f0 39 6 0 c 0 0 0 1 $T0 .raSearch = $eip $T0 ^ = $esp $T0 4 + = 
STACK WIN 4 570f1 37 5 0 c 4 0 0 1 $T0 .raSearch = $eip $T0 ^ = $esp $T0 4 + =  $23 $T0 4 - ^ = 
STACK WIN 4 570f6 31 0 0 c 8 0 0 1 $T0 .raSearch = $eip $T0 ^ = $esp $T0 4 + =  $23 $T0 4 - ^ =  $24 $T0 8 - ^ = 
STACK WIN 4 57130 3d 1 0 c 0 0 0 1 $T0 .raSearch = $eip $T0 ^ = $esp $T0 4 + = 
STACK WIN 4 57131 3b 0 0 c 4 0 0 1 $T0 .raSearch = $eip $T0 ^ = $esp $T0 4 + =  $23 $T0 4 - ^ = 
STACK WIN 4 57170 3d 1 0 c 0 0 0 1 $T0 .raSearch = $eip $T0 ^ = $esp $T0 4 + = 
STACK WIN 4 57171 3b 0 0 c 4 0 0 1 $T0 .raSearch = $eip $T0 ^ = $esp $T0 4 + =  $23 $T0 4 - ^ = 
STACK WIN 4 571b0 51 1 0 c 0 0 0 1 $T0 .raSearch = $eip $T0 ^ = $esp $T0 4 + = 
STACK WIN 4 571b1 4f 0 0 c 4 0 0 1 $T0 .raSearch = $eip $T0 ^ = $esp $T0 4 + =  $23 $T0 4 - ^ = 
STACK WIN 4 57210 7a b 0 c 4 4 0 1 $T1 .raSearch = $T0  $T1 4 - 8 @ = $ebp $T1 4 - ^ = $eip $T1 ^ = $esp $T1 4 + = $23 $T0 8 - ^ = 
STACK WIN 4 57290 53 0 0 c 0 0 0 1 $T0 .raSearch = $eip $T0 ^ = $esp $T0 4 + = 
STACK WIN 4 572ac 36 0 0 c 4 0 0 1 $T0 .raSearch = $eip $T0 ^ = $esp $T0 4 + =  $23 $T0 4 - ^ = 
STACK WIN 4 572f0 2b8 1a 0 c c 74 0 1 $T1 .raSearch = $T0  $T1 4 - 64 @ = $ebp $T1 4 - ^ = $eip $T1 ^ = $esp $T1 4 + = $20 $T0 120 - ^ =  $23 $T0 124 - ^ =  $24 $T0 128 - ^ = 
STACK WIN 4 575b0 83 b 0 c 4 4 0 1 $T1 .raSearch = $T0  $T1 4 - 8 @ = $ebp $T1 4 - ^ = $eip $T1 ^ = $esp $T1 4 + = $23 $T0 8 - ^ = 
STACK WIN 4 57640 1a7 c 0 c c c 0 1 $T1 .raSearch = $T0  $T1 4 - 8 @ = $ebp $T1 4 - ^ = $eip $T1 ^ = $esp $T1 4 + = $20 $T0 16 - ^ =  $23 $T0 20 - ^ =  $24 $T0 24 - ^ = 
STACK WIN 4 577f0 17c c 0 c c c 0 1 $T1 .raSearch = $T0  $T1 4 - 8 @ = $ebp $T1 4 - ^ = $eip $T1 ^ = $esp $T1 4 + = $20 $T0 16 - ^ =  $23 $T0 20 - ^ =  $24 $T0 24 - ^ = 
STACK WIN 4 57970 9c 11 0 c c c 0 1 $T1 .raSearch = $T0  $T1 4 - 8 @ = $ebp $T1 4 - ^ = $eip $T1 ^ = $esp $T1 4 + = $20 $T0 16 - ^ =  $23 $T0 20 - ^ =  $24 $T0 24 - ^ = 
STACK WIN 4 57a10 36a f 0 c c 2c 0 1 $T1 .raSearch = $T0  $T1 4 - 8 @ = $ebp $T1 4 - ^ = $eip $T1 ^ = $esp $T1 4 + = $20 $T0 48 - ^ =  $23 $T0 52 - ^ =  $24 $T0 56 - ^ = 
STACK WIN 4 57d80 405 f 0 c c 1c 0 1 $T1 .raSearch = $T0  $T1 4 - 8 @ = $ebp $T1 4 - ^ = $eip $T1 ^ = $esp $T1 4 + = $20 $T0 32 - ^ =  $23 $T0 36 - ^ =  $24 $T0 40 - ^ = 
STACK WIN 4 58190 10b 8 0 c 0 0 0 1 $T0 .raSearch = $eip $T0 ^ = $esp $T0 4 + = 
STACK WIN 4 58191 109 7 0 c 4 0 0 1 $T0 .raSearch = $eip $T0 ^ = $esp $T0 4 + =  $20 $T0 4 - ^ = 
STACK WIN 4 58196 103 2 0 c 8 0 0 1 $T0 .raSearch = $eip $T0 ^ = $esp $T0 4 + =  $20 $T0 4 - ^ =  $22 $T0 8 - ^ = 
STACK WIN 4 58197 101 1 0 c c 0 0 1 $T0 .raSearch = $eip $T0 ^ = $esp $T0 4 + =  $20 $T0 4 - ^ =  $22 $T0 8 - ^ =  $23 $T0 12 - ^ = 
STACK WIN 4 58198 ff 0 0 c 10 0 0 1 $T0 .raSearch = $eip $T0 ^ = $esp $T0 4 + =  $20 $T0 4 - ^ =  $22 $T0 8 - ^ =  $23 $T0 12 - ^ =  $24 $T0 16 - ^ = 
STACK WIN 4 582a0 a6 12 0 c c 4 0 1 $T1 .raSearch = $T0  $T1 4 - 8 @ = $ebp $T1 4 - ^ = $eip $T1 ^ = $esp $T1 4 + = $20 $T0 8 - ^ =  $23 $T0 12 - ^ =  $24 $T0 16 - ^ = 
STACK WIN 4 58350 9a f 0 4 4 3c 0 1 $T1 .raSearch = $T0  $T1 4 - 64 @ = $ebp $T1 4 - ^ = $eip $T1 ^ = $esp $T1 4 + = $23 $T0 64 - ^ = 
STACK WIN 4 583f0 af 10 0 4 8 10 0 1 $T1 .raSearch = $T0  $T1 4 - 8 @ = $ebp $T1 4 - ^ = $eip $T1 ^ = $esp $T1 4 + = $23 $T0 20 - ^ =  $24 $T0 24 - ^ = 
STACK WIN 4 584a0 97 f 0 4 4 14 0 1 $T1 .raSearch = $T0  $T1 4 - 8 @ = $ebp $T1 4 - ^ = $eip $T1 ^ = $esp $T1 4 + = $23 $T0 24 - ^ = 
STACK WIN 4 58540 4e 0 0 c 0 0 0 1 $T0 .raSearch = $eip $T0 ^ = $esp $T0 4 + = 
STACK WIN 4 58590 76 f 0 4 4 c 0 1 $T1 .raSearch = $T0  $T1 4 - 8 @ = $ebp $T1 4 - ^ = $eip $T1 ^ = $esp $T1 4 + = $23 $T0 16 - ^ = 
STACK WIN 4 58610 b3 d 0 c 0 0 0 1 $T0 .raSearch = $eip $T0 ^ = $esp $T0 4 + = 
STACK WIN 4 58611 ad c 0 c 4 0 0 1 $T0 .raSearch = $eip $T0 ^ = $esp $T0 4 + =  $20 $T0 4 - ^ = 
STACK WIN 4 58612 ab b 0 c 8 0 0 1 $T0 .raSearch = $eip $T0 ^ = $esp $T0 4 + =  $20 $T0 4 - ^ =  $22 $T0 8 - ^ = 
STACK WIN 4 5861c a0 1 0 c c 0 0 1 $T0 .raSearch = $eip $T0 ^ = $esp $T0 4 + =  $20 $T0 4 - ^ =  $22 $T0 8 - ^ =  $23 $T0 12 - ^ = 
STACK WIN 4 5861d 96 0 0 c 10 0 0 1 $T0 .raSearch = $eip $T0 ^ = $esp $T0 4 + =  $20 $T0 4 - ^ =  $22 $T0 8 - ^ =  $23 $T0 12 - ^ =  $24 $T0 16 - ^ = 
STACK WIN 4 586d0 55 2 0 4 0 0 0 1 $T0 .raSearch = $eip $T0 ^ = $esp $T0 4 + = 
STACK WIN 4 586d1 53 1 0 4 4 0 0 1 $T0 .raSearch = $eip $T0 ^ = $esp $T0 4 + =  $23 $T0 4 - ^ = 
STACK WIN 4 586d2 51 0 0 4 8 0 0 1 $T0 .raSearch = $eip $T0 ^ = $esp $T0 4 + =  $23 $T0 4 - ^ =  $24 $T0 8 - ^ = 
STACK WIN 4 58730 13d 1 0 c 0 0 0 1 $T0 .raSearch = $eip $T0 ^ = $esp $T0 4 + = 
STACK WIN 4 58731 13b 0 0 c 4 0 0 1 $T0 .raSearch = $eip $T0 ^ = $esp $T0 4 + =  $20 $T0 4 - ^ = 
STACK WIN 4 5874c 11f 0 0 c 8 0 0 1 $T0 .raSearch = $eip $T0 ^ = $esp $T0 4 + =  $20 $T0 4 - ^ =  $23 $T0 8 - ^ = 
STACK WIN 4 5874d 11d 0 0 c c 0 0 1 $T0 .raSearch = $eip $T0 ^ = $esp $T0 4 + =  $20 $T0 4 - ^ =  $23 $T0 8 - ^ =  $24 $T0 12 - ^ = 
STACK WIN 4 58870 80 1 0 4 0 0 0 1 $T0 .raSearch = $eip $T0 ^ = $esp $T0 4 + = 
STACK WIN 4 58871 7e 0 0 4 4 0 0 1 $T0 .raSearch = $eip $T0 ^ = $esp $T0 4 + =  $23 $T0 4 - ^ = 
STACK WIN 4 588f0 43 5 0 0 4 0 0 1 $T0 .raSearch = $eip $T0 ^ = $esp $T0 4 + =  $23 $T0 4 - ^ = 
STACK WIN 4 58940 c2 2b 0 0 c 0 0 1 $T0 .raSearch = $eip $T0 ^ = $esp $T0 4 + =  $20 $T0 4 - ^ =  $23 $T0 8 - ^ =  $24 $T0 12 - ^ = 
STACK WIN 4 58a10 2d 0 0 0 0 0 0 1 $T0 .raSearch = $eip $T0 ^ = $esp $T0 4 + = 
STACK WIN 4 58a40 312 26 0 c 10 30 0 1 $T0 .raSearch = $eip $T0 ^ = $esp $T0 4 + =  $20 $T0 52 - ^ =  $22 $T0 56 - ^ =  $23 $T0 60 - ^ =  $24 $T0 64 - ^ = 
STACK WIN 4 58d60 9c7 16 0 1c c 24 0 1 $T1 .raSearch = $T0  $T1 4 - 8 @ = $ebp $T1 4 - ^ = $eip $T1 ^ = $esp $T1 4 + = $20 $T0 40 - ^ =  $23 $T0 44 - ^ =  $24 $T0 48 - ^ = 
STACK WIN 4 59730 9b 8 0 8 10 c 0 1 $T0 .raSearch = $eip $T0 ^ = $esp $T0 4 + =  $20 $T0 16 - ^ =  $22 $T0 20 - ^ =  $23 $T0 24 - ^ =  $24 $T0 28 - ^ = 
STACK WIN 4 597d0 5af 15 0 18 8 58 0 1 $T1 .raSearch = $T0  $T1 4 - 16 @ = $ebp $T1 4 - ^ = $eip $T1 ^ = $esp $T1 4 + = $23 $T0 92 - ^ =  $24 $T0 96 - ^ = 
STACK WIN 4 59d80 24 3 0 0 0 4 0 1 $T0 .raSearch = $eip $T0 ^ = $esp $T0 4 + = 
STACK WIN 4 59db0 84 6 0 0 0 0 0 1 $T0 .raSearch = $eip $T0 ^ = $esp $T0 4 + = 
STACK WIN 4 59db1 82 5 0 0 4 0 0 1 $T0 .raSearch = $eip $T0 ^ = $esp $T0 4 + =  $23 $T0 4 - ^ = 
STACK WIN 4 59db2 80 4 0 0 8 0 0 1 $T0 .raSearch = $eip $T0 ^ = $esp $T0 4 + =  $23 $T0 4 - ^ =  $24 $T0 8 - ^ = 
STACK WIN 4 59dbb 2e 0 0 0 c 0 0 1 $T0 .raSearch = $eip $T0 ^ = $esp $T0 4 + =  $23 $T0 4 - ^ =  $24 $T0 8 - ^ =  $20 $T0 12 - ^ = 
STACK WIN 4 59e40 1c0 8 0 4 10 10 0 1 $T0 .raSearch = $eip $T0 ^ = $esp $T0 4 + =  $20 $T0 20 - ^ =  $22 $T0 24 - ^ =  $23 $T0 28 - ^ =  $24 $T0 32 - ^ = 
STACK WIN 4 5a000 fe e 0 8 0 0 0 1 $T0 .raSearch = $eip $T0 ^ = $esp $T0 4 + = 
STACK WIN 4 5a007 ea 7 0 8 4 14 0 1 $T0 .raSearch = $eip $T0 ^ = $esp $T0 4 + =  $20 $T0 24 - ^ = 
STACK WIN 4 5a008 e3 6 0 8 8 14 0 1 $T0 .raSearch = $eip $T0 ^ = $esp $T0 4 + =  $20 $T0 24 - ^ =  $22 $T0 28 - ^ = 
STACK WIN 4 5a017 d3 0 0 8 c 14 0 1 $T0 .raSearch = $eip $T0 ^ = $esp $T0 4 + =  $20 $T0 24 - ^ =  $22 $T0 28 - ^ =  $23 $T0 32 - ^ = 
STACK WIN 4 5a018 d1 0 0 8 10 14 0 1 $T0 .raSearch = $eip $T0 ^ = $esp $T0 4 + =  $20 $T0 24 - ^ =  $22 $T0 28 - ^ =  $23 $T0 32 - ^ =  $24 $T0 36 - ^ = 
STACK WIN 4 5a100 670 16 0 10 c 34 0 1 $T1 .raSearch = $T0  $T1 4 - 8 @ = $ebp $T1 4 - ^ = $eip $T1 ^ = $esp $T1 4 + = $20 $T0 56 - ^ =  $23 $T0 60 - ^ =  $24 $T0 64 - ^ = 
STACK WIN 4 5a770 e4 11 0 0 10 c 0 1 $T0 .raSearch = $eip $T0 ^ = $esp $T0 4 + =  $20 $T0 16 - ^ =  $22 $T0 20 - ^ =  $23 $T0 24 - ^ =  $24 $T0 28 - ^ = 
STACK WIN 4 5a860 e8 f 0 8 0 0 0 1 $T0 .raSearch = $eip $T0 ^ = $esp $T0 4 + = 
STACK WIN 4 5a864 e2 b 0 8 4 4 0 1 $T0 .raSearch = $eip $T0 ^ = $esp $T0 4 + =  $20 $T0 8 - ^ = 
STACK WIN 4 5a865 de a 0 8 8 4 0 1 $T0 .raSearch = $eip $T0 ^ = $esp $T0 4 + =  $20 $T0 8 - ^ =  $22 $T0 12 - ^ = 
STACK WIN 4 5a866 dc 9 0 8 c 4 0 1 $T0 .raSearch = $eip $T0 ^ = $esp $T0 4 + =  $20 $T0 8 - ^ =  $22 $T0 12 - ^ =  $23 $T0 16 - ^ = 
STACK WIN 4 5a870 d1 0 0 8 10 4 0 1 $T0 .raSearch = $eip $T0 ^ = $esp $T0 4 + =  $20 $T0 8 - ^ =  $22 $T0 12 - ^ =  $23 $T0 16 - ^ =  $24 $T0 20 - ^ = 
STACK WIN 4 5a950 953 21 0 8 c 5c 0 1 $T1 .raSearch = $T0  $T1 4 - 8 @ = $ebp $T1 4 - ^ = $eip $T1 ^ = $esp $T1 4 + = $20 $T0 96 - ^ =  $23 $T0 100 - ^ =  $24 $T0 104 - ^ = 
STACK WIN 4 5b2b0 90 5 0 10 10 4 0 1 $T0 .raSearch = $eip $T0 ^ = $esp $T0 4 + =  $20 $T0 8 - ^ =  $22 $T0 12 - ^ =  $23 $T0 16 - ^ =  $24 $T0 20 - ^ = 
STACK WIN 4 5b340 c4 8 0 0 10 0 0 1 $T0 .raSearch = $eip $T0 ^ = $esp $T0 4 + =  $20 $T0 4 - ^ =  $22 $T0 8 - ^ =  $23 $T0 12 - ^ =  $24 $T0 16 - ^ = 
STACK WIN 4 5b410 9b 4 0 c 10 0 0 1 $T0 .raSearch = $eip $T0 ^ = $esp $T0 4 + =  $20 $T0 4 - ^ =  $22 $T0 8 - ^ =  $23 $T0 12 - ^ =  $24 $T0 16 - ^ = 
STACK WIN 4 5b4b0 dc 9 0 0 10 4 0 1 $T0 .raSearch = $eip $T0 ^ = $esp $T0 4 + =  $20 $T0 8 - ^ =  $22 $T0 12 - ^ =  $23 $T0 16 - ^ =  $24 $T0 20 - ^ = 
STACK WIN 4 5b590 e5 6 0 4 10 0 0 1 $T0 .raSearch = $eip $T0 ^ = $esp $T0 4 + =  $20 $T0 4 - ^ =  $22 $T0 8 - ^ =  $23 $T0 12 - ^ =  $24 $T0 16 - ^ = 
STACK WIN 4 5b680 dd 8 0 4 10 10 0 1 $T0 .raSearch = $eip $T0 ^ = $esp $T0 4 + =  $20 $T0 20 - ^ =  $22 $T0 24 - ^ =  $23 $T0 28 - ^ =  $24 $T0 32 - ^ = 
STACK WIN 4 5b760 73 e 0 4 c 4 0 1 $T0 .raSearch = $eip $T0 ^ = $esp $T0 4 + =  $20 $T0 8 - ^ =  $23 $T0 12 - ^ =  $24 $T0 16 - ^ = 
STACK WIN 4 5b7e0 1a3 1a 0 0 10 10 0 1 $T1 .raSearch = $T0  $T1 4 - 8 @ = $ebp $T1 4 - ^ = $eip $T1 ^ = $esp $T1 4 + = $20 $T0 20 - ^ =  $23 $T0 28 - ^ =  $24 $T0 32 - ^ = 
STACK WIN 4 5b990 71 8 0 4 4 4 0 1 $T1 .raSearch = $T0  $T1 4 - 8 @ = $ebp $T1 4 - ^ = $eip $T1 ^ = $esp $T1 4 + = $23 $T0 8 - ^ = 
STACK WIN 4 5ba10 179 9 0 0 10 1c 0 1 $T0 .raSearch = $eip $T0 ^ = $esp $T0 4 + =  $20 $T0 32 - ^ =  $22 $T0 36 - ^ =  $23 $T0 40 - ^ =  $24 $T0 44 - ^ = 
STACK WIN 4 5bb90 1208 34 0 c 8 c8 0 1 $T1 .raSearch = $T0  $T1 4 - 16 @ = $ebp $T1 4 - ^ = $eip $T1 ^ = $esp $T1 4 + = $23 $T0 204 - ^ =  $24 $T0 208 - ^ = 
STACK WIN 4 5cda0 34 0 0 8 0 0 0 1 $T0 .raSearch = $eip $T0 ^ = $esp $T0 4 + = 
STACK WIN 4 5cde0 151c 1a 0 28 8 88 0 1 $T1 .raSearch = $T0  $T1 4 - 16 @ = $ebp $T1 4 - ^ = $eip $T1 ^ = $esp $T1 4 + = $23 $T0 140 - ^ =  $24 $T0 144 - ^ = 
STACK WIN 4 5e300 34e 18 0 1c c 1c 0 1 $T1 .raSearch = $T0  $T1 4 - 8 @ = $ebp $T1 4 - ^ = $eip $T1 ^ = $esp $T1 4 + = $20 $T0 32 - ^ =  $23 $T0 36 - ^ =  $24 $T0 40 - ^ = 
STACK WIN 4 5e650 255 1c 0 18 c 1c 0 1 $T1 .raSearch = $T0  $T1 4 - 8 @ = $ebp $T1 4 - ^ = $eip $T1 ^ = $esp $T1 4 + = $20 $T0 32 - ^ =  $23 $T0 36 - ^ =  $24 $T0 40 - ^ = 
STACK WIN 4 5e8b0 ce 6 0 0 0 0 0 1 $T0 .raSearch = $eip $T0 ^ = $esp $T0 4 + = 
STACK WIN 4 5e8b1 cc 5 0 0 4 0 0 1 $T0 .raSearch = $eip $T0 ^ = $esp $T0 4 + =  $20 $T0 4 - ^ = 
STACK WIN 4 5e8b2 c8 4 0 0 8 0 0 1 $T0 .raSearch = $eip $T0 ^ = $esp $T0 4 + =  $20 $T0 4 - ^ =  $24 $T0 8 - ^ = 
STACK WIN 4 5e8ce ab 0 0 0 c 0 0 1 $T0 .raSearch = $eip $T0 ^ = $esp $T0 4 + =  $20 $T0 4 - ^ =  $24 $T0 8 - ^ =  $22 $T0 12 - ^ = 
STACK WIN 4 5e8cf a9 0 0 0 10 0 0 1 $T0 .raSearch = $eip $T0 ^ = $esp $T0 4 + =  $20 $T0 4 - ^ =  $24 $T0 8 - ^ =  $22 $T0 12 - ^ =  $23 $T0 16 - ^ = 
STACK WIN 4 5e980 6fd 2a 0 c 10 30 0 1 $T0 .raSearch = $eip $T0 ^ = $esp $T0 4 + =  $20 $T0 52 - ^ =  $22 $T0 56 - ^ =  $23 $T0 60 - ^ =  $24 $T0 64 - ^ = 
STACK WIN 4 5f080 453 f 0 14 c 14 0 1 $T1 .raSearch = $T0  $T1 4 - 8 @ = $ebp $T1 4 - ^ = $eip $T1 ^ = $esp $T1 4 + = $20 $T0 24 - ^ =  $23 $T0 28 - ^ =  $24 $T0 32 - ^ = 
STACK WIN 4 5f4e0 595 1c 0 8 c 1c 0 1 $T1 .raSearch = $T0  $T1 4 - 8 @ = $ebp $T1 4 - ^ = $eip $T1 ^ = $esp $T1 4 + = $20 $T0 32 - ^ =  $23 $T0 36 - ^ =  $24 $T0 40 - ^ = 
STACK WIN 4 5fa80 61 2 0 10 0 0 0 1 $T0 .raSearch = $eip $T0 ^ = $esp $T0 4 + = 
STACK WIN 4 5fa81 5f 1 0 10 4 0 0 1 $T0 .raSearch = $eip $T0 ^ = $esp $T0 4 + =  $23 $T0 4 - ^ = 
STACK WIN 4 5fa82 5b 0 0 10 8 0 0 1 $T0 .raSearch = $eip $T0 ^ = $esp $T0 4 + =  $23 $T0 4 - ^ =  $24 $T0 8 - ^ = 
STACK WIN 4 5faf0 7e 3 0 0 0 0 0 1 $T0 .raSearch = $eip $T0 ^ = $esp $T0 4 + = 
STACK WIN 4 5faf1 7c 2 0 0 4 0 0 1 $T0 .raSearch = $eip $T0 ^ = $esp $T0 4 + =  $23 $T0 4 - ^ = 
STACK WIN 4 5faf4 78 0 0 0 8 0 0 1 $T0 .raSearch = $eip $T0 ^ = $esp $T0 4 + =  $23 $T0 4 - ^ =  $24 $T0 8 - ^ = 
STACK WIN 4 5fb70 ca c 0 4 c c 0 1 $T1 .raSearch = $T0  $T1 4 - 8 @ = $ebp $T1 4 - ^ = $eip $T1 ^ = $esp $T1 4 + = $20 $T0 16 - ^ =  $23 $T0 20 - ^ =  $24 $T0 24 - ^ = 
STACK WIN 4 5fc40 76 9 0 4 0 0 0 1 $T0 .raSearch = $eip $T0 ^ = $esp $T0 4 + = 
STACK WIN 4 5fc48 6d 1 0 4 4 0 0 1 $T0 .raSearch = $eip $T0 ^ = $esp $T0 4 + =  $23 $T0 4 - ^ = 
STACK WIN 4 5fc49 6b 0 0 4 8 0 0 1 $T0 .raSearch = $eip $T0 ^ = $esp $T0 4 + =  $23 $T0 4 - ^ =  $24 $T0 8 - ^ = 
STACK WIN 4 5fc81 22 0 0 4 c 0 0 1 $T0 .raSearch = $eip $T0 ^ = $esp $T0 4 + =  $23 $T0 4 - ^ =  $24 $T0 8 - ^ =  $20 $T0 12 - ^ = 
STACK WIN 4 5fcc0 63 0 0 0 0 0 0 1 $T0 .raSearch = $eip $T0 ^ = $esp $T0 4 + = 
STACK WIN 4 5fcca 58 0 0 0 4 0 0 1 $T0 .raSearch = $eip $T0 ^ = $esp $T0 4 + =  $23 $T0 4 - ^ = 
STACK WIN 4 5fd30 114 12 0 0 10 c 0 1 $T0 .raSearch = $eip $T0 ^ = $esp $T0 4 + =  $20 $T0 16 - ^ =  $22 $T0 20 - ^ =  $23 $T0 24 - ^ =  $24 $T0 28 - ^ = 
STACK WIN 4 5fe50 a4 6 0 4 10 8 0 1 $T0 .raSearch = $eip $T0 ^ = $esp $T0 4 + =  $20 $T0 12 - ^ =  $22 $T0 16 - ^ =  $23 $T0 20 - ^ =  $24 $T0 24 - ^ = 
STACK WIN 4 5ff00 1a 1 0 0 0 4 0 1 $T0 .raSearch = $eip $T0 ^ = $esp $T0 4 + = 
STACK WIN 4 5ff20 33 3 0 0 0 0 0 1 $T0 .raSearch = $eip $T0 ^ = $esp $T0 4 + = 
STACK WIN 4 5ff21 31 2 0 0 4 0 0 1 $T0 .raSearch = $eip $T0 ^ = $esp $T0 4 + =  $23 $T0 4 - ^ = 
STACK WIN 4 5ff60 af 8 0 0 c 8 0 1 $T0 .raSearch = $eip $T0 ^ = $esp $T0 4 + =  $20 $T0 12 - ^ =  $23 $T0 16 - ^ =  $24 $T0 20 - ^ = 
STACK WIN 4 60010 79 3 0 0 0 0 0 1 $T0 .raSearch = $eip $T0 ^ = $esp $T0 4 + = 
STACK WIN 4 60011 77 2 0 0 4 0 0 1 $T0 .raSearch = $eip $T0 ^ = $esp $T0 4 + =  $20 $T0 4 - ^ = 
STACK WIN 4 6002b 57 0 0 0 8 0 0 1 $T0 .raSearch = $eip $T0 ^ = $esp $T0 4 + =  $20 $T0 4 - ^ =  $23 $T0 8 - ^ = 
STACK WIN 4 6002c 55 0 0 0 c 0 0 1 $T0 .raSearch = $eip $T0 ^ = $esp $T0 4 + =  $20 $T0 4 - ^ =  $23 $T0 8 - ^ =  $24 $T0 12 - ^ = 
STACK WIN 4 60090 4a 2 0 0 4 0 0 1 $T0 .raSearch = $eip $T0 ^ = $esp $T0 4 + =  $23 $T0 4 - ^ = 
STACK WIN 4 600e0 64 5 0 0 c 0 0 1 $T0 .raSearch = $eip $T0 ^ = $esp $T0 4 + =  $20 $T0 4 - ^ =  $23 $T0 8 - ^ =  $24 $T0 12 - ^ = 
STACK WIN 4 60150 44 8 0 4 10 0 0 1 $T0 .raSearch = $eip $T0 ^ = $esp $T0 4 + =  $20 $T0 4 - ^ =  $22 $T0 8 - ^ =  $23 $T0 12 - ^ =  $24 $T0 16 - ^ = 
STACK WIN 4 601a0 30 7 0 0 8 4 0 1 $T0 .raSearch = $eip $T0 ^ = $esp $T0 4 + =  $23 $T0 8 - ^ =  $24 $T0 12 - ^ = 
STACK WIN 4 601d0 d1 a 0 8 8 0 0 1 $T1 .raSearch = $T0  $T1 4 - 8 @ = $ebp $T1 4 - ^ = $eip $T1 ^ = $esp $T1 4 + = $23 $T0 4 - ^ =  $24 $T0 8 - ^ = 
STACK WIN 4 602b0 b5 c 0 4 8 0 0 1 $T1 .raSearch = $T0  $T1 4 - 8 @ = $ebp $T1 4 - ^ = $eip $T1 ^ = $esp $T1 4 + = $23 $T0 4 - ^ =  $24 $T0 8 - ^ = 
STACK WIN 4 60370 83 8 0 0 0 0 0 1 $T0 .raSearch = $eip $T0 ^ = $esp $T0 4 + = 
STACK WIN 4 6037f 70 0 0 0 4 8 0 1 $T0 .raSearch = $eip $T0 ^ = $esp $T0 4 + =  $20 $T0 12 - ^ = 
STACK WIN 4 60383 6b 0 0 0 8 8 0 1 $T0 .raSearch = $eip $T0 ^ = $esp $T0 4 + =  $20 $T0 12 - ^ =  $24 $T0 16 - ^ = 
STACK WIN 4 6038b 62 0 0 0 c 8 0 1 $T0 .raSearch = $eip $T0 ^ = $esp $T0 4 + =  $20 $T0 12 - ^ =  $24 $T0 16 - ^ =  $22 $T0 20 - ^ = 
STACK WIN 4 6038f 5d 0 0 0 10 8 0 1 $T0 .raSearch = $eip $T0 ^ = $esp $T0 4 + =  $20 $T0 12 - ^ =  $24 $T0 16 - ^ =  $22 $T0 20 - ^ =  $23 $T0 24 - ^ = 
STACK WIN 4 60400 28c0 2e 0 c c 8c 0 1 $T1 .raSearch = $T0  $T1 4 - 8 @ = $ebp $T1 4 - ^ = $eip $T1 ^ = $esp $T1 4 + = $20 $T0 144 - ^ =  $23 $T0 148 - ^ =  $24 $T0 152 - ^ = 
STACK WIN 4 62cc0 e1 6 0 4 c 4 0 1 $T0 .raSearch = $eip $T0 ^ = $esp $T0 4 + =  $20 $T0 8 - ^ =  $23 $T0 12 - ^ =  $24 $T0 16 - ^ = 
STACK WIN 4 62db0 1be b 0 10 10 c 0 1 $T0 .raSearch = $eip $T0 ^ = $esp $T0 4 + =  $20 $T0 16 - ^ =  $22 $T0 20 - ^ =  $23 $T0 24 - ^ =  $24 $T0 28 - ^ = 
STACK WIN 4 62f70 40a 36 0 4 10 58 0 1 $T0 .raSearch = $eip $T0 ^ = $esp $T0 4 + =  $20 $T0 92 - ^ =  $22 $T0 96 - ^ =  $23 $T0 100 - ^ =  $24 $T0 104 - ^ = 
STACK WIN 4 63380 e6 e 0 0 10 8 0 1 $T1 .raSearch = $T0  $T1 4 - 8 @ = $ebp $T1 4 - ^ = $eip $T1 ^ = $esp $T1 4 + = $20 $T0 12 - ^ =  $23 $T0 20 - ^ =  $24 $T0 24 - ^ = 
STACK WIN 4 63470 26 3 0 0 4 0 0 1 $T0 .raSearch = $eip $T0 ^ = $esp $T0 4 + =  $23 $T0 4 - ^ = 
STACK WIN 4 634a0 15b 15 0 0 10 c 0 1 $T0 .raSearch = $eip $T0 ^ = $esp $T0 4 + =  $20 $T0 16 - ^ =  $22 $T0 20 - ^ =  $23 $T0 24 - ^ =  $24 $T0 28 - ^ = 
STACK WIN 4 63600 28 0 0 0 0 0 0 1 $T0 .raSearch = $eip $T0 ^ = $esp $T0 4 + = 
STACK WIN 4 63605 1c 0 0 0 4 0 0 1 $T0 .raSearch = $eip $T0 ^ = $esp $T0 4 + =  $23 $T0 4 - ^ = 
STACK WIN 4 63630 7b 3 0 0 0 0 0 1 $T0 .raSearch = $eip $T0 ^ = $esp $T0 4 + = 
STACK WIN 4 63631 79 2 0 0 4 0 0 1 $T0 .raSearch = $eip $T0 ^ = $esp $T0 4 + =  $24 $T0 4 - ^ = 
STACK WIN 4 6363b 6e 0 0 0 8 0 0 1 $T0 .raSearch = $eip $T0 ^ = $esp $T0 4 + =  $24 $T0 4 - ^ =  $23 $T0 8 - ^ = 
STACK WIN 4 636b0 4f8 52 0 14 10 208 0 1 $T0 .raSearch = $eip $T0 ^ = $esp $T0 4 + =  $20 $T0 524 - ^ =  $22 $T0 528 - ^ =  $23 $T0 532 - ^ =  $24 $T0 536 - ^ = 
STACK WIN 4 63bb0 dc 11 0 14 c 4 0 1 $T1 .raSearch = $T0  $T1 4 - 8 @ = $ebp $T1 4 - ^ = $eip $T1 ^ = $esp $T1 4 + = $20 $T0 8 - ^ =  $23 $T0 12 - ^ =  $24 $T0 16 - ^ = 
STACK WIN 4 63c90 a3 5 0 0 8 4 0 1 $T0 .raSearch = $eip $T0 ^ = $esp $T0 4 + =  $23 $T0 8 - ^ =  $24 $T0 12 - ^ = 
STACK WIN 4 63d40 21 0 0 14 0 0 0 1 $T0 .raSearch = $eip $T0 ^ = $esp $T0 4 + = 
STACK WIN 4 63d70 21 0 0 14 0 0 0 1 $T0 .raSearch = $eip $T0 ^ = $esp $T0 4 + = 
STACK WIN 4 63da0 167 18 0 10 0 0 0 1 $T0 .raSearch = $eip $T0 ^ = $esp $T0 4 + = 
STACK WIN 4 63da6 15f 12 0 10 4 4 0 1 $T0 .raSearch = $eip $T0 ^ = $esp $T0 4 + =  $22 $T0 8 - ^ = 
STACK WIN 4 63da7 15d 11 0 10 8 4 0 1 $T0 .raSearch = $eip $T0 ^ = $esp $T0 4 + =  $22 $T0 8 - ^ =  $23 $T0 12 - ^ = 
STACK WIN 4 63da8 15b 10 0 10 c 4 0 1 $T0 .raSearch = $eip $T0 ^ = $esp $T0 4 + =  $22 $T0 8 - ^ =  $23 $T0 12 - ^ =  $24 $T0 16 - ^ = 
STACK WIN 4 63dce e1 0 0 10 10 4 0 1 $T0 .raSearch = $eip $T0 ^ = $esp $T0 4 + =  $22 $T0 8 - ^ =  $23 $T0 12 - ^ =  $24 $T0 16 - ^ =  $20 $T0 20 - ^ = 
STACK WIN 4 63f10 1f 0 0 14 0 0 0 1 $T0 .raSearch = $eip $T0 ^ = $esp $T0 4 + = 
STACK WIN 4 63f30 1f 0 0 14 0 0 0 1 $T0 .raSearch = $eip $T0 ^ = $esp $T0 4 + = 
STACK WIN 4 63f50 df 8 0 4 10 0 0 1 $T0 .raSearch = $eip $T0 ^ = $esp $T0 4 + =  $20 $T0 4 - ^ =  $22 $T0 8 - ^ =  $23 $T0 12 - ^ =  $24 $T0 16 - ^ = 
STACK WIN 4 64030 1be 27 0 20 c 5c 0 1 $T1 .raSearch = $T0  $T1 4 - 8 @ = $ebp $T1 4 - ^ = $eip $T1 ^ = $esp $T1 4 + = $20 $T0 96 - ^ =  $23 $T0 100 - ^ =  $24 $T0 104 - ^ = 
STACK WIN 4 641f0 18 6 0 0 0 0 0 1 $T1 .raSearch = $T0  $T1 4 - 8 @ = $ebp $T1 4 - ^ = $eip $T1 ^ = $esp $T1 4 + =
STACK WIN 4 64210 13 0 0 0 0 0 0 1 $T0 .raSearch = $eip $T0 ^ = $esp $T0 4 + = 
STACK WIN 4 64230 148 1b 0 8 10 2c 0 1 $T0 .raSearch = $eip $T0 ^ = $esp $T0 4 + =  $20 $T0 48 - ^ =  $22 $T0 52 - ^ =  $23 $T0 56 - ^ =  $24 $T0 60 - ^ = 
STACK WIN 4 64380 95 11 0 0 0 0 0 1 $T0 .raSearch = $eip $T0 ^ = $esp $T0 4 + = 
STACK WIN 4 64388 89 9 0 0 4 c 0 1 $T0 .raSearch = $eip $T0 ^ = $esp $T0 4 + =  $20 $T0 16 - ^ = 
STACK WIN 4 64389 87 8 0 0 8 c 0 1 $T0 .raSearch = $eip $T0 ^ = $esp $T0 4 + =  $20 $T0 16 - ^ =  $22 $T0 20 - ^ = 
STACK WIN 4 6438a 85 7 0 0 c c 0 1 $T0 .raSearch = $eip $T0 ^ = $esp $T0 4 + =  $20 $T0 16 - ^ =  $22 $T0 20 - ^ =  $23 $T0 24 - ^ = 
STACK WIN 4 6438b 83 6 0 0 10 c 0 1 $T0 .raSearch = $eip $T0 ^ = $esp $T0 4 + =  $20 $T0 16 - ^ =  $22 $T0 20 - ^ =  $23 $T0 24 - ^ =  $24 $T0 28 - ^ = 
STACK WIN 4 64420 61 4 0 0 0 0 0 1 $T0 .raSearch = $eip $T0 ^ = $esp $T0 4 + = 
STACK WIN 4 64421 5f 3 0 0 4 0 0 1 $T0 .raSearch = $eip $T0 ^ = $esp $T0 4 + =  $22 $T0 4 - ^ = 
STACK WIN 4 64422 5d 2 0 0 8 0 0 1 $T0 .raSearch = $eip $T0 ^ = $esp $T0 4 + =  $22 $T0 4 - ^ =  $23 $T0 8 - ^ = 
STACK WIN 4 6442b 53 0 0 0 c 0 0 1 $T0 .raSearch = $eip $T0 ^ = $esp $T0 4 + =  $22 $T0 4 - ^ =  $23 $T0 8 - ^ =  $20 $T0 12 - ^ = 
STACK WIN 4 6442c 51 0 0 0 10 0 0 1 $T0 .raSearch = $eip $T0 ^ = $esp $T0 4 + =  $22 $T0 4 - ^ =  $23 $T0 8 - ^ =  $20 $T0 12 - ^ =  $24 $T0 16 - ^ = 
STACK WIN 4 64490 309 b 0 0 10 2c 0 1 $T0 .raSearch = $eip $T0 ^ = $esp $T0 4 + =  $20 $T0 48 - ^ =  $22 $T0 52 - ^ =  $23 $T0 56 - ^ =  $24 $T0 60 - ^ = 
STACK WIN 4 647a0 680 14 0 14 c 2c 0 1 $T1 .raSearch = $T0  $T1 4 - 8 @ = $ebp $T1 4 - ^ = $eip $T1 ^ = $esp $T1 4 + = $20 $T0 48 - ^ =  $23 $T0 52 - ^ =  $24 $T0 56 - ^ = 
STACK WIN 4 64e20 70 a 0 4 4 4 0 1 $T1 .raSearch = $T0  $T1 4 - 8 @ = $ebp $T1 4 - ^ = $eip $T1 ^ = $esp $T1 4 + = $23 $T0 8 - ^ = 
STACK WIN 4 64e90 14c b 0 c c 4 0 1 $T1 .raSearch = $T0  $T1 4 - 8 @ = $ebp $T1 4 - ^ = $eip $T1 ^ = $esp $T1 4 + = $20 $T0 8 - ^ =  $23 $T0 12 - ^ =  $24 $T0 16 - ^ = 
STACK WIN 4 64fe0 c34 25 0 1c c 3c 0 1 $T1 .raSearch = $T0  $T1 4 - 8 @ = $ebp $T1 4 - ^ = $eip $T1 ^ = $esp $T1 4 + = $20 $T0 64 - ^ =  $23 $T0 68 - ^ =  $24 $T0 72 - ^ = 
STACK WIN 4 65c20 90 13 0 4 10 0 0 1 $T0 .raSearch = $eip $T0 ^ = $esp $T0 4 + =  $20 $T0 4 - ^ =  $22 $T0 8 - ^ =  $23 $T0 12 - ^ =  $24 $T0 16 - ^ = 
STACK WIN 4 65cb0 55 0 0 0 0 0 0 1 $T0 .raSearch = $eip $T0 ^ = $esp $T0 4 + = 
STACK WIN 4 65cba 4a 0 0 0 4 0 0 1 $T0 .raSearch = $eip $T0 ^ = $esp $T0 4 + =  $23 $T0 4 - ^ = 
STACK WIN 4 65d10 90 14 0 8 10 c 0 1 $T0 .raSearch = $eip $T0 ^ = $esp $T0 4 + =  $20 $T0 16 - ^ =  $22 $T0 20 - ^ =  $23 $T0 24 - ^ =  $24 $T0 28 - ^ = 
STACK WIN 4 65da0 80 3 0 c 8 0 0 1 $T0 .raSearch = $eip $T0 ^ = $esp $T0 4 + =  $23 $T0 4 - ^ =  $24 $T0 8 - ^ = 
STACK WIN 4 65e20 953 19 0 c c 3c 0 1 $T1 .raSearch = $T0  $T1 4 - 8 @ = $ebp $T1 4 - ^ = $eip $T1 ^ = $esp $T1 4 + = $20 $T0 64 - ^ =  $23 $T0 68 - ^ =  $24 $T0 72 - ^ = 
STACK WIN 4 66780 191 8 0 4 10 30 0 1 $T0 .raSearch = $eip $T0 ^ = $esp $T0 4 + =  $20 $T0 52 - ^ =  $22 $T0 56 - ^ =  $23 $T0 60 - ^ =  $24 $T0 64 - ^ = 
STACK WIN 4 66920 6f 14 0 4 10 20 0 1 $T0 .raSearch = $eip $T0 ^ = $esp $T0 4 + =  $20 $T0 36 - ^ =  $22 $T0 40 - ^ =  $23 $T0 44 - ^ =  $24 $T0 48 - ^ = 
STACK WIN 4 66990 1d0 1b 0 4 10 20 0 1 $T0 .raSearch = $eip $T0 ^ = $esp $T0 4 + =  $20 $T0 36 - ^ =  $22 $T0 40 - ^ =  $23 $T0 44 - ^ =  $24 $T0 48 - ^ = 
STACK WIN 4 66b60 335 13 0 8 10 34 0 1 $T0 .raSearch = $eip $T0 ^ = $esp $T0 4 + =  $20 $T0 56 - ^ =  $22 $T0 60 - ^ =  $23 $T0 64 - ^ =  $24 $T0 68 - ^ = 
STACK WIN 4 66ea0 1f3 12 0 4 8 58 0 1 $T1 .raSearch = $T0  $T1 4 - 16 @ = $ebp $T1 4 - ^ = $eip $T1 ^ = $esp $T1 4 + = $23 $T0 92 - ^ =  $24 $T0 96 - ^ = 
STACK WIN 4 670a0 c7 5 0 0 10 4 0 1 $T0 .raSearch = $eip $T0 ^ = $esp $T0 4 + =  $20 $T0 8 - ^ =  $22 $T0 12 - ^ =  $23 $T0 16 - ^ =  $24 $T0 20 - ^ = 
STACK WIN 4 67170 dc c 0 0 c 4 0 1 $T1 .raSearch = $T0  $T1 4 - 8 @ = $ebp $T1 4 - ^ = $eip $T1 ^ = $esp $T1 4 + = $20 $T0 8 - ^ =  $23 $T0 12 - ^ =  $24 $T0 16 - ^ = 
STACK WIN 4 67250 118 b 0 4 10 8 0 1 $T0 .raSearch = $eip $T0 ^ = $esp $T0 4 + =  $20 $T0 12 - ^ =  $22 $T0 16 - ^ =  $23 $T0 20 - ^ =  $24 $T0 24 - ^ = 
STACK WIN 4 67370 42 9 0 4 c 4 0 1 $T0 .raSearch = $eip $T0 ^ = $esp $T0 4 + =  $20 $T0 8 - ^ =  $23 $T0 12 - ^ =  $24 $T0 16 - ^ = 
STACK WIN 4 673c0 178 1e 0 4 10 28 0 1 $T0 .raSearch = $eip $T0 ^ = $esp $T0 4 + =  $20 $T0 44 - ^ =  $22 $T0 48 - ^ =  $23 $T0 52 - ^ =  $24 $T0 56 - ^ = 
STACK WIN 4 67540 772 15 0 4 c 54 0 1 $T1 .raSearch = $T0  $T1 4 - 8 @ = $ebp $T1 4 - ^ = $eip $T1 ^ = $esp $T1 4 + = $20 $T0 88 - ^ =  $23 $T0 92 - ^ =  $24 $T0 96 - ^ = 
STACK WIN 4 67cc0 56 a 0 4 0 0 0 1 $T0 .raSearch = $eip $T0 ^ = $esp $T0 4 + = 
STACK WIN 4 67cc2 52 8 0 4 4 4 0 1 $T0 .raSearch = $eip $T0 ^ = $esp $T0 4 + =  $20 $T0 8 - ^ = 
STACK WIN 4 67cc3 50 7 0 4 8 4 0 1 $T0 .raSearch = $eip $T0 ^ = $esp $T0 4 + =  $20 $T0 8 - ^ =  $22 $T0 12 - ^ = 
STACK WIN 4 67cc4 4e 6 0 4 c 4 0 1 $T0 .raSearch = $eip $T0 ^ = $esp $T0 4 + =  $20 $T0 8 - ^ =  $22 $T0 12 - ^ =  $23 $T0 16 - ^ = 
STACK WIN 4 67ccb 46 0 0 4 10 4 0 1 $T0 .raSearch = $eip $T0 ^ = $esp $T0 4 + =  $20 $T0 8 - ^ =  $22 $T0 12 - ^ =  $23 $T0 16 - ^ =  $24 $T0 20 - ^ = 
STACK WIN 4 67d20 8ff 4b 0 4 8 88 0 1 $T1 .raSearch = $T0  $T1 4 - 16 @ = $ebp $T1 4 - ^ = $eip $T1 ^ = $esp $T1 4 + = $23 $T0 140 - ^ =  $24 $T0 144 - ^ = 
STACK WIN 4 68620 85 1 0 0 0 4 0 1 $T0 .raSearch = $eip $T0 ^ = $esp $T0 4 + = 
STACK WIN 4 686b0 4a4 16 0 18 c 1c 0 1 $T1 .raSearch = $T0  $T1 4 - 8 @ = $ebp $T1 4 - ^ = $eip $T1 ^ = $esp $T1 4 + = $20 $T0 32 - ^ =  $23 $T0 36 - ^ =  $24 $T0 40 - ^ = 
STACK WIN 4 68b60 12e7 18 0 4 c 8c 0 1 $T1 .raSearch = $T0  $T1 4 - 8 @ = $ebp $T1 4 - ^ = $eip $T1 ^ = $esp $T1 4 + = $20 $T0 144 - ^ =  $23 $T0 148 - ^ =  $24 $T0 152 - ^ = 
STACK WIN 4 69e50 e5 e 0 8 c 4 0 1 $T1 .raSearch = $T0  $T1 4 - 8 @ = $ebp $T1 4 - ^ = $eip $T1 ^ = $esp $T1 4 + = $20 $T0 8 - ^ =  $23 $T0 12 - ^ =  $24 $T0 16 - ^ = 
STACK WIN 4 69f40 40 6 0 8 0 0 0 1 $T0 .raSearch = $eip $T0 ^ = $esp $T0 4 + = 
STACK WIN 4 69f41 3e 5 0 8 4 0 0 1 $T0 .raSearch = $eip $T0 ^ = $esp $T0 4 + =  $22 $T0 4 - ^ = 
STACK WIN 4 69f42 3c 4 0 8 8 0 0 1 $T0 .raSearch = $eip $T0 ^ = $esp $T0 4 + =  $22 $T0 4 - ^ =  $23 $T0 8 - ^ = 
STACK WIN 4 69f4b 32 0 0 8 c 0 0 1 $T0 .raSearch = $eip $T0 ^ = $esp $T0 4 + =  $22 $T0 4 - ^ =  $23 $T0 8 - ^ =  $20 $T0 12 - ^ = 
STACK WIN 4 69f52 2a 0 0 8 10 0 0 1 $T0 .raSearch = $eip $T0 ^ = $esp $T0 4 + =  $22 $T0 4 - ^ =  $23 $T0 8 - ^ =  $20 $T0 12 - ^ =  $24 $T0 16 - ^ = 
STACK WIN 4 69f80 1ed 11 0 c 0 0 0 1 $T0 .raSearch = $eip $T0 ^ = $esp $T0 4 + = 
STACK WIN 4 69f84 1e5 d 0 c 4 10 0 1 $T0 .raSearch = $eip $T0 ^ = $esp $T0 4 + =  $20 $T0 20 - ^ = 
STACK WIN 4 69f85 1e3 c 0 c 8 10 0 1 $T0 .raSearch = $eip $T0 ^ = $esp $T0 4 + =  $20 $T0 20 - ^ =  $22 $T0 24 - ^ = 
STACK WIN 4 69f9a 1cd 0 0 c c 10 0 1 $T0 .raSearch = $eip $T0 ^ = $esp $T0 4 + =  $20 $T0 20 - ^ =  $22 $T0 24 - ^ =  $23 $T0 28 - ^ = 
STACK WIN 4 69f9f 1c7 0 0 c 10 10 0 1 $T0 .raSearch = $eip $T0 ^ = $esp $T0 4 + =  $20 $T0 20 - ^ =  $22 $T0 24 - ^ =  $23 $T0 28 - ^ =  $24 $T0 32 - ^ = 
STACK WIN 4 6a170 5c8 13 0 c c 2c 0 1 $T1 .raSearch = $T0  $T1 4 - 8 @ = $ebp $T1 4 - ^ = $eip $T1 ^ = $esp $T1 4 + = $20 $T0 48 - ^ =  $23 $T0 52 - ^ =  $24 $T0 56 - ^ = 
STACK WIN 4 6a740 103 11 0 8 8 28 0 1 $T1 .raSearch = $T0  $T1 4 - 16 @ = $ebp $T1 4 - ^ = $eip $T1 ^ = $esp $T1 4 + = $23 $T0 44 - ^ =  $24 $T0 48 - ^ = 
STACK WIN 4 6a850 6e 7 0 0 0 0 0 1 $T0 .raSearch = $eip $T0 ^ = $esp $T0 4 + = 
STACK WIN 4 6a855 68 2 0 0 4 0 0 1 $T0 .raSearch = $eip $T0 ^ = $esp $T0 4 + =  $24 $T0 4 - ^ = 
STACK WIN 4 6a863 53 0 0 0 8 0 0 1 $T0 .raSearch = $eip $T0 ^ = $esp $T0 4 + =  $24 $T0 4 - ^ =  $23 $T0 8 - ^ = 
STACK WIN 4 6a87c 34 0 0 0 c 0 0 1 $T0 .raSearch = $eip $T0 ^ = $esp $T0 4 + =  $24 $T0 4 - ^ =  $23 $T0 8 - ^ =  $20 $T0 12 - ^ = 
STACK WIN 4 6a8c0 bf 13 0 0 10 c 0 1 $T0 .raSearch = $eip $T0 ^ = $esp $T0 4 + =  $20 $T0 16 - ^ =  $22 $T0 20 - ^ =  $23 $T0 24 - ^ =  $24 $T0 28 - ^ = 
STACK WIN 4 6a980 275 c 0 8 c 1c 0 1 $T1 .raSearch = $T0  $T1 4 - 8 @ = $ebp $T1 4 - ^ = $eip $T1 ^ = $esp $T1 4 + = $20 $T0 32 - ^ =  $23 $T0 36 - ^ =  $24 $T0 40 - ^ = 
STACK WIN 4 6ac00 dc f 0 4 0 0 0 1 $T0 .raSearch = $eip $T0 ^ = $esp $T0 4 + = 
STACK WIN 4 6ac08 d0 7 0 4 4 14 0 1 $T0 .raSearch = $eip $T0 ^ = $esp $T0 4 + =  $20 $T0 24 - ^ = 
STACK WIN 4 6ac09 cc 6 0 4 8 14 0 1 $T0 .raSearch = $eip $T0 ^ = $esp $T0 4 + =  $20 $T0 24 - ^ =  $22 $T0 28 - ^ = 
STACK WIN 4 6ac0a c2 5 0 4 c 14 0 1 $T0 .raSearch = $eip $T0 ^ = $esp $T0 4 + =  $20 $T0 24 - ^ =  $22 $T0 28 - ^ =  $23 $T0 32 - ^ = 
STACK WIN 4 6ac0b c0 4 0 4 10 14 0 1 $T0 .raSearch = $eip $T0 ^ = $esp $T0 4 + =  $20 $T0 24 - ^ =  $22 $T0 28 - ^ =  $23 $T0 32 - ^ =  $24 $T0 36 - ^ = 
STACK WIN 4 6ace0 2a1 10 0 0 10 1c 0 1 $T0 .raSearch = $eip $T0 ^ = $esp $T0 4 + =  $20 $T0 32 - ^ =  $22 $T0 36 - ^ =  $23 $T0 40 - ^ =  $24 $T0 44 - ^ = 
STACK WIN 4 6af90 2b 0 0 8 0 0 0 1 $T0 .raSearch = $eip $T0 ^ = $esp $T0 4 + = 
STACK WIN 4 6afc0 a57 16 0 8 c 74 0 1 $T1 .raSearch = $T0  $T1 4 - 8 @ = $ebp $T1 4 - ^ = $eip $T1 ^ = $esp $T1 4 + = $20 $T0 120 - ^ =  $23 $T0 124 - ^ =  $24 $T0 128 - ^ = 
STACK WIN 4 6ba20 6d 11 0 0 0 0 0 1 $T0 .raSearch = $eip $T0 ^ = $esp $T0 4 + = 
STACK WIN 4 6ba2f 5a 2 0 0 4 1c 0 1 $T0 .raSearch = $eip $T0 ^ = $esp $T0 4 + =  $23 $T0 32 - ^ = 
STACK WIN 4 6ba90 58 17 0 8 0 0 0 1 $T0 .raSearch = $eip $T0 ^ = $esp $T0 4 + = 
STACK WIN 4 6ba99 4e e 0 8 4 0 0 1 $T0 .raSearch = $eip $T0 ^ = $esp $T0 4 + =  $20 $T0 4 - ^ = 
STACK WIN 4 6ba9a 4c d 0 8 8 0 0 1 $T0 .raSearch = $eip $T0 ^ = $esp $T0 4 + =  $20 $T0 4 - ^ =  $22 $T0 8 - ^ = 
STACK WIN 4 6baa7 3e 0 0 8 c 0 0 1 $T0 .raSearch = $eip $T0 ^ = $esp $T0 4 + =  $20 $T0 4 - ^ =  $22 $T0 8 - ^ =  $24 $T0 12 - ^ = 
STACK WIN 4 6baae 36 0 0 8 10 0 0 1 $T0 .raSearch = $eip $T0 ^ = $esp $T0 4 + =  $20 $T0 4 - ^ =  $22 $T0 8 - ^ =  $24 $T0 12 - ^ =  $23 $T0 16 - ^ = 
STACK WIN 4 6baf0 37 3 0 0 0 1c 0 1 $T0 .raSearch = $eip $T0 ^ = $esp $T0 4 + = 
STACK WIN 4 6bb30 56 6 0 4 0 0 0 1 $T0 .raSearch = $eip $T0 ^ = $esp $T0 4 + = 
STACK WIN 4 6bb31 54 5 0 4 4 0 0 1 $T0 .raSearch = $eip $T0 ^ = $esp $T0 4 + =  $23 $T0 4 - ^ = 
STACK WIN 4 6bb32 52 4 0 4 8 0 0 1 $T0 .raSearch = $eip $T0 ^ = $esp $T0 4 + =  $23 $T0 4 - ^ =  $24 $T0 8 - ^ = 
STACK WIN 4 6bb3b 48 0 0 4 c 0 0 1 $T0 .raSearch = $eip $T0 ^ = $esp $T0 4 + =  $23 $T0 4 - ^ =  $24 $T0 8 - ^ =  $20 $T0 12 - ^ = 
STACK WIN 4 6bb90 f2 11 0 0 10 8 0 1 $T1 .raSearch = $T0  $T1 4 - 8 @ = $ebp $T1 4 - ^ = $eip $T1 ^ = $esp $T1 4 + = $20 $T0 12 - ^ =  $23 $T0 20 - ^ =  $24 $T0 24 - ^ = 
STACK WIN 4 6bc90 cd 1b 0 0 10 10 0 1 $T1 .raSearch = $T0  $T1 4 - 8 @ = $ebp $T1 4 - ^ = $eip $T1 ^ = $esp $T1 4 + = $20 $T0 20 - ^ =  $23 $T0 28 - ^ =  $24 $T0 32 - ^ = 
STACK WIN 4 6bd60 4a4 18 0 0 10 28 0 1 $T1 .raSearch = $T0  $T1 4 - 8 @ = $ebp $T1 4 - ^ = $eip $T1 ^ = $esp $T1 4 + = $20 $T0 44 - ^ =  $23 $T0 52 - ^ =  $24 $T0 56 - ^ = 
STACK WIN 4 6c210 2434 1e 0 4 8 148 0 1 $T1 .raSearch = $T0  $T1 4 - 16 @ = $ebp $T1 4 - ^ = $eip $T1 ^ = $esp $T1 4 + = $23 $T0 332 - ^ =  $24 $T0 336 - ^ = 
STACK WIN 4 6e650 17b d 0 10 c 4 0 1 $T1 .raSearch = $T0  $T1 4 - 8 @ = $ebp $T1 4 - ^ = $eip $T1 ^ = $esp $T1 4 + = $20 $T0 8 - ^ =  $23 $T0 12 - ^ =  $24 $T0 16 - ^ = 
STACK WIN 4 6e7d0 1c8 18 0 18 c 24 0 1 $T1 .raSearch = $T0  $T1 4 - 8 @ = $ebp $T1 4 - ^ = $eip $T1 ^ = $esp $T1 4 + = $20 $T0 40 - ^ =  $23 $T0 44 - ^ =  $24 $T0 48 - ^ = 
STACK WIN 4 6e9a0 db 1 0 4 0 0 0 1 $T0 .raSearch = $eip $T0 ^ = $esp $T0 4 + = 
STACK WIN 4 6e9a1 d9 0 0 4 4 0 0 1 $T0 .raSearch = $eip $T0 ^ = $esp $T0 4 + =  $20 $T0 4 - ^ = 
STACK WIN 4 6e9b6 78 0 0 4 8 0 0 1 $T0 .raSearch = $eip $T0 ^ = $esp $T0 4 + =  $20 $T0 4 - ^ =  $22 $T0 8 - ^ = 
STACK WIN 4 6e9b7 76 0 0 4 c 0 0 1 $T0 .raSearch = $eip $T0 ^ = $esp $T0 4 + =  $20 $T0 4 - ^ =  $22 $T0 8 - ^ =  $23 $T0 12 - ^ = 
STACK WIN 4 6e9c3 62 0 0 4 10 0 0 1 $T0 .raSearch = $eip $T0 ^ = $esp $T0 4 + =  $20 $T0 4 - ^ =  $22 $T0 8 - ^ =  $23 $T0 12 - ^ =  $24 $T0 16 - ^ = 
STACK WIN 4 6ea80 aa d 0 0 c 4 0 1 $T1 .raSearch = $T0  $T1 4 - 8 @ = $ebp $T1 4 - ^ = $eip $T1 ^ = $esp $T1 4 + = $20 $T0 8 - ^ =  $23 $T0 12 - ^ =  $24 $T0 16 - ^ = 
STACK WIN 4 6eb30 6a 8 0 0 0 0 0 1 $T0 .raSearch = $eip $T0 ^ = $esp $T0 4 + = 
STACK WIN 4 6eb33 66 5 0 0 4 0 0 1 $T0 .raSearch = $eip $T0 ^ = $esp $T0 4 + =  $22 $T0 4 - ^ = 
STACK WIN 4 6eb34 64 4 0 0 8 0 0 1 $T0 .raSearch = $eip $T0 ^ = $esp $T0 4 + =  $22 $T0 4 - ^ =  $23 $T0 8 - ^ = 
STACK WIN 4 6eb43 52 0 0 0 c 0 0 1 $T0 .raSearch = $eip $T0 ^ = $esp $T0 4 + =  $22 $T0 4 - ^ =  $23 $T0 8 - ^ =  $24 $T0 12 - ^ = 
STACK WIN 4 6eb5b 32 0 0 0 10 0 0 1 $T0 .raSearch = $eip $T0 ^ = $esp $T0 4 + =  $22 $T0 4 - ^ =  $23 $T0 8 - ^ =  $24 $T0 12 - ^ =  $20 $T0 16 - ^ = 
STACK WIN 4 6eba0 412 e 0 20 c 34 0 1 $T1 .raSearch = $T0  $T1 4 - 8 @ = $ebp $T1 4 - ^ = $eip $T1 ^ = $esp $T1 4 + = $20 $T0 56 - ^ =  $23 $T0 60 - ^ =  $24 $T0 64 - ^ = 
STACK WIN 4 6efc0 23d f 0 4 10 38 0 1 $T0 .raSearch = $eip $T0 ^ = $esp $T0 4 + =  $20 $T0 60 - ^ =  $22 $T0 64 - ^ =  $23 $T0 68 - ^ =  $24 $T0 72 - ^ = 
STACK WIN 4 6f200 60 a 0 0 8 0 0 1 $T1 .raSearch = $T0  $T1 4 - 8 @ = $ebp $T1 4 - ^ = $eip $T1 ^ = $esp $T1 4 + = $23 $T0 4 - ^ =  $24 $T0 8 - ^ = 
STACK WIN 4 6f260 aa d 0 c c 4 0 1 $T1 .raSearch = $T0  $T1 4 - 8 @ = $ebp $T1 4 - ^ = $eip $T1 ^ = $esp $T1 4 + = $20 $T0 8 - ^ =  $23 $T0 12 - ^ =  $24 $T0 16 - ^ = 
STACK WIN 4 6f310 d2 d 0 c c 4 0 1 $T1 .raSearch = $T0  $T1 4 - 8 @ = $ebp $T1 4 - ^ = $eip $T1 ^ = $esp $T1 4 + = $20 $T0 8 - ^ =  $23 $T0 12 - ^ =  $24 $T0 16 - ^ = 
STACK WIN 4 6f3f0 af 1c 0 4 c c 0 1 $T1 .raSearch = $T0  $T1 4 - 8 @ = $ebp $T1 4 - ^ = $eip $T1 ^ = $esp $T1 4 + = $20 $T0 16 - ^ =  $23 $T0 20 - ^ =  $24 $T0 24 - ^ = 
STACK WIN 4 6f4a0 124 c 0 0 8 0 0 1 $T1 .raSearch = $T0  $T1 4 - 8 @ = $ebp $T1 4 - ^ = $eip $T1 ^ = $esp $T1 4 + = $23 $T0 4 - ^ =  $24 $T0 8 - ^ = 
STACK WIN 4 6f5d0 16c 7 0 4 10 18 0 1 $T0 .raSearch = $eip $T0 ^ = $esp $T0 4 + =  $20 $T0 28 - ^ =  $22 $T0 32 - ^ =  $23 $T0 36 - ^ =  $24 $T0 40 - ^ = 
STACK WIN 4 6f740 123 9 0 0 10 c 0 1 $T0 .raSearch = $eip $T0 ^ = $esp $T0 4 + =  $20 $T0 16 - ^ =  $22 $T0 20 - ^ =  $23 $T0 24 - ^ =  $24 $T0 28 - ^ = 
STACK WIN 4 6f870 98 c 0 4 c 4 0 1 $T1 .raSearch = $T0  $T1 4 - 8 @ = $ebp $T1 4 - ^ = $eip $T1 ^ = $esp $T1 4 + = $20 $T0 8 - ^ =  $23 $T0 12 - ^ =  $24 $T0 16 - ^ = 
STACK WIN 4 6f910 b0 7 0 c 0 0 0 1 $T0 .raSearch = $eip $T0 ^ = $esp $T0 4 + = 
STACK WIN 4 6f914 98 3 0 c 4 8 0 1 $T0 .raSearch = $eip $T0 ^ = $esp $T0 4 + =  $22 $T0 12 - ^ = 
STACK WIN 4 6f915 93 2 0 c 8 8 0 1 $T0 .raSearch = $eip $T0 ^ = $esp $T0 4 + =  $22 $T0 12 - ^ =  $23 $T0 16 - ^ = 
STACK WIN 4 6f93e 5f 0 0 c c 8 0 1 $T0 .raSearch = $eip $T0 ^ = $esp $T0 4 + =  $22 $T0 12 - ^ =  $23 $T0 16 - ^ =  $20 $T0 20 - ^ = 
STACK WIN 4 6f945 53 0 0 c 10 8 0 1 $T0 .raSearch = $eip $T0 ^ = $esp $T0 4 + =  $22 $T0 12 - ^ =  $23 $T0 16 - ^ =  $20 $T0 20 - ^ =  $24 $T0 24 - ^ = 
STACK WIN 4 6f9c0 15d 15 0 0 10 c 0 1 $T0 .raSearch = $eip $T0 ^ = $esp $T0 4 + =  $20 $T0 16 - ^ =  $22 $T0 20 - ^ =  $23 $T0 24 - ^ =  $24 $T0 28 - ^ = 
STACK WIN 4 6fb20 1f3 e 0 4 c 24 0 1 $T1 .raSearch = $T0  $T1 4 - 8 @ = $ebp $T1 4 - ^ = $eip $T1 ^ = $esp $T1 4 + = $20 $T0 40 - ^ =  $23 $T0 44 - ^ =  $24 $T0 48 - ^ = 
STACK WIN 4 6fd20 6a 7 0 0 0 0 0 1 $T0 .raSearch = $eip $T0 ^ = $esp $T0 4 + = 
STACK WIN 4 6fd25 64 2 0 0 4 0 0 1 $T0 .raSearch = $eip $T0 ^ = $esp $T0 4 + =  $23 $T0 4 - ^ = 
STACK WIN 4 6fd90 337 21 0 8 8 48 0 1 $T1 .raSearch = $T0  $T1 4 - 16 @ = $ebp $T1 4 - ^ = $eip $T1 ^ = $esp $T1 4 + = $23 $T0 76 - ^ =  $24 $T0 80 - ^ = 
STACK WIN 4 700d0 41 d 0 8 4 4 0 1 $T1 .raSearch = $T0  $T1 4 - 8 @ = $ebp $T1 4 - ^ = $eip $T1 ^ = $esp $T1 4 + = $23 $T0 8 - ^ = 
STACK WIN 4 70120 b6 b 0 10 c 4 0 1 $T1 .raSearch = $T0  $T1 4 - 8 @ = $ebp $T1 4 - ^ = $eip $T1 ^ = $esp $T1 4 + = $20 $T0 8 - ^ =  $23 $T0 12 - ^ =  $24 $T0 16 - ^ = 
STACK WIN 4 701e0 85 e 0 1c c 4 0 1 $T1 .raSearch = $T0  $T1 4 - 8 @ = $ebp $T1 4 - ^ = $eip $T1 ^ = $esp $T1 4 + = $20 $T0 8 - ^ =  $23 $T0 12 - ^ =  $24 $T0 16 - ^ = 
STACK WIN 4 70270 cd a 0 14 0 0 0 1 $T0 .raSearch = $eip $T0 ^ = $esp $T0 4 + = 
STACK WIN 4 70274 c5 6 0 14 4 c 0 1 $T0 .raSearch = $eip $T0 ^ = $esp $T0 4 + =  $20 $T0 16 - ^ = 
STACK WIN 4 70283 b5 0 0 14 8 c 0 1 $T0 .raSearch = $eip $T0 ^ = $esp $T0 4 + =  $20 $T0 16 - ^ =  $22 $T0 20 - ^ = 
STACK WIN 4 7029c 91 0 0 14 c c 0 1 $T0 .raSearch = $eip $T0 ^ = $esp $T0 4 + =  $20 $T0 16 - ^ =  $22 $T0 20 - ^ =  $23 $T0 24 - ^ = 
STACK WIN 4 7029d 8f 0 0 14 10 c 0 1 $T0 .raSearch = $eip $T0 ^ = $esp $T0 4 + =  $20 $T0 16 - ^ =  $22 $T0 20 - ^ =  $23 $T0 24 - ^ =  $24 $T0 28 - ^ = 
STACK WIN 4 70340 be e 0 8 c 4 0 1 $T1 .raSearch = $T0  $T1 4 - 8 @ = $ebp $T1 4 - ^ = $eip $T1 ^ = $esp $T1 4 + = $20 $T0 8 - ^ =  $23 $T0 12 - ^ =  $24 $T0 16 - ^ = 
STACK WIN 4 70400 1aee 21 0 c 8 c8 0 1 $T1 .raSearch = $T0  $T1 4 - 16 @ = $ebp $T1 4 - ^ = $eip $T1 ^ = $esp $T1 4 + = $23 $T0 204 - ^ =  $24 $T0 208 - ^ = 
STACK WIN 4 71ef0 6dc 19 0 18 c 2c 0 1 $T1 .raSearch = $T0  $T1 4 - 8 @ = $ebp $T1 4 - ^ = $eip $T1 ^ = $esp $T1 4 + = $20 $T0 48 - ^ =  $23 $T0 52 - ^ =  $24 $T0 56 - ^ = 
STACK WIN 4 725d0 ab 17 0 4 c 4 0 1 $T1 .raSearch = $T0  $T1 4 - 8 @ = $ebp $T1 4 - ^ = $eip $T1 ^ = $esp $T1 4 + = $20 $T0 8 - ^ =  $23 $T0 12 - ^ =  $24 $T0 16 - ^ = 
STACK WIN 4 72680 8d 11 0 c c 0 0 1 $T0 .raSearch = $eip $T0 ^ = $esp $T0 4 + =  $20 $T0 4 - ^ =  $23 $T0 8 - ^ =  $24 $T0 12 - ^ = 
STACK WIN 4 72710 8e 8 0 0 c 8 0 1 $T0 .raSearch = $eip $T0 ^ = $esp $T0 4 + =  $20 $T0 12 - ^ =  $23 $T0 16 - ^ =  $24 $T0 20 - ^ = 
STACK WIN 4 727a0 349 c 0 4 10 30 0 1 $T0 .raSearch = $eip $T0 ^ = $esp $T0 4 + =  $20 $T0 52 - ^ =  $22 $T0 56 - ^ =  $23 $T0 60 - ^ =  $24 $T0 64 - ^ = 
STACK WIN 4 72af0 165 c 0 c c c 0 1 $T1 .raSearch = $T0  $T1 4 - 8 @ = $ebp $T1 4 - ^ = $eip $T1 ^ = $esp $T1 4 + = $20 $T0 16 - ^ =  $23 $T0 20 - ^ =  $24 $T0 24 - ^ = 
STACK WIN 4 72c60 1b 0 0 10 0 0 0 1 $T0 .raSearch = $eip $T0 ^ = $esp $T0 4 + = 
STACK WIN 4 72c80 1d 0 0 14 0 0 0 1 $T0 .raSearch = $eip $T0 ^ = $esp $T0 4 + = 
STACK WIN 4 72ca0 69 3 0 0 0 0 0 1 $T0 .raSearch = $eip $T0 ^ = $esp $T0 4 + = 
STACK WIN 4 72ca1 67 2 0 0 4 0 0 1 $T0 .raSearch = $eip $T0 ^ = $esp $T0 4 + =  $23 $T0 4 - ^ = 
STACK WIN 4 72ca4 63 0 0 0 8 0 0 1 $T0 .raSearch = $eip $T0 ^ = $esp $T0 4 + =  $23 $T0 4 - ^ =  $24 $T0 8 - ^ = 
STACK WIN 4 72d10 47 9 0 0 0 0 0 1 $T0 .raSearch = $eip $T0 ^ = $esp $T0 4 + = 
STACK WIN 4 72d11 45 8 0 0 4 0 0 1 $T0 .raSearch = $eip $T0 ^ = $esp $T0 4 + =  $20 $T0 4 - ^ = 
STACK WIN 4 72d14 41 5 0 0 8 0 0 1 $T0 .raSearch = $eip $T0 ^ = $esp $T0 4 + =  $20 $T0 4 - ^ =  $22 $T0 8 - ^ = 
STACK WIN 4 72d15 3f 4 0 0 c 0 0 1 $T0 .raSearch = $eip $T0 ^ = $esp $T0 4 + =  $20 $T0 4 - ^ =  $22 $T0 8 - ^ =  $24 $T0 12 - ^ = 
STACK WIN 4 72d24 2d 0 0 0 10 0 0 1 $T0 .raSearch = $eip $T0 ^ = $esp $T0 4 + =  $20 $T0 4 - ^ =  $22 $T0 8 - ^ =  $24 $T0 12 - ^ =  $23 $T0 16 - ^ = 
STACK WIN 4 72d60 86 0 0 0 0 0 0 1 $T0 .raSearch = $eip $T0 ^ = $esp $T0 4 + = 
STACK WIN 4 72d79 6c 0 0 0 4 0 0 1 $T0 .raSearch = $eip $T0 ^ = $esp $T0 4 + =  $23 $T0 4 - ^ = 
STACK WIN 4 72d7c 68 0 0 0 8 0 0 1 $T0 .raSearch = $eip $T0 ^ = $esp $T0 4 + =  $23 $T0 4 - ^ =  $24 $T0 8 - ^ = 
STACK WIN 4 72df0 9e 1 0 0 0 0 0 1 $T0 .raSearch = $eip $T0 ^ = $esp $T0 4 + = 
STACK WIN 4 72df1 9c 0 0 0 4 0 0 1 $T0 .raSearch = $eip $T0 ^ = $esp $T0 4 + =  $23 $T0 4 - ^ = 
STACK WIN 4 72e1f 6d 0 0 0 8 0 0 1 $T0 .raSearch = $eip $T0 ^ = $esp $T0 4 + =  $23 $T0 4 - ^ =  $20 $T0 8 - ^ = 
STACK WIN 4 72e20 6b 0 0 0 c 0 0 1 $T0 .raSearch = $eip $T0 ^ = $esp $T0 4 + =  $23 $T0 4 - ^ =  $20 $T0 8 - ^ =  $24 $T0 12 - ^ = 
STACK WIN 4 72e90 df 4 0 0 0 0 0 1 $T0 .raSearch = $eip $T0 ^ = $esp $T0 4 + = 
STACK WIN 4 72e91 dd 3 0 0 4 0 0 1 $T0 .raSearch = $eip $T0 ^ = $esp $T0 4 + =  $20 $T0 4 - ^ = 
STACK WIN 4 72e92 db 2 0 0 8 0 0 1 $T0 .raSearch = $eip $T0 ^ = $esp $T0 4 + =  $20 $T0 4 - ^ =  $23 $T0 8 - ^ = 
STACK WIN 4 72eb5 6b 0 0 0 c 0 0 1 $T0 .raSearch = $eip $T0 ^ = $esp $T0 4 + =  $20 $T0 4 - ^ =  $23 $T0 8 - ^ =  $24 $T0 12 - ^ = 
STACK WIN 4 72f70 d6 b 0 4 10 0 0 1 $T0 .raSearch = $eip $T0 ^ = $esp $T0 4 + =  $20 $T0 4 - ^ =  $22 $T0 8 - ^ =  $23 $T0 12 - ^ =  $24 $T0 16 - ^ = 
STACK WIN 4 73050 18d 1b 0 c 10 10 0 1 $T0 .raSearch = $eip $T0 ^ = $esp $T0 4 + =  $20 $T0 20 - ^ =  $22 $T0 24 - ^ =  $23 $T0 28 - ^ =  $24 $T0 32 - ^ = 
STACK WIN 4 731e0 6b 6 0 0 10 4 0 1 $T0 .raSearch = $eip $T0 ^ = $esp $T0 4 + =  $20 $T0 8 - ^ =  $22 $T0 12 - ^ =  $23 $T0 16 - ^ =  $24 $T0 20 - ^ = 
STACK WIN 4 73250 16b 9 0 0 10 c 0 1 $T0 .raSearch = $eip $T0 ^ = $esp $T0 4 + =  $20 $T0 16 - ^ =  $22 $T0 20 - ^ =  $23 $T0 24 - ^ =  $24 $T0 28 - ^ = 
STACK WIN 4 733c0 4e9 1b 0 c 10 38 0 1 $T0 .raSearch = $eip $T0 ^ = $esp $T0 4 + =  $20 $T0 60 - ^ =  $22 $T0 64 - ^ =  $23 $T0 68 - ^ =  $24 $T0 72 - ^ = 
STACK WIN 4 738b0 c1 9 0 0 10 4 0 1 $T0 .raSearch = $eip $T0 ^ = $esp $T0 4 + =  $20 $T0 8 - ^ =  $22 $T0 12 - ^ =  $23 $T0 16 - ^ =  $24 $T0 20 - ^ = 
STACK WIN 4 73980 98 4 0 0 c 0 0 1 $T0 .raSearch = $eip $T0 ^ = $esp $T0 4 + =  $20 $T0 4 - ^ =  $23 $T0 8 - ^ =  $24 $T0 12 - ^ = 
STACK WIN 4 73a20 ed 9 0 8 c 8 0 1 $T0 .raSearch = $eip $T0 ^ = $esp $T0 4 + =  $20 $T0 12 - ^ =  $23 $T0 16 - ^ =  $24 $T0 20 - ^ = 
STACK WIN 4 73b10 244 c 0 8 c c 0 1 $T1 .raSearch = $T0  $T1 4 - 8 @ = $ebp $T1 4 - ^ = $eip $T1 ^ = $esp $T1 4 + = $20 $T0 16 - ^ =  $23 $T0 20 - ^ =  $24 $T0 24 - ^ = 
STACK WIN 4 73d60 74 4 0 4 0 0 0 1 $T0 .raSearch = $eip $T0 ^ = $esp $T0 4 + = 
STACK WIN 4 73d61 72 3 0 4 4 0 0 1 $T0 .raSearch = $eip $T0 ^ = $esp $T0 4 + =  $20 $T0 4 - ^ = 
STACK WIN 4 73d62 6b 2 0 4 8 0 0 1 $T0 .raSearch = $eip $T0 ^ = $esp $T0 4 + =  $20 $T0 4 - ^ =  $23 $T0 8 - ^ = 
STACK WIN 4 73d67 65 0 0 4 c 0 0 1 $T0 .raSearch = $eip $T0 ^ = $esp $T0 4 + =  $20 $T0 4 - ^ =  $23 $T0 8 - ^ =  $24 $T0 12 - ^ = 
STACK WIN 4 73de0 140 6 0 0 0 0 0 1 $T0 .raSearch = $eip $T0 ^ = $esp $T0 4 + = 
STACK WIN 4 73de4 138 2 0 0 4 8 0 1 $T0 .raSearch = $eip $T0 ^ = $esp $T0 4 + =  $20 $T0 12 - ^ = 
STACK WIN 4 73dfd b3 0 0 0 8 8 0 1 $T0 .raSearch = $eip $T0 ^ = $esp $T0 4 + =  $20 $T0 12 - ^ =  $22 $T0 16 - ^ = 
STACK WIN 4 73e16 99 0 0 0 c 8 0 1 $T0 .raSearch = $eip $T0 ^ = $esp $T0 4 + =  $20 $T0 12 - ^ =  $22 $T0 16 - ^ =  $23 $T0 20 - ^ = 
STACK WIN 4 73e17 97 0 0 0 10 8 0 1 $T0 .raSearch = $eip $T0 ^ = $esp $T0 4 + =  $20 $T0 12 - ^ =  $22 $T0 16 - ^ =  $23 $T0 20 - ^ =  $24 $T0 24 - ^ = 
STACK WIN 4 73f20 68 7 0 0 10 c 0 1 $T0 .raSearch = $eip $T0 ^ = $esp $T0 4 + =  $20 $T0 16 - ^ =  $22 $T0 20 - ^ =  $23 $T0 24 - ^ =  $24 $T0 28 - ^ = 
STACK WIN 4 73f90 bb 7 0 0 10 4 0 1 $T0 .raSearch = $eip $T0 ^ = $esp $T0 4 + =  $20 $T0 8 - ^ =  $22 $T0 12 - ^ =  $23 $T0 16 - ^ =  $24 $T0 20 - ^ = 
STACK WIN 4 74050 89 4 0 4 0 0 0 1 $T0 .raSearch = $eip $T0 ^ = $esp $T0 4 + = 
STACK WIN 4 74052 85 2 0 4 4 4 0 1 $T0 .raSearch = $eip $T0 ^ = $esp $T0 4 + =  $22 $T0 8 - ^ = 
STACK WIN 4 74059 7d 0 0 4 8 4 0 1 $T0 .raSearch = $eip $T0 ^ = $esp $T0 4 + =  $22 $T0 8 - ^ =  $24 $T0 12 - ^ = 
STACK WIN 4 74064 69 0 0 4 c 4 0 1 $T0 .raSearch = $eip $T0 ^ = $esp $T0 4 + =  $22 $T0 8 - ^ =  $24 $T0 12 - ^ =  $20 $T0 16 - ^ = 
STACK WIN 4 74069 63 0 0 4 10 4 0 1 $T0 .raSearch = $eip $T0 ^ = $esp $T0 4 + =  $22 $T0 8 - ^ =  $24 $T0 12 - ^ =  $20 $T0 16 - ^ =  $23 $T0 20 - ^ = 
STACK WIN 4 740e0 147 1f 0 8 10 c 0 1 $T0 .raSearch = $eip $T0 ^ = $esp $T0 4 + =  $20 $T0 16 - ^ =  $22 $T0 20 - ^ =  $23 $T0 24 - ^ =  $24 $T0 28 - ^ = 
STACK WIN 4 74230 ad c 0 0 10 0 0 1 $T1 .raSearch = $T0  $T1 4 - 8 @ = $ebp $T1 4 - ^ = $eip $T1 ^ = $esp $T1 4 + = $20 $T0 4 - ^ =  $23 $T0 12 - ^ =  $24 $T0 16 - ^ = 
STACK WIN 4 742e0 13f 1f 0 0 10 c 0 1 $T0 .raSearch = $eip $T0 ^ = $esp $T0 4 + =  $20 $T0 16 - ^ =  $22 $T0 20 - ^ =  $23 $T0 24 - ^ =  $24 $T0 28 - ^ = 
STACK WIN 4 74420 34 3 0 0 4 0 0 1 $T0 .raSearch = $eip $T0 ^ = $esp $T0 4 + =  $23 $T0 4 - ^ = 
STACK WIN 4 74460 10 0 0 4 0 0 0 1 $T0 .raSearch = $eip $T0 ^ = $esp $T0 4 + = 
STACK WIN 4 74470 8a 3 0 8 8 4 0 1 $T0 .raSearch = $eip $T0 ^ = $esp $T0 4 + =  $23 $T0 8 - ^ =  $24 $T0 12 - ^ = 
STACK WIN 4 74500 28a 10 0 10 10 4 0 1 $T0 .raSearch = $eip $T0 ^ = $esp $T0 4 + =  $20 $T0 8 - ^ =  $22 $T0 12 - ^ =  $23 $T0 16 - ^ =  $24 $T0 20 - ^ = 
STACK WIN 4 74790 199 f 0 0 10 14 0 1 $T0 .raSearch = $eip $T0 ^ = $esp $T0 4 + =  $20 $T0 24 - ^ =  $22 $T0 28 - ^ =  $23 $T0 32 - ^ =  $24 $T0 36 - ^ = 
STACK WIN 4 74930 2ae 21 0 10 10 9c 0 1 $T0 .raSearch = $eip $T0 ^ = $esp $T0 4 + =  $20 $T0 160 - ^ =  $22 $T0 164 - ^ =  $23 $T0 168 - ^ =  $24 $T0 172 - ^ = 
STACK WIN 4 74be0 71 6 0 0 0 0 0 1 $T0 .raSearch = $eip $T0 ^ = $esp $T0 4 + = 
STACK WIN 4 74be1 6f 5 0 0 4 0 0 1 $T0 .raSearch = $eip $T0 ^ = $esp $T0 4 + =  $23 $T0 4 - ^ = 
STACK WIN 4 74be4 6b 2 0 0 8 0 0 1 $T0 .raSearch = $eip $T0 ^ = $esp $T0 4 + =  $23 $T0 4 - ^ =  $24 $T0 8 - ^ = 
STACK WIN 4 74beb 63 0 0 0 c 0 0 1 $T0 .raSearch = $eip $T0 ^ = $esp $T0 4 + =  $23 $T0 4 - ^ =  $24 $T0 8 - ^ =  $20 $T0 12 - ^ = 
STACK WIN 4 74c60 60 7 0 8 c 0 0 1 $T0 .raSearch = $eip $T0 ^ = $esp $T0 4 + =  $20 $T0 4 - ^ =  $23 $T0 8 - ^ =  $24 $T0 12 - ^ = 
STACK WIN 4 74cc0 ce 16 0 4 10 10 0 1 $T0 .raSearch = $eip $T0 ^ = $esp $T0 4 + =  $20 $T0 20 - ^ =  $22 $T0 24 - ^ =  $23 $T0 28 - ^ =  $24 $T0 32 - ^ = 
STACK WIN 4 74d90 68b e 0 10 c 44 0 1 $T1 .raSearch = $T0  $T1 4 - 8 @ = $ebp $T1 4 - ^ = $eip $T1 ^ = $esp $T1 4 + = $20 $T0 72 - ^ =  $23 $T0 76 - ^ =  $24 $T0 80 - ^ = 
STACK WIN 4 75420 423 f 0 c c 2c 0 1 $T1 .raSearch = $T0  $T1 4 - 8 @ = $ebp $T1 4 - ^ = $eip $T1 ^ = $esp $T1 4 + = $20 $T0 48 - ^ =  $23 $T0 52 - ^ =  $24 $T0 56 - ^ = 
STACK WIN 4 75850 56 7 0 4 0 0 0 1 $T0 .raSearch = $eip $T0 ^ = $esp $T0 4 + = 
STACK WIN 4 75855 50 2 0 4 4 0 0 1 $T0 .raSearch = $eip $T0 ^ = $esp $T0 4 + =  $24 $T0 4 - ^ = 
STACK WIN 4 75865 2c 0 0 4 8 0 0 1 $T0 .raSearch = $eip $T0 ^ = $esp $T0 4 + =  $24 $T0 4 - ^ =  $23 $T0 8 - ^ = 
STACK WIN 4 758b0 176 11 0 8 c c 0 1 $T1 .raSearch = $T0  $T1 4 - 8 @ = $ebp $T1 4 - ^ = $eip $T1 ^ = $esp $T1 4 + = $20 $T0 16 - ^ =  $23 $T0 20 - ^ =  $24 $T0 24 - ^ = 
STACK WIN 4 75a30 a7 6 0 8 10 0 0 1 $T0 .raSearch = $eip $T0 ^ = $esp $T0 4 + =  $20 $T0 4 - ^ =  $22 $T0 8 - ^ =  $23 $T0 12 - ^ =  $24 $T0 16 - ^ = 
STACK WIN 4 75ae0 1d4b 1e 0 8 8 c8 0 1 $T1 .raSearch = $T0  $T1 4 - 16 @ = $ebp $T1 4 - ^ = $eip $T1 ^ = $esp $T1 4 + = $23 $T0 204 - ^ =  $24 $T0 208 - ^ = 
STACK WIN 4 77830 171 c 0 4 c 4 0 1 $T1 .raSearch = $T0  $T1 4 - 8 @ = $ebp $T1 4 - ^ = $eip $T1 ^ = $esp $T1 4 + = $20 $T0 8 - ^ =  $23 $T0 12 - ^ =  $24 $T0 16 - ^ = 
STACK WIN 4 779b0 6b 8 0 0 10 4 0 1 $T0 .raSearch = $eip $T0 ^ = $esp $T0 4 + =  $20 $T0 8 - ^ =  $22 $T0 12 - ^ =  $23 $T0 16 - ^ =  $24 $T0 20 - ^ = 
STACK WIN 4 77a20 2e 0 0 0 0 0 0 1 $T0 .raSearch = $eip $T0 ^ = $esp $T0 4 + = 
STACK WIN 4 77a50 26c 11 0 c 10 20 0 1 $T0 .raSearch = $eip $T0 ^ = $esp $T0 4 + =  $20 $T0 36 - ^ =  $22 $T0 40 - ^ =  $23 $T0 44 - ^ =  $24 $T0 48 - ^ = 
STACK WIN 4 77cc0 70 6 0 0 0 0 0 1 $T0 .raSearch = $eip $T0 ^ = $esp $T0 4 + = 
STACK WIN 4 77cc4 6b 2 0 0 4 0 0 1 $T0 .raSearch = $eip $T0 ^ = $esp $T0 4 + =  $20 $T0 4 - ^ = 
STACK WIN 4 77ced 41 0 0 0 8 0 0 1 $T0 .raSearch = $eip $T0 ^ = $esp $T0 4 + =  $20 $T0 4 - ^ =  $23 $T0 8 - ^ = 
STACK WIN 4 77cee 38 0 0 0 c 0 0 1 $T0 .raSearch = $eip $T0 ^ = $esp $T0 4 + =  $20 $T0 4 - ^ =  $23 $T0 8 - ^ =  $24 $T0 12 - ^ = 
STACK WIN 4 77d30 30 4 0 4 0 0 0 1 $T0 .raSearch = $eip $T0 ^ = $esp $T0 4 + = 
STACK WIN 4 77d31 2a 3 0 4 4 0 0 1 $T0 .raSearch = $eip $T0 ^ = $esp $T0 4 + =  $23 $T0 4 - ^ = 
STACK WIN 4 77d32 28 2 0 4 8 0 0 1 $T0 .raSearch = $eip $T0 ^ = $esp $T0 4 + =  $23 $T0 4 - ^ =  $24 $T0 8 - ^ = 
STACK WIN 4 77d60 108 1a 0 8 c c 0 1 $T1 .raSearch = $T0  $T1 4 - 8 @ = $ebp $T1 4 - ^ = $eip $T1 ^ = $esp $T1 4 + = $20 $T0 16 - ^ =  $23 $T0 20 - ^ =  $24 $T0 24 - ^ = 
STACK WIN 4 77e70 6f5 f 0 4 c 54 0 1 $T1 .raSearch = $T0  $T1 4 - 8 @ = $ebp $T1 4 - ^ = $eip $T1 ^ = $esp $T1 4 + = $20 $T0 88 - ^ =  $23 $T0 92 - ^ =  $24 $T0 96 - ^ = 
STACK WIN 4 78570 c2 5 0 0 c 0 0 1 $T0 .raSearch = $eip $T0 ^ = $esp $T0 4 + =  $20 $T0 4 - ^ =  $23 $T0 8 - ^ =  $24 $T0 12 - ^ = 
STACK WIN 4 78640 266 10 0 0 10 2c 0 1 $T0 .raSearch = $eip $T0 ^ = $esp $T0 4 + =  $20 $T0 48 - ^ =  $22 $T0 52 - ^ =  $23 $T0 56 - ^ =  $24 $T0 60 - ^ = 
STACK WIN 4 788b0 10c 8 0 14 0 0 0 1 $T0 .raSearch = $eip $T0 ^ = $esp $T0 4 + = 
STACK WIN 4 788b1 ff 7 0 14 4 0 0 1 $T0 .raSearch = $eip $T0 ^ = $esp $T0 4 + =  $22 $T0 4 - ^ = 
STACK WIN 4 788b6 f3 2 0 14 8 0 0 1 $T0 .raSearch = $eip $T0 ^ = $esp $T0 4 + =  $22 $T0 4 - ^ =  $24 $T0 8 - ^ = 
STACK WIN 4 788f4 b4 0 0 14 c 0 0 1 $T0 .raSearch = $eip $T0 ^ = $esp $T0 4 + =  $22 $T0 4 - ^ =  $24 $T0 8 - ^ =  $23 $T0 12 - ^ = 
STACK WIN 4 78939 6e 0 0 14 10 0 0 1 $T0 .raSearch = $eip $T0 ^ = $esp $T0 4 + =  $22 $T0 4 - ^ =  $24 $T0 8 - ^ =  $23 $T0 12 - ^ =  $20 $T0 16 - ^ = 
STACK WIN 4 789c0 ae2 11 0 4 c 6c 0 1 $T1 .raSearch = $T0  $T1 4 - 8 @ = $ebp $T1 4 - ^ = $eip $T1 ^ = $esp $T1 4 + = $20 $T0 112 - ^ =  $23 $T0 116 - ^ =  $24 $T0 120 - ^ = 
STACK WIN 4 794b0 65 a 0 4 c 4 0 1 $T0 .raSearch = $eip $T0 ^ = $esp $T0 4 + =  $20 $T0 8 - ^ =  $23 $T0 12 - ^ =  $24 $T0 16 - ^ = 
STACK WIN 4 79520 111 20 0 0 10 8 0 1 $T1 .raSearch = $T0  $T1 4 - 8 @ = $ebp $T1 4 - ^ = $eip $T1 ^ = $esp $T1 4 + = $20 $T0 12 - ^ =  $23 $T0 20 - ^ =  $24 $T0 24 - ^ = 
STACK WIN 4 79640 a7 11 0 0 10 8 0 1 $T1 .raSearch = $T0  $T1 4 - 8 @ = $ebp $T1 4 - ^ = $eip $T1 ^ = $esp $T1 4 + = $20 $T0 12 - ^ =  $23 $T0 20 - ^ =  $24 $T0 24 - ^ = 
STACK WIN 4 796f0 6b d 0 0 10 14 0 1 $T0 .raSearch = $eip $T0 ^ = $esp $T0 4 + =  $20 $T0 24 - ^ =  $22 $T0 28 - ^ =  $23 $T0 32 - ^ =  $24 $T0 36 - ^ = 
STACK WIN 4 79760 2f e 0 0 c 4 0 1 $T1 .raSearch = $T0  $T1 4 - 8 @ = $ebp $T1 4 - ^ = $eip $T1 ^ = $esp $T1 4 + = $20 $T0 8 - ^ =  $23 $T0 12 - ^ =  $24 $T0 16 - ^ = 
STACK WIN 4 79790 15a 1a 0 4 c 14 0 1 $T1 .raSearch = $T0  $T1 4 - 8 @ = $ebp $T1 4 - ^ = $eip $T1 ^ = $esp $T1 4 + = $20 $T0 24 - ^ =  $23 $T0 28 - ^ =  $24 $T0 32 - ^ = 
STACK WIN 4 798f0 116 1b 0 c 0 0 0 1 $T0 .raSearch = $eip $T0 ^ = $esp $T0 4 + = 
STACK WIN 4 798f4 10e 17 0 c 4 c 0 1 $T0 .raSearch = $eip $T0 ^ = $esp $T0 4 + =  $20 $T0 16 - ^ = 
STACK WIN 4 798fa 102 11 0 c 8 c 0 1 $T0 .raSearch = $eip $T0 ^ = $esp $T0 4 + =  $20 $T0 16 - ^ =  $22 $T0 20 - ^ = 
STACK WIN 4 798fb 100 10 0 c c c 0 1 $T0 .raSearch = $eip $T0 ^ = $esp $T0 4 + =  $20 $T0 16 - ^ =  $22 $T0 20 - ^ =  $23 $T0 24 - ^ = 
STACK WIN 4 798fc fe f 0 c 10 c 0 1 $T0 .raSearch = $eip $T0 ^ = $esp $T0 4 + =  $20 $T0 16 - ^ =  $22 $T0 20 - ^ =  $23 $T0 24 - ^ =  $24 $T0 28 - ^ = 
STACK WIN 4 79a10 3b 1 0 0 0 0 0 1 $T0 .raSearch = $eip $T0 ^ = $esp $T0 4 + = 
STACK WIN 4 79a11 2c 0 0 0 4 0 0 1 $T0 .raSearch = $eip $T0 ^ = $esp $T0 4 + =  $23 $T0 4 - ^ = 
STACK WIN 4 79a50 2fe 7 0 0 10 1c 0 1 $T0 .raSearch = $eip $T0 ^ = $esp $T0 4 + =  $20 $T0 32 - ^ =  $22 $T0 36 - ^ =  $23 $T0 40 - ^ =  $24 $T0 44 - ^ = 
STACK WIN 4 79d50 a2 6 0 10 10 4 0 1 $T0 .raSearch = $eip $T0 ^ = $esp $T0 4 + =  $20 $T0 8 - ^ =  $22 $T0 12 - ^ =  $23 $T0 16 - ^ =  $24 $T0 20 - ^ = 
STACK WIN 4 79e00 92 21 0 14 10 68 0 1 $T0 .raSearch = $eip $T0 ^ = $esp $T0 4 + =  $20 $T0 108 - ^ =  $22 $T0 112 - ^ =  $23 $T0 116 - ^ =  $24 $T0 120 - ^ = 
STACK WIN 4 79ea0 ce 8 0 c 10 10 0 1 $T0 .raSearch = $eip $T0 ^ = $esp $T0 4 + =  $20 $T0 20 - ^ =  $22 $T0 24 - ^ =  $23 $T0 28 - ^ =  $24 $T0 32 - ^ = 
STACK WIN 4 79f70 111 c 0 8 10 4 0 1 $T0 .raSearch = $eip $T0 ^ = $esp $T0 4 + =  $20 $T0 8 - ^ =  $22 $T0 12 - ^ =  $23 $T0 16 - ^ =  $24 $T0 20 - ^ = 
STACK WIN 4 7a090 9e 6 0 c 0 0 0 1 $T0 .raSearch = $eip $T0 ^ = $esp $T0 4 + = 
STACK WIN 4 7a091 9c 5 0 c 4 0 0 1 $T0 .raSearch = $eip $T0 ^ = $esp $T0 4 + =  $23 $T0 4 - ^ = 
STACK WIN 4 7a092 9a 4 0 c 8 0 0 1 $T0 .raSearch = $eip $T0 ^ = $esp $T0 4 + =  $23 $T0 4 - ^ =  $24 $T0 8 - ^ = 
STACK WIN 4 7a0cd 5e 0 0 c c 0 0 1 $T0 .raSearch = $eip $T0 ^ = $esp $T0 4 + =  $23 $T0 4 - ^ =  $24 $T0 8 - ^ =  $20 $T0 12 - ^ = 
STACK WIN 4 7a130 ca5 16 0 10 8 78 0 1 $T1 .raSearch = $T0  $T1 4 - 16 @ = $ebp $T1 4 - ^ = $eip $T1 ^ = $esp $T1 4 + = $23 $T0 124 - ^ =  $24 $T0 128 - ^ = 
STACK WIN 4 7adf0 235 19 0 14 10 18 0 1 $T0 .raSearch = $eip $T0 ^ = $esp $T0 4 + =  $20 $T0 28 - ^ =  $22 $T0 32 - ^ =  $23 $T0 36 - ^ =  $24 $T0 40 - ^ = 
STACK WIN 4 7b030 bc 6 0 4 8 0 0 1 $T0 .raSearch = $eip $T0 ^ = $esp $T0 4 + =  $23 $T0 4 - ^ =  $24 $T0 8 - ^ = 
STACK WIN 4 7b0f0 97 8 0 c 0 0 0 1 $T0 .raSearch = $eip $T0 ^ = $esp $T0 4 + = 
STACK WIN 4 7b0f1 95 7 0 c 4 0 0 1 $T0 .raSearch = $eip $T0 ^ = $esp $T0 4 + =  $20 $T0 4 - ^ = 
STACK WIN 4 7b0f2 93 6 0 c 8 0 0 1 $T0 .raSearch = $eip $T0 ^ = $esp $T0 4 + =  $20 $T0 4 - ^ =  $22 $T0 8 - ^ = 
STACK WIN 4 7b0f7 6d 1 0 c c 0 0 1 $T0 .raSearch = $eip $T0 ^ = $esp $T0 4 + =  $20 $T0 4 - ^ =  $22 $T0 8 - ^ =  $23 $T0 12 - ^ = 
STACK WIN 4 7b0f8 64 0 0 c 10 0 0 1 $T0 .raSearch = $eip $T0 ^ = $esp $T0 4 + =  $20 $T0 4 - ^ =  $22 $T0 8 - ^ =  $23 $T0 12 - ^ =  $24 $T0 16 - ^ = 
STACK WIN 4 7b190 ca 7 0 0 0 0 0 1 $T0 .raSearch = $eip $T0 ^ = $esp $T0 4 + = 
STACK WIN 4 7b191 c8 6 0 0 4 0 0 1 $T0 .raSearch = $eip $T0 ^ = $esp $T0 4 + =  $20 $T0 4 - ^ = 
STACK WIN 4 7b192 c6 5 0 0 8 0 0 1 $T0 .raSearch = $eip $T0 ^ = $esp $T0 4 + =  $20 $T0 4 - ^ =  $23 $T0 8 - ^ = 
STACK WIN 4 7b195 b7 2 0 0 c 0 0 1 $T0 .raSearch = $eip $T0 ^ = $esp $T0 4 + =  $20 $T0 4 - ^ =  $23 $T0 8 - ^ =  $24 $T0 12 - ^ = 
STACK WIN 4 7b260 6d 7 0 4 10 0 0 1 $T0 .raSearch = $eip $T0 ^ = $esp $T0 4 + =  $20 $T0 4 - ^ =  $22 $T0 8 - ^ =  $23 $T0 12 - ^ =  $24 $T0 16 - ^ = 
STACK WIN 4 7b2d0 e6 7 0 4 c 4 0 1 $T0 .raSearch = $eip $T0 ^ = $esp $T0 4 + =  $20 $T0 8 - ^ =  $23 $T0 12 - ^ =  $24 $T0 16 - ^ = 
STACK WIN 4 7b3c0 147 7 0 0 10 0 0 1 $T0 .raSearch = $eip $T0 ^ = $esp $T0 4 + =  $20 $T0 4 - ^ =  $22 $T0 8 - ^ =  $23 $T0 12 - ^ =  $24 $T0 16 - ^ = 
STACK WIN 4 7b510 9b 9 0 0 0 0 0 1 $T0 .raSearch = $eip $T0 ^ = $esp $T0 4 + = 
STACK WIN 4 7b512 97 7 0 0 4 4 0 1 $T0 .raSearch = $eip $T0 ^ = $esp $T0 4 + =  $20 $T0 8 - ^ = 
STACK WIN 4 7b513 90 6 0 0 8 4 0 1 $T0 .raSearch = $eip $T0 ^ = $esp $T0 4 + =  $20 $T0 8 - ^ =  $22 $T0 12 - ^ = 
STACK WIN 4 7b514 8e 5 0 0 c 4 0 1 $T0 .raSearch = $eip $T0 ^ = $esp $T0 4 + =  $20 $T0 8 - ^ =  $22 $T0 12 - ^ =  $23 $T0 16 - ^ = 
STACK WIN 4 7b517 8a 2 0 0 10 4 0 1 $T0 .raSearch = $eip $T0 ^ = $esp $T0 4 + =  $20 $T0 8 - ^ =  $22 $T0 12 - ^ =  $23 $T0 16 - ^ =  $24 $T0 20 - ^ = 
STACK WIN 4 7b5b0 6c 6 0 0 0 0 0 1 $T0 .raSearch = $eip $T0 ^ = $esp $T0 4 + = 
STACK WIN 4 7b5b1 6a 5 0 0 4 0 0 1 $T0 .raSearch = $eip $T0 ^ = $esp $T0 4 + =  $23 $T0 4 - ^ = 
STACK WIN 4 7b5b2 68 4 0 0 8 0 0 1 $T0 .raSearch = $eip $T0 ^ = $esp $T0 4 + =  $23 $T0 4 - ^ =  $24 $T0 8 - ^ = 
STACK WIN 4 7b5c4 55 0 0 0 c 0 0 1 $T0 .raSearch = $eip $T0 ^ = $esp $T0 4 + =  $23 $T0 4 - ^ =  $24 $T0 8 - ^ =  $20 $T0 12 - ^ = 
STACK WIN 4 7b620 d3 5 0 0 0 0 0 1 $T0 .raSearch = $eip $T0 ^ = $esp $T0 4 + = 
STACK WIN 4 7b622 cf 3 0 0 4 4 0 1 $T0 .raSearch = $eip $T0 ^ = $esp $T0 4 + =  $20 $T0 8 - ^ = 
STACK WIN 4 7b623 cb 2 0 0 8 4 0 1 $T0 .raSearch = $eip $T0 ^ = $esp $T0 4 + =  $20 $T0 8 - ^ =  $22 $T0 12 - ^ = 
STACK WIN 4 7b626 c7 0 0 0 c 4 0 1 $T0 .raSearch = $eip $T0 ^ = $esp $T0 4 + =  $20 $T0 8 - ^ =  $22 $T0 12 - ^ =  $23 $T0 16 - ^ = 
STACK WIN 4 7b627 c5 0 0 0 10 4 0 1 $T0 .raSearch = $eip $T0 ^ = $esp $T0 4 + =  $20 $T0 8 - ^ =  $22 $T0 12 - ^ =  $23 $T0 16 - ^ =  $24 $T0 20 - ^ = 
STACK WIN 4 7b700 168 11 0 0 10 c 0 1 $T0 .raSearch = $eip $T0 ^ = $esp $T0 4 + =  $20 $T0 16 - ^ =  $22 $T0 20 - ^ =  $23 $T0 24 - ^ =  $24 $T0 28 - ^ = 
STACK WIN 4 7b870 17a 9 0 4 10 18 0 1 $T0 .raSearch = $eip $T0 ^ = $esp $T0 4 + =  $20 $T0 28 - ^ =  $22 $T0 32 - ^ =  $23 $T0 36 - ^ =  $24 $T0 40 - ^ = 
STACK WIN 4 7b9f0 1d9 13 0 c 10 18 0 1 $T0 .raSearch = $eip $T0 ^ = $esp $T0 4 + =  $20 $T0 28 - ^ =  $22 $T0 32 - ^ =  $23 $T0 36 - ^ =  $24 $T0 40 - ^ = 
STACK WIN 4 7bbd0 689 36 0 8 10 c4 0 1 $T0 .raSearch = $eip $T0 ^ = $esp $T0 4 + =  $20 $T0 200 - ^ =  $22 $T0 204 - ^ =  $23 $T0 208 - ^ =  $24 $T0 212 - ^ = 
STACK WIN 4 7c260 12e 6 0 4 0 0 0 1 $T0 .raSearch = $eip $T0 ^ = $esp $T0 4 + = 
STACK WIN 4 7c264 126 2 0 4 4 10 0 1 $T0 .raSearch = $eip $T0 ^ = $esp $T0 4 + =  $22 $T0 20 - ^ = 
STACK WIN 4 7c287 fd 0 0 4 8 10 0 1 $T0 .raSearch = $eip $T0 ^ = $esp $T0 4 + =  $22 $T0 20 - ^ =  $20 $T0 24 - ^ = 
STACK WIN 4 7c288 fb 0 0 4 c 10 0 1 $T0 .raSearch = $eip $T0 ^ = $esp $T0 4 + =  $22 $T0 20 - ^ =  $20 $T0 24 - ^ =  $23 $T0 28 - ^ = 
STACK WIN 4 7c289 f9 0 0 4 10 10 0 1 $T0 .raSearch = $eip $T0 ^ = $esp $T0 4 + =  $22 $T0 20 - ^ =  $20 $T0 24 - ^ =  $23 $T0 28 - ^ =  $24 $T0 32 - ^ = 
STACK WIN 4 7c390 6c 17 0 0 10 c 0 1 $T0 .raSearch = $eip $T0 ^ = $esp $T0 4 + =  $20 $T0 16 - ^ =  $22 $T0 20 - ^ =  $23 $T0 24 - ^ =  $24 $T0 28 - ^ = 
STACK WIN 4 7c400 e6 9 0 4 0 0 0 1 $T0 .raSearch = $eip $T0 ^ = $esp $T0 4 + = 
STACK WIN 4 7c402 e2 7 0 4 4 4 0 1 $T0 .raSearch = $eip $T0 ^ = $esp $T0 4 + =  $20 $T0 8 - ^ = 
STACK WIN 4 7c403 db 6 0 4 8 4 0 1 $T0 .raSearch = $eip $T0 ^ = $esp $T0 4 + =  $20 $T0 8 - ^ =  $23 $T0 12 - ^ = 
STACK WIN 4 7c40a d3 0 0 4 c 4 0 1 $T0 .raSearch = $eip $T0 ^ = $esp $T0 4 + =  $20 $T0 8 - ^ =  $23 $T0 12 - ^ =  $24 $T0 16 - ^ = 
STACK WIN 4 7c438 a4 0 0 4 10 4 0 1 $T0 .raSearch = $eip $T0 ^ = $esp $T0 4 + =  $20 $T0 8 - ^ =  $23 $T0 12 - ^ =  $24 $T0 16 - ^ =  $22 $T0 20 - ^ = 
STACK WIN 4 7c4f0 5df 18 0 8 10 a4 0 1 $T0 .raSearch = $eip $T0 ^ = $esp $T0 4 + =  $20 $T0 168 - ^ =  $22 $T0 172 - ^ =  $23 $T0 176 - ^ =  $24 $T0 180 - ^ = 
STACK WIN 4 7cad0 40c 35 0 1c 10 28 0 1 $T0 .raSearch = $eip $T0 ^ = $esp $T0 4 + =  $20 $T0 44 - ^ =  $22 $T0 48 - ^ =  $23 $T0 52 - ^ =  $24 $T0 56 - ^ = 
STACK WIN 4 7cee0 3e8 17 0 10 10 64 0 1 $T0 .raSearch = $eip $T0 ^ = $esp $T0 4 + =  $20 $T0 104 - ^ =  $22 $T0 108 - ^ =  $23 $T0 112 - ^ =  $24 $T0 116 - ^ = 
STACK WIN 4 7d2d0 501 23 0 10 10 2ac 0 1 $T0 .raSearch = $eip $T0 ^ = $esp $T0 4 + =  $20 $T0 688 - ^ =  $22 $T0 692 - ^ =  $23 $T0 696 - ^ =  $24 $T0 700 - ^ = 
STACK WIN 4 7d7e0 255 12 0 0 10 4c 0 1 $T0 .raSearch = $eip $T0 ^ = $esp $T0 4 + =  $20 $T0 80 - ^ =  $22 $T0 84 - ^ =  $23 $T0 88 - ^ =  $24 $T0 92 - ^ = 
STACK WIN 4 7da40 879 11 0 14 10 a0 0 1 $T0 .raSearch = $eip $T0 ^ = $esp $T0 4 + =  $20 $T0 164 - ^ =  $22 $T0 168 - ^ =  $23 $T0 172 - ^ =  $24 $T0 176 - ^ = 
STACK WIN 4 7e2c0 8ce 17 0 0 10 74 0 1 $T0 .raSearch = $eip $T0 ^ = $esp $T0 4 + =  $20 $T0 120 - ^ =  $22 $T0 124 - ^ =  $23 $T0 128 - ^ =  $24 $T0 132 - ^ = 
STACK WIN 4 7eb90 1b5 9 0 0 10 14 0 1 $T0 .raSearch = $eip $T0 ^ = $esp $T0 4 + =  $20 $T0 24 - ^ =  $22 $T0 28 - ^ =  $23 $T0 32 - ^ =  $24 $T0 36 - ^ = 
STACK WIN 4 7ed50 ab5 1b 0 14 8 78 0 1 $T1 .raSearch = $T0  $T1 4 - 16 @ = $ebp $T1 4 - ^ = $eip $T1 ^ = $esp $T1 4 + = $23 $T0 124 - ^ =  $24 $T0 128 - ^ = 
STACK WIN 4 7f810 819 18 0 0 10 30 0 1 $T1 .raSearch = $T0  $T1 4 - 8 @ = $ebp $T1 4 - ^ = $eip $T1 ^ = $esp $T1 4 + = $20 $T0 52 - ^ =  $23 $T0 60 - ^ =  $24 $T0 64 - ^ = 
STACK WIN 4 80030 4c 7 0 0 8 4 0 1 $T0 .raSearch = $eip $T0 ^ = $esp $T0 4 + =  $23 $T0 8 - ^ =  $24 $T0 12 - ^ = 
STACK WIN 4 80080 9c b 0 c 8 0 0 1 $T0 .raSearch = $eip $T0 ^ = $esp $T0 4 + =  $23 $T0 4 - ^ =  $24 $T0 8 - ^ = 
STACK WIN 4 80120 25 7 0 8 8 4 0 1 $T0 .raSearch = $eip $T0 ^ = $esp $T0 4 + =  $23 $T0 8 - ^ =  $24 $T0 12 - ^ = 
STACK WIN 4 80150 85 a 0 4 c 4 0 1 $T1 .raSearch = $T0  $T1 4 - 8 @ = $ebp $T1 4 - ^ = $eip $T1 ^ = $esp $T1 4 + = $20 $T0 8 - ^ =  $23 $T0 12 - ^ =  $24 $T0 16 - ^ = 
STACK WIN 4 801e0 a1 a 0 8 c 4 0 1 $T1 .raSearch = $T0  $T1 4 - 8 @ = $ebp $T1 4 - ^ = $eip $T1 ^ = $esp $T1 4 + = $20 $T0 8 - ^ =  $23 $T0 12 - ^ =  $24 $T0 16 - ^ = 
STACK WIN 4 80290 37 a 0 8 4 4 0 1 $T1 .raSearch = $T0  $T1 4 - 8 @ = $ebp $T1 4 - ^ = $eip $T1 ^ = $esp $T1 4 + = $23 $T0 8 - ^ = 
STACK WIN 4 802d0 af 1e 0 c c 4 0 1 $T1 .raSearch = $T0  $T1 4 - 8 @ = $ebp $T1 4 - ^ = $eip $T1 ^ = $esp $T1 4 + = $20 $T0 8 - ^ =  $23 $T0 12 - ^ =  $24 $T0 16 - ^ = 
STACK WIN 4 80380 138 d 0 c c c 0 1 $T1 .raSearch = $T0  $T1 4 - 8 @ = $ebp $T1 4 - ^ = $eip $T1 ^ = $esp $T1 4 + = $20 $T0 16 - ^ =  $23 $T0 20 - ^ =  $24 $T0 24 - ^ = 
STACK WIN 4 804c0 13c 6 0 4 0 0 0 1 $T1 .raSearch = $T0  $T1 4 - 8 @ = $ebp $T1 4 - ^ = $eip $T1 ^ = $esp $T1 4 + =
STACK WIN 4 80600 39 4 0 0 8 4 0 1 $T0 .raSearch = $eip $T0 ^ = $esp $T0 4 + =  $23 $T0 8 - ^ =  $24 $T0 12 - ^ = 
STACK WIN 4 80640 7c 3 0 0 0 0 0 1 $T0 .raSearch = $eip $T0 ^ = $esp $T0 4 + = 
STACK WIN 4 80643 78 0 0 0 4 0 0 1 $T0 .raSearch = $eip $T0 ^ = $esp $T0 4 + =  $23 $T0 4 - ^ = 
STACK WIN 4 8065b 5f 0 0 0 8 0 0 1 $T0 .raSearch = $eip $T0 ^ = $esp $T0 4 + =  $23 $T0 4 - ^ =  $24 $T0 8 - ^ = 
STACK WIN 4 806c0 43 4 0 0 c 0 0 1 $T0 .raSearch = $eip $T0 ^ = $esp $T0 4 + =  $20 $T0 4 - ^ =  $23 $T0 8 - ^ =  $24 $T0 12 - ^ = 
STACK WIN 4 80710 2374 15 0 0 10 28 0 1 $T1 .raSearch = $T0  $T1 4 - 8 @ = $ebp $T1 4 - ^ = $eip $T1 ^ = $esp $T1 4 + = $20 $T0 44 - ^ =  $23 $T0 52 - ^ =  $24 $T0 56 - ^ = 
STACK WIN 4 82a90 e1 b 0 c c 1c 0 1 $T0 .raSearch = $eip $T0 ^ = $esp $T0 4 + =  $20 $T0 32 - ^ =  $23 $T0 36 - ^ =  $24 $T0 40 - ^ = 
STACK WIN 4 82b80 b4 6 0 4 0 0 0 1 $T0 .raSearch = $eip $T0 ^ = $esp $T0 4 + = 
STACK WIN 4 82b81 b2 5 0 4 4 0 0 1 $T0 .raSearch = $eip $T0 ^ = $esp $T0 4 + =  $22 $T0 4 - ^ = 
STACK WIN 4 82b82 b0 4 0 4 8 0 0 1 $T0 .raSearch = $eip $T0 ^ = $esp $T0 4 + =  $22 $T0 4 - ^ =  $23 $T0 8 - ^ = 
STACK WIN 4 82b99 91 0 0 4 c 0 0 1 $T0 .raSearch = $eip $T0 ^ = $esp $T0 4 + =  $22 $T0 4 - ^ =  $23 $T0 8 - ^ =  $24 $T0 12 - ^ = 
STACK WIN 4 82bc6 5d 0 0 4 10 0 0 1 $T0 .raSearch = $eip $T0 ^ = $esp $T0 4 + =  $22 $T0 4 - ^ =  $23 $T0 8 - ^ =  $24 $T0 12 - ^ =  $20 $T0 16 - ^ = 
STACK WIN 4 82c40 628 4 0 0 0 0 0 1 $T0 .raSearch = $eip $T0 ^ = $esp $T0 4 + = 
STACK WIN 4 82c41 5ba 3 0 0 4 0 0 1 $T0 .raSearch = $eip $T0 ^ = $esp $T0 4 + =  $20 $T0 4 - ^ = 
STACK WIN 4 82c42 5b8 2 0 0 8 0 0 1 $T0 .raSearch = $eip $T0 ^ = $esp $T0 4 + =  $20 $T0 4 - ^ =  $23 $T0 8 - ^ = 
STACK WIN 4 82c45 5b4 0 0 0 c 0 0 1 $T0 .raSearch = $eip $T0 ^ = $esp $T0 4 + =  $20 $T0 4 - ^ =  $23 $T0 8 - ^ =  $24 $T0 12 - ^ = 
STACK WIN 4 83270 47e e 0 4 c 1c 0 1 $T1 .raSearch = $T0  $T1 4 - 8 @ = $ebp $T1 4 - ^ = $eip $T1 ^ = $esp $T1 4 + = $20 $T0 32 - ^ =  $23 $T0 36 - ^ =  $24 $T0 40 - ^ = 
STACK WIN 4 836f0 2c2 9 0 4 0 0 0 1 $T0 .raSearch = $eip $T0 ^ = $esp $T0 4 + = 
STACK WIN 4 836f1 100 8 0 4 4 0 0 1 $T0 .raSearch = $eip $T0 ^ = $esp $T0 4 + =  $20 $T0 4 - ^ = 
STACK WIN 4 836f2 fc 7 0 4 8 0 0 1 $T0 .raSearch = $eip $T0 ^ = $esp $T0 4 + =  $20 $T0 4 - ^ =  $23 $T0 8 - ^ = 
STACK WIN 4 836f9 f4 0 0 4 c 0 0 1 $T0 .raSearch = $eip $T0 ^ = $esp $T0 4 + =  $20 $T0 4 - ^ =  $23 $T0 8 - ^ =  $24 $T0 12 - ^ = 
STACK WIN 4 839c0 b7 8 0 4 8 0 0 1 $T1 .raSearch = $T0  $T1 4 - 8 @ = $ebp $T1 4 - ^ = $eip $T1 ^ = $esp $T1 4 + = $20 $T0 4 - ^ =  $23 $T0 8 - ^ = 
STACK WIN 4 83a80 6 0 0 0 0 0 0 1 $T0 .raSearch = $eip $T0 ^ = $esp $T0 4 + = 
STACK WIN 4 83a90 6 0 0 0 0 0 0 1 $T0 .raSearch = $eip $T0 ^ = $esp $T0 4 + = 
STACK WIN 4 83aa0 6 0 0 0 0 0 0 1 $T0 .raSearch = $eip $T0 ^ = $esp $T0 4 + = 
STACK WIN 4 83ab0 6 0 0 0 0 0 0 1 $T0 .raSearch = $eip $T0 ^ = $esp $T0 4 + = 
STACK WIN 4 83ac0 240 f 0 0 8 0 0 1 $T1 .raSearch = $T0  $T1 4 - 8 @ = $ebp $T1 4 - ^ = $eip $T1 ^ = $esp $T1 4 + = $23 $T0 4 - ^ =  $24 $T0 8 - ^ = 
STACK WIN 4 83d00 36c b 0 4 8 8 0 1 $T1 .raSearch = $T0  $T1 4 - 8 @ = $ebp $T1 4 - ^ = $eip $T1 ^ = $esp $T1 4 + = $23 $T0 12 - ^ =  $24 $T0 16 - ^ = 
STACK WIN 4 84070 142 d 0 8 c c 0 1 $T1 .raSearch = $T0  $T1 4 - 8 @ = $ebp $T1 4 - ^ = $eip $T1 ^ = $esp $T1 4 + = $20 $T0 16 - ^ =  $23 $T0 20 - ^ =  $24 $T0 24 - ^ = 
STACK WIN 4 841c0 8 0 0 4 0 0 0 1 $T0 .raSearch = $eip $T0 ^ = $esp $T0 4 + = 
STACK WIN 4 841d0 a0 7 0 4 0 0 0 1 $T0 .raSearch = $eip $T0 ^ = $esp $T0 4 + = 
STACK WIN 4 841d1 8e 6 0 4 4 0 0 1 $T0 .raSearch = $eip $T0 ^ = $esp $T0 4 + =  $20 $T0 4 - ^ = 
STACK WIN 4 841d2 8c 5 0 4 8 0 0 1 $T0 .raSearch = $eip $T0 ^ = $esp $T0 4 + =  $20 $T0 4 - ^ =  $23 $T0 8 - ^ = 
STACK WIN 4 841d7 86 0 0 4 c 0 0 1 $T0 .raSearch = $eip $T0 ^ = $esp $T0 4 + =  $20 $T0 4 - ^ =  $23 $T0 8 - ^ =  $24 $T0 12 - ^ = 
STACK WIN 4 84270 bf b 0 4 0 0 0 1 $T0 .raSearch = $eip $T0 ^ = $esp $T0 4 + = 
STACK WIN 4 84272 bb 9 0 4 4 4 0 1 $T0 .raSearch = $eip $T0 ^ = $esp $T0 4 + =  $20 $T0 8 - ^ = 
STACK WIN 4 84273 b9 8 0 4 8 4 0 1 $T0 .raSearch = $eip $T0 ^ = $esp $T0 4 + =  $20 $T0 8 - ^ =  $22 $T0 12 - ^ = 
STACK WIN 4 84274 b7 7 0 4 c 4 0 1 $T0 .raSearch = $eip $T0 ^ = $esp $T0 4 + =  $20 $T0 8 - ^ =  $22 $T0 12 - ^ =  $23 $T0 16 - ^ = 
STACK WIN 4 8427b af 0 0 4 10 4 0 1 $T0 .raSearch = $eip $T0 ^ = $esp $T0 4 + =  $20 $T0 8 - ^ =  $22 $T0 12 - ^ =  $23 $T0 16 - ^ =  $24 $T0 20 - ^ = 
STACK WIN 4 84330 c7 7 0 8 4 0 0 1 $T0 .raSearch = $eip $T0 ^ = $esp $T0 4 + =  $23 $T0 4 - ^ = 
STACK WIN 4 84400 c9 12 0 14 0 0 0 1 $T0 .raSearch = $eip $T0 ^ = $esp $T0 4 + = 
STACK WIN 4 84405 c3 d 0 14 4 0 0 1 $T0 .raSearch = $eip $T0 ^ = $esp $T0 4 + =  $20 $T0 4 - ^ = 
STACK WIN 4 8440a bb 8 0 14 8 0 0 1 $T0 .raSearch = $eip $T0 ^ = $esp $T0 4 + =  $20 $T0 4 - ^ =  $22 $T0 8 - ^ = 
STACK WIN 4 84411 b3 1 0 14 c 0 0 1 $T0 .raSearch = $eip $T0 ^ = $esp $T0 4 + =  $20 $T0 4 - ^ =  $22 $T0 8 - ^ =  $23 $T0 12 - ^ = 
STACK WIN 4 84412 af 0 0 14 10 0 0 1 $T0 .raSearch = $eip $T0 ^ = $esp $T0 4 + =  $20 $T0 4 - ^ =  $22 $T0 8 - ^ =  $23 $T0 12 - ^ =  $24 $T0 16 - ^ = 
STACK WIN 4 844d0 2d 6 0 14 0 0 0 1 $T0 .raSearch = $eip $T0 ^ = $esp $T0 4 + = 
STACK WIN 4 844d1 2b 5 0 14 4 0 0 1 $T0 .raSearch = $eip $T0 ^ = $esp $T0 4 + =  $23 $T0 4 - ^ = 
STACK WIN 4 844d6 25 0 0 14 8 0 0 1 $T0 .raSearch = $eip $T0 ^ = $esp $T0 4 + =  $23 $T0 4 - ^ =  $24 $T0 8 - ^ = 
STACK WIN 4 84500 b 0 0 4 0 0 0 1 $T0 .raSearch = $eip $T0 ^ = $esp $T0 4 + = 
STACK WIN 4 84510 8 0 0 4 0 0 0 1 $T0 .raSearch = $eip $T0 ^ = $esp $T0 4 + = 
STACK WIN 4 84520 8 0 0 4 0 0 0 1 $T0 .raSearch = $eip $T0 ^ = $esp $T0 4 + = 
STACK WIN 4 84530 85 3 0 0 0 0 0 1 $T0 .raSearch = $eip $T0 ^ = $esp $T0 4 + = 
STACK WIN 4 84531 83 2 0 0 4 0 0 1 $T0 .raSearch = $eip $T0 ^ = $esp $T0 4 + =  $23 $T0 4 - ^ = 
STACK WIN 4 845c0 66 7 0 0 0 0 0 1 $T0 .raSearch = $eip $T0 ^ = $esp $T0 4 + = 
STACK WIN 4 845c1 64 6 0 0 4 0 0 1 $T0 .raSearch = $eip $T0 ^ = $esp $T0 4 + =  $23 $T0 4 - ^ = 
STACK WIN 4 845c5 5f 2 0 0 8 0 0 1 $T0 .raSearch = $eip $T0 ^ = $esp $T0 4 + =  $23 $T0 4 - ^ =  $24 $T0 8 - ^ = 
STACK WIN 4 84630 a0 5 0 0 0 0 0 1 $T0 .raSearch = $eip $T0 ^ = $esp $T0 4 + = 
STACK WIN 4 84631 9e 4 0 0 4 0 0 1 $T0 .raSearch = $eip $T0 ^ = $esp $T0 4 + =  $20 $T0 4 - ^ = 
STACK WIN 4 84632 9c 3 0 0 8 0 0 1 $T0 .raSearch = $eip $T0 ^ = $esp $T0 4 + =  $20 $T0 4 - ^ =  $23 $T0 8 - ^ = 
STACK WIN 4 84633 9a 2 0 0 c 0 0 1 $T0 .raSearch = $eip $T0 ^ = $esp $T0 4 + =  $20 $T0 4 - ^ =  $23 $T0 8 - ^ =  $24 $T0 12 - ^ = 
STACK WIN 4 84642 34 0 0 0 10 0 0 1 $T0 .raSearch = $eip $T0 ^ = $esp $T0 4 + =  $20 $T0 4 - ^ =  $23 $T0 8 - ^ =  $24 $T0 12 - ^ =  $22 $T0 16 - ^ = 
STACK WIN 4 846d0 3f 2 0 0 0 0 0 1 $T0 .raSearch = $eip $T0 ^ = $esp $T0 4 + = 
STACK WIN 4 846df 2f 0 0 0 4 0 0 1 $T0 .raSearch = $eip $T0 ^ = $esp $T0 4 + =  $23 $T0 4 - ^ = 
STACK WIN 4 84710 ef 4 0 0 8 4 0 1 $T0 .raSearch = $eip $T0 ^ = $esp $T0 4 + =  $23 $T0 8 - ^ =  $24 $T0 12 - ^ = 
STACK WIN 4 84800 b 0 0 4 0 0 0 1 $T0 .raSearch = $eip $T0 ^ = $esp $T0 4 + = 
STACK WIN 4 84810 e 0 0 4 0 0 0 1 $T0 .raSearch = $eip $T0 ^ = $esp $T0 4 + = 
STACK WIN 4 84820 476 6 0 0 10 4 0 1 $T0 .raSearch = $eip $T0 ^ = $esp $T0 4 + =  $20 $T0 8 - ^ =  $22 $T0 12 - ^ =  $23 $T0 16 - ^ =  $24 $T0 20 - ^ = 
STACK WIN 4 84ca0 14b 13 0 0 10 c 0 1 $T0 .raSearch = $eip $T0 ^ = $esp $T0 4 + =  $20 $T0 16 - ^ =  $22 $T0 20 - ^ =  $23 $T0 24 - ^ =  $24 $T0 28 - ^ = 
STACK WIN 4 84df0 27 0 0 0 0 0 0 1 $T0 .raSearch = $eip $T0 ^ = $esp $T0 4 + = 
STACK WIN 4 84e20 60 5 0 8 0 0 0 1 $T0 .raSearch = $eip $T0 ^ = $esp $T0 4 + = 
STACK WIN 4 84e25 5a 0 0 8 4 0 0 1 $T0 .raSearch = $eip $T0 ^ = $esp $T0 4 + =  $24 $T0 4 - ^ = 
STACK WIN 4 84e80 53 1 0 c 0 0 0 1 $T0 .raSearch = $eip $T0 ^ = $esp $T0 4 + = 
STACK WIN 4 84e81 41 0 0 c 4 0 0 1 $T0 .raSearch = $eip $T0 ^ = $esp $T0 4 + =  $23 $T0 4 - ^ = 
STACK WIN 4 84ee0 69 1 0 10 0 0 0 1 $T0 .raSearch = $eip $T0 ^ = $esp $T0 4 + = 
STACK WIN 4 84ee1 5b 0 0 10 4 0 0 1 $T0 .raSearch = $eip $T0 ^ = $esp $T0 4 + =  $23 $T0 4 - ^ = 
STACK WIN 4 84f50 ab 6 0 8 0 0 0 1 $T0 .raSearch = $eip $T0 ^ = $esp $T0 4 + = 
STACK WIN 4 84f51 a9 5 0 8 4 0 0 1 $T0 .raSearch = $eip $T0 ^ = $esp $T0 4 + =  $23 $T0 4 - ^ = 
STACK WIN 4 84f56 a1 0 0 8 8 0 0 1 $T0 .raSearch = $eip $T0 ^ = $esp $T0 4 + =  $23 $T0 4 - ^ =  $24 $T0 8 - ^ = 
STACK WIN 4 85000 f 0 0 4 0 0 0 1 $T0 .raSearch = $eip $T0 ^ = $esp $T0 4 + = 
STACK WIN 4 85010 1b8 10 0 1c c c 0 1 $T1 .raSearch = $T0  $T1 4 - 8 @ = $ebp $T1 4 - ^ = $eip $T1 ^ = $esp $T1 4 + = $20 $T0 16 - ^ =  $23 $T0 20 - ^ =  $24 $T0 24 - ^ = 
STACK WIN 4 851d0 74 8 0 20 8 0 0 1 $T1 .raSearch = $T0  $T1 4 - 8 @ = $ebp $T1 4 - ^ = $eip $T1 ^ = $esp $T1 4 + = $23 $T0 4 - ^ =  $24 $T0 8 - ^ = 
STACK WIN 4 85250 d9 a 0 24 c 4 0 1 $T1 .raSearch = $T0  $T1 4 - 8 @ = $ebp $T1 4 - ^ = $eip $T1 ^ = $esp $T1 4 + = $20 $T0 8 - ^ =  $23 $T0 12 - ^ =  $24 $T0 16 - ^ = 
STACK WIN 4 85330 ca 6 0 20 0 0 0 1 $T0 .raSearch = $eip $T0 ^ = $esp $T0 4 + = 
STACK WIN 4 85331 c8 5 0 20 4 0 0 1 $T0 .raSearch = $eip $T0 ^ = $esp $T0 4 + =  $23 $T0 4 - ^ = 
STACK WIN 4 85336 c2 0 0 20 8 0 0 1 $T0 .raSearch = $eip $T0 ^ = $esp $T0 4 + =  $23 $T0 4 - ^ =  $24 $T0 8 - ^ = 
STACK WIN 4 8534c 80 0 0 20 c 0 0 1 $T0 .raSearch = $eip $T0 ^ = $esp $T0 4 + =  $23 $T0 4 - ^ =  $24 $T0 8 - ^ =  $20 $T0 12 - ^ = 
STACK WIN 4 85400 84 2 0 c 8 0 0 1 $T0 .raSearch = $eip $T0 ^ = $esp $T0 4 + =  $23 $T0 4 - ^ =  $24 $T0 8 - ^ = 
STACK WIN 4 85490 52 6 0 c 0 0 0 1 $T0 .raSearch = $eip $T0 ^ = $esp $T0 4 + = 
STACK WIN 4 85491 50 5 0 c 4 0 0 1 $T0 .raSearch = $eip $T0 ^ = $esp $T0 4 + =  $23 $T0 4 - ^ = 
STACK WIN 4 85496 4a 0 0 c 8 0 0 1 $T0 .raSearch = $eip $T0 ^ = $esp $T0 4 + =  $23 $T0 4 - ^ =  $24 $T0 8 - ^ = 
STACK WIN 4 854f0 54 1 0 10 0 0 0 1 $T0 .raSearch = $eip $T0 ^ = $esp $T0 4 + = 
STACK WIN 4 854f1 42 0 0 10 4 0 0 1 $T0 .raSearch = $eip $T0 ^ = $esp $T0 4 + =  $23 $T0 4 - ^ = 
STACK WIN 4 85550 47 6 0 c 0 0 0 1 $T0 .raSearch = $eip $T0 ^ = $esp $T0 4 + = 
STACK WIN 4 85551 45 5 0 c 4 0 0 1 $T0 .raSearch = $eip $T0 ^ = $esp $T0 4 + =  $23 $T0 4 - ^ = 
STACK WIN 4 85556 3f 0 0 c 8 0 0 1 $T0 .raSearch = $eip $T0 ^ = $esp $T0 4 + =  $23 $T0 4 - ^ =  $24 $T0 8 - ^ = 
STACK WIN 4 855a0 47 6 0 c 0 0 0 1 $T0 .raSearch = $eip $T0 ^ = $esp $T0 4 + = 
STACK WIN 4 855a1 45 5 0 c 4 0 0 1 $T0 .raSearch = $eip $T0 ^ = $esp $T0 4 + =  $23 $T0 4 - ^ = 
STACK WIN 4 855a6 3f 0 0 c 8 0 0 1 $T0 .raSearch = $eip $T0 ^ = $esp $T0 4 + =  $23 $T0 4 - ^ =  $24 $T0 8 - ^ = 
STACK WIN 4 855f0 47 6 0 c 0 0 0 1 $T0 .raSearch = $eip $T0 ^ = $esp $T0 4 + = 
STACK WIN 4 855f1 45 5 0 c 4 0 0 1 $T0 .raSearch = $eip $T0 ^ = $esp $T0 4 + =  $23 $T0 4 - ^ = 
STACK WIN 4 855f6 3f 0 0 c 8 0 0 1 $T0 .raSearch = $eip $T0 ^ = $esp $T0 4 + =  $23 $T0 4 - ^ =  $24 $T0 8 - ^ = 
STACK WIN 4 85640 47 6 0 c 0 0 0 1 $T0 .raSearch = $eip $T0 ^ = $esp $T0 4 + = 
STACK WIN 4 85641 45 5 0 c 4 0 0 1 $T0 .raSearch = $eip $T0 ^ = $esp $T0 4 + =  $23 $T0 4 - ^ = 
STACK WIN 4 85646 3f 0 0 c 8 0 0 1 $T0 .raSearch = $eip $T0 ^ = $esp $T0 4 + =  $23 $T0 4 - ^ =  $24 $T0 8 - ^ = 
STACK WIN 4 85690 3b 1 0 10 0 4 0 1 $T0 .raSearch = $eip $T0 ^ = $esp $T0 4 + = 
STACK WIN 4 856d0 69 6 0 8 0 0 0 1 $T0 .raSearch = $eip $T0 ^ = $esp $T0 4 + = 
STACK WIN 4 856d1 67 5 0 8 4 0 0 1 $T0 .raSearch = $eip $T0 ^ = $esp $T0 4 + =  $23 $T0 4 - ^ = 
STACK WIN 4 856d6 5f 0 0 8 8 0 0 1 $T0 .raSearch = $eip $T0 ^ = $esp $T0 4 + =  $23 $T0 4 - ^ =  $24 $T0 8 - ^ = 
STACK WIN 4 85740 47 6 0 c 0 0 0 1 $T0 .raSearch = $eip $T0 ^ = $esp $T0 4 + = 
STACK WIN 4 85741 45 5 0 c 4 0 0 1 $T0 .raSearch = $eip $T0 ^ = $esp $T0 4 + =  $23 $T0 4 - ^ = 
STACK WIN 4 85746 3f 0 0 c 8 0 0 1 $T0 .raSearch = $eip $T0 ^ = $esp $T0 4 + =  $23 $T0 4 - ^ =  $24 $T0 8 - ^ = 
STACK WIN 4 85790 f2 4 0 14 10 0 0 1 $T0 .raSearch = $eip $T0 ^ = $esp $T0 4 + =  $20 $T0 4 - ^ =  $22 $T0 8 - ^ =  $23 $T0 12 - ^ =  $24 $T0 16 - ^ = 
STACK WIN 4 85890 19 1 0 8 0 4 0 1 $T0 .raSearch = $eip $T0 ^ = $esp $T0 4 + = 
STACK WIN 4 858b0 83 7 0 c 10 8 0 1 $T0 .raSearch = $eip $T0 ^ = $esp $T0 4 + =  $20 $T0 12 - ^ =  $22 $T0 16 - ^ =  $23 $T0 20 - ^ =  $24 $T0 24 - ^ = 
STACK WIN 4 85940 fb 6 0 4 8 0 0 1 $T0 .raSearch = $eip $T0 ^ = $esp $T0 4 + =  $23 $T0 4 - ^ =  $24 $T0 8 - ^ = 
STACK WIN 4 85a40 f4 1 0 4 0 0 0 1 $T0 .raSearch = $eip $T0 ^ = $esp $T0 4 + = 
STACK WIN 4 85a41 f2 0 0 4 4 0 0 1 $T0 .raSearch = $eip $T0 ^ = $esp $T0 4 + =  $23 $T0 4 - ^ = 
STACK WIN 4 85a99 99 0 0 4 8 0 0 1 $T0 .raSearch = $eip $T0 ^ = $esp $T0 4 + =  $23 $T0 4 - ^ =  $24 $T0 8 - ^ = 
STACK WIN 4 85b40 6b 0 0 4 0 0 0 1 $T0 .raSearch = $eip $T0 ^ = $esp $T0 4 + = 
STACK WIN 4 85bb0 68 0 0 4 0 0 0 1 $T0 .raSearch = $eip $T0 ^ = $esp $T0 4 + = 
STACK WIN 4 85c20 f 0 0 4 0 0 0 1 $T0 .raSearch = $eip $T0 ^ = $esp $T0 4 + = 
STACK WIN 4 85c30 2a 0 0 4 0 0 0 1 $T0 .raSearch = $eip $T0 ^ = $esp $T0 4 + = 
STACK WIN 4 85c60 18e 14 0 10 10 c 0 1 $T0 .raSearch = $eip $T0 ^ = $esp $T0 4 + =  $20 $T0 16 - ^ =  $22 $T0 20 - ^ =  $23 $T0 24 - ^ =  $24 $T0 28 - ^ = 
STACK WIN 4 85df0 31 0 0 c 0 0 0 1 $T0 .raSearch = $eip $T0 ^ = $esp $T0 4 + = 
STACK WIN 4 85e02 1a 0 0 c 4 0 0 1 $T0 .raSearch = $eip $T0 ^ = $esp $T0 4 + =  $23 $T0 4 - ^ = 
STACK WIN 4 85e30 65a 14 0 10 c 2c 0 1 $T1 .raSearch = $T0  $T1 4 - 8 @ = $ebp $T1 4 - ^ = $eip $T1 ^ = $esp $T1 4 + = $20 $T0 48 - ^ =  $23 $T0 52 - ^ =  $24 $T0 56 - ^ = 
STACK WIN 4 86490 501 f 0 8 c 14 0 1 $T1 .raSearch = $T0  $T1 4 - 8 @ = $ebp $T1 4 - ^ = $eip $T1 ^ = $esp $T1 4 + = $20 $T0 24 - ^ =  $23 $T0 28 - ^ =  $24 $T0 32 - ^ = 
STACK WIN 4 869a0 15 0 0 8 0 0 0 1 $T0 .raSearch = $eip $T0 ^ = $esp $T0 4 + = 
STACK WIN 4 869c0 19 0 0 10 0 0 0 1 $T0 .raSearch = $eip $T0 ^ = $esp $T0 4 + = 
STACK WIN 4 869e0 fe a 0 8 c 4 0 1 $T1 .raSearch = $T0  $T1 4 - 8 @ = $ebp $T1 4 - ^ = $eip $T1 ^ = $esp $T1 4 + = $20 $T0 8 - ^ =  $23 $T0 12 - ^ =  $24 $T0 16 - ^ = 
STACK WIN 4 86ae0 67 2 0 14 0 0 0 1 $T0 .raSearch = $eip $T0 ^ = $esp $T0 4 + = 
STACK WIN 4 86ae1 65 1 0 14 4 0 0 1 $T0 .raSearch = $eip $T0 ^ = $esp $T0 4 + =  $23 $T0 4 - ^ = 
STACK WIN 4 86ae2 61 0 0 14 8 0 0 1 $T0 .raSearch = $eip $T0 ^ = $esp $T0 4 + =  $23 $T0 4 - ^ =  $24 $T0 8 - ^ = 
STACK WIN 4 86b50 69 2 0 18 0 0 0 1 $T0 .raSearch = $eip $T0 ^ = $esp $T0 4 + = 
STACK WIN 4 86b51 67 1 0 18 4 0 0 1 $T0 .raSearch = $eip $T0 ^ = $esp $T0 4 + =  $23 $T0 4 - ^ = 
STACK WIN 4 86b52 63 0 0 18 8 0 0 1 $T0 .raSearch = $eip $T0 ^ = $esp $T0 4 + =  $23 $T0 4 - ^ =  $24 $T0 8 - ^ = 
STACK WIN 4 86bc0 c3 6 0 14 0 0 0 1 $T0 .raSearch = $eip $T0 ^ = $esp $T0 4 + = 
STACK WIN 4 86bc1 c1 5 0 14 4 0 0 1 $T0 .raSearch = $eip $T0 ^ = $esp $T0 4 + =  $23 $T0 4 - ^ = 
STACK WIN 4 86bc6 bb 0 0 14 8 0 0 1 $T0 .raSearch = $eip $T0 ^ = $esp $T0 4 + =  $23 $T0 4 - ^ =  $24 $T0 8 - ^ = 
STACK WIN 4 86bde 77 0 0 14 c 0 0 1 $T0 .raSearch = $eip $T0 ^ = $esp $T0 4 + =  $23 $T0 4 - ^ =  $24 $T0 8 - ^ =  $20 $T0 12 - ^ = 
STACK WIN 4 86c90 49 1 0 c 0 0 0 1 $T0 .raSearch = $eip $T0 ^ = $esp $T0 4 + = 
STACK WIN 4 86c91 37 0 0 c 4 0 0 1 $T0 .raSearch = $eip $T0 ^ = $esp $T0 4 + =  $23 $T0 4 - ^ = 
STACK WIN 4 86ce0 49 1 0 c 0 0 0 1 $T0 .raSearch = $eip $T0 ^ = $esp $T0 4 + = 
STACK WIN 4 86ce1 37 0 0 c 4 0 0 1 $T0 .raSearch = $eip $T0 ^ = $esp $T0 4 + =  $23 $T0 4 - ^ = 
STACK WIN 4 86d30 9 0 0 4 0 0 0 1 $T0 .raSearch = $eip $T0 ^ = $esp $T0 4 + = 
STACK WIN 4 86d40 22 1 0 0 0 4 0 1 $T0 .raSearch = $eip $T0 ^ = $esp $T0 4 + = 
STACK WIN 4 86d70 22 1 0 0 0 4 0 1 $T0 .raSearch = $eip $T0 ^ = $esp $T0 4 + = 
STACK WIN 4 86da0 353 d 0 24 10 28 0 1 $T0 .raSearch = $eip $T0 ^ = $esp $T0 4 + =  $20 $T0 44 - ^ =  $22 $T0 48 - ^ =  $23 $T0 52 - ^ =  $24 $T0 56 - ^ = 
STACK WIN 4 87100 37 0 0 4 0 0 0 1 $T0 .raSearch = $eip $T0 ^ = $esp $T0 4 + = 
STACK WIN 4 87140 3e 1 0 8 0 0 0 1 $T0 .raSearch = $eip $T0 ^ = $esp $T0 4 + = 
STACK WIN 4 87141 2c 0 0 8 4 0 0 1 $T0 .raSearch = $eip $T0 ^ = $esp $T0 4 + =  $23 $T0 4 - ^ = 
STACK WIN 4 87180 e4 7 0 10 0 0 0 1 $T0 .raSearch = $eip $T0 ^ = $esp $T0 4 + = 
STACK WIN 4 87181 e2 6 0 10 4 0 0 1 $T0 .raSearch = $eip $T0 ^ = $esp $T0 4 + =  $20 $T0 4 - ^ = 
STACK WIN 4 87186 dc 1 0 10 8 0 0 1 $T0 .raSearch = $eip $T0 ^ = $esp $T0 4 + =  $20 $T0 4 - ^ =  $23 $T0 8 - ^ = 
STACK WIN 4 87187 da 0 0 10 c 0 0 1 $T0 .raSearch = $eip $T0 ^ = $esp $T0 4 + =  $20 $T0 4 - ^ =  $23 $T0 8 - ^ =  $24 $T0 12 - ^ = 
STACK WIN 4 87270 2d4 e 0 4 0 0 0 1 $T0 .raSearch = $eip $T0 ^ = $esp $T0 4 + = 
STACK WIN 4 8727b 26e 3 0 4 4 8 0 1 $T0 .raSearch = $eip $T0 ^ = $esp $T0 4 + =  $20 $T0 12 - ^ = 
STACK WIN 4 8727e 268 0 0 4 8 8 0 1 $T0 .raSearch = $eip $T0 ^ = $esp $T0 4 + =  $20 $T0 12 - ^ =  $24 $T0 16 - ^ = 
STACK WIN 4 87288 25d 0 0 4 c 8 0 1 $T0 .raSearch = $eip $T0 ^ = $esp $T0 4 + =  $20 $T0 12 - ^ =  $24 $T0 16 - ^ =  $23 $T0 20 - ^ = 
STACK WIN 4 87550 b9 5 0 8 0 0 0 1 $T0 .raSearch = $eip $T0 ^ = $esp $T0 4 + = 
STACK WIN 4 87555 b3 0 0 8 4 0 0 1 $T0 .raSearch = $eip $T0 ^ = $esp $T0 4 + =  $20 $T0 4 - ^ = 
STACK WIN 4 8756c 97 0 0 8 8 0 0 1 $T0 .raSearch = $eip $T0 ^ = $esp $T0 4 + =  $20 $T0 4 - ^ =  $23 $T0 8 - ^ = 
STACK WIN 4 87585 7b 0 0 8 c 0 0 1 $T0 .raSearch = $eip $T0 ^ = $esp $T0 4 + =  $20 $T0 4 - ^ =  $23 $T0 8 - ^ =  $24 $T0 12 - ^ = 
STACK WIN 4 87610 37 0 0 c 0 0 0 1 $T0 .raSearch = $eip $T0 ^ = $esp $T0 4 + = 
STACK WIN 4 87650 3e 9 0 10 0 8 0 1 $T1 .raSearch = $T0  $T1 4 - 8 @ = $ebp $T1 4 - ^ = $eip $T1 ^ = $esp $T1 4 + =
STACK WIN 4 87690 a7 11 0 0 0 0 0 1 $T0 .raSearch = $eip $T0 ^ = $esp $T0 4 + = 
STACK WIN 4 87694 9f d 0 0 4 c 0 1 $T0 .raSearch = $eip $T0 ^ = $esp $T0 4 + =  $20 $T0 16 - ^ = 
STACK WIN 4 87695 99 c 0 0 8 c 0 1 $T0 .raSearch = $eip $T0 ^ = $esp $T0 4 + =  $20 $T0 16 - ^ =  $22 $T0 20 - ^ = 
STACK WIN 4 8769b 92 6 0 0 c c 0 1 $T0 .raSearch = $eip $T0 ^ = $esp $T0 4 + =  $20 $T0 16 - ^ =  $22 $T0 20 - ^ =  $23 $T0 24 - ^ = 
STACK WIN 4 876a6 86 0 0 0 10 c 0 1 $T0 .raSearch = $eip $T0 ^ = $esp $T0 4 + =  $20 $T0 16 - ^ =  $22 $T0 20 - ^ =  $23 $T0 24 - ^ =  $24 $T0 28 - ^ = 
STACK WIN 4 87740 2c 0 0 8 0 0 0 1 $T0 .raSearch = $eip $T0 ^ = $esp $T0 4 + = 
STACK WIN 4 87770 20 0 0 8 0 0 0 1 $T0 .raSearch = $eip $T0 ^ = $esp $T0 4 + = 
STACK WIN 4 87790 119 8 0 0 10 14 0 1 $T0 .raSearch = $eip $T0 ^ = $esp $T0 4 + =  $20 $T0 24 - ^ =  $22 $T0 28 - ^ =  $23 $T0 32 - ^ =  $24 $T0 36 - ^ = 
STACK WIN 4 878b0 79 3 0 0 0 0 0 1 $T0 .raSearch = $eip $T0 ^ = $esp $T0 4 + = 
STACK WIN 4 878b1 77 2 0 0 4 0 0 1 $T0 .raSearch = $eip $T0 ^ = $esp $T0 4 + =  $23 $T0 4 - ^ = 
STACK WIN 4 87930 20 7 0 8 0 0 0 1 $T0 .raSearch = $eip $T0 ^ = $esp $T0 4 + = 
STACK WIN 4 87937 18 0 0 8 4 0 0 1 $T0 .raSearch = $eip $T0 ^ = $esp $T0 4 + =  $23 $T0 4 - ^ = 
STACK WIN 4 87950 82 4 0 0 0 0 0 1 $T0 .raSearch = $eip $T0 ^ = $esp $T0 4 + = 
STACK WIN 4 87954 7a 0 0 0 4 c 0 1 $T0 .raSearch = $eip $T0 ^ = $esp $T0 4 + =  $20 $T0 16 - ^ = 
STACK WIN 4 8797e 4f 0 0 0 8 c 0 1 $T0 .raSearch = $eip $T0 ^ = $esp $T0 4 + =  $20 $T0 16 - ^ =  $23 $T0 20 - ^ = 
STACK WIN 4 879e0 27a 4 0 4 c 4 0 1 $T0 .raSearch = $eip $T0 ^ = $esp $T0 4 + =  $20 $T0 8 - ^ =  $23 $T0 12 - ^ =  $24 $T0 16 - ^ = 
STACK WIN 4 87c60 21 1 0 8 4 0 0 1 $T0 .raSearch = $eip $T0 ^ = $esp $T0 4 + =  $23 $T0 4 - ^ = 
STACK WIN 4 87c90 49 6 0 c 8 0 0 1 $T0 .raSearch = $eip $T0 ^ = $esp $T0 4 + =  $23 $T0 4 - ^ =  $24 $T0 8 - ^ = 
STACK WIN 4 87ce0 9c 8 0 4 0 0 0 1 $T0 .raSearch = $eip $T0 ^ = $esp $T0 4 + = 
STACK WIN 4 87ce2 98 6 0 4 4 4 0 1 $T0 .raSearch = $eip $T0 ^ = $esp $T0 4 + =  $20 $T0 8 - ^ = 
STACK WIN 4 87ce3 96 5 0 4 8 4 0 1 $T0 .raSearch = $eip $T0 ^ = $esp $T0 4 + =  $20 $T0 8 - ^ =  $23 $T0 12 - ^ = 
STACK WIN 4 87ce8 90 0 0 4 c 4 0 1 $T0 .raSearch = $eip $T0 ^ = $esp $T0 4 + =  $20 $T0 8 - ^ =  $23 $T0 12 - ^ =  $24 $T0 16 - ^ = 
STACK WIN 4 87d80 16f 5 0 0 10 4 0 1 $T0 .raSearch = $eip $T0 ^ = $esp $T0 4 + =  $20 $T0 8 - ^ =  $22 $T0 12 - ^ =  $23 $T0 16 - ^ =  $24 $T0 20 - ^ = 
STACK WIN 4 87ef0 19b 8 0 0 10 c 0 1 $T0 .raSearch = $eip $T0 ^ = $esp $T0 4 + =  $20 $T0 16 - ^ =  $22 $T0 20 - ^ =  $23 $T0 24 - ^ =  $24 $T0 28 - ^ = 
STACK WIN 4 88090 bd 5 0 0 10 4 0 1 $T0 .raSearch = $eip $T0 ^ = $esp $T0 4 + =  $20 $T0 8 - ^ =  $22 $T0 12 - ^ =  $23 $T0 16 - ^ =  $24 $T0 20 - ^ = 
STACK WIN 4 88150 67 8 0 c 10 0 0 1 $T0 .raSearch = $eip $T0 ^ = $esp $T0 4 + =  $20 $T0 4 - ^ =  $22 $T0 8 - ^ =  $23 $T0 12 - ^ =  $24 $T0 16 - ^ = 
STACK WIN 4 881c0 74 a 0 0 8 0 0 1 $T1 .raSearch = $T0  $T1 4 - 8 @ = $ebp $T1 4 - ^ = $eip $T1 ^ = $esp $T1 4 + = $23 $T0 4 - ^ =  $24 $T0 8 - ^ = 
STACK WIN 4 88240 1a9 8 0 4 10 10 0 1 $T0 .raSearch = $eip $T0 ^ = $esp $T0 4 + =  $20 $T0 20 - ^ =  $22 $T0 24 - ^ =  $23 $T0 28 - ^ =  $24 $T0 32 - ^ = 
STACK WIN 4 883f0 f4 13 0 4 10 8 0 1 $T0 .raSearch = $eip $T0 ^ = $esp $T0 4 + =  $20 $T0 12 - ^ =  $22 $T0 16 - ^ =  $23 $T0 20 - ^ =  $24 $T0 24 - ^ = 
STACK WIN 4 884f0 121 14 0 4 c c 0 1 $T1 .raSearch = $T0  $T1 4 - 8 @ = $ebp $T1 4 - ^ = $eip $T1 ^ = $esp $T1 4 + = $20 $T0 16 - ^ =  $23 $T0 20 - ^ =  $24 $T0 24 - ^ = 
STACK WIN 4 88620 1a7 11 0 14 c 14 0 1 $T1 .raSearch = $T0  $T1 4 - 8 @ = $ebp $T1 4 - ^ = $eip $T1 ^ = $esp $T1 4 + = $20 $T0 24 - ^ =  $23 $T0 28 - ^ =  $24 $T0 32 - ^ = 
STACK WIN 4 887d0 1030 4b 0 14 c c4 0 1 $T1 .raSearch = $T0  $T1 4 - 8 @ = $ebp $T1 4 - ^ = $eip $T1 ^ = $esp $T1 4 + = $20 $T0 200 - ^ =  $23 $T0 204 - ^ =  $24 $T0 208 - ^ = 
STACK WIN 4 89800 23 0 0 18 0 0 0 1 $T0 .raSearch = $eip $T0 ^ = $esp $T0 4 + = 
STACK WIN 4 89830 26 0 0 18 0 0 0 1 $T0 .raSearch = $eip $T0 ^ = $esp $T0 4 + = 
STACK WIN 4 89860 215 1d 0 8 0 0 0 1 $T0 .raSearch = $eip $T0 ^ = $esp $T0 4 + = 
STACK WIN 4 89870 1ca d 0 8 4 c 0 1 $T0 .raSearch = $eip $T0 ^ = $esp $T0 4 + =  $20 $T0 16 - ^ = 
STACK WIN 4 89871 1c6 c 0 8 8 c 0 1 $T0 .raSearch = $eip $T0 ^ = $esp $T0 4 + =  $20 $T0 16 - ^ =  $22 $T0 20 - ^ = 
STACK WIN 4 89872 1c4 b 0 8 c c 0 1 $T0 .raSearch = $eip $T0 ^ = $esp $T0 4 + =  $20 $T0 16 - ^ =  $22 $T0 20 - ^ =  $23 $T0 24 - ^ = 
STACK WIN 4 8987d 1b8 0 0 8 10 c 0 1 $T0 .raSearch = $eip $T0 ^ = $esp $T0 4 + =  $20 $T0 16 - ^ =  $22 $T0 20 - ^ =  $23 $T0 24 - ^ =  $24 $T0 28 - ^ = 
STACK WIN 4 89a80 52 6 0 8 0 0 0 1 $T1 .raSearch = $T0  $T1 4 - 8 @ = $ebp $T1 4 - ^ = $eip $T1 ^ = $esp $T1 4 + =
STACK WIN 4 89ae0 53 1 0 4 0 0 0 1 $T0 .raSearch = $eip $T0 ^ = $esp $T0 4 + = 
STACK WIN 4 89ae1 51 0 0 4 4 0 0 1 $T0 .raSearch = $eip $T0 ^ = $esp $T0 4 + =  $23 $T0 4 - ^ = 
STACK WIN 4 89b40 62 b 0 0 10 4 0 1 $T0 .raSearch = $eip $T0 ^ = $esp $T0 4 + =  $20 $T0 8 - ^ =  $22 $T0 12 - ^ =  $23 $T0 16 - ^ =  $24 $T0 20 - ^ = 
STACK WIN 4 89bb0 c7 b 0 0 10 4 0 1 $T0 .raSearch = $eip $T0 ^ = $esp $T0 4 + =  $20 $T0 8 - ^ =  $22 $T0 12 - ^ =  $23 $T0 16 - ^ =  $24 $T0 20 - ^ = 
STACK WIN 4 89c80 283 1f 0 10 c 44 0 1 $T1 .raSearch = $T0  $T1 4 - 8 @ = $ebp $T1 4 - ^ = $eip $T1 ^ = $esp $T1 4 + = $20 $T0 72 - ^ =  $23 $T0 76 - ^ =  $24 $T0 80 - ^ = 
STACK WIN 4 89f10 13c 13 0 14 10 10 0 1 $T0 .raSearch = $eip $T0 ^ = $esp $T0 4 + =  $20 $T0 20 - ^ =  $22 $T0 24 - ^ =  $23 $T0 28 - ^ =  $24 $T0 32 - ^ = 
STACK WIN 4 8a050 51 b 0 0 0 0 0 1 $T0 .raSearch = $eip $T0 ^ = $esp $T0 4 + = 
STACK WIN 4 8a052 4d 9 0 0 4 4 0 1 $T0 .raSearch = $eip $T0 ^ = $esp $T0 4 + =  $20 $T0 8 - ^ = 
STACK WIN 4 8a053 4b 8 0 0 8 4 0 1 $T0 .raSearch = $eip $T0 ^ = $esp $T0 4 + =  $20 $T0 8 - ^ =  $22 $T0 12 - ^ = 
STACK WIN 4 8a07d 1d 0 0 0 c 4 0 1 $T0 .raSearch = $eip $T0 ^ = $esp $T0 4 + =  $20 $T0 8 - ^ =  $22 $T0 12 - ^ =  $23 $T0 16 - ^ = 
STACK WIN 4 8a080 19 0 0 0 10 4 0 1 $T0 .raSearch = $eip $T0 ^ = $esp $T0 4 + =  $20 $T0 8 - ^ =  $22 $T0 12 - ^ =  $23 $T0 16 - ^ =  $24 $T0 20 - ^ = 
STACK WIN 4 8a0b0 3da 19 0 4 10 68 0 1 $T0 .raSearch = $eip $T0 ^ = $esp $T0 4 + =  $20 $T0 108 - ^ =  $22 $T0 112 - ^ =  $23 $T0 116 - ^ =  $24 $T0 120 - ^ = 
STACK WIN 4 8a490 43b 10 0 10 10 6c 0 1 $T0 .raSearch = $eip $T0 ^ = $esp $T0 4 + =  $20 $T0 112 - ^ =  $22 $T0 116 - ^ =  $23 $T0 120 - ^ =  $24 $T0 124 - ^ = 
STACK WIN 4 8a8d0 b8 20 0 10 10 c 0 1 $T0 .raSearch = $eip $T0 ^ = $esp $T0 4 + =  $20 $T0 16 - ^ =  $22 $T0 20 - ^ =  $23 $T0 24 - ^ =  $24 $T0 28 - ^ = 
STACK WIN 4 8a990 541 1b 0 14 c 5c 0 1 $T1 .raSearch = $T0  $T1 4 - 8 @ = $ebp $T1 4 - ^ = $eip $T1 ^ = $esp $T1 4 + = $20 $T0 96 - ^ =  $23 $T0 100 - ^ =  $24 $T0 104 - ^ = 
STACK WIN 4 8aee0 3b7 24 0 10 c 74 0 1 $T1 .raSearch = $T0  $T1 4 - 8 @ = $ebp $T1 4 - ^ = $eip $T1 ^ = $esp $T1 4 + = $20 $T0 120 - ^ =  $23 $T0 124 - ^ =  $24 $T0 128 - ^ = 
STACK WIN 4 8b2a0 14e 7 0 c 10 10 0 1 $T0 .raSearch = $eip $T0 ^ = $esp $T0 4 + =  $20 $T0 20 - ^ =  $22 $T0 24 - ^ =  $23 $T0 28 - ^ =  $24 $T0 32 - ^ = 
STACK WIN 4 8b3f0 9a d 0 0 10 c 0 1 $T0 .raSearch = $eip $T0 ^ = $esp $T0 4 + =  $20 $T0 16 - ^ =  $22 $T0 20 - ^ =  $23 $T0 24 - ^ =  $24 $T0 28 - ^ = 
STACK WIN 4 8b490 115 10 0 8 c 14 0 1 $T1 .raSearch = $T0  $T1 4 - 8 @ = $ebp $T1 4 - ^ = $eip $T1 ^ = $esp $T1 4 + = $20 $T0 24 - ^ =  $23 $T0 28 - ^ =  $24 $T0 32 - ^ = 
STACK WIN 4 8b5b0 a7 c 0 0 10 0 0 1 $T1 .raSearch = $T0  $T1 4 - 8 @ = $ebp $T1 4 - ^ = $eip $T1 ^ = $esp $T1 4 + = $20 $T0 4 - ^ =  $23 $T0 12 - ^ =  $24 $T0 16 - ^ = 
STACK WIN 4 8b660 3ae 22 0 1c c 2c 0 1 $T1 .raSearch = $T0  $T1 4 - 8 @ = $ebp $T1 4 - ^ = $eip $T1 ^ = $esp $T1 4 + = $20 $T0 48 - ^ =  $23 $T0 52 - ^ =  $24 $T0 56 - ^ = 
STACK WIN 4 8ba10 208 1b 0 c c 1c 0 1 $T1 .raSearch = $T0  $T1 4 - 8 @ = $ebp $T1 4 - ^ = $eip $T1 ^ = $esp $T1 4 + = $20 $T0 32 - ^ =  $23 $T0 36 - ^ =  $24 $T0 40 - ^ = 
STACK WIN 4 8bc20 1a8 33 0 c 10 a0 0 1 $T0 .raSearch = $eip $T0 ^ = $esp $T0 4 + =  $20 $T0 164 - ^ =  $22 $T0 168 - ^ =  $23 $T0 172 - ^ =  $24 $T0 176 - ^ = 
STACK WIN 4 8bdd0 59 2 0 4 4 4 0 1 $T0 .raSearch = $eip $T0 ^ = $esp $T0 4 + =  $23 $T0 8 - ^ = 
STACK WIN 4 8be30 339 16 0 14 c 14 0 1 $T1 .raSearch = $T0  $T1 4 - 8 @ = $ebp $T1 4 - ^ = $eip $T1 ^ = $esp $T1 4 + = $20 $T0 24 - ^ =  $23 $T0 28 - ^ =  $24 $T0 32 - ^ = 
STACK WIN 4 8c170 9 0 0 4 0 0 0 1 $T0 .raSearch = $eip $T0 ^ = $esp $T0 4 + = 
STACK WIN 4 8c180 16 0 0 8 0 0 0 1 $T0 .raSearch = $eip $T0 ^ = $esp $T0 4 + = 
STACK WIN 4 8c1a0 157 12 0 c c 4 0 1 $T1 .raSearch = $T0  $T1 4 - 8 @ = $ebp $T1 4 - ^ = $eip $T1 ^ = $esp $T1 4 + = $20 $T0 8 - ^ =  $23 $T0 12 - ^ =  $24 $T0 16 - ^ = 
STACK WIN 4 8c300 19 0 0 10 0 0 0 1 $T0 .raSearch = $eip $T0 ^ = $esp $T0 4 + = 
STACK WIN 4 8c320 7c 8 0 4 0 0 0 1 $T0 .raSearch = $eip $T0 ^ = $esp $T0 4 + = 
STACK WIN 4 8c321 7a 7 0 4 4 0 0 1 $T0 .raSearch = $eip $T0 ^ = $esp $T0 4 + =  $23 $T0 4 - ^ = 
STACK WIN 4 8c328 72 0 0 4 8 0 0 1 $T0 .raSearch = $eip $T0 ^ = $esp $T0 4 + =  $23 $T0 4 - ^ =  $24 $T0 8 - ^ = 
STACK WIN 4 8c3a0 ab 6 0 0 0 0 0 1 $T0 .raSearch = $eip $T0 ^ = $esp $T0 4 + = 
STACK WIN 4 8c3a4 a3 2 0 0 4 8 0 1 $T0 .raSearch = $eip $T0 ^ = $esp $T0 4 + =  $23 $T0 12 - ^ = 
STACK WIN 4 8c3b4 86 0 0 0 8 8 0 1 $T0 .raSearch = $eip $T0 ^ = $esp $T0 4 + =  $23 $T0 12 - ^ =  $24 $T0 16 - ^ = 
STACK WIN 4 8c3d5 5e 0 0 0 c 8 0 1 $T0 .raSearch = $eip $T0 ^ = $esp $T0 4 + =  $23 $T0 12 - ^ =  $24 $T0 16 - ^ =  $20 $T0 32 - ^ = 
STACK WIN 4 8c450 10 0 0 4 0 0 0 1 $T0 .raSearch = $eip $T0 ^ = $esp $T0 4 + = 
STACK WIN 4 8c460 c 0 0 8 0 0 0 1 $T0 .raSearch = $eip $T0 ^ = $esp $T0 4 + = 
STACK WIN 4 8c470 5f a 0 0 0 0 0 1 $T0 .raSearch = $eip $T0 ^ = $esp $T0 4 + = 
STACK WIN 4 8c471 5d 9 0 0 4 0 0 1 $T0 .raSearch = $eip $T0 ^ = $esp $T0 4 + =  $20 $T0 4 - ^ = 
STACK WIN 4 8c472 5b 8 0 0 8 0 0 1 $T0 .raSearch = $eip $T0 ^ = $esp $T0 4 + =  $20 $T0 4 - ^ =  $22 $T0 8 - ^ = 
STACK WIN 4 8c477 52 3 0 0 c 0 0 1 $T0 .raSearch = $eip $T0 ^ = $esp $T0 4 + =  $20 $T0 4 - ^ =  $22 $T0 8 - ^ =  $23 $T0 12 - ^ = 
STACK WIN 4 8c478 50 2 0 0 10 0 0 1 $T0 .raSearch = $eip $T0 ^ = $esp $T0 4 + =  $20 $T0 4 - ^ =  $22 $T0 8 - ^ =  $23 $T0 12 - ^ =  $24 $T0 16 - ^ = 
STACK WIN 4 8c4d0 a7 b 0 8 c 0 0 1 $T0 .raSearch = $eip $T0 ^ = $esp $T0 4 + =  $20 $T0 4 - ^ =  $23 $T0 8 - ^ =  $24 $T0 12 - ^ = 
STACK WIN 4 8c580 16c 10 0 c c 14 0 1 $T1 .raSearch = $T0  $T1 4 - 8 @ = $ebp $T1 4 - ^ = $eip $T1 ^ = $esp $T1 4 + = $20 $T0 24 - ^ =  $23 $T0 28 - ^ =  $24 $T0 32 - ^ = 
STACK WIN 4 8c6f0 47 8 0 c 4 4 0 1 $T1 .raSearch = $T0  $T1 4 - 8 @ = $ebp $T1 4 - ^ = $eip $T1 ^ = $esp $T1 4 + = $23 $T0 8 - ^ = 
STACK WIN 4 8c740 85 2 0 c 0 0 0 1 $T0 .raSearch = $eip $T0 ^ = $esp $T0 4 + = 
STACK WIN 4 8c742 81 0 0 c 4 4 0 1 $T0 .raSearch = $eip $T0 ^ = $esp $T0 4 + =  $23 $T0 8 - ^ = 
STACK WIN 4 8c7d0 94 9 0 c 0 0 0 1 $T0 .raSearch = $eip $T0 ^ = $esp $T0 4 + = 
STACK WIN 4 8c7d9 89 0 0 c 4 4 0 1 $T0 .raSearch = $eip $T0 ^ = $esp $T0 4 + =  $23 $T0 8 - ^ = 
STACK WIN 4 8c870 c6 15 0 14 0 0 0 1 $T0 .raSearch = $eip $T0 ^ = $esp $T0 4 + = 
STACK WIN 4 8c87f ac 6 0 14 4 24 0 1 $T0 .raSearch = $eip $T0 ^ = $esp $T0 4 + =  $20 $T0 40 - ^ = 
STACK WIN 4 8c884 a6 1 0 14 8 24 0 1 $T0 .raSearch = $eip $T0 ^ = $esp $T0 4 + =  $20 $T0 40 - ^ =  $23 $T0 44 - ^ = 
STACK WIN 4 8c885 9d 0 0 14 c 24 0 1 $T0 .raSearch = $eip $T0 ^ = $esp $T0 4 + =  $20 $T0 40 - ^ =  $23 $T0 44 - ^ =  $24 $T0 48 - ^ = 
STACK WIN 4 8c940 c7 9 0 8 0 0 0 1 $T0 .raSearch = $eip $T0 ^ = $esp $T0 4 + = 
STACK WIN 4 8c941 c5 8 0 8 4 0 0 1 $T0 .raSearch = $eip $T0 ^ = $esp $T0 4 + =  $20 $T0 4 - ^ = 
STACK WIN 4 8c942 c3 7 0 8 8 0 0 1 $T0 .raSearch = $eip $T0 ^ = $esp $T0 4 + =  $20 $T0 4 - ^ =  $23 $T0 8 - ^ = 
STACK WIN 4 8c949 bb 0 0 8 c 0 0 1 $T0 .raSearch = $eip $T0 ^ = $esp $T0 4 + =  $20 $T0 4 - ^ =  $23 $T0 8 - ^ =  $24 $T0 12 - ^ = 
STACK WIN 4 8ca10 1a 0 0 8 0 0 0 1 $T0 .raSearch = $eip $T0 ^ = $esp $T0 4 + = 
STACK WIN 4 8ca30 e 0 0 4 0 0 0 1 $T0 .raSearch = $eip $T0 ^ = $esp $T0 4 + = 
STACK WIN 4 8ca40 1d9 1a 0 0 c 4 0 1 $T1 .raSearch = $T0  $T1 4 - 8 @ = $ebp $T1 4 - ^ = $eip $T1 ^ = $esp $T1 4 + = $20 $T0 8 - ^ =  $23 $T0 12 - ^ =  $24 $T0 16 - ^ = 
STACK WIN 4 8cc20 bc c 0 c 10 8 0 1 $T0 .raSearch = $eip $T0 ^ = $esp $T0 4 + =  $20 $T0 12 - ^ =  $22 $T0 16 - ^ =  $23 $T0 20 - ^ =  $24 $T0 24 - ^ = 
STACK WIN 4 8cce0 c2 c 0 c 10 8 0 1 $T0 .raSearch = $eip $T0 ^ = $esp $T0 4 + =  $20 $T0 12 - ^ =  $22 $T0 16 - ^ =  $23 $T0 20 - ^ =  $24 $T0 24 - ^ = 
STACK WIN 4 8cdb0 6f b 0 0 10 c 0 1 $T0 .raSearch = $eip $T0 ^ = $esp $T0 4 + =  $20 $T0 16 - ^ =  $22 $T0 20 - ^ =  $23 $T0 24 - ^ =  $24 $T0 28 - ^ = 
STACK WIN 4 8ce20 236 12 0 0 10 20 0 1 $T1 .raSearch = $T0  $T1 4 - 8 @ = $ebp $T1 4 - ^ = $eip $T1 ^ = $esp $T1 4 + = $20 $T0 36 - ^ =  $23 $T0 44 - ^ =  $24 $T0 48 - ^ = 
STACK WIN 4 8d060 f7 13 0 4 10 8 0 1 $T0 .raSearch = $eip $T0 ^ = $esp $T0 4 + =  $20 $T0 12 - ^ =  $22 $T0 16 - ^ =  $23 $T0 20 - ^ =  $24 $T0 24 - ^ = 
STACK WIN 4 8d160 171 d 0 14 10 20 0 1 $T0 .raSearch = $eip $T0 ^ = $esp $T0 4 + =  $20 $T0 36 - ^ =  $22 $T0 40 - ^ =  $23 $T0 44 - ^ =  $24 $T0 48 - ^ = 
STACK WIN 4 8d2e0 ad f 0 10 10 c 0 1 $T0 .raSearch = $eip $T0 ^ = $esp $T0 4 + =  $20 $T0 16 - ^ =  $22 $T0 20 - ^ =  $23 $T0 24 - ^ =  $24 $T0 28 - ^ = 
STACK WIN 4 8d390 bc c 0 4 10 10 0 1 $T0 .raSearch = $eip $T0 ^ = $esp $T0 4 + =  $20 $T0 20 - ^ =  $22 $T0 24 - ^ =  $23 $T0 28 - ^ =  $24 $T0 32 - ^ = 
STACK WIN 4 8d450 545 30 0 4 c ac 0 1 $T1 .raSearch = $T0  $T1 4 - 8 @ = $ebp $T1 4 - ^ = $eip $T1 ^ = $esp $T1 4 + = $20 $T0 176 - ^ =  $23 $T0 180 - ^ =  $24 $T0 184 - ^ = 
STACK WIN 4 8d9a0 6a 6 0 4 8 0 0 1 $T0 .raSearch = $eip $T0 ^ = $esp $T0 4 + =  $23 $T0 4 - ^ =  $24 $T0 8 - ^ = 
STACK WIN 4 8da10 a4 7 0 4 10 0 0 1 $T0 .raSearch = $eip $T0 ^ = $esp $T0 4 + =  $20 $T0 4 - ^ =  $22 $T0 8 - ^ =  $23 $T0 12 - ^ =  $24 $T0 16 - ^ = 
STACK WIN 4 8dac0 dd f 0 10 10 4 0 1 $T0 .raSearch = $eip $T0 ^ = $esp $T0 4 + =  $20 $T0 8 - ^ =  $22 $T0 12 - ^ =  $23 $T0 16 - ^ =  $24 $T0 20 - ^ = 
STACK WIN 4 8dba0 108 6 0 0 10 24 0 1 $T0 .raSearch = $eip $T0 ^ = $esp $T0 4 + =  $20 $T0 40 - ^ =  $22 $T0 44 - ^ =  $23 $T0 48 - ^ =  $24 $T0 52 - ^ = 
STACK WIN 4 8dcb0 263 18 0 8 c 34 0 1 $T1 .raSearch = $T0  $T1 4 - 8 @ = $ebp $T1 4 - ^ = $eip $T1 ^ = $esp $T1 4 + = $20 $T0 56 - ^ =  $23 $T0 60 - ^ =  $24 $T0 64 - ^ = 
STACK WIN 4 8df20 16b 1c 0 0 10 10 0 1 $T1 .raSearch = $T0  $T1 4 - 8 @ = $ebp $T1 4 - ^ = $eip $T1 ^ = $esp $T1 4 + = $20 $T0 20 - ^ =  $23 $T0 28 - ^ =  $24 $T0 32 - ^ = 
STACK WIN 4 8e090 2b 3 0 0 0 0 0 1 $T0 .raSearch = $eip $T0 ^ = $esp $T0 4 + = 
STACK WIN 4 8e091 29 2 0 0 4 0 0 1 $T0 .raSearch = $eip $T0 ^ = $esp $T0 4 + =  $23 $T0 4 - ^ = 
STACK WIN 4 8e0c0 45c 19 0 4 c 1c 0 1 $T1 .raSearch = $T0  $T1 4 - 8 @ = $ebp $T1 4 - ^ = $eip $T1 ^ = $esp $T1 4 + = $20 $T0 32 - ^ =  $23 $T0 36 - ^ =  $24 $T0 40 - ^ = 
STACK WIN 4 8e520 273 21 0 0 10 18 0 1 $T1 .raSearch = $T0  $T1 4 - 8 @ = $ebp $T1 4 - ^ = $eip $T1 ^ = $esp $T1 4 + = $20 $T0 28 - ^ =  $23 $T0 36 - ^ =  $24 $T0 40 - ^ = 
STACK WIN 4 8e7a0 1b0 8 0 4 10 0 0 1 $T0 .raSearch = $eip $T0 ^ = $esp $T0 4 + =  $20 $T0 4 - ^ =  $22 $T0 8 - ^ =  $23 $T0 12 - ^ =  $24 $T0 16 - ^ = 
STACK WIN 4 8e950 9c e 0 0 c 4 0 1 $T1 .raSearch = $T0  $T1 4 - 8 @ = $ebp $T1 4 - ^ = $eip $T1 ^ = $esp $T1 4 + = $20 $T0 8 - ^ =  $23 $T0 12 - ^ =  $24 $T0 16 - ^ = 
STACK WIN 4 8e9f0 ad 4 0 0 8 4 0 1 $T0 .raSearch = $eip $T0 ^ = $esp $T0 4 + =  $23 $T0 8 - ^ =  $24 $T0 12 - ^ = 
STACK WIN 4 8eaa0 ef f 0 4 10 8 0 1 $T0 .raSearch = $eip $T0 ^ = $esp $T0 4 + =  $20 $T0 12 - ^ =  $22 $T0 16 - ^ =  $23 $T0 20 - ^ =  $24 $T0 24 - ^ = 
STACK WIN 4 8eb90 d6 a 0 0 0 0 0 1 $T0 .raSearch = $eip $T0 ^ = $esp $T0 4 + = 
STACK WIN 4 8eb94 ce 6 0 0 4 8 0 1 $T0 .raSearch = $eip $T0 ^ = $esp $T0 4 + =  $20 $T0 12 - ^ = 
STACK WIN 4 8eba3 be 0 0 0 8 8 0 1 $T0 .raSearch = $eip $T0 ^ = $esp $T0 4 + =  $20 $T0 12 - ^ =  $22 $T0 16 - ^ = 
STACK WIN 4 8eba4 bc 0 0 0 c 8 0 1 $T0 .raSearch = $eip $T0 ^ = $esp $T0 4 + =  $20 $T0 12 - ^ =  $22 $T0 16 - ^ =  $23 $T0 20 - ^ = 
STACK WIN 4 8eba5 ba 0 0 0 10 8 0 1 $T0 .raSearch = $eip $T0 ^ = $esp $T0 4 + =  $20 $T0 12 - ^ =  $22 $T0 16 - ^ =  $23 $T0 20 - ^ =  $24 $T0 24 - ^ = 
STACK WIN 4 8ec70 1e4 13 0 0 10 20 0 1 $T1 .raSearch = $T0  $T1 4 - 8 @ = $ebp $T1 4 - ^ = $eip $T1 ^ = $esp $T1 4 + = $20 $T0 36 - ^ =  $23 $T0 44 - ^ =  $24 $T0 48 - ^ = 
STACK WIN 4 8ee60 86 7 0 4 10 0 0 1 $T0 .raSearch = $eip $T0 ^ = $esp $T0 4 + =  $20 $T0 4 - ^ =  $22 $T0 8 - ^ =  $23 $T0 12 - ^ =  $24 $T0 16 - ^ = 
STACK WIN 4 8eef0 47d 13 0 8 c 34 0 1 $T1 .raSearch = $T0  $T1 4 - 8 @ = $ebp $T1 4 - ^ = $eip $T1 ^ = $esp $T1 4 + = $20 $T0 56 - ^ =  $23 $T0 60 - ^ =  $24 $T0 64 - ^ = 
STACK WIN 4 8f370 7b 7 0 0 10 4 0 1 $T0 .raSearch = $eip $T0 ^ = $esp $T0 4 + =  $20 $T0 8 - ^ =  $22 $T0 12 - ^ =  $23 $T0 16 - ^ =  $24 $T0 20 - ^ = 
STACK WIN 4 8f3f0 172 f 0 18 c c 0 1 $T1 .raSearch = $T0  $T1 4 - 8 @ = $ebp $T1 4 - ^ = $eip $T1 ^ = $esp $T1 4 + = $20 $T0 16 - ^ =  $23 $T0 20 - ^ =  $24 $T0 24 - ^ = 
STACK WIN 4 8f570 ed 8 0 4 10 0 0 1 $T0 .raSearch = $eip $T0 ^ = $esp $T0 4 + =  $20 $T0 4 - ^ =  $22 $T0 8 - ^ =  $23 $T0 12 - ^ =  $24 $T0 16 - ^ = 
STACK WIN 4 8f660 164 e 0 8 0 0 0 1 $T0 .raSearch = $eip $T0 ^ = $esp $T0 4 + = 
STACK WIN 4 8f668 158 6 0 8 4 8 0 1 $T0 .raSearch = $eip $T0 ^ = $esp $T0 4 + =  $20 $T0 12 - ^ = 
STACK WIN 4 8f669 154 5 0 8 8 8 0 1 $T0 .raSearch = $eip $T0 ^ = $esp $T0 4 + =  $20 $T0 12 - ^ =  $22 $T0 16 - ^ = 
STACK WIN 4 8f66a 152 4 0 8 c 8 0 1 $T0 .raSearch = $eip $T0 ^ = $esp $T0 4 + =  $20 $T0 12 - ^ =  $22 $T0 16 - ^ =  $23 $T0 20 - ^ = 
STACK WIN 4 8f66e 14d 0 0 8 10 8 0 1 $T0 .raSearch = $eip $T0 ^ = $esp $T0 4 + =  $20 $T0 12 - ^ =  $22 $T0 16 - ^ =  $23 $T0 20 - ^ =  $24 $T0 24 - ^ = 
STACK WIN 4 8f7d0 45 8 0 8 4 4 0 1 $T1 .raSearch = $T0  $T1 4 - 8 @ = $ebp $T1 4 - ^ = $eip $T1 ^ = $esp $T1 4 + = $23 $T0 8 - ^ = 
STACK WIN 4 8f820 5a 2 0 4 8 0 0 1 $T0 .raSearch = $eip $T0 ^ = $esp $T0 4 + =  $23 $T0 4 - ^ =  $24 $T0 8 - ^ = 
STACK WIN 4 8f880 2cf f 0 4 c 1c 0 1 $T1 .raSearch = $T0  $T1 4 - 8 @ = $ebp $T1 4 - ^ = $eip $T1 ^ = $esp $T1 4 + = $20 $T0 32 - ^ =  $23 $T0 36 - ^ =  $24 $T0 40 - ^ = 
STACK WIN 4 8fb50 27b d 0 14 10 10 0 1 $T0 .raSearch = $eip $T0 ^ = $esp $T0 4 + =  $20 $T0 20 - ^ =  $22 $T0 24 - ^ =  $23 $T0 28 - ^ =  $24 $T0 32 - ^ = 
STACK WIN 4 8fdd0 108 b 0 c 4 4 0 1 $T1 .raSearch = $T0  $T1 4 - 8 @ = $ebp $T1 4 - ^ = $eip $T1 ^ = $esp $T1 4 + = $23 $T0 8 - ^ = 
STACK WIN 4 8fee0 16 0 0 8 0 0 0 1 $T0 .raSearch = $eip $T0 ^ = $esp $T0 4 + = 
STACK WIN 4 8ff00 8b 6 0 c 0 0 0 1 $T0 .raSearch = $eip $T0 ^ = $esp $T0 4 + = 
STACK WIN 4 8ff02 87 4 0 c 4 4 0 1 $T0 .raSearch = $eip $T0 ^ = $esp $T0 4 + =  $20 $T0 8 - ^ = 
STACK WIN 4 8ff03 81 3 0 c 8 4 0 1 $T0 .raSearch = $eip $T0 ^ = $esp $T0 4 + =  $20 $T0 8 - ^ =  $23 $T0 12 - ^ = 
STACK WIN 4 8ff04 7f 2 0 c c 4 0 1 $T0 .raSearch = $eip $T0 ^ = $esp $T0 4 + =  $20 $T0 8 - ^ =  $23 $T0 12 - ^ =  $24 $T0 16 - ^ = 
STACK WIN 4 8ff90 25a 26 0 10 c 2c 0 1 $T1 .raSearch = $T0  $T1 4 - 8 @ = $ebp $T1 4 - ^ = $eip $T1 ^ = $esp $T1 4 + = $20 $T0 48 - ^ =  $23 $T0 52 - ^ =  $24 $T0 56 - ^ = 
STACK WIN 4 901f0 3d4 15 0 8 c 44 0 1 $T1 .raSearch = $T0  $T1 4 - 8 @ = $ebp $T1 4 - ^ = $eip $T1 ^ = $esp $T1 4 + = $20 $T0 72 - ^ =  $23 $T0 76 - ^ =  $24 $T0 80 - ^ = 
STACK WIN 4 905d0 2bd 16 0 c c 1c 0 1 $T1 .raSearch = $T0  $T1 4 - 8 @ = $ebp $T1 4 - ^ = $eip $T1 ^ = $esp $T1 4 + = $20 $T0 32 - ^ =  $23 $T0 36 - ^ =  $24 $T0 40 - ^ = 
STACK WIN 4 90890 16 0 0 0 0 0 0 1 $T0 .raSearch = $eip $T0 ^ = $esp $T0 4 + = 
STACK WIN 4 908b0 6c c 0 4 0 0 0 1 $T0 .raSearch = $eip $T0 ^ = $esp $T0 4 + = 
STACK WIN 4 908b5 66 7 0 4 4 0 0 1 $T0 .raSearch = $eip $T0 ^ = $esp $T0 4 + =  $22 $T0 4 - ^ = 
STACK WIN 4 908b6 64 6 0 4 8 0 0 1 $T0 .raSearch = $eip $T0 ^ = $esp $T0 4 + =  $22 $T0 4 - ^ =  $24 $T0 8 - ^ = 
STACK WIN 4 908bf 38 0 0 4 c 0 0 1 $T0 .raSearch = $eip $T0 ^ = $esp $T0 4 + =  $22 $T0 4 - ^ =  $24 $T0 8 - ^ =  $20 $T0 12 - ^ = 
STACK WIN 4 908c9 2d 0 0 4 10 0 0 1 $T0 .raSearch = $eip $T0 ^ = $esp $T0 4 + =  $22 $T0 4 - ^ =  $24 $T0 8 - ^ =  $20 $T0 12 - ^ =  $23 $T0 16 - ^ = 
STACK WIN 4 90920 2d8 1a 0 c c 2c 0 1 $T1 .raSearch = $T0  $T1 4 - 8 @ = $ebp $T1 4 - ^ = $eip $T1 ^ = $esp $T1 4 + = $20 $T0 48 - ^ =  $23 $T0 52 - ^ =  $24 $T0 56 - ^ = 
STACK WIN 4 90c00 37 3 0 0 0 0 0 1 $T0 .raSearch = $eip $T0 ^ = $esp $T0 4 + = 
STACK WIN 4 90c01 35 2 0 0 4 0 0 1 $T0 .raSearch = $eip $T0 ^ = $esp $T0 4 + =  $23 $T0 4 - ^ = 
STACK WIN 4 90c16 1f 0 0 0 8 0 0 1 $T0 .raSearch = $eip $T0 ^ = $esp $T0 4 + =  $23 $T0 4 - ^ =  $24 $T0 8 - ^ = 
STACK WIN 4 90c40 407 21 0 0 10 20 0 1 $T1 .raSearch = $T0  $T1 4 - 8 @ = $ebp $T1 4 - ^ = $eip $T1 ^ = $esp $T1 4 + = $20 $T0 36 - ^ =  $23 $T0 44 - ^ =  $24 $T0 48 - ^ = 
STACK WIN 4 91050 12c 47 0 20 10 24 0 1 $T0 .raSearch = $eip $T0 ^ = $esp $T0 4 + =  $20 $T0 40 - ^ =  $22 $T0 44 - ^ =  $23 $T0 48 - ^ =  $24 $T0 52 - ^ = 
STACK WIN 4 91180 89 4 0 0 8 4 0 1 $T0 .raSearch = $eip $T0 ^ = $esp $T0 4 + =  $23 $T0 8 - ^ =  $24 $T0 12 - ^ = 
STACK WIN 4 91210 46 a 0 0 8 0 0 1 $T1 .raSearch = $T0  $T1 4 - 8 @ = $ebp $T1 4 - ^ = $eip $T1 ^ = $esp $T1 4 + = $23 $T0 4 - ^ =  $24 $T0 8 - ^ = 
STACK WIN 4 91260 62 3 0 0 0 0 0 1 $T0 .raSearch = $eip $T0 ^ = $esp $T0 4 + = 
STACK WIN 4 91261 60 2 0 0 4 0 0 1 $T0 .raSearch = $eip $T0 ^ = $esp $T0 4 + =  $20 $T0 4 - ^ = 
STACK WIN 4 91264 55 0 0 0 8 0 0 1 $T0 .raSearch = $eip $T0 ^ = $esp $T0 4 + =  $20 $T0 4 - ^ =  $23 $T0 8 - ^ = 
STACK WIN 4 9128c 2c 0 0 0 c 0 0 1 $T0 .raSearch = $eip $T0 ^ = $esp $T0 4 + =  $20 $T0 4 - ^ =  $23 $T0 8 - ^ =  $24 $T0 16 - ^ = 
STACK WIN 4 912d0 43 8 0 8 0 0 0 1 $T0 .raSearch = $eip $T0 ^ = $esp $T0 4 + = 
STACK WIN 4 912d5 3d 3 0 8 4 0 0 1 $T0 .raSearch = $eip $T0 ^ = $esp $T0 4 + =  $23 $T0 4 - ^ = 
STACK WIN 4 912d8 37 0 0 8 8 0 0 1 $T0 .raSearch = $eip $T0 ^ = $esp $T0 4 + =  $23 $T0 4 - ^ =  $24 $T0 8 - ^ = 
STACK WIN 4 91320 22 0 0 10 0 0 0 1 $T0 .raSearch = $eip $T0 ^ = $esp $T0 4 + = 
STACK WIN 4 91350 2e 8 0 8 0 0 0 1 $T0 .raSearch = $eip $T0 ^ = $esp $T0 4 + = 
STACK WIN 4 91351 2c 7 0 8 4 0 0 1 $T0 .raSearch = $eip $T0 ^ = $esp $T0 4 + =  $23 $T0 4 - ^ = 
STACK WIN 4 91358 1f 0 0 8 8 0 0 1 $T0 .raSearch = $eip $T0 ^ = $esp $T0 4 + =  $23 $T0 4 - ^ =  $24 $T0 8 - ^ = 
STACK WIN 4 91380 6e 0 0 10 0 0 0 1 $T0 .raSearch = $eip $T0 ^ = $esp $T0 4 + = 
STACK WIN 4 91395 58 0 0 10 4 0 0 1 $T0 .raSearch = $eip $T0 ^ = $esp $T0 4 + =  $23 $T0 4 - ^ = 
STACK WIN 4 913f0 61 7 0 4 0 0 0 1 $T0 .raSearch = $eip $T0 ^ = $esp $T0 4 + = 
STACK WIN 4 913f1 5f 6 0 4 4 0 0 1 $T0 .raSearch = $eip $T0 ^ = $esp $T0 4 + =  $20 $T0 4 - ^ = 
STACK WIN 4 913f2 5a 5 0 4 8 0 0 1 $T0 .raSearch = $eip $T0 ^ = $esp $T0 4 + =  $20 $T0 4 - ^ =  $24 $T0 8 - ^ = 
STACK WIN 4 913fc 2d 0 0 4 c 0 0 1 $T0 .raSearch = $eip $T0 ^ = $esp $T0 4 + =  $20 $T0 4 - ^ =  $24 $T0 8 - ^ =  $23 $T0 12 - ^ = 
STACK WIN 4 91460 108 11 0 0 10 8 0 1 $T1 .raSearch = $T0  $T1 4 - 8 @ = $ebp $T1 4 - ^ = $eip $T1 ^ = $esp $T1 4 + = $20 $T0 12 - ^ =  $23 $T0 20 - ^ =  $24 $T0 24 - ^ = 
STACK WIN 4 91570 63 c 0 8 0 0 0 1 $T0 .raSearch = $eip $T0 ^ = $esp $T0 4 + = 
STACK WIN 4 91572 5f a 0 8 4 4 0 1 $T0 .raSearch = $eip $T0 ^ = $esp $T0 4 + =  $20 $T0 8 - ^ = 
STACK WIN 4 91573 5d 9 0 8 8 4 0 1 $T0 .raSearch = $eip $T0 ^ = $esp $T0 4 + =  $20 $T0 8 - ^ =  $22 $T0 12 - ^ = 
STACK WIN 4 91574 5b 8 0 8 c 4 0 1 $T0 .raSearch = $eip $T0 ^ = $esp $T0 4 + =  $20 $T0 8 - ^ =  $22 $T0 12 - ^ =  $23 $T0 16 - ^ = 
STACK WIN 4 91575 57 7 0 8 10 4 0 1 $T0 .raSearch = $eip $T0 ^ = $esp $T0 4 + =  $20 $T0 8 - ^ =  $22 $T0 12 - ^ =  $23 $T0 16 - ^ =  $24 $T0 20 - ^ = 
STACK WIN 4 915e0 79 6 0 4 0 0 0 1 $T0 .raSearch = $eip $T0 ^ = $esp $T0 4 + = 
STACK WIN 4 915e1 77 5 0 4 4 0 0 1 $T0 .raSearch = $eip $T0 ^ = $esp $T0 4 + =  $23 $T0 4 - ^ = 
STACK WIN 4 915e4 73 2 0 4 8 0 0 1 $T0 .raSearch = $eip $T0 ^ = $esp $T0 4 + =  $23 $T0 4 - ^ =  $24 $T0 8 - ^ = 
STACK WIN 4 91660 4d 4 0 4 0 0 0 1 $T0 .raSearch = $eip $T0 ^ = $esp $T0 4 + = 
STACK WIN 4 91661 4b 3 0 4 4 0 0 1 $T0 .raSearch = $eip $T0 ^ = $esp $T0 4 + =  $20 $T0 4 - ^ = 
STACK WIN 4 91662 47 2 0 4 8 0 0 1 $T0 .raSearch = $eip $T0 ^ = $esp $T0 4 + =  $20 $T0 4 - ^ =  $24 $T0 8 - ^ = 
STACK WIN 4 916b0 153 d 0 8 c c 0 1 $T1 .raSearch = $T0  $T1 4 - 8 @ = $ebp $T1 4 - ^ = $eip $T1 ^ = $esp $T1 4 + = $20 $T0 16 - ^ =  $23 $T0 20 - ^ =  $24 $T0 24 - ^ = 
STACK WIN 4 91810 38 6 0 c 0 0 0 1 $T1 .raSearch = $T0  $T1 4 - 8 @ = $ebp $T1 4 - ^ = $eip $T1 ^ = $esp $T1 4 + =
STACK WIN 4 91850 f 0 0 4 0 0 0 1 $T0 .raSearch = $eip $T0 ^ = $esp $T0 4 + = 
STACK WIN 4 91860 83 8 0 10 4 4 0 1 $T1 .raSearch = $T0  $T1 4 - 8 @ = $ebp $T1 4 - ^ = $eip $T1 ^ = $esp $T1 4 + = $23 $T0 8 - ^ = 
STACK WIN 4 918f0 1a 1 0 4 0 0 0 1 $T0 .raSearch = $eip $T0 ^ = $esp $T0 4 + = 
STACK WIN 4 918f1 18 0 0 4 4 0 0 1 $T0 .raSearch = $eip $T0 ^ = $esp $T0 4 + =  $23 $T0 4 - ^ = 
STACK WIN 4 91910 4f 0 0 0 0 0 0 1 $T0 .raSearch = $eip $T0 ^ = $esp $T0 4 + = 
STACK WIN 4 91960 26 0 0 0 0 0 0 1 $T0 .raSearch = $eip $T0 ^ = $esp $T0 4 + = 
STACK WIN 4 91990 8c 1 0 4 0 0 0 1 $T0 .raSearch = $eip $T0 ^ = $esp $T0 4 + = 
STACK WIN 4 91991 87 0 0 4 4 0 0 1 $T0 .raSearch = $eip $T0 ^ = $esp $T0 4 + =  $23 $T0 4 - ^ = 
STACK WIN 4 91a20 10d 3 0 0 0 0 0 1 $T0 .raSearch = $eip $T0 ^ = $esp $T0 4 + = 
STACK WIN 4 91a21 108 2 0 0 4 0 0 1 $T0 .raSearch = $eip $T0 ^ = $esp $T0 4 + =  $23 $T0 4 - ^ = 
STACK WIN 4 91b30 10c 1 0 4 0 0 0 1 $T0 .raSearch = $eip $T0 ^ = $esp $T0 4 + = 
STACK WIN 4 91b31 107 0 0 4 4 0 0 1 $T0 .raSearch = $eip $T0 ^ = $esp $T0 4 + =  $23 $T0 4 - ^ = 
STACK WIN 4 91c40 51 1 0 4 0 0 0 1 $T0 .raSearch = $eip $T0 ^ = $esp $T0 4 + = 
STACK WIN 4 91c41 4c 0 0 4 4 0 0 1 $T0 .raSearch = $eip $T0 ^ = $esp $T0 4 + =  $23 $T0 4 - ^ = 
STACK WIN 4 91ca0 60 4 0 0 0 0 0 1 $T0 .raSearch = $eip $T0 ^ = $esp $T0 4 + = 
STACK WIN 4 91ca1 5e 3 0 0 4 0 0 1 $T0 .raSearch = $eip $T0 ^ = $esp $T0 4 + =  $20 $T0 4 - ^ = 
STACK WIN 4 91ca2 57 2 0 0 8 0 0 1 $T0 .raSearch = $eip $T0 ^ = $esp $T0 4 + =  $20 $T0 4 - ^ =  $23 $T0 8 - ^ = 
STACK WIN 4 91d00 82 4 0 0 0 0 0 1 $T0 .raSearch = $eip $T0 ^ = $esp $T0 4 + = 
STACK WIN 4 91d01 80 3 0 0 4 0 0 1 $T0 .raSearch = $eip $T0 ^ = $esp $T0 4 + =  $20 $T0 4 - ^ = 
STACK WIN 4 91d02 79 2 0 0 8 0 0 1 $T0 .raSearch = $eip $T0 ^ = $esp $T0 4 + =  $20 $T0 4 - ^ =  $23 $T0 8 - ^ = 
STACK WIN 4 91d90 60 6 0 8 0 0 0 1 $T0 .raSearch = $eip $T0 ^ = $esp $T0 4 + = 
STACK WIN 4 91d93 5c 3 0 8 4 0 0 1 $T0 .raSearch = $eip $T0 ^ = $esp $T0 4 + =  $23 $T0 4 - ^ = 
STACK WIN 4 91d94 58 2 0 8 8 0 0 1 $T0 .raSearch = $eip $T0 ^ = $esp $T0 4 + =  $23 $T0 4 - ^ =  $24 $T0 8 - ^ = 
STACK WIN 4 91df0 98 10 0 8 0 0 0 1 $T0 .raSearch = $eip $T0 ^ = $esp $T0 4 + = 
STACK WIN 4 91df4 90 c 0 8 4 c 0 1 $T0 .raSearch = $eip $T0 ^ = $esp $T0 4 + =  $20 $T0 16 - ^ = 
STACK WIN 4 91df5 8e b 0 8 8 c 0 1 $T0 .raSearch = $eip $T0 ^ = $esp $T0 4 + =  $20 $T0 16 - ^ =  $22 $T0 20 - ^ = 
STACK WIN 4 91df6 8c a 0 8 c c 0 1 $T0 .raSearch = $eip $T0 ^ = $esp $T0 4 + =  $20 $T0 16 - ^ =  $22 $T0 20 - ^ =  $23 $T0 24 - ^ = 
STACK WIN 4 91e01 7e 0 0 8 10 c 0 1 $T0 .raSearch = $eip $T0 ^ = $esp $T0 4 + =  $20 $T0 16 - ^ =  $22 $T0 20 - ^ =  $23 $T0 24 - ^ =  $24 $T0 28 - ^ = 
STACK WIN 4 91e90 95a 16 0 8 0 0 0 1 $T0 .raSearch = $eip $T0 ^ = $esp $T0 4 + = 
STACK WIN 4 91e9f 89a 7 0 8 4 2c 0 1 $T0 .raSearch = $eip $T0 ^ = $esp $T0 4 + =  $20 $T0 48 - ^ = 
STACK WIN 4 91ea0 898 6 0 8 8 2c 0 1 $T0 .raSearch = $eip $T0 ^ = $esp $T0 4 + =  $20 $T0 48 - ^ =  $22 $T0 52 - ^ = 
STACK WIN 4 91eab 88c 0 0 8 c 2c 0 1 $T0 .raSearch = $eip $T0 ^ = $esp $T0 4 + =  $20 $T0 48 - ^ =  $22 $T0 52 - ^ =  $24 $T0 56 - ^ = 
STACK WIN 4 91ec2 852 0 0 8 10 2c 0 1 $T0 .raSearch = $eip $T0 ^ = $esp $T0 4 + =  $20 $T0 48 - ^ =  $22 $T0 52 - ^ =  $24 $T0 56 - ^ =  $23 $T0 60 - ^ = 
STACK WIN 4 927f0 11c f 0 18 c c 0 1 $T1 .raSearch = $T0  $T1 4 - 8 @ = $ebp $T1 4 - ^ = $eip $T1 ^ = $esp $T1 4 + = $20 $T0 16 - ^ =  $23 $T0 20 - ^ =  $24 $T0 24 - ^ = 
STACK WIN 4 92910 1f8 b 0 c 10 8 0 1 $T0 .raSearch = $eip $T0 ^ = $esp $T0 4 + =  $20 $T0 12 - ^ =  $22 $T0 16 - ^ =  $23 $T0 20 - ^ =  $24 $T0 24 - ^ = 
STACK WIN 4 92b10 111 4 0 0 0 0 0 1 $T0 .raSearch = $eip $T0 ^ = $esp $T0 4 + = 
STACK WIN 4 92b11 9d 3 0 0 4 0 0 1 $T0 .raSearch = $eip $T0 ^ = $esp $T0 4 + =  $20 $T0 4 - ^ = 
STACK WIN 4 92b12 99 2 0 0 8 0 0 1 $T0 .raSearch = $eip $T0 ^ = $esp $T0 4 + =  $20 $T0 4 - ^ =  $23 $T0 8 - ^ = 
STACK WIN 4 92b17 93 0 0 0 c 0 0 1 $T0 .raSearch = $eip $T0 ^ = $esp $T0 4 + =  $20 $T0 4 - ^ =  $23 $T0 8 - ^ =  $24 $T0 12 - ^ = 
STACK WIN 4 92c30 21b 14 0 8 c 1c 0 1 $T1 .raSearch = $T0  $T1 4 - 8 @ = $ebp $T1 4 - ^ = $eip $T1 ^ = $esp $T1 4 + = $20 $T0 32 - ^ =  $23 $T0 36 - ^ =  $24 $T0 40 - ^ = 
STACK WIN 4 92e50 d9 b 0 4 c 4 0 1 $T1 .raSearch = $T0  $T1 4 - 8 @ = $ebp $T1 4 - ^ = $eip $T1 ^ = $esp $T1 4 + = $20 $T0 8 - ^ =  $23 $T0 12 - ^ =  $24 $T0 16 - ^ = 
STACK WIN 4 92f30 fc 8 0 c 8 0 0 1 $T1 .raSearch = $T0  $T1 4 - 8 @ = $ebp $T1 4 - ^ = $eip $T1 ^ = $esp $T1 4 + = $23 $T0 4 - ^ =  $24 $T0 8 - ^ = 
STACK WIN 4 93030 13f f 0 18 c c 0 1 $T1 .raSearch = $T0  $T1 4 - 8 @ = $ebp $T1 4 - ^ = $eip $T1 ^ = $esp $T1 4 + = $20 $T0 16 - ^ =  $23 $T0 20 - ^ =  $24 $T0 24 - ^ = 
STACK WIN 4 93170 80 7 0 8 c 0 0 1 $T0 .raSearch = $eip $T0 ^ = $esp $T0 4 + =  $20 $T0 4 - ^ =  $23 $T0 8 - ^ =  $24 $T0 12 - ^ = 
STACK WIN 4 931f0 f1 10 0 4 c c 0 1 $T1 .raSearch = $T0  $T1 4 - 8 @ = $ebp $T1 4 - ^ = $eip $T1 ^ = $esp $T1 4 + = $20 $T0 16 - ^ =  $23 $T0 20 - ^ =  $24 $T0 24 - ^ = 
STACK WIN 4 932f0 11f c 0 18 c c 0 1 $T1 .raSearch = $T0  $T1 4 - 8 @ = $ebp $T1 4 - ^ = $eip $T1 ^ = $esp $T1 4 + = $20 $T0 16 - ^ =  $23 $T0 20 - ^ =  $24 $T0 24 - ^ = 
STACK WIN 4 93410 1d 1 0 4 0 0 0 1 $T0 .raSearch = $eip $T0 ^ = $esp $T0 4 + = 
STACK WIN 4 93411 1b 0 0 4 4 0 0 1 $T0 .raSearch = $eip $T0 ^ = $esp $T0 4 + =  $23 $T0 4 - ^ = 
STACK WIN 4 93430 61 1 0 8 0 0 0 1 $T0 .raSearch = $eip $T0 ^ = $esp $T0 4 + = 
STACK WIN 4 93431 5f 0 0 8 4 0 0 1 $T0 .raSearch = $eip $T0 ^ = $esp $T0 4 + =  $23 $T0 4 - ^ = 
STACK WIN 4 934a0 43 6 0 8 0 0 0 1 $T1 .raSearch = $T0  $T1 4 - 8 @ = $ebp $T1 4 - ^ = $eip $T1 ^ = $esp $T1 4 + =
STACK WIN 4 934f0 5d 3 0 0 0 0 0 1 $T0 .raSearch = $eip $T0 ^ = $esp $T0 4 + = 
STACK WIN 4 934f1 5b 2 0 0 4 0 0 1 $T0 .raSearch = $eip $T0 ^ = $esp $T0 4 + =  $23 $T0 4 - ^ = 
STACK WIN 4 93550 67 1 0 4 0 0 0 1 $T0 .raSearch = $eip $T0 ^ = $esp $T0 4 + = 
STACK WIN 4 93551 65 0 0 4 4 0 0 1 $T0 .raSearch = $eip $T0 ^ = $esp $T0 4 + =  $23 $T0 4 - ^ = 
STACK WIN 4 935c0 47 2 0 4 0 0 0 1 $T0 .raSearch = $eip $T0 ^ = $esp $T0 4 + = 
STACK WIN 4 935c1 45 1 0 4 4 0 0 1 $T0 .raSearch = $eip $T0 ^ = $esp $T0 4 + =  $23 $T0 4 - ^ = 
STACK WIN 4 935c2 43 0 0 4 8 0 0 1 $T0 .raSearch = $eip $T0 ^ = $esp $T0 4 + =  $23 $T0 4 - ^ =  $24 $T0 8 - ^ = 
STACK WIN 4 93610 1b6 15 0 14 c c 0 1 $T1 .raSearch = $T0  $T1 4 - 8 @ = $ebp $T1 4 - ^ = $eip $T1 ^ = $esp $T1 4 + = $20 $T0 16 - ^ =  $23 $T0 20 - ^ =  $24 $T0 24 - ^ = 
STACK WIN 4 937d0 d 0 0 4 0 0 0 1 $T0 .raSearch = $eip $T0 ^ = $esp $T0 4 + = 
STACK WIN 4 937e0 b0 b 0 c 4 4 0 1 $T1 .raSearch = $T0  $T1 4 - 8 @ = $ebp $T1 4 - ^ = $eip $T1 ^ = $esp $T1 4 + = $23 $T0 8 - ^ = 
STACK WIN 4 93890 14 0 0 8 0 0 0 1 $T0 .raSearch = $eip $T0 ^ = $esp $T0 4 + = 
STACK WIN 4 938b0 29b 27 0 8 10 b4 0 1 $T0 .raSearch = $eip $T0 ^ = $esp $T0 4 + =  $20 $T0 184 - ^ =  $22 $T0 188 - ^ =  $23 $T0 192 - ^ =  $24 $T0 196 - ^ = 
STACK WIN 4 93b50 93 18 0 0 c 4 0 1 $T1 .raSearch = $T0  $T1 4 - 8 @ = $ebp $T1 4 - ^ = $eip $T1 ^ = $esp $T1 4 + = $20 $T0 8 - ^ =  $23 $T0 12 - ^ =  $24 $T0 16 - ^ = 
STACK WIN 4 93bf0 47 8 0 8 4 8 0 1 $T0 .raSearch = $eip $T0 ^ = $esp $T0 4 + =  $24 $T0 12 - ^ = 
STACK WIN 4 93c40 68 b 0 0 4 8 0 1 $T0 .raSearch = $eip $T0 ^ = $esp $T0 4 + =  $23 $T0 12 - ^ = 
STACK WIN 4 93cb0 132 17 0 c 10 8 0 1 $T0 .raSearch = $eip $T0 ^ = $esp $T0 4 + =  $20 $T0 12 - ^ =  $22 $T0 16 - ^ =  $23 $T0 20 - ^ =  $24 $T0 24 - ^ = 
STACK WIN 4 93df0 ef a 0 8 c 4 0 1 $T1 .raSearch = $T0  $T1 4 - 8 @ = $ebp $T1 4 - ^ = $eip $T1 ^ = $esp $T1 4 + = $20 $T0 8 - ^ =  $23 $T0 12 - ^ =  $24 $T0 16 - ^ = 
STACK WIN 4 93ee0 144 d 0 18 10 14 0 1 $T0 .raSearch = $eip $T0 ^ = $esp $T0 4 + =  $20 $T0 24 - ^ =  $22 $T0 28 - ^ =  $23 $T0 32 - ^ =  $24 $T0 36 - ^ = 
STACK WIN 4 94030 f4 21 0 10 10 c 0 1 $T0 .raSearch = $eip $T0 ^ = $esp $T0 4 + =  $20 $T0 16 - ^ =  $22 $T0 20 - ^ =  $23 $T0 24 - ^ =  $24 $T0 28 - ^ = 
STACK WIN 4 94130 16d a 0 c 10 20 0 1 $T0 .raSearch = $eip $T0 ^ = $esp $T0 4 + =  $20 $T0 36 - ^ =  $22 $T0 40 - ^ =  $23 $T0 44 - ^ =  $24 $T0 48 - ^ = 
STACK WIN 4 942a0 83 e 0 c 10 4 0 1 $T0 .raSearch = $eip $T0 ^ = $esp $T0 4 + =  $20 $T0 8 - ^ =  $22 $T0 12 - ^ =  $23 $T0 16 - ^ =  $24 $T0 20 - ^ = 
STACK WIN 4 94330 72 5 0 0 0 0 0 1 $T0 .raSearch = $eip $T0 ^ = $esp $T0 4 + = 
STACK WIN 4 94332 6e 3 0 0 4 4 0 1 $T0 .raSearch = $eip $T0 ^ = $esp $T0 4 + =  $20 $T0 8 - ^ = 
STACK WIN 4 94333 6c 2 0 0 8 4 0 1 $T0 .raSearch = $eip $T0 ^ = $esp $T0 4 + =  $20 $T0 8 - ^ =  $24 $T0 12 - ^ = 
STACK WIN 4 94340 4a 0 0 0 c 4 0 1 $T0 .raSearch = $eip $T0 ^ = $esp $T0 4 + =  $20 $T0 8 - ^ =  $24 $T0 12 - ^ =  $22 $T0 16 - ^ = 
STACK WIN 4 94341 48 0 0 0 10 4 0 1 $T0 .raSearch = $eip $T0 ^ = $esp $T0 4 + =  $20 $T0 8 - ^ =  $24 $T0 12 - ^ =  $22 $T0 16 - ^ =  $23 $T0 20 - ^ = 
STACK WIN 4 943b0 e9 7 0 8 10 4 0 1 $T0 .raSearch = $eip $T0 ^ = $esp $T0 4 + =  $20 $T0 8 - ^ =  $22 $T0 12 - ^ =  $23 $T0 16 - ^ =  $24 $T0 20 - ^ = 
STACK WIN 4 944a0 12c b 0 4 c 4 0 1 $T1 .raSearch = $T0  $T1 4 - 8 @ = $ebp $T1 4 - ^ = $eip $T1 ^ = $esp $T1 4 + = $20 $T0 8 - ^ =  $23 $T0 12 - ^ =  $24 $T0 16 - ^ = 
STACK WIN 4 945d0 123 7 0 0 8 4 0 1 $T0 .raSearch = $eip $T0 ^ = $esp $T0 4 + =  $23 $T0 8 - ^ =  $24 $T0 12 - ^ = 
STACK WIN 4 94700 14d f 0 c 10 10 0 1 $T0 .raSearch = $eip $T0 ^ = $esp $T0 4 + =  $20 $T0 20 - ^ =  $22 $T0 24 - ^ =  $23 $T0 28 - ^ =  $24 $T0 32 - ^ = 
STACK WIN 4 94850 c3 13 0 c 10 8 0 1 $T0 .raSearch = $eip $T0 ^ = $esp $T0 4 + =  $20 $T0 12 - ^ =  $22 $T0 16 - ^ =  $23 $T0 20 - ^ =  $24 $T0 24 - ^ = 
STACK WIN 4 94920 15e d 0 10 c c 0 1 $T1 .raSearch = $T0  $T1 4 - 8 @ = $ebp $T1 4 - ^ = $eip $T1 ^ = $esp $T1 4 + = $20 $T0 16 - ^ =  $23 $T0 20 - ^ =  $24 $T0 24 - ^ = 
STACK WIN 4 94a80 9d 8 0 4 10 8 0 1 $T0 .raSearch = $eip $T0 ^ = $esp $T0 4 + =  $20 $T0 12 - ^ =  $22 $T0 16 - ^ =  $23 $T0 20 - ^ =  $24 $T0 24 - ^ = 
STACK WIN 4 94b20 260 11 0 4 10 10 0 1 $T1 .raSearch = $T0  $T1 4 - 8 @ = $ebp $T1 4 - ^ = $eip $T1 ^ = $esp $T1 4 + = $20 $T0 20 - ^ =  $23 $T0 28 - ^ =  $24 $T0 32 - ^ = 
STACK WIN 4 94d80 1ba 10 0 8 10 1c 0 1 $T0 .raSearch = $eip $T0 ^ = $esp $T0 4 + =  $20 $T0 32 - ^ =  $22 $T0 36 - ^ =  $23 $T0 40 - ^ =  $24 $T0 44 - ^ = 
STACK WIN 4 94f40 19f 21 0 4 c 24 0 1 $T1 .raSearch = $T0  $T1 4 - 8 @ = $ebp $T1 4 - ^ = $eip $T1 ^ = $esp $T1 4 + = $20 $T0 40 - ^ =  $23 $T0 44 - ^ =  $24 $T0 48 - ^ = 
STACK WIN 4 950e0 105 18 0 24 c c 0 1 $T1 .raSearch = $T0  $T1 4 - 8 @ = $ebp $T1 4 - ^ = $eip $T1 ^ = $esp $T1 4 + = $20 $T0 16 - ^ =  $23 $T0 20 - ^ =  $24 $T0 24 - ^ = 
STACK WIN 4 951f0 7f 7 0 8 0 0 0 1 $T0 .raSearch = $eip $T0 ^ = $esp $T0 4 + = 
STACK WIN 4 951f5 79 2 0 8 4 0 0 1 $T0 .raSearch = $eip $T0 ^ = $esp $T0 4 + =  $20 $T0 4 - ^ = 
STACK WIN 4 951f6 77 1 0 8 8 0 0 1 $T0 .raSearch = $eip $T0 ^ = $esp $T0 4 + =  $20 $T0 4 - ^ =  $23 $T0 8 - ^ = 
STACK WIN 4 951f7 75 0 0 8 c 0 0 1 $T0 .raSearch = $eip $T0 ^ = $esp $T0 4 + =  $20 $T0 4 - ^ =  $23 $T0 8 - ^ =  $24 $T0 12 - ^ = 
STACK WIN 4 95270 2cd 32 0 10 c 1c 0 1 $T1 .raSearch = $T0  $T1 4 - 8 @ = $ebp $T1 4 - ^ = $eip $T1 ^ = $esp $T1 4 + = $20 $T0 32 - ^ =  $23 $T0 36 - ^ =  $24 $T0 40 - ^ = 
STACK WIN 4 95540 102 7 0 8 0 0 0 1 $T0 .raSearch = $eip $T0 ^ = $esp $T0 4 + = 
STACK WIN 4 95541 100 6 0 8 4 0 0 1 $T0 .raSearch = $eip $T0 ^ = $esp $T0 4 + =  $20 $T0 4 - ^ = 
STACK WIN 4 95542 fc 5 0 8 8 0 0 1 $T0 .raSearch = $eip $T0 ^ = $esp $T0 4 + =  $20 $T0 4 - ^ =  $22 $T0 8 - ^ = 
STACK WIN 4 95547 f6 0 0 8 c 0 0 1 $T0 .raSearch = $eip $T0 ^ = $esp $T0 4 + =  $20 $T0 4 - ^ =  $22 $T0 8 - ^ =  $24 $T0 12 - ^ = 
STACK WIN 4 9556b ae 0 0 8 10 0 0 1 $T0 .raSearch = $eip $T0 ^ = $esp $T0 4 + =  $20 $T0 4 - ^ =  $22 $T0 8 - ^ =  $24 $T0 12 - ^ =  $23 $T0 16 - ^ = 
STACK WIN 4 95650 54 7 0 8 0 0 0 1 $T0 .raSearch = $eip $T0 ^ = $esp $T0 4 + = 
STACK WIN 4 95657 4c 0 0 8 4 0 0 1 $T0 .raSearch = $eip $T0 ^ = $esp $T0 4 + =  $23 $T0 4 - ^ = 
STACK WIN 4 95674 27 0 0 8 8 0 0 1 $T0 .raSearch = $eip $T0 ^ = $esp $T0 4 + =  $23 $T0 4 - ^ =  $24 $T0 8 - ^ = 
STACK WIN 4 956b0 54 7 0 8 0 0 0 1 $T0 .raSearch = $eip $T0 ^ = $esp $T0 4 + = 
STACK WIN 4 956b7 4c 0 0 8 4 0 0 1 $T0 .raSearch = $eip $T0 ^ = $esp $T0 4 + =  $23 $T0 4 - ^ = 
STACK WIN 4 956d4 27 0 0 8 8 0 0 1 $T0 .raSearch = $eip $T0 ^ = $esp $T0 4 + =  $23 $T0 4 - ^ =  $24 $T0 8 - ^ = 
STACK WIN 4 95710 9b 0 0 4 0 0 0 1 $T0 .raSearch = $eip $T0 ^ = $esp $T0 4 + = 
STACK WIN 4 9571b 8c 0 0 4 4 0 0 1 $T0 .raSearch = $eip $T0 ^ = $esp $T0 4 + =  $20 $T0 4 - ^ = 
STACK WIN 4 95720 86 0 0 4 8 0 0 1 $T0 .raSearch = $eip $T0 ^ = $esp $T0 4 + =  $20 $T0 4 - ^ =  $23 $T0 8 - ^ = 
STACK WIN 4 95721 84 0 0 4 c 0 0 1 $T0 .raSearch = $eip $T0 ^ = $esp $T0 4 + =  $20 $T0 4 - ^ =  $23 $T0 8 - ^ =  $24 $T0 12 - ^ = 
STACK WIN 4 957b0 62 a 0 8 0 0 0 1 $T0 .raSearch = $eip $T0 ^ = $esp $T0 4 + = 
STACK WIN 4 957b7 5a 3 0 8 4 0 0 1 $T0 .raSearch = $eip $T0 ^ = $esp $T0 4 + =  $22 $T0 4 - ^ = 
STACK WIN 4 957b8 58 2 0 8 8 0 0 1 $T0 .raSearch = $eip $T0 ^ = $esp $T0 4 + =  $22 $T0 4 - ^ =  $24 $T0 8 - ^ = 
STACK WIN 4 957c6 49 0 0 8 c 0 0 1 $T0 .raSearch = $eip $T0 ^ = $esp $T0 4 + =  $22 $T0 4 - ^ =  $24 $T0 8 - ^ =  $20 $T0 12 - ^ = 
STACK WIN 4 957c7 47 0 0 8 10 0 0 1 $T0 .raSearch = $eip $T0 ^ = $esp $T0 4 + =  $22 $T0 4 - ^ =  $24 $T0 8 - ^ =  $20 $T0 12 - ^ =  $23 $T0 16 - ^ = 
STACK WIN 4 95820 60 b 0 c 8 8 0 1 $T0 .raSearch = $eip $T0 ^ = $esp $T0 4 + =  $23 $T0 12 - ^ =  $24 $T0 16 - ^ = 
STACK WIN 4 95880 4f b 0 0 0 0 0 1 $T0 .raSearch = $eip $T0 ^ = $esp $T0 4 + = 
STACK WIN 4 95882 4b 9 0 0 4 4 0 1 $T0 .raSearch = $eip $T0 ^ = $esp $T0 4 + =  $20 $T0 8 - ^ = 
STACK WIN 4 95883 49 8 0 0 8 4 0 1 $T0 .raSearch = $eip $T0 ^ = $esp $T0 4 + =  $20 $T0 8 - ^ =  $24 $T0 12 - ^ = 
STACK WIN 4 958a1 28 0 0 0 c 4 0 1 $T0 .raSearch = $eip $T0 ^ = $esp $T0 4 + =  $20 $T0 8 - ^ =  $24 $T0 12 - ^ =  $23 $T0 24 - ^ = 
STACK WIN 4 958d0 ee 11 0 30 8 8 0 1 $T1 .raSearch = $T0  $T1 4 - 8 @ = $ebp $T1 4 - ^ = $eip $T1 ^ = $esp $T1 4 + = $23 $T0 12 - ^ =  $24 $T0 16 - ^ = 
STACK WIN 4 959c0 30e 19 0 c c 2c 0 1 $T1 .raSearch = $T0  $T1 4 - 8 @ = $ebp $T1 4 - ^ = $eip $T1 ^ = $esp $T1 4 + = $20 $T0 48 - ^ =  $23 $T0 52 - ^ =  $24 $T0 56 - ^ = 
STACK WIN 4 95cd0 75 19 0 8 10 8 0 1 $T0 .raSearch = $eip $T0 ^ = $esp $T0 4 + =  $20 $T0 12 - ^ =  $22 $T0 16 - ^ =  $23 $T0 20 - ^ =  $24 $T0 24 - ^ = 
STACK WIN 4 95d50 174 d 0 20 10 24 0 1 $T0 .raSearch = $eip $T0 ^ = $esp $T0 4 + =  $20 $T0 40 - ^ =  $22 $T0 44 - ^ =  $23 $T0 48 - ^ =  $24 $T0 52 - ^ = 
STACK WIN 4 95ed0 145 0 0 0 0 0 0 1 $T0 .raSearch = $eip $T0 ^ = $esp $T0 4 + = 
STACK WIN 4 95ed9 13b 0 0 0 4 0 0 1 $T0 .raSearch = $eip $T0 ^ = $esp $T0 4 + =  $20 $T0 4 - ^ = 
STACK WIN 4 95eda 139 0 0 0 8 0 0 1 $T0 .raSearch = $eip $T0 ^ = $esp $T0 4 + =  $20 $T0 4 - ^ =  $23 $T0 8 - ^ = 
STACK WIN 4 95ede 134 0 0 0 c 0 0 1 $T0 .raSearch = $eip $T0 ^ = $esp $T0 4 + =  $20 $T0 4 - ^ =  $23 $T0 8 - ^ =  $24 $T0 12 - ^ = 
STACK WIN 4 96020 3d4 14 0 14 c 2c 0 1 $T1 .raSearch = $T0  $T1 4 - 8 @ = $ebp $T1 4 - ^ = $eip $T1 ^ = $esp $T1 4 + = $20 $T0 48 - ^ =  $23 $T0 52 - ^ =  $24 $T0 56 - ^ = 
STACK WIN 4 96400 139 b 0 c 10 20 0 1 $T0 .raSearch = $eip $T0 ^ = $esp $T0 4 + =  $20 $T0 36 - ^ =  $22 $T0 40 - ^ =  $23 $T0 44 - ^ =  $24 $T0 48 - ^ = 
STACK WIN 4 96540 6b c 0 4 4 c 0 1 $T0 .raSearch = $eip $T0 ^ = $esp $T0 4 + =  $23 $T0 16 - ^ = 
STACK WIN 4 965b0 b5 1b 0 8 10 c 0 1 $T0 .raSearch = $eip $T0 ^ = $esp $T0 4 + =  $20 $T0 16 - ^ =  $22 $T0 20 - ^ =  $23 $T0 24 - ^ =  $24 $T0 28 - ^ = 
STACK WIN 4 96670 9f 9 0 8 8 4 0 1 $T0 .raSearch = $eip $T0 ^ = $esp $T0 4 + =  $20 $T0 8 - ^ =  $22 $T0 12 - ^ = 
STACK WIN 4 96710 26c 16 0 10 c 14 0 1 $T1 .raSearch = $T0  $T1 4 - 8 @ = $ebp $T1 4 - ^ = $eip $T1 ^ = $esp $T1 4 + = $20 $T0 24 - ^ =  $23 $T0 28 - ^ =  $24 $T0 32 - ^ = 
STACK WIN 4 96980 138 20 0 8 0 0 0 1 $T0 .raSearch = $eip $T0 ^ = $esp $T0 4 + = 
STACK WIN 4 96984 130 1c 0 8 4 c 0 1 $T0 .raSearch = $eip $T0 ^ = $esp $T0 4 + =  $20 $T0 16 - ^ = 
STACK WIN 4 96989 128 17 0 8 8 c 0 1 $T0 .raSearch = $eip $T0 ^ = $esp $T0 4 + =  $20 $T0 16 - ^ =  $22 $T0 20 - ^ = 
STACK WIN 4 9698e 11c 12 0 8 c c 0 1 $T0 .raSearch = $eip $T0 ^ = $esp $T0 4 + =  $20 $T0 16 - ^ =  $22 $T0 20 - ^ =  $23 $T0 24 - ^ = 
STACK WIN 4 96993 116 d 0 8 10 c 0 1 $T0 .raSearch = $eip $T0 ^ = $esp $T0 4 + =  $20 $T0 16 - ^ =  $22 $T0 20 - ^ =  $23 $T0 24 - ^ =  $24 $T0 28 - ^ = 
STACK WIN 4 96ac0 1b0 19 0 c c 24 0 1 $T1 .raSearch = $T0  $T1 4 - 8 @ = $ebp $T1 4 - ^ = $eip $T1 ^ = $esp $T1 4 + = $20 $T0 40 - ^ =  $23 $T0 44 - ^ =  $24 $T0 48 - ^ = 
STACK WIN 4 96c70 10e a 0 8 10 c 0 1 $T0 .raSearch = $eip $T0 ^ = $esp $T0 4 + =  $20 $T0 16 - ^ =  $22 $T0 20 - ^ =  $23 $T0 24 - ^ =  $24 $T0 28 - ^ = 
STACK WIN 4 96d80 11a 2e 0 c 10 10 0 1 $T0 .raSearch = $eip $T0 ^ = $esp $T0 4 + =  $20 $T0 20 - ^ =  $22 $T0 24 - ^ =  $23 $T0 28 - ^ =  $24 $T0 32 - ^ = 
STACK WIN 4 96ea0 54 0 0 0 0 0 0 1 $T0 .raSearch = $eip $T0 ^ = $esp $T0 4 + = 
STACK WIN 4 96f00 6b1 1a 0 0 10 60 0 1 $T1 .raSearch = $T0  $T1 4 - 8 @ = $ebp $T1 4 - ^ = $eip $T1 ^ = $esp $T1 4 + = $20 $T0 100 - ^ =  $23 $T0 108 - ^ =  $24 $T0 112 - ^ = 
STACK WIN 4 975c0 12e 3 0 0 c 0 0 1 $T0 .raSearch = $eip $T0 ^ = $esp $T0 4 + =  $20 $T0 4 - ^ =  $23 $T0 8 - ^ =  $24 $T0 12 - ^ = 
STACK WIN 4 976f0 10f 7 0 8 10 14 0 1 $T0 .raSearch = $eip $T0 ^ = $esp $T0 4 + =  $20 $T0 24 - ^ =  $22 $T0 28 - ^ =  $23 $T0 32 - ^ =  $24 $T0 36 - ^ = 
STACK WIN 4 97800 230 1b 0 10 c 1c 0 1 $T1 .raSearch = $T0  $T1 4 - 8 @ = $ebp $T1 4 - ^ = $eip $T1 ^ = $esp $T1 4 + = $20 $T0 32 - ^ =  $23 $T0 36 - ^ =  $24 $T0 40 - ^ = 
STACK WIN 4 97a30 2b6 30 0 8 8 78 0 1 $T1 .raSearch = $T0  $T1 4 - 16 @ = $ebp $T1 4 - ^ = $eip $T1 ^ = $esp $T1 4 + = $23 $T0 124 - ^ =  $24 $T0 128 - ^ = 
STACK WIN 4 97cf0 ef e 0 0 c 4 0 1 $T1 .raSearch = $T0  $T1 4 - 8 @ = $ebp $T1 4 - ^ = $eip $T1 ^ = $esp $T1 4 + = $20 $T0 8 - ^ =  $23 $T0 12 - ^ =  $24 $T0 16 - ^ = 
STACK WIN 4 97de0 66 17 0 8 10 8 0 1 $T0 .raSearch = $eip $T0 ^ = $esp $T0 4 + =  $20 $T0 12 - ^ =  $22 $T0 16 - ^ =  $23 $T0 20 - ^ =  $24 $T0 24 - ^ = 
STACK WIN 4 97e50 46 9 0 8 10 c 0 1 $T0 .raSearch = $eip $T0 ^ = $esp $T0 4 + =  $20 $T0 16 - ^ =  $22 $T0 20 - ^ =  $23 $T0 24 - ^ =  $24 $T0 28 - ^ = 
STACK WIN 4 97ea0 f1 e 0 4 c 14 0 1 $T1 .raSearch = $T0  $T1 4 - 8 @ = $ebp $T1 4 - ^ = $eip $T1 ^ = $esp $T1 4 + = $20 $T0 24 - ^ =  $23 $T0 28 - ^ =  $24 $T0 32 - ^ = 
STACK WIN 4 97fa0 24c 1d 0 c c 24 0 1 $T1 .raSearch = $T0  $T1 4 - 8 @ = $ebp $T1 4 - ^ = $eip $T1 ^ = $esp $T1 4 + = $20 $T0 40 - ^ =  $23 $T0 44 - ^ =  $24 $T0 48 - ^ = 
STACK WIN 4 981f0 191 15 0 0 10 10 0 1 $T1 .raSearch = $T0  $T1 4 - 8 @ = $ebp $T1 4 - ^ = $eip $T1 ^ = $esp $T1 4 + = $20 $T0 20 - ^ =  $23 $T0 28 - ^ =  $24 $T0 32 - ^ = 
STACK WIN 4 98390 2cf 11 0 0 10 28 0 1 $T1 .raSearch = $T0  $T1 4 - 8 @ = $ebp $T1 4 - ^ = $eip $T1 ^ = $esp $T1 4 + = $20 $T0 44 - ^ =  $23 $T0 52 - ^ =  $24 $T0 56 - ^ = 
STACK WIN 4 98660 13d 24 0 c c c 0 1 $T1 .raSearch = $T0  $T1 4 - 8 @ = $ebp $T1 4 - ^ = $eip $T1 ^ = $esp $T1 4 + = $20 $T0 16 - ^ =  $23 $T0 20 - ^ =  $24 $T0 24 - ^ = 
STACK WIN 4 987a0 5b 11 0 4 c 4 0 1 $T1 .raSearch = $T0  $T1 4 - 8 @ = $ebp $T1 4 - ^ = $eip $T1 ^ = $esp $T1 4 + = $20 $T0 8 - ^ =  $23 $T0 12 - ^ =  $24 $T0 16 - ^ = 
STACK WIN 4 98800 141 e 0 0 10 8 0 1 $T1 .raSearch = $T0  $T1 4 - 8 @ = $ebp $T1 4 - ^ = $eip $T1 ^ = $esp $T1 4 + = $20 $T0 12 - ^ =  $23 $T0 20 - ^ =  $24 $T0 24 - ^ = 
STACK WIN 4 98950 3bb 19 0 8 c 34 0 1 $T1 .raSearch = $T0  $T1 4 - 8 @ = $ebp $T1 4 - ^ = $eip $T1 ^ = $esp $T1 4 + = $20 $T0 56 - ^ =  $23 $T0 60 - ^ =  $24 $T0 64 - ^ = 
STACK WIN 4 98d10 18d 1a 0 10 c 14 0 1 $T1 .raSearch = $T0  $T1 4 - 8 @ = $ebp $T1 4 - ^ = $eip $T1 ^ = $esp $T1 4 + = $20 $T0 24 - ^ =  $23 $T0 28 - ^ =  $24 $T0 32 - ^ = 
STACK WIN 4 98ea0 219 13 0 4 c 24 0 1 $T1 .raSearch = $T0  $T1 4 - 8 @ = $ebp $T1 4 - ^ = $eip $T1 ^ = $esp $T1 4 + = $20 $T0 40 - ^ =  $23 $T0 44 - ^ =  $24 $T0 48 - ^ = 
STACK WIN 4 990c0 447 12 0 4 c 24 0 1 $T1 .raSearch = $T0  $T1 4 - 8 @ = $ebp $T1 4 - ^ = $eip $T1 ^ = $esp $T1 4 + = $20 $T0 40 - ^ =  $23 $T0 44 - ^ =  $24 $T0 48 - ^ = 
STACK WIN 4 99510 5c8 1e 0 14 c 6c 0 1 $T1 .raSearch = $T0  $T1 4 - 8 @ = $ebp $T1 4 - ^ = $eip $T1 ^ = $esp $T1 4 + = $20 $T0 112 - ^ =  $23 $T0 116 - ^ =  $24 $T0 120 - ^ = 
STACK WIN 4 99ae0 19c 20 0 10 10 c 0 1 $T0 .raSearch = $eip $T0 ^ = $esp $T0 4 + =  $20 $T0 16 - ^ =  $22 $T0 20 - ^ =  $23 $T0 24 - ^ =  $24 $T0 28 - ^ = 
STACK WIN 4 99c80 274 11 0 8 c 1c 0 1 $T1 .raSearch = $T0  $T1 4 - 8 @ = $ebp $T1 4 - ^ = $eip $T1 ^ = $esp $T1 4 + = $20 $T0 32 - ^ =  $23 $T0 36 - ^ =  $24 $T0 40 - ^ = 
STACK WIN 4 99f00 2d8 1f 0 10 c 44 0 1 $T1 .raSearch = $T0  $T1 4 - 8 @ = $ebp $T1 4 - ^ = $eip $T1 ^ = $esp $T1 4 + = $20 $T0 72 - ^ =  $23 $T0 76 - ^ =  $24 $T0 80 - ^ = 
STACK WIN 4 9a1e0 393 1d 0 10 c 54 0 1 $T1 .raSearch = $T0  $T1 4 - 8 @ = $ebp $T1 4 - ^ = $eip $T1 ^ = $esp $T1 4 + = $20 $T0 88 - ^ =  $23 $T0 92 - ^ =  $24 $T0 96 - ^ = 
STACK WIN 4 9a580 1a7 10 0 c c 1c 0 1 $T1 .raSearch = $T0  $T1 4 - 8 @ = $ebp $T1 4 - ^ = $eip $T1 ^ = $esp $T1 4 + = $20 $T0 32 - ^ =  $23 $T0 36 - ^ =  $24 $T0 40 - ^ = 
STACK WIN 4 9a730 69 19 0 0 8 8 0 1 $T1 .raSearch = $T0  $T1 4 - 8 @ = $ebp $T1 4 - ^ = $eip $T1 ^ = $esp $T1 4 + = $23 $T0 12 - ^ =  $24 $T0 16 - ^ = 
STACK WIN 4 9a7a0 b9 e 0 0 10 8 0 1 $T1 .raSearch = $T0  $T1 4 - 8 @ = $ebp $T1 4 - ^ = $eip $T1 ^ = $esp $T1 4 + = $20 $T0 12 - ^ =  $23 $T0 20 - ^ =  $24 $T0 24 - ^ = 
STACK WIN 4 9a860 d9 11 0 c c c 0 1 $T1 .raSearch = $T0  $T1 4 - 8 @ = $ebp $T1 4 - ^ = $eip $T1 ^ = $esp $T1 4 + = $20 $T0 16 - ^ =  $23 $T0 20 - ^ =  $24 $T0 24 - ^ = 
STACK WIN 4 9a940 67a 18 0 4 c 54 0 1 $T1 .raSearch = $T0  $T1 4 - 8 @ = $ebp $T1 4 - ^ = $eip $T1 ^ = $esp $T1 4 + = $20 $T0 88 - ^ =  $23 $T0 92 - ^ =  $24 $T0 96 - ^ = 
STACK WIN 4 9afc0 d9 10 0 0 10 4 0 1 $T0 .raSearch = $eip $T0 ^ = $esp $T0 4 + =  $20 $T0 8 - ^ =  $22 $T0 12 - ^ =  $23 $T0 16 - ^ =  $24 $T0 20 - ^ = 
STACK WIN 4 9b0a0 d2 21 0 0 8 8 0 1 $T1 .raSearch = $T0  $T1 4 - 8 @ = $ebp $T1 4 - ^ = $eip $T1 ^ = $esp $T1 4 + = $23 $T0 12 - ^ =  $24 $T0 16 - ^ = 
STACK WIN 4 9b180 af 17 0 18 10 8 0 1 $T0 .raSearch = $eip $T0 ^ = $esp $T0 4 + =  $20 $T0 12 - ^ =  $22 $T0 16 - ^ =  $23 $T0 20 - ^ =  $24 $T0 24 - ^ = 
STACK WIN 4 9b230 201 2a 0 8 10 7c 0 1 $T0 .raSearch = $eip $T0 ^ = $esp $T0 4 + =  $20 $T0 128 - ^ =  $22 $T0 132 - ^ =  $23 $T0 136 - ^ =  $24 $T0 140 - ^ = 
STACK WIN 4 9b440 464 32 0 0 10 58 0 1 $T1 .raSearch = $T0  $T1 4 - 8 @ = $ebp $T1 4 - ^ = $eip $T1 ^ = $esp $T1 4 + = $20 $T0 92 - ^ =  $23 $T0 100 - ^ =  $24 $T0 104 - ^ = 
STACK WIN 4 9b8b0 171 8 0 0 10 4 0 1 $T0 .raSearch = $eip $T0 ^ = $esp $T0 4 + =  $20 $T0 8 - ^ =  $22 $T0 12 - ^ =  $23 $T0 16 - ^ =  $24 $T0 20 - ^ = 
STACK WIN 4 9ba30 84 3 0 0 0 0 0 1 $T0 .raSearch = $eip $T0 ^ = $esp $T0 4 + = 
STACK WIN 4 9ba31 82 2 0 0 4 0 0 1 $T0 .raSearch = $eip $T0 ^ = $esp $T0 4 + =  $20 $T0 4 - ^ = 
STACK WIN 4 9ba34 77 0 0 0 8 0 0 1 $T0 .raSearch = $eip $T0 ^ = $esp $T0 4 + =  $20 $T0 4 - ^ =  $23 $T0 8 - ^ = 
STACK WIN 4 9ba3c 6e 0 0 0 c 0 0 1 $T0 .raSearch = $eip $T0 ^ = $esp $T0 4 + =  $20 $T0 4 - ^ =  $23 $T0 8 - ^ =  $24 $T0 12 - ^ = 
STACK WIN 4 9bac0 249 f 0 0 10 3c 0 1 $T0 .raSearch = $eip $T0 ^ = $esp $T0 4 + =  $20 $T0 64 - ^ =  $22 $T0 68 - ^ =  $23 $T0 72 - ^ =  $24 $T0 76 - ^ = 
STACK WIN 4 9bd10 101 22 0 8 8 c 0 1 $T0 .raSearch = $eip $T0 ^ = $esp $T0 4 + =  $23 $T0 16 - ^ =  $24 $T0 20 - ^ = 
STACK WIN 4 9be20 344 1a 0 8 c 2c 0 1 $T1 .raSearch = $T0  $T1 4 - 8 @ = $ebp $T1 4 - ^ = $eip $T1 ^ = $esp $T1 4 + = $20 $T0 48 - ^ =  $23 $T0 52 - ^ =  $24 $T0 56 - ^ = 
STACK WIN 4 9c170 a4 e 0 0 8 0 0 1 $T1 .raSearch = $T0  $T1 4 - 8 @ = $ebp $T1 4 - ^ = $eip $T1 ^ = $esp $T1 4 + = $23 $T0 4 - ^ =  $24 $T0 8 - ^ = 
STACK WIN 4 9c220 9b f 0 0 10 8 0 1 $T1 .raSearch = $T0  $T1 4 - 8 @ = $ebp $T1 4 - ^ = $eip $T1 ^ = $esp $T1 4 + = $20 $T0 12 - ^ =  $23 $T0 20 - ^ =  $24 $T0 24 - ^ = 
STACK WIN 4 9c2c0 35 0 0 4 0 0 0 1 $T0 .raSearch = $eip $T0 ^ = $esp $T0 4 + = 
STACK WIN 4 9c300 b0 e 0 0 10 0 0 1 $T1 .raSearch = $T0  $T1 4 - 8 @ = $ebp $T1 4 - ^ = $eip $T1 ^ = $esp $T1 4 + = $20 $T0 4 - ^ =  $23 $T0 12 - ^ =  $24 $T0 16 - ^ = 
STACK WIN 4 9c3b0 53 9 0 8 0 0 0 1 $T0 .raSearch = $eip $T0 ^ = $esp $T0 4 + = 
STACK WIN 4 9c3b1 51 8 0 8 4 0 0 1 $T0 .raSearch = $eip $T0 ^ = $esp $T0 4 + =  $20 $T0 4 - ^ = 
STACK WIN 4 9c3b2 4f 7 0 8 8 0 0 1 $T0 .raSearch = $eip $T0 ^ = $esp $T0 4 + =  $20 $T0 4 - ^ =  $23 $T0 8 - ^ = 
STACK WIN 4 9c3b3 4d 6 0 8 c 0 0 1 $T0 .raSearch = $eip $T0 ^ = $esp $T0 4 + =  $20 $T0 4 - ^ =  $23 $T0 8 - ^ =  $24 $T0 12 - ^ = 
STACK WIN 4 9c410 5a 5 0 4 0 0 0 1 $T0 .raSearch = $eip $T0 ^ = $esp $T0 4 + = 
STACK WIN 4 9c412 56 3 0 4 4 4 0 1 $T0 .raSearch = $eip $T0 ^ = $esp $T0 4 + =  $20 $T0 8 - ^ = 
STACK WIN 4 9c413 54 2 0 4 8 4 0 1 $T0 .raSearch = $eip $T0 ^ = $esp $T0 4 + =  $20 $T0 8 - ^ =  $23 $T0 12 - ^ = 
STACK WIN 4 9c41e 48 0 0 4 c 4 0 1 $T0 .raSearch = $eip $T0 ^ = $esp $T0 4 + =  $20 $T0 8 - ^ =  $23 $T0 12 - ^ =  $24 $T0 16 - ^ = 
STACK WIN 4 9c470 17 0 0 c 0 0 0 1 $T0 .raSearch = $eip $T0 ^ = $esp $T0 4 + = 
STACK WIN 4 9c490 14 0 0 c 0 0 0 1 $T0 .raSearch = $eip $T0 ^ = $esp $T0 4 + = 
STACK WIN 4 9c4b0 75 6 0 0 0 0 0 1 $T0 .raSearch = $eip $T0 ^ = $esp $T0 4 + = 
STACK WIN 4 9c4b4 6d 2 0 0 4 8 0 1 $T0 .raSearch = $eip $T0 ^ = $esp $T0 4 + =  $23 $T0 12 - ^ = 
STACK WIN 4 9c4bf 55 0 0 0 8 8 0 1 $T0 .raSearch = $eip $T0 ^ = $esp $T0 4 + =  $23 $T0 12 - ^ =  $24 $T0 16 - ^ = 
STACK WIN 4 9c530 79 d 0 4 0 0 0 1 $T0 .raSearch = $eip $T0 ^ = $esp $T0 4 + = 
STACK WIN 4 9c534 71 9 0 4 4 8 0 1 $T0 .raSearch = $eip $T0 ^ = $esp $T0 4 + =  $22 $T0 12 - ^ = 
STACK WIN 4 9c535 6f 8 0 4 8 8 0 1 $T0 .raSearch = $eip $T0 ^ = $esp $T0 4 + =  $22 $T0 12 - ^ =  $23 $T0 16 - ^ = 
STACK WIN 4 9c542 61 0 0 4 c 8 0 1 $T0 .raSearch = $eip $T0 ^ = $esp $T0 4 + =  $22 $T0 12 - ^ =  $23 $T0 16 - ^ =  $20 $T0 20 - ^ = 
STACK WIN 4 9c547 59 0 0 4 10 8 0 1 $T0 .raSearch = $eip $T0 ^ = $esp $T0 4 + =  $22 $T0 12 - ^ =  $23 $T0 16 - ^ =  $20 $T0 20 - ^ =  $24 $T0 24 - ^ = 
STACK WIN 4 9c5b0 df 8 0 0 0 0 0 1 $T0 .raSearch = $eip $T0 ^ = $esp $T0 4 + = 
STACK WIN 4 9c5b4 d7 4 0 0 4 8 0 1 $T0 .raSearch = $eip $T0 ^ = $esp $T0 4 + =  $20 $T0 12 - ^ = 
STACK WIN 4 9c5b5 d0 3 0 0 8 8 0 1 $T0 .raSearch = $eip $T0 ^ = $esp $T0 4 + =  $20 $T0 12 - ^ =  $23 $T0 16 - ^ = 
STACK WIN 4 9c5b6 ce 2 0 0 c 8 0 1 $T0 .raSearch = $eip $T0 ^ = $esp $T0 4 + =  $20 $T0 12 - ^ =  $23 $T0 16 - ^ =  $24 $T0 20 - ^ = 
STACK WIN 4 9c634 46 0 0 0 10 8 0 1 $T0 .raSearch = $eip $T0 ^ = $esp $T0 4 + =  $20 $T0 12 - ^ =  $23 $T0 16 - ^ =  $24 $T0 20 - ^ =  $22 $T0 24 - ^ = 
STACK WIN 4 9c690 1ec 38 0 14 10 48 0 1 $T0 .raSearch = $eip $T0 ^ = $esp $T0 4 + =  $20 $T0 76 - ^ =  $22 $T0 80 - ^ =  $23 $T0 84 - ^ =  $24 $T0 88 - ^ = 
STACK WIN 4 9c880 75 12 0 c c 0 0 1 $T0 .raSearch = $eip $T0 ^ = $esp $T0 4 + =  $20 $T0 4 - ^ =  $23 $T0 8 - ^ =  $24 $T0 12 - ^ = 
STACK WIN 4 9c900 205 3c 0 18 8 48 0 1 $T1 .raSearch = $T0  $T1 4 - 16 @ = $ebp $T1 4 - ^ = $eip $T1 ^ = $esp $T1 4 + = $23 $T0 76 - ^ =  $24 $T0 80 - ^ = 
STACK WIN 4 9cb10 a4 1a 0 4 c c 0 1 $T1 .raSearch = $T0  $T1 4 - 8 @ = $ebp $T1 4 - ^ = $eip $T1 ^ = $esp $T1 4 + = $20 $T0 16 - ^ =  $23 $T0 20 - ^ =  $24 $T0 24 - ^ = 
STACK WIN 4 9cbc0 1f2 1c 0 14 10 20 0 1 $T0 .raSearch = $eip $T0 ^ = $esp $T0 4 + =  $20 $T0 36 - ^ =  $22 $T0 40 - ^ =  $23 $T0 44 - ^ =  $24 $T0 48 - ^ = 
STACK WIN 4 9cdc0 4d3 34 0 1c c 4c 0 1 $T1 .raSearch = $T0  $T1 4 - 8 @ = $ebp $T1 4 - ^ = $eip $T1 ^ = $esp $T1 4 + = $20 $T0 80 - ^ =  $23 $T0 84 - ^ =  $24 $T0 88 - ^ = 
STACK WIN 4 9d2a0 166 7 0 0 0 0 0 1 $T0 .raSearch = $eip $T0 ^ = $esp $T0 4 + = 
STACK WIN 4 9d2a4 15e 3 0 0 4 c 0 1 $T0 .raSearch = $eip $T0 ^ = $esp $T0 4 + =  $20 $T0 16 - ^ = 
STACK WIN 4 9d2a5 15c 2 0 0 8 c 0 1 $T0 .raSearch = $eip $T0 ^ = $esp $T0 4 + =  $20 $T0 16 - ^ =  $22 $T0 20 - ^ = 
STACK WIN 4 9d2a8 158 0 0 0 c c 0 1 $T0 .raSearch = $eip $T0 ^ = $esp $T0 4 + =  $20 $T0 16 - ^ =  $22 $T0 20 - ^ =  $23 $T0 24 - ^ = 
STACK WIN 4 9d2ab 154 0 0 0 10 c 0 1 $T0 .raSearch = $eip $T0 ^ = $esp $T0 4 + =  $20 $T0 16 - ^ =  $22 $T0 20 - ^ =  $23 $T0 24 - ^ =  $24 $T0 28 - ^ = 
STACK WIN 4 9d410 45 3 0 0 0 0 0 1 $T0 .raSearch = $eip $T0 ^ = $esp $T0 4 + = 
STACK WIN 4 9d411 3f 2 0 0 4 0 0 1 $T0 .raSearch = $eip $T0 ^ = $esp $T0 4 + =  $23 $T0 4 - ^ = 
STACK WIN 4 9d414 39 0 0 0 8 0 0 1 $T0 .raSearch = $eip $T0 ^ = $esp $T0 4 + =  $23 $T0 4 - ^ =  $24 $T0 8 - ^ = 
STACK WIN 4 9d460 25 0 0 c 0 0 0 1 $T0 .raSearch = $eip $T0 ^ = $esp $T0 4 + = 
STACK WIN 4 9d490 a2 b 0 c 10 4 0 1 $T0 .raSearch = $eip $T0 ^ = $esp $T0 4 + =  $20 $T0 8 - ^ =  $22 $T0 12 - ^ =  $23 $T0 16 - ^ =  $24 $T0 20 - ^ = 
STACK WIN 4 9d540 14 0 0 c 0 0 0 1 $T0 .raSearch = $eip $T0 ^ = $esp $T0 4 + = 
STACK WIN 4 9d560 2b5 1c 0 0 10 28 0 1 $T1 .raSearch = $T0  $T1 4 - 8 @ = $ebp $T1 4 - ^ = $eip $T1 ^ = $esp $T1 4 + = $20 $T0 44 - ^ =  $23 $T0 52 - ^ =  $24 $T0 56 - ^ = 
STACK WIN 4 9d820 641 32 0 8 10 6c 0 1 $T0 .raSearch = $eip $T0 ^ = $esp $T0 4 + =  $20 $T0 112 - ^ =  $22 $T0 116 - ^ =  $23 $T0 120 - ^ =  $24 $T0 124 - ^ = 
STACK WIN 4 9de70 3c5 1a 0 4 8 48 0 1 $T1 .raSearch = $T0  $T1 4 - 16 @ = $ebp $T1 4 - ^ = $eip $T1 ^ = $esp $T1 4 + = $23 $T0 76 - ^ =  $24 $T0 80 - ^ = 
STACK WIN 4 9e240 33a 47 0 14 10 d8 0 1 $T0 .raSearch = $eip $T0 ^ = $esp $T0 4 + =  $20 $T0 220 - ^ =  $22 $T0 224 - ^ =  $23 $T0 228 - ^ =  $24 $T0 232 - ^ = 
STACK WIN 4 9e580 a0 f 0 c 10 8 0 1 $T0 .raSearch = $eip $T0 ^ = $esp $T0 4 + =  $20 $T0 12 - ^ =  $22 $T0 16 - ^ =  $23 $T0 20 - ^ =  $24 $T0 24 - ^ = 
STACK WIN 4 9e620 617 32 0 0 8 c8 0 1 $T1 .raSearch = $T0  $T1 4 - 16 @ = $ebp $T1 4 - ^ = $eip $T1 ^ = $esp $T1 4 + = $23 $T0 204 - ^ =  $24 $T0 208 - ^ = 
STACK WIN 4 9ec40 76 9 0 4 0 0 0 1 $T0 .raSearch = $eip $T0 ^ = $esp $T0 4 + = 
STACK WIN 4 9ec47 6e 2 0 4 4 0 0 1 $T0 .raSearch = $eip $T0 ^ = $esp $T0 4 + =  $23 $T0 4 - ^ = 
STACK WIN 4 9ec56 5e 0 0 4 8 0 0 1 $T0 .raSearch = $eip $T0 ^ = $esp $T0 4 + =  $23 $T0 4 - ^ =  $24 $T0 8 - ^ = 
STACK WIN 4 9ecc0 1e 1 0 4 0 0 0 1 $T0 .raSearch = $eip $T0 ^ = $esp $T0 4 + = 
STACK WIN 4 9ecc1 1c 0 0 4 4 0 0 1 $T0 .raSearch = $eip $T0 ^ = $esp $T0 4 + =  $23 $T0 4 - ^ = 
STACK WIN 4 9ece0 23a 1a 0 8 c 14 0 1 $T1 .raSearch = $T0  $T1 4 - 8 @ = $ebp $T1 4 - ^ = $eip $T1 ^ = $esp $T1 4 + = $20 $T0 24 - ^ =  $23 $T0 28 - ^ =  $24 $T0 32 - ^ = 
STACK WIN 4 9ef20 1eb c 0 c c c 0 1 $T1 .raSearch = $T0  $T1 4 - 8 @ = $ebp $T1 4 - ^ = $eip $T1 ^ = $esp $T1 4 + = $20 $T0 16 - ^ =  $23 $T0 20 - ^ =  $24 $T0 24 - ^ = 
STACK WIN 4 9f110 88 8 0 10 4 4 0 1 $T1 .raSearch = $T0  $T1 4 - 8 @ = $ebp $T1 4 - ^ = $eip $T1 ^ = $esp $T1 4 + = $23 $T0 8 - ^ = 
STACK WIN 4 9f1a0 382 f 0 18 c 1c 0 1 $T1 .raSearch = $T0  $T1 4 - 8 @ = $ebp $T1 4 - ^ = $eip $T1 ^ = $esp $T1 4 + = $20 $T0 32 - ^ =  $23 $T0 36 - ^ =  $24 $T0 40 - ^ = 
STACK WIN 4 9f530 88 3 0 0 0 0 0 1 $T0 .raSearch = $eip $T0 ^ = $esp $T0 4 + = 
STACK WIN 4 9f531 86 2 0 0 4 0 0 1 $T0 .raSearch = $eip $T0 ^ = $esp $T0 4 + =  $24 $T0 4 - ^ = 
STACK WIN 4 9f55f 4f 0 0 0 8 0 0 1 $T0 .raSearch = $eip $T0 ^ = $esp $T0 4 + =  $24 $T0 4 - ^ =  $20 $T0 8 - ^ = 
STACK WIN 4 9f567 44 0 0 0 c 0 0 1 $T0 .raSearch = $eip $T0 ^ = $esp $T0 4 + =  $24 $T0 4 - ^ =  $20 $T0 8 - ^ =  $22 $T0 12 - ^ = 
STACK WIN 4 9f56d 3b 0 0 0 10 0 0 1 $T0 .raSearch = $eip $T0 ^ = $esp $T0 4 + =  $24 $T0 4 - ^ =  $20 $T0 8 - ^ =  $22 $T0 12 - ^ =  $23 $T0 16 - ^ = 
STACK WIN 4 9f5c0 2d9 2d 0 0 0 0 0 1 $T0 .raSearch = $eip $T0 ^ = $esp $T0 4 + = 
STACK WIN 4 9f5fd 28e 0 0 0 4 13c 0 1 $T0 .raSearch = $eip $T0 ^ = $esp $T0 4 + =  $20 $T0 320 - ^ = 
STACK WIN 4 9f60f 27b 0 0 0 8 13c 0 1 $T0 .raSearch = $eip $T0 ^ = $esp $T0 4 + =  $20 $T0 320 - ^ =  $22 $T0 324 - ^ = 
STACK WIN 4 9f638 251 0 0 0 c 13c 0 1 $T0 .raSearch = $eip $T0 ^ = $esp $T0 4 + =  $20 $T0 320 - ^ =  $22 $T0 324 - ^ =  $23 $T0 328 - ^ = 
STACK WIN 4 9f655 233 0 0 0 10 13c 0 1 $T0 .raSearch = $eip $T0 ^ = $esp $T0 4 + =  $20 $T0 320 - ^ =  $22 $T0 324 - ^ =  $23 $T0 328 - ^ =  $24 $T0 332 - ^ = 
STACK WIN 4 9f8a0 c9 4 0 0 0 0 0 1 $T0 .raSearch = $eip $T0 ^ = $esp $T0 4 + = 
STACK WIN 4 9f8a2 c5 2 0 0 4 4 0 1 $T0 .raSearch = $eip $T0 ^ = $esp $T0 4 + =  $23 $T0 8 - ^ = 
STACK WIN 4 9f8cf 7a 0 0 0 8 4 0 1 $T0 .raSearch = $eip $T0 ^ = $esp $T0 4 + =  $23 $T0 8 - ^ =  $20 $T0 12 - ^ = 
STACK WIN 4 9f8d0 78 0 0 0 c 4 0 1 $T0 .raSearch = $eip $T0 ^ = $esp $T0 4 + =  $23 $T0 8 - ^ =  $20 $T0 12 - ^ =  $22 $T0 16 - ^ = 
STACK WIN 4 9f8d1 76 0 0 0 10 4 0 1 $T0 .raSearch = $eip $T0 ^ = $esp $T0 4 + =  $23 $T0 8 - ^ =  $20 $T0 12 - ^ =  $22 $T0 16 - ^ =  $24 $T0 20 - ^ = 
STACK WIN 4 9f970 7d 6 0 0 0 0 0 1 $T0 .raSearch = $eip $T0 ^ = $esp $T0 4 + = 
STACK WIN 4 9f974 78 2 0 0 4 0 0 1 $T0 .raSearch = $eip $T0 ^ = $esp $T0 4 + =  $23 $T0 4 - ^ = 
STACK WIN 4 9f976 75 0 0 0 8 0 0 1 $T0 .raSearch = $eip $T0 ^ = $esp $T0 4 + =  $23 $T0 4 - ^ =  $24 $T0 8 - ^ = 
STACK WIN 4 9f9f0 48 6 0 0 8 0 0 1 $T0 .raSearch = $eip $T0 ^ = $esp $T0 4 + =  $20 $T0 4 - ^ =  $23 $T0 8 - ^ = 
STACK WIN 4 9fa40 75 a 0 0 c 4 0 1 $T1 .raSearch = $T0  $T1 4 - 8 @ = $ebp $T1 4 - ^ = $eip $T1 ^ = $esp $T1 4 + = $20 $T0 8 - ^ =  $23 $T0 12 - ^ =  $24 $T0 16 - ^ = 
STACK WIN 4 9fac0 232 17 0 c c 14 0 1 $T1 .raSearch = $T0  $T1 4 - 8 @ = $ebp $T1 4 - ^ = $eip $T1 ^ = $esp $T1 4 + = $20 $T0 24 - ^ =  $23 $T0 28 - ^ =  $24 $T0 32 - ^ = 
STACK WIN 4 9fd00 df b 0 8 10 4 0 1 $T0 .raSearch = $eip $T0 ^ = $esp $T0 4 + =  $20 $T0 8 - ^ =  $22 $T0 12 - ^ =  $23 $T0 16 - ^ =  $24 $T0 20 - ^ = 
STACK WIN 4 9fde0 62 8 0 4 0 0 0 1 $T0 .raSearch = $eip $T0 ^ = $esp $T0 4 + = 
STACK WIN 4 9fde1 60 7 0 4 4 0 0 1 $T0 .raSearch = $eip $T0 ^ = $esp $T0 4 + =  $20 $T0 4 - ^ = 
STACK WIN 4 9fde6 5a 2 0 4 8 0 0 1 $T0 .raSearch = $eip $T0 ^ = $esp $T0 4 + =  $20 $T0 4 - ^ =  $22 $T0 8 - ^ = 
STACK WIN 4 9fdf0 45 0 0 4 c 0 0 1 $T0 .raSearch = $eip $T0 ^ = $esp $T0 4 + =  $20 $T0 4 - ^ =  $22 $T0 8 - ^ =  $23 $T0 12 - ^ = 
STACK WIN 4 9fe50 c2 6 0 0 c 0 0 1 $T0 .raSearch = $eip $T0 ^ = $esp $T0 4 + =  $20 $T0 4 - ^ =  $23 $T0 8 - ^ =  $24 $T0 12 - ^ = 
STACK WIN 4 9ff20 6b e 0 0 c 4 0 1 $T1 .raSearch = $T0  $T1 4 - 8 @ = $ebp $T1 4 - ^ = $eip $T1 ^ = $esp $T1 4 + = $20 $T0 8 - ^ =  $23 $T0 12 - ^ =  $24 $T0 16 - ^ = 
STACK WIN 4 9ff90 78 4 0 8 0 0 0 1 $T0 .raSearch = $eip $T0 ^ = $esp $T0 4 + = 
STACK WIN 4 9ff91 76 3 0 8 4 0 0 1 $T0 .raSearch = $eip $T0 ^ = $esp $T0 4 + =  $20 $T0 4 - ^ = 
STACK WIN 4 9ff92 74 2 0 8 8 0 0 1 $T0 .raSearch = $eip $T0 ^ = $esp $T0 4 + =  $20 $T0 4 - ^ =  $22 $T0 8 - ^ = 
STACK WIN 4 9ff97 6e 0 0 8 c 0 0 1 $T0 .raSearch = $eip $T0 ^ = $esp $T0 4 + =  $20 $T0 4 - ^ =  $22 $T0 8 - ^ =  $23 $T0 12 - ^ = 
STACK WIN 4 9ff98 6c 0 0 8 10 0 0 1 $T0 .raSearch = $eip $T0 ^ = $esp $T0 4 + =  $20 $T0 4 - ^ =  $22 $T0 8 - ^ =  $23 $T0 12 - ^ =  $24 $T0 16 - ^ = 
STACK WIN 4 a0010 23 0 0 18 0 0 0 1 $T0 .raSearch = $eip $T0 ^ = $esp $T0 4 + = 
STACK WIN 4 a0040 23 0 0 18 0 0 0 1 $T0 .raSearch = $eip $T0 ^ = $esp $T0 4 + = 
STACK WIN 4 a0070 77 3 0 0 4 0 0 1 $T0 .raSearch = $eip $T0 ^ = $esp $T0 4 + =  $23 $T0 4 - ^ = 
STACK WIN 4 a00f0 c 0 0 4 0 0 0 1 $T0 .raSearch = $eip $T0 ^ = $esp $T0 4 + = 
STACK WIN 4 a0100 57 2 0 4 0 0 0 1 $T0 .raSearch = $eip $T0 ^ = $esp $T0 4 + = 
STACK WIN 4 a0101 55 1 0 4 4 0 0 1 $T0 .raSearch = $eip $T0 ^ = $esp $T0 4 + =  $20 $T0 4 - ^ = 
STACK WIN 4 a0102 53 0 0 4 8 0 0 1 $T0 .raSearch = $eip $T0 ^ = $esp $T0 4 + =  $20 $T0 4 - ^ =  $23 $T0 8 - ^ = 
STACK WIN 4 a012c 28 0 0 4 c 0 0 1 $T0 .raSearch = $eip $T0 ^ = $esp $T0 4 + =  $20 $T0 4 - ^ =  $23 $T0 8 - ^ =  $24 $T0 12 - ^ = 
STACK WIN 4 a0160 69 8 0 8 4 4 0 1 $T1 .raSearch = $T0  $T1 4 - 8 @ = $ebp $T1 4 - ^ = $eip $T1 ^ = $esp $T1 4 + = $23 $T0 8 - ^ = 
STACK WIN 4 a01d0 112 3 0 0 0 0 0 1 $T0 .raSearch = $eip $T0 ^ = $esp $T0 4 + = 
STACK WIN 4 a01d1 110 2 0 0 4 0 0 1 $T0 .raSearch = $eip $T0 ^ = $esp $T0 4 + =  $24 $T0 4 - ^ = 
STACK WIN 4 a01e4 fc 0 0 0 8 0 0 1 $T0 .raSearch = $eip $T0 ^ = $esp $T0 4 + =  $24 $T0 4 - ^ =  $20 $T0 8 - ^ = 
STACK WIN 4 a01e7 f1 0 0 0 c 0 0 1 $T0 .raSearch = $eip $T0 ^ = $esp $T0 4 + =  $24 $T0 4 - ^ =  $20 $T0 8 - ^ =  $23 $T0 12 - ^ = 
STACK WIN 4 a01f1 83 0 0 0 10 0 0 1 $T0 .raSearch = $eip $T0 ^ = $esp $T0 4 + =  $24 $T0 4 - ^ =  $20 $T0 8 - ^ =  $23 $T0 12 - ^ =  $22 $T0 16 - ^ = 
STACK WIN 4 a02f0 f9 f 0 4 c 4 0 1 $T1 .raSearch = $T0  $T1 4 - 8 @ = $ebp $T1 4 - ^ = $eip $T1 ^ = $esp $T1 4 + = $20 $T0 8 - ^ =  $23 $T0 12 - ^ =  $24 $T0 16 - ^ = 
STACK WIN 4 a03f0 9 0 0 4 0 0 0 1 $T0 .raSearch = $eip $T0 ^ = $esp $T0 4 + = 
STACK WIN 4 a0400 18f 3f 0 10 10 74 0 1 $T0 .raSearch = $eip $T0 ^ = $esp $T0 4 + =  $20 $T0 120 - ^ =  $22 $T0 124 - ^ =  $23 $T0 128 - ^ =  $24 $T0 132 - ^ = 
STACK WIN 4 a0590 d5 8 0 8 10 c 0 1 $T0 .raSearch = $eip $T0 ^ = $esp $T0 4 + =  $20 $T0 16 - ^ =  $22 $T0 20 - ^ =  $23 $T0 24 - ^ =  $24 $T0 28 - ^ = 
STACK WIN 4 a0670 e8 7 0 8 c 0 0 1 $T0 .raSearch = $eip $T0 ^ = $esp $T0 4 + =  $20 $T0 4 - ^ =  $23 $T0 8 - ^ =  $24 $T0 12 - ^ = 
STACK WIN 4 a0760 52 4 0 c 0 0 0 1 $T0 .raSearch = $eip $T0 ^ = $esp $T0 4 + = 
STACK WIN 4 a0761 50 3 0 c 4 0 0 1 $T0 .raSearch = $eip $T0 ^ = $esp $T0 4 + =  $20 $T0 4 - ^ = 
STACK WIN 4 a0762 4e 2 0 c 8 0 0 1 $T0 .raSearch = $eip $T0 ^ = $esp $T0 4 + =  $20 $T0 4 - ^ =  $22 $T0 8 - ^ = 
STACK WIN 4 a0768 47 0 0 c c 0 0 1 $T0 .raSearch = $eip $T0 ^ = $esp $T0 4 + =  $20 $T0 4 - ^ =  $22 $T0 8 - ^ =  $23 $T0 12 - ^ = 
STACK WIN 4 a0769 41 0 0 c 10 0 0 1 $T0 .raSearch = $eip $T0 ^ = $esp $T0 4 + =  $20 $T0 4 - ^ =  $22 $T0 8 - ^ =  $23 $T0 12 - ^ =  $24 $T0 16 - ^ = 
STACK WIN 4 a07c0 28 0 0 4 0 0 0 1 $T0 .raSearch = $eip $T0 ^ = $esp $T0 4 + = 
STACK WIN 4 a07f0 17 0 0 0 0 0 0 1 $T0 .raSearch = $eip $T0 ^ = $esp $T0 4 + = 
STACK WIN 4 a0810 164 d 0 0 c 14 0 1 $T1 .raSearch = $T0  $T1 4 - 8 @ = $ebp $T1 4 - ^ = $eip $T1 ^ = $esp $T1 4 + = $20 $T0 24 - ^ =  $23 $T0 28 - ^ =  $24 $T0 32 - ^ = 
STACK WIN 4 a0980 e2 7 0 0 c 10 0 1 $T0 .raSearch = $eip $T0 ^ = $esp $T0 4 + =  $20 $T0 20 - ^ =  $23 $T0 24 - ^ =  $24 $T0 28 - ^ = 
STACK WIN 4 a0a70 244 8 0 0 10 c 0 1 $T0 .raSearch = $eip $T0 ^ = $esp $T0 4 + =  $20 $T0 16 - ^ =  $22 $T0 20 - ^ =  $23 $T0 24 - ^ =  $24 $T0 28 - ^ = 
STACK WIN 4 a0cc0 27f 2b 0 0 10 40 0 1 $T1 .raSearch = $T0  $T1 4 - 8 @ = $ebp $T1 4 - ^ = $eip $T1 ^ = $esp $T1 4 + = $20 $T0 68 - ^ =  $23 $T0 76 - ^ =  $24 $T0 80 - ^ = 
STACK WIN 4 a0f40 12 0 0 4 0 0 0 1 $T0 .raSearch = $eip $T0 ^ = $esp $T0 4 + = 
STACK WIN 4 a0f60 aa f 0 8 c c 0 1 $T1 .raSearch = $T0  $T1 4 - 8 @ = $ebp $T1 4 - ^ = $eip $T1 ^ = $esp $T1 4 + = $20 $T0 16 - ^ =  $23 $T0 20 - ^ =  $24 $T0 24 - ^ = 
STACK WIN 4 a1010 135 f 0 c c 34 0 1 $T1 .raSearch = $T0  $T1 4 - 64 @ = $ebp $T1 4 - ^ = $eip $T1 ^ = $esp $T1 4 + = $20 $T0 56 - ^ =  $23 $T0 60 - ^ =  $24 $T0 64 - ^ = 
STACK WIN 4 a1150 cc 13 0 c c 4 0 1 $T1 .raSearch = $T0  $T1 4 - 8 @ = $ebp $T1 4 - ^ = $eip $T1 ^ = $esp $T1 4 + = $20 $T0 8 - ^ =  $23 $T0 12 - ^ =  $24 $T0 16 - ^ = 
STACK WIN 4 a1220 136 f 0 0 10 8 0 1 $T1 .raSearch = $T0  $T1 4 - 8 @ = $ebp $T1 4 - ^ = $eip $T1 ^ = $esp $T1 4 + = $20 $T0 12 - ^ =  $23 $T0 20 - ^ =  $24 $T0 24 - ^ = 
STACK WIN 4 a1360 2ec 11 0 14 c 1c 0 1 $T1 .raSearch = $T0  $T1 4 - 8 @ = $ebp $T1 4 - ^ = $eip $T1 ^ = $esp $T1 4 + = $20 $T0 32 - ^ =  $23 $T0 36 - ^ =  $24 $T0 40 - ^ = 
STACK WIN 4 a1650 22b 1e 0 8 c 3c 0 1 $T1 .raSearch = $T0  $T1 4 - 8 @ = $ebp $T1 4 - ^ = $eip $T1 ^ = $esp $T1 4 + = $20 $T0 64 - ^ =  $23 $T0 68 - ^ =  $24 $T0 72 - ^ = 
STACK WIN 4 a1880 b0 7 0 4 0 0 0 1 $T0 .raSearch = $eip $T0 ^ = $esp $T0 4 + = 
STACK WIN 4 a1882 ac 5 0 4 4 4 0 1 $T0 .raSearch = $eip $T0 ^ = $esp $T0 4 + =  $20 $T0 8 - ^ = 
STACK WIN 4 a1883 aa 4 0 4 8 4 0 1 $T0 .raSearch = $eip $T0 ^ = $esp $T0 4 + =  $20 $T0 8 - ^ =  $22 $T0 12 - ^ = 
STACK WIN 4 a1884 a8 3 0 4 c 4 0 1 $T0 .raSearch = $eip $T0 ^ = $esp $T0 4 + =  $20 $T0 8 - ^ =  $22 $T0 12 - ^ =  $23 $T0 16 - ^ = 
STACK WIN 4 a1885 a6 2 0 4 10 4 0 1 $T0 .raSearch = $eip $T0 ^ = $esp $T0 4 + =  $20 $T0 8 - ^ =  $22 $T0 12 - ^ =  $23 $T0 16 - ^ =  $24 $T0 20 - ^ = 
STACK WIN 4 a1930 f7 33 0 4 c 3c 0 1 $T0 .raSearch = $eip $T0 ^ = $esp $T0 4 + =  $20 $T0 64 - ^ =  $23 $T0 68 - ^ =  $24 $T0 72 - ^ = 
STACK WIN 4 a1a30 112 a 0 8 c 0 0 1 $T0 .raSearch = $eip $T0 ^ = $esp $T0 4 + =  $20 $T0 4 - ^ =  $23 $T0 8 - ^ =  $24 $T0 12 - ^ = 
STACK WIN 4 a1b50 205 25 0 8 c 5c 0 1 $T1 .raSearch = $T0  $T1 4 - 8 @ = $ebp $T1 4 - ^ = $eip $T1 ^ = $esp $T1 4 + = $20 $T0 96 - ^ =  $23 $T0 100 - ^ =  $24 $T0 104 - ^ = 
STACK WIN 4 a1d60 148 1f 0 4 10 50 0 1 $T0 .raSearch = $eip $T0 ^ = $esp $T0 4 + =  $20 $T0 84 - ^ =  $22 $T0 88 - ^ =  $23 $T0 92 - ^ =  $24 $T0 96 - ^ = 
STACK WIN 4 a1eb0 d8 12 0 14 c 4 0 1 $T1 .raSearch = $T0  $T1 4 - 8 @ = $ebp $T1 4 - ^ = $eip $T1 ^ = $esp $T1 4 + = $20 $T0 8 - ^ =  $23 $T0 12 - ^ =  $24 $T0 16 - ^ = 
STACK WIN 4 a1f90 d8 12 0 14 c 4 0 1 $T1 .raSearch = $T0  $T1 4 - 8 @ = $ebp $T1 4 - ^ = $eip $T1 ^ = $esp $T1 4 + = $20 $T0 8 - ^ =  $23 $T0 12 - ^ =  $24 $T0 16 - ^ = 
STACK WIN 4 a2070 d7 a 0 8 10 c 0 1 $T0 .raSearch = $eip $T0 ^ = $esp $T0 4 + =  $20 $T0 16 - ^ =  $22 $T0 20 - ^ =  $23 $T0 24 - ^ =  $24 $T0 28 - ^ = 
STACK WIN 4 a2150 189 11 0 10 10 14 0 1 $T0 .raSearch = $eip $T0 ^ = $esp $T0 4 + =  $20 $T0 24 - ^ =  $22 $T0 28 - ^ =  $23 $T0 32 - ^ =  $24 $T0 36 - ^ = 
STACK WIN 4 a22e0 64f 50 0 14 8 d8 0 1 $T1 .raSearch = $T0  $T1 4 - 16 @ = $ebp $T1 4 - ^ = $eip $T1 ^ = $esp $T1 4 + = $23 $T0 220 - ^ =  $24 $T0 224 - ^ = 
STACK WIN 4 a2930 95 f 0 c 10 8 0 1 $T0 .raSearch = $eip $T0 ^ = $esp $T0 4 + =  $20 $T0 12 - ^ =  $22 $T0 16 - ^ =  $23 $T0 20 - ^ =  $24 $T0 24 - ^ = 
STACK WIN 4 a29d0 54e 28 0 8 c 8c 0 1 $T1 .raSearch = $T0  $T1 4 - 8 @ = $ebp $T1 4 - ^ = $eip $T1 ^ = $esp $T1 4 + = $20 $T0 144 - ^ =  $23 $T0 148 - ^ =  $24 $T0 152 - ^ = 
STACK WIN 4 a2f20 11a 17 0 0 10 10 0 1 $T1 .raSearch = $T0  $T1 4 - 8 @ = $ebp $T1 4 - ^ = $eip $T1 ^ = $esp $T1 4 + = $20 $T0 20 - ^ =  $23 $T0 28 - ^ =  $24 $T0 32 - ^ = 
STACK WIN 4 a3040 14f 14 0 4 c c 0 1 $T1 .raSearch = $T0  $T1 4 - 8 @ = $ebp $T1 4 - ^ = $eip $T1 ^ = $esp $T1 4 + = $20 $T0 16 - ^ =  $23 $T0 20 - ^ =  $24 $T0 24 - ^ = 
STACK WIN 4 a3190 f4 18 0 0 10 74 0 1 $T0 .raSearch = $eip $T0 ^ = $esp $T0 4 + =  $20 $T0 120 - ^ =  $22 $T0 124 - ^ =  $23 $T0 128 - ^ =  $24 $T0 132 - ^ = 
STACK WIN 4 a3290 80 9 0 8 10 4 0 1 $T0 .raSearch = $eip $T0 ^ = $esp $T0 4 + =  $20 $T0 8 - ^ =  $22 $T0 12 - ^ =  $23 $T0 16 - ^ =  $24 $T0 20 - ^ = 
STACK WIN 4 a3310 509 3e 0 8 8 78 0 1 $T1 .raSearch = $T0  $T1 4 - 16 @ = $ebp $T1 4 - ^ = $eip $T1 ^ = $esp $T1 4 + = $23 $T0 124 - ^ =  $24 $T0 128 - ^ = 
STACK WIN 4 a3820 15c 14 0 8 c c 0 1 $T1 .raSearch = $T0  $T1 4 - 8 @ = $ebp $T1 4 - ^ = $eip $T1 ^ = $esp $T1 4 + = $20 $T0 16 - ^ =  $23 $T0 20 - ^ =  $24 $T0 24 - ^ = 
STACK WIN 4 a3980 115 1a 0 0 c 4c 0 1 $T1 .raSearch = $T0  $T1 4 - 8 @ = $ebp $T1 4 - ^ = $eip $T1 ^ = $esp $T1 4 + = $20 $T0 80 - ^ =  $23 $T0 84 - ^ =  $24 $T0 88 - ^ = 
STACK WIN 4 a3aa0 7b 4 0 0 c 0 0 1 $T0 .raSearch = $eip $T0 ^ = $esp $T0 4 + =  $20 $T0 4 - ^ =  $23 $T0 8 - ^ =  $24 $T0 12 - ^ = 
STACK WIN 4 a3b20 28b 21 0 8 c c 0 1 $T1 .raSearch = $T0  $T1 4 - 8 @ = $ebp $T1 4 - ^ = $eip $T1 ^ = $esp $T1 4 + = $20 $T0 16 - ^ =  $23 $T0 20 - ^ =  $24 $T0 24 - ^ = 
STACK WIN 4 a3db0 d1 6 0 0 10 4 0 1 $T0 .raSearch = $eip $T0 ^ = $esp $T0 4 + =  $20 $T0 8 - ^ =  $22 $T0 12 - ^ =  $23 $T0 16 - ^ =  $24 $T0 20 - ^ = 
STACK WIN 4 a3e90 4b1 43 0 10 c 5c 0 1 $T1 .raSearch = $T0  $T1 4 - 8 @ = $ebp $T1 4 - ^ = $eip $T1 ^ = $esp $T1 4 + = $20 $T0 96 - ^ =  $23 $T0 100 - ^ =  $24 $T0 104 - ^ = 
STACK WIN 4 a4350 53 a 0 8 0 0 0 1 $T0 .raSearch = $eip $T0 ^ = $esp $T0 4 + = 
STACK WIN 4 a4355 4d 5 0 8 4 0 0 1 $T0 .raSearch = $eip $T0 ^ = $esp $T0 4 + =  $23 $T0 4 - ^ = 
STACK WIN 4 a435a 42 0 0 8 8 0 0 1 $T0 .raSearch = $eip $T0 ^ = $esp $T0 4 + =  $23 $T0 4 - ^ =  $24 $T0 8 - ^ = 
STACK WIN 4 a43b0 145 15 0 0 10 14 0 1 $T0 .raSearch = $eip $T0 ^ = $esp $T0 4 + =  $20 $T0 24 - ^ =  $22 $T0 28 - ^ =  $23 $T0 32 - ^ =  $24 $T0 36 - ^ = 
STACK WIN 4 a4500 1a6 25 0 c c 3c 0 1 $T1 .raSearch = $T0  $T1 4 - 8 @ = $ebp $T1 4 - ^ = $eip $T1 ^ = $esp $T1 4 + = $20 $T0 64 - ^ =  $23 $T0 68 - ^ =  $24 $T0 72 - ^ = 
STACK WIN 4 a46b0 5e 1 0 4 0 4 0 1 $T0 .raSearch = $eip $T0 ^ = $esp $T0 4 + = 
STACK WIN 4 a4710 ba d 0 8 0 0 0 1 $T0 .raSearch = $eip $T0 ^ = $esp $T0 4 + = 
STACK WIN 4 a4716 b3 7 0 8 4 0 0 1 $T0 .raSearch = $eip $T0 ^ = $esp $T0 4 + =  $20 $T0 4 - ^ = 
STACK WIN 4 a4717 b1 6 0 8 8 0 0 1 $T0 .raSearch = $eip $T0 ^ = $esp $T0 4 + =  $20 $T0 4 - ^ =  $22 $T0 8 - ^ = 
STACK WIN 4 a4718 af 5 0 8 c 0 0 1 $T0 .raSearch = $eip $T0 ^ = $esp $T0 4 + =  $20 $T0 4 - ^ =  $22 $T0 8 - ^ =  $23 $T0 12 - ^ = 
STACK WIN 4 a4719 ad 4 0 8 10 0 0 1 $T0 .raSearch = $eip $T0 ^ = $esp $T0 4 + =  $20 $T0 4 - ^ =  $22 $T0 8 - ^ =  $23 $T0 12 - ^ =  $24 $T0 16 - ^ = 
STACK WIN 4 a47d0 2d0 22 0 14 c 2c 0 1 $T1 .raSearch = $T0  $T1 4 - 8 @ = $ebp $T1 4 - ^ = $eip $T1 ^ = $esp $T1 4 + = $20 $T0 48 - ^ =  $23 $T0 52 - ^ =  $24 $T0 56 - ^ = 
STACK WIN 4 a4aa0 2ba 25 0 c 8 458 0 1 $T1 .raSearch = $T0  $T1 4 - 16 @ = $ebp $T1 4 - ^ = $eip $T1 ^ = $esp $T1 4 + = $23 $T0 1116 - ^ =  $24 $T0 1120 - ^ = 
STACK WIN 4 a4d60 cd 8 0 c 4 4 0 1 $T1 .raSearch = $T0  $T1 4 - 8 @ = $ebp $T1 4 - ^ = $eip $T1 ^ = $esp $T1 4 + = $23 $T0 8 - ^ = 
STACK WIN 4 a4e30 115 9 0 0 8 0 0 1 $T1 .raSearch = $T0  $T1 4 - 8 @ = $ebp $T1 4 - ^ = $eip $T1 ^ = $esp $T1 4 + = $23 $T0 4 - ^ =  $24 $T0 8 - ^ = 
STACK WIN 4 a4f50 2b 0 0 0 0 0 0 1 $T0 .raSearch = $eip $T0 ^ = $esp $T0 4 + = 
STACK WIN 4 a4f80 4a 3 0 0 4 0 0 1 $T0 .raSearch = $eip $T0 ^ = $esp $T0 4 + =  $23 $T0 4 - ^ = 
STACK WIN 4 a4fd0 c8 b 0 0 10 0 0 1 $T1 .raSearch = $T0  $T1 4 - 8 @ = $ebp $T1 4 - ^ = $eip $T1 ^ = $esp $T1 4 + = $20 $T0 4 - ^ =  $23 $T0 12 - ^ =  $24 $T0 16 - ^ = 
STACK WIN 4 a50a0 4d 4 0 4 c 0 0 1 $T0 .raSearch = $eip $T0 ^ = $esp $T0 4 + =  $20 $T0 4 - ^ =  $23 $T0 8 - ^ =  $24 $T0 12 - ^ = 
STACK WIN 4 a50f0 a6 e 0 c 8 20 0 1 $T1 .raSearch = $T0  $T1 4 - 8 @ = $ebp $T1 4 - ^ = $eip $T1 ^ = $esp $T1 4 + = $23 $T0 36 - ^ =  $24 $T0 40 - ^ = 
STACK WIN 4 a51a0 3a 4 0 0 8 0 0 1 $T0 .raSearch = $eip $T0 ^ = $esp $T0 4 + =  $20 $T0 4 - ^ =  $23 $T0 8 - ^ = 
STACK WIN 4 a51e0 1b3 d 0 4 c c 0 1 $T1 .raSearch = $T0  $T1 4 - 8 @ = $ebp $T1 4 - ^ = $eip $T1 ^ = $esp $T1 4 + = $20 $T0 16 - ^ =  $23 $T0 20 - ^ =  $24 $T0 24 - ^ = 
STACK WIN 4 a53a0 154 7 0 0 c 0 0 1 $T0 .raSearch = $eip $T0 ^ = $esp $T0 4 + =  $20 $T0 4 - ^ =  $23 $T0 8 - ^ =  $24 $T0 12 - ^ = 
STACK WIN 4 a5500 a2 4 0 0 8 4 0 1 $T0 .raSearch = $eip $T0 ^ = $esp $T0 4 + =  $23 $T0 8 - ^ =  $24 $T0 12 - ^ = 
STACK WIN 4 a55b0 3b8 6 0 4 10 8 0 1 $T0 .raSearch = $eip $T0 ^ = $esp $T0 4 + =  $20 $T0 12 - ^ =  $22 $T0 16 - ^ =  $23 $T0 20 - ^ =  $24 $T0 24 - ^ = 
STACK WIN 4 a5970 85 21 0 4 4 8c 0 1 $T0 .raSearch = $eip $T0 ^ = $esp $T0 4 + =  $23 $T0 144 - ^ = 
STACK WIN 4 a5a00 388 7 0 4 10 18 0 1 $T0 .raSearch = $eip $T0 ^ = $esp $T0 4 + =  $20 $T0 28 - ^ =  $22 $T0 32 - ^ =  $23 $T0 36 - ^ =  $24 $T0 40 - ^ = 
STACK WIN 4 a5d90 7f d 0 8 c c 0 1 $T1 .raSearch = $T0  $T1 4 - 8 @ = $ebp $T1 4 - ^ = $eip $T1 ^ = $esp $T1 4 + = $20 $T0 16 - ^ =  $23 $T0 20 - ^ =  $24 $T0 24 - ^ = 
STACK WIN 4 a5e10 4f a 0 8 4 4 0 1 $T1 .raSearch = $T0  $T1 4 - 8 @ = $ebp $T1 4 - ^ = $eip $T1 ^ = $esp $T1 4 + = $23 $T0 8 - ^ = 
STACK WIN 4 a5e60 4b3 d 0 0 10 8 0 1 $T1 .raSearch = $T0  $T1 4 - 8 @ = $ebp $T1 4 - ^ = $eip $T1 ^ = $esp $T1 4 + = $20 $T0 12 - ^ =  $23 $T0 20 - ^ =  $24 $T0 24 - ^ = 
STACK WIN 4 a6320 d3 5 0 4 c 4 0 1 $T0 .raSearch = $eip $T0 ^ = $esp $T0 4 + =  $20 $T0 8 - ^ =  $23 $T0 12 - ^ =  $24 $T0 16 - ^ = 
STACK WIN 4 a6400 af 4 0 4 0 0 0 1 $T0 .raSearch = $eip $T0 ^ = $esp $T0 4 + = 
STACK WIN 4 a6401 ad 3 0 4 4 0 0 1 $T0 .raSearch = $eip $T0 ^ = $esp $T0 4 + =  $20 $T0 4 - ^ = 
STACK WIN 4 a6402 ab 2 0 4 8 0 0 1 $T0 .raSearch = $eip $T0 ^ = $esp $T0 4 + =  $20 $T0 4 - ^ =  $22 $T0 8 - ^ = 
STACK WIN 4 a6407 a5 0 0 4 c 0 0 1 $T0 .raSearch = $eip $T0 ^ = $esp $T0 4 + =  $20 $T0 4 - ^ =  $22 $T0 8 - ^ =  $23 $T0 12 - ^ = 
STACK WIN 4 a6408 a3 0 0 4 10 0 0 1 $T0 .raSearch = $eip $T0 ^ = $esp $T0 4 + =  $20 $T0 4 - ^ =  $22 $T0 8 - ^ =  $23 $T0 12 - ^ =  $24 $T0 16 - ^ = 
STACK WIN 4 a64b0 5d 9 0 0 8 0 0 1 $T1 .raSearch = $T0  $T1 4 - 8 @ = $ebp $T1 4 - ^ = $eip $T1 ^ = $esp $T1 4 + = $23 $T0 4 - ^ =  $24 $T0 8 - ^ = 
STACK WIN 4 a6510 3df f 0 c c 14 0 1 $T1 .raSearch = $T0  $T1 4 - 8 @ = $ebp $T1 4 - ^ = $eip $T1 ^ = $esp $T1 4 + = $20 $T0 24 - ^ =  $23 $T0 28 - ^ =  $24 $T0 32 - ^ = 
STACK WIN 4 a68f0 101 11 0 8 c 4 0 1 $T1 .raSearch = $T0  $T1 4 - 8 @ = $ebp $T1 4 - ^ = $eip $T1 ^ = $esp $T1 4 + = $20 $T0 8 - ^ =  $23 $T0 12 - ^ =  $24 $T0 16 - ^ = 
STACK WIN 4 a6a00 91 e 0 8 4 8 0 1 $T0 .raSearch = $eip $T0 ^ = $esp $T0 4 + =  $23 $T0 12 - ^ = 
