MODULE windows x86 8928C805FD8A484E84535FFDE93D13051 cld.pdb
INFO CODE_ID 5BD84C021D5000 cld.node
FUNC 1000 56 0 NodeCld::Constants::getInstance()
FUNC 1060 b3 0 NodeCld::Constants::getEncodingFromName(char const *)
FUNC 1120 df 0 NodeCld::Constants::initLanguages()
FUNC 1200 189e 0 NodeCld::Constants::initDetected()
FUNC 2aa0 1048 0 NodeCld::Constants::initEncodings()
FUNC 3af0 67 0 std::vector<NodeCld::NodeCldEncoding,std::allocator<NodeCld::NodeCldEncoding> >::insert(std::_Vector_const_iterator<std::_Vector_val<std::_Simple_types<NodeCld::NodeCldEncoding> > >,NodeCld::NodeCldEncoding &&)
FUNC 3b60 61 0 std::vector<NodeCld::NodeCldDetected,std::allocator<NodeCld::NodeCldDetected> >::insert(std::_Vector_const_iterator<std::_Vector_val<std::_Simple_types<NodeCld::NodeCldDetected> > >,NodeCld::NodeCldDetected &&)
FUNC 3bd0 b5 0 std::vector<NodeCld::NodeCldLanguage,std::allocator<NodeCld::NodeCldLanguage> >::emplace<NodeCld::NodeCldLanguage>(std::_Vector_const_iterator<std::_Vector_val<std::_Simple_types<NodeCld::NodeCldLanguage> > >,NodeCld::NodeCldLanguage &&)
FUNC 3c90 5f 0 std::vector<NodeCld::NodeCldEncoding,std::allocator<NodeCld::NodeCldEncoding> >::_Reserve(unsigned int)
FUNC 3cf0 5f 0 std::vector<NodeCld::NodeCldDetected,std::allocator<NodeCld::NodeCldDetected> >::_Reserve(unsigned int)
FUNC 3d50 fc 0 std::vector<NodeCld::NodeCldLanguage,std::allocator<NodeCld::NodeCldLanguage> >::_Reallocate(unsigned int)
FUNC 3e50 113 0 std::vector<NodeCld::NodeCldDetected,std::allocator<NodeCld::NodeCldDetected> >::_Reallocate(unsigned int)
FUNC 3f70 a4 0 std::_Rotate_unchecked1<NodeCld::NodeCldLanguage *>(NodeCld::NodeCldLanguage *,NodeCld::NodeCldLanguage *,NodeCld::NodeCldLanguage *,std::random_access_iterator_tag)
FUNC 4020 79 0 std::_Rotate_unchecked1<NodeCld::NodeCldDetected *>(NodeCld::NodeCldDetected *,NodeCld::NodeCldDetected *,NodeCld::NodeCldDetected *,std::random_access_iterator_tag)
FUNC 40a0 bc 0 Nan::imp::FunctionCallbackWrapper
FUNC 4160 116 0 Nan::imp::Factory<v8::FunctionTemplate>::New(void (*)(Nan::FunctionCallbackInfo<v8::Value> const &),v8::Local<v8::Value>,v8::Local<v8::Signature>)
FUNC 4280 f95 4 NodeCld::Detect(Nan::FunctionCallbackInfo<v8::Value> const &)
FUNC 5220 569 4 init
FUNC 5790 d 0 _register_cld
FUNC 57a0 5a 0 std::_Wrap_alloc<std::allocator<CLD2::ResultChunk> >::deallocate(CLD2::ResultChunk *,unsigned int)
FUNC 5800 78 0 Nan::imp::SetMethodAux<v8::Local<v8::Object> >(v8::Local<v8::Object>,v8::Local<v8::String>,v8::Local<v8::FunctionTemplate>,...)
FUNC 5880 1c 0 CLD2::LanguageCode(CLD2::Language)
FUNC 58a0 c3 0 CLD2::LanguageCloseSet(CLD2::Language)
FUNC 5970 99 0 CLD2::BinarySearch(char const *,int,int,CLD2::CharIntPair const *)
FUNC 5a10 271 0 CLD2::GetLanguageFromName(char const *)
FUNC 5c90 6 0 __local_stdio_printf_options
FUNC 5ca0 28 8 fprintf
FUNC 5cd0 30 0 sprintf
FUNC 5d00 c9 0 CLD2::CountPredictedBytes(char const *,int,int *,int *)
FUNC 5dd0 14f 0 CLD2::CheapRepWordsInplace(char *,int,int *,int *)
FUNC 5f20 1ac 0 CLD2::CheapRepWordsInplaceOverwrite(char *,int,int *,int *)
FUNC 60d0 1f4 0 CLD2::CheapSqueezeInplace(char *,int,int)
FUNC 62d0 24b 0 CLD2::CheapSqueezeInplaceOverwrite(char *,int,int)
FUNC 6520 bf 0 CLD2::CheapSqueezeTriggerTest(char const *,int,int)
FUNC 65e0 2c1 0 CLD2::RemoveUnreliableLanguages(CLD2::DocTote *,bool,bool)
FUNC 68b0 13d 0 CLD2::MoveLang1ToLang2(CLD2::Language,CLD2::Language,int,int,CLD2::DocTote *,std::vector<CLD2::ResultChunk,std::allocator<CLD2::ResultChunk> > *)
FUNC 69f0 155 0 CLD2::RefineScoredClosePairs(CLD2::DocTote *,std::vector<CLD2::ResultChunk,std::allocator<CLD2::ResultChunk> > *,bool,bool)
FUNC 6b50 e5 0 CLD2::PrintLangs(_iobuf *,CLD2::Language const *,int const *,int const *,bool const *)
FUNC 6c40 28d 0 CLD2::ExtractLangEtc(CLD2::DocTote *,int,int *,CLD2::Language *,int *,double *,int *,bool *)
FUNC 6ed0 359 0 CLD2::CalcSummaryLang(CLD2::DocTote *,int,int const *,CLD2::Language const *,int const *,CLD2::Language *,bool *,bool,bool,int)
FUNC 7230 b6 0 CLD2::AddOneWhack(CLD2::Language,CLD2::Language,CLD2::ScoringContext *)
FUNC 72f0 7a 0 CLD2::AddCloseLangWhack(CLD2::Language,CLD2::ScoringContext *)
FUNC 7370 29e 0 CLD2::ApplyHints(char const *,int,bool,CLD2::CLDHints const *,CLD2::ScoringContext *)
FUNC 7610 6a 0 CLD2::FinishResultVector(int,int,std::vector<CLD2::ResultChunk,std::allocator<CLD2::ResultChunk> > *)
FUNC 7680 861 0 CLD2::DetectLanguageSummaryV2(char const *,int,bool,CLD2::CLDHints const *,bool,int,CLD2::Language,CLD2::Language *,int *,double *,std::vector<CLD2::ResultChunk,std::allocator<CLD2::ResultChunk> > *,int *,bool *)
FUNC 7ef0 a0 0 std::vector<CLD2::ResultChunk,std::allocator<CLD2::ResultChunk> >::resize(unsigned int)
FUNC 7f90 68 0 std::basic_string<char,std::char_traits<char>,std::allocator<char> >::~basic_string<char,std::char_traits<char>,std::allocator<char> >()
FUNC 8000 75 0 std::vector<int,std::allocator<int> >::_Tidy()
FUNC 8080 8c 0 std::vector<CLD2::ResultChunk,std::allocator<CLD2::ResultChunk> >::_Reserve(unsigned int)
FUNC 8110 f1 0 std::basic_string<char,std::char_traits<char>,std::allocator<char> >::assign(char const *,unsigned int)
FUNC 8210 104 0 std::basic_string<char,std::char_traits<char>,std::allocator<char> >::assign(std::basic_string<char,std::char_traits<char>,std::allocator<char> > const &,unsigned int,unsigned int)
FUNC 8320 cb 0 std::vector<CLD2::ResultChunk,std::allocator<CLD2::ResultChunk> >::_Reallocate(unsigned int)
FUNC 83f0 47 0 std::basic_string<char,std::char_traits<char>,std::allocator<char> >::_Grow(unsigned int,bool)
FUNC 8440 95 0 std::basic_string<char,std::char_traits<char>,std::allocator<char> >::erase(unsigned int,unsigned int)
FUNC 84e0 125 0 std::basic_string<char,std::char_traits<char>,std::allocator<char> >::_Copy(unsigned int,unsigned int)
FUNC 8610 99 0 CLD2::MergeCLDLangPriorsMax(short,CLD2::CLDLangPriors *)
FUNC 86b0 78 0 CLD2::MergeCLDLangPriorsBoost(short,CLD2::CLDLangPriors *)
FUNC 8730 89 0 CLD2::TrimCLDLangPriors(int,CLD2::CLDLangPriors *)
FUNC 87c0 38 0 CLD2::CountCommas(std::basic_string<char,std::char_traits<char>,std::allocator<char> > const &)
FUNC 8800 86 0 CLD2::DoLangTagLookup(char const *,CLD2::LangTagLookup const *,int)
FUNC 8890 69 0 CLD2::DoTLDLookup(char const *,CLD2::TLDLookup const *,int)
FUNC 8900 6b 0 CLD2::FindEqualSign(char const *,int,int)
FUNC 8970 165 0 CLD2::CopyOneQuotedString(char const *,int,int)
FUNC 8ae0 c2 0 CLD2::CopyQuotedString(char const *,int,int)
FUNC 8bb0 139 0 CLD2::SetCLDLangTagsHint(std::basic_string<char,std::char_traits<char>,std::allocator<char> > const &,CLD2::CLDLangPriors *)
FUNC 8cf0 5d 0 CLD2::SetCLDContentLangHint(char const *,CLD2::CLDLangPriors *)
FUNC 8d50 bf 0 CLD2::SetCLDTLDHint(char const *,CLD2::CLDLangPriors *)
FUNC 8e10 89 0 CLD2::SetCLDEncodingHint(CLD2::Encoding,CLD2::CLDLangPriors *)
FUNC 8ea0 b4 0 CLD2::DumpCLDLangPriors(CLD2::CLDLangPriors const *)
FUNC 8f60 749 0 CLD2::GetLangTagsFromHtml(char const *,int,int)
FUNC 96b0 60 0 std::basic_string<char,std::char_traits<char>,std::allocator<char> >::append(unsigned int,char)
FUNC 9710 fa 0 std::basic_string<char,std::char_traits<char>,std::allocator<char> >::find(char const *,unsigned int,unsigned int)
FUNC 9810 da 0 std::basic_string<char,std::char_traits<char>,std::allocator<char> >::append(char const *,unsigned int)
FUNC 98f0 ad 0 std::basic_string<char,std::char_traits<char>,std::allocator<char> >::append(std::basic_string<char,std::char_traits<char>,std::allocator<char> > const &,unsigned int,unsigned int)
FUNC 99a0 63 0 std::basic_string<char,std::char_traits<char>,std::allocator<char> >::_Assign_rv(std::basic_string<char,std::char_traits<char>,std::allocator<char> > &&)
FUNC 9a10 96 0 CLD2::GetQuadAt(char const *)
FUNC 9ab0 86 0 CLD2::GetOctaAt(char const *)
FUNC 9b40 ec 0 CLD2::FmtLP(CLD2::ULScript,unsigned char,unsigned char)
FUNC 9c30 14b 0 CLD2::GetLangProbTxt(CLD2::ScoringContext const *,unsigned int)
FUNC 9d80 df 0 CLD2::GetPlainEscapedText(std::basic_string<char,std::char_traits<char>,std::allocator<char> > const &)
FUNC 9e60 ff 0 CLD2::GetHtmlEscapedText(std::basic_string<char,std::char_traits<char>,std::allocator<char> > const &)
FUNC 9f60 5a8 0 CLD2::CLD2_Debug(char const *,int,int,bool,bool,CLD2::ScoringHitBuffer const *,CLD2::ScoringContext const *,CLD2::ChunkSpan const *,CLD2::ChunkSummary const *)
FUNC a510 93 0 std::basic_string<char,std::char_traits<char>,std::allocator<char> >::operator=(std::basic_string<char,std::char_traits<char>,std::allocator<char> > &&)
FUNC a5b0 107 0 CLD2::DisplayPiece(char const *,int)
FUNC a6c0 9a 0 CLD2::runetochar(char *,int const *)
FUNC a760 150 0 CLD2::strto32_base10
FUNC a8b0 13b 0 CLD2::strto32_base16
FUNC a9f0 16a 0 CLD2::ReadEntity(char const *,int,int *)
FUNC ab60 7b 0 CLD2::ScanToPossibleLetter(char const *,int,int)
FUNC abe0 13a 0 CLD2::ScriptScanner::ScriptScanner(char const *,int,bool)
FUNC ad20 180 0 CLD2::ScriptScanner::SkipToFrontOfSpan(char const *,int,int *)
FUNC aea0 2b6 0 CLD2::ScriptScanner::GetOneTextSpan(CLD2::LangSpan *)
FUNC b160 7f3 0 CLD2::ScriptScanner::GetOneScriptSpan(CLD2::LangSpan *)
FUNC b960 d6 0 CLD2::ScriptScanner::LowerScriptSpan(CLD2::LangSpan *)
FUNC ba40 136 0 CLD2::ProcessProbV2Tote(unsigned int,CLD2::Tote *)
FUNC bb80 bf 0 CLD2::GetUniHits(char const *,int,int,CLD2::ScoringContext *,CLD2::ScoringHitBuffer *)
FUNC bc40 21d 0 CLD2::GetBiHits(char const *,int,int,CLD2::ScoringContext *,CLD2::ScoringHitBuffer *)
FUNC be60 22c 0 CLD2::GetQuadHits(char const *,int,int,CLD2::ScoringContext *,CLD2::ScoringHitBuffer *)
FUNC c090 3ba 0 CLD2::GetOctaHits(char const *,int,int,CLD2::ScoringContext *,CLD2::ScoringHitBuffer *)
FUNC c450 164 0 CLD2::UTF8GenericPropertyBigOneByte(CLD2::UTF8StateMachineObj const *,unsigned char const * *,int *)
FUNC c5c0 142 0 CLD2::UTF8GenericPropertyTwoByte(CLD2::UTF8StateMachineObj_2 const *,unsigned char const * *,int *)
FUNC c710 1a9 0 CLD2::UTF8GenericScan(CLD2::UTF8StateMachineObj const *,StringPiece const &,int *)
FUNC c8c0 6a8 0 CLD2::UTF8GenericReplaceInternal
FUNC cf70 c9 0 CLD2::UTF8GenericReplace(CLD2::UTF8StateMachineObj const *,StringPiece const &,StringPiece &,bool,int *,int *,int *,CLD2::OffsetMap *)
FUNC d040 2a3 0 CLD2::SetChunkSummary(CLD2::ULScript,int,int,int,CLD2::ScoringContext const *,CLD2::Tote const *,CLD2::ChunkSummary *)
FUNC d2f0 a9 0 CLD2::ScoreBoosts(CLD2::ScoringContext const *,CLD2::Tote *)
FUNC d3a0 163 0 CLD2::ScoreOneChunk(char const *,CLD2::ULScript,CLD2::ScoringHitBuffer const *,int,CLD2::ScoringContext *,CLD2::ChunkSpan *,CLD2::Tote *,CLD2::ChunkSummary *)
FUNC d510 143 0 CLD2::ScoreAllHits(char const *,CLD2::ULScript,bool,bool,CLD2::ScoringHitBuffer const *,CLD2::ScoringContext *,CLD2::SummaryBuffer *,CLD2::ChunkSpan *)
FUNC d660 114 0 CLD2::ItemToVector(CLD2::ScriptScanner *,std::vector<CLD2::ResultChunk,std::allocator<CLD2::ResultChunk> > *,CLD2::Language,int,int)
FUNC d780 2d 0 CLD2::PriorVecLang(std::vector<CLD2::ResultChunk,std::allocator<CLD2::ResultChunk> > const *)
FUNC d7b0 247 0 CLD2::SummaryBufferToVector(CLD2::ScriptScanner *,char const *,CLD2::SummaryBuffer const *,bool,std::vector<CLD2::ResultChunk,std::allocator<CLD2::ResultChunk> > *)
FUNC da00 1f6 0 CLD2::DumpHitBuffer(_iobuf *,char const *,CLD2::ScoringHitBuffer const *)
FUNC dc00 e3 0 CLD2::DumpLinearBuffer(_iobuf *,char const *,CLD2::ScoringHitBuffer const *)
FUNC dcf0 f1 0 CLD2::DumpSummaryBuffer(_iobuf *,CLD2::SummaryBuffer const *)
FUNC ddf0 d70 0 CLD2::BetterBoundary(char const *,CLD2::ScoringHitBuffer *,CLD2::ScoringContext *,unsigned char,unsigned char,int,int,int)
FUNC eb60 192 0 CLD2::SharpenBoundaries(char const *,bool,CLD2::ScoringHitBuffer *,CLD2::ScoringContext *,CLD2::SummaryBuffer *)
FUNC ed00 2be 0 CLD2::LinearizeAll(CLD2::ScoringContext *,bool,CLD2::ScoringHitBuffer *)
FUNC efc0 125 0 CLD2::ChunkAll(int,bool,CLD2::ScoringHitBuffer *)
FUNC f0f0 17c 0 CLD2::ProcessHitBuffer(CLD2::LangSpan const &,int,CLD2::ScoringContext *,CLD2::DocTote *,std::vector<CLD2::ResultChunk,std::allocator<CLD2::ResultChunk> > *,bool,bool,CLD2::ScoringHitBuffer *)
FUNC f270 105 0 CLD2::ScoreEntireScriptSpan(CLD2::LangSpan const &,CLD2::ScoringContext *,CLD2::DocTote *,std::vector<CLD2::ResultChunk,std::allocator<CLD2::ResultChunk> > *)
FUNC f380 173 0 CLD2::ScoreCJKScriptSpan(CLD2::LangSpan const &,CLD2::ScoringContext *,CLD2::DocTote *,std::vector<CLD2::ResultChunk,std::allocator<CLD2::ResultChunk> > *)
FUNC f500 14b 0 CLD2::ScoreQuadScriptSpan(CLD2::LangSpan const &,CLD2::ScoringContext *,CLD2::DocTote *,std::vector<CLD2::ResultChunk,std::allocator<CLD2::ResultChunk> > *)
FUNC f650 14c 0 CLD2::ScoreOneScriptSpan(CLD2::LangSpan const &,CLD2::ScoringContext *,CLD2::DocTote *,std::vector<CLD2::ResultChunk,std::allocator<CLD2::ResultChunk> > *)
FUNC f7a0 1c8 0 CLD2::Tote::CurrentTopThreeKeys(int *)
FUNC f970 57 0 CLD2::DocTote::DocTote()
FUNC f9d0 148 0 CLD2::DocTote::Add(unsigned short,int,int,int)
FUNC fb20 e0 0 CLD2::DocTote::Sort(int)
FUNC fc00 97 0 CLD2::DocTote::Dump(_iobuf *)
FUNC fca0 a7 0 CLD2::QuadHashV2(char const *,int)
FUNC fd50 34c 0 CLD2::OctaHash40Mix(char const *,int,unsigned __int64)
FUNC 100a0 70 0 CLD2::OffsetMap::OffsetMap()
FUNC 10110 5d 0 CLD2::OffsetMap::Clear()
FUNC 10170 67 0 CLD2::OffsetMap::Reset()
FUNC 101e0 b7 0 CLD2::OffsetMap::Flush()
FUNC 102a0 60 0 CLD2::OffsetMap::ParseNext(int,CLD2::OffsetMap::MapOp *,int *)
FUNC 10300 e9 0 CLD2::OffsetMap::MoveRight()
FUNC 103f0 12c 0 CLD2::OffsetMap::MoveLeft()
FUNC 10520 a6 0 CLD2::OffsetMap::MapBack(int)
FUNC 105d0 65 0 std::basic_string<char,std::char_traits<char>,std::allocator<char> >::push_back(char)
FUNC 10635 1b 0 std::bad_alloc::bad_alloc(std::bad_alloc const &)
FUNC 10650 18 0 std::bad_alloc::bad_alloc()
FUNC 10668 2c 0 std::exception::exception(std::exception const &)
FUNC 10694 37 0 std::exception::exception(char const * const)
FUNC 106cb 1b 0 std::length_error::length_error(std::length_error const &)
FUNC 106e6 21 0 std::length_error::length_error(char const *)
FUNC 10707 1b 0 std::logic_error::logic_error(std::logic_error const &)
FUNC 10722 1b 0 std::out_of_range::out_of_range(std::out_of_range const &)
FUNC 1073d 21 0 std::out_of_range::out_of_range(char const *)
FUNC 1075e 11 0 std::out_of_range::~out_of_range()
FUNC 1076f 2d 0 std::out_of_range::`scalar deleting destructor'(unsigned int)
FUNC 1079c 1d 0 std::_Xbad_alloc()
FUNC 107b9 20 0 std::_Xlength_error(char const *)
FUNC 107d9 20 0 std::_Xout_of_range(char const *)
FUNC 107f9 d 0 std::exception::what()
FUNC 10806 11 0 __security_check_cookie
FUNC 10817 c0 0 __scrt_initialize_thread_safe_statics
FUNC 108d7 1c 0 __scrt_uninitialize_thread_safe_statics
FUNC 108f3 3f 0 _Init_thread_footer
FUNC 10932 46 0 _Init_thread_header
FUNC 10978 c 0 _Init_thread_lock
FUNC 10984 41 0 _Init_thread_notify
FUNC 109c5 c 0 _Init_thread_unlock
FUNC 109d1 65 0 _Init_thread_wait
FUNC 10a36 33 0 operator new(unsigned int)
FUNC 10a69 5 0 operator delete(void *)
FUNC 10a6e 53 0 dllmain_crt_dispatch
FUNC 10ac1 112 0 dllmain_crt_process_attach
FUNC 10bd3 7d 0 dllmain_crt_process_detach
FUNC 10c50 fc 0 dllmain_dispatch
FUNC 10d4c 2a 0 dllmain_raw
FUNC 10d76 23 c _DllMainCRTStartup
FUNC 10d99 28 0 __raise_securityfailure
FUNC 10dc1 fb 0 __report_gsfailure
FUNC 10ebc c 0 __report_rangecheckfailure
FUNC 10ec8 d0 0 __report_securityfailure
FUNC 10f98 5 0 operator delete[](void *)
FUNC 10f9d 9 0 operator new[](unsigned int)
FUNC 10fa6 e 0 operator delete(void *,unsigned int)
FUNC 10fb4 23 0 type_info::`scalar deleting destructor'(unsigned int)
FUNC 10fd7 44 0 find_pe_section
FUNC 1101b 35 0 __scrt_acquire_startup_lock
FUNC 11050 2b 0 __scrt_dllmain_after_initialize_c
FUNC 1107b e 0 __scrt_dllmain_before_initialize_c
FUNC 11089 1f 0 __scrt_dllmain_crt_thread_attach
FUNC 110a8 d 0 __scrt_dllmain_crt_thread_detach
FUNC 110b5 33 0 __scrt_dllmain_exception_filter
FUNC 110e8 23 0 __scrt_dllmain_uninitialize_c
FUNC 1110b d 0 __scrt_dllmain_uninitialize_critical
FUNC 11118 39 0 __scrt_initialize_crt
FUNC 11151 97 0 __scrt_initialize_onexit_tables
FUNC 111e8 8a 0 __scrt_is_nonwritable_in_current_image
FUNC 11272 1d 0 __scrt_release_startup_lock
FUNC 1128f 28 0 __scrt_uninitialize_crt
FUNC 112b7 3b 0 _onexit
FUNC 112f2 15 0 atexit
FUNC 11307 11b 0 __scrt_fastfail
FUNC 11422 8 4 _crt_debugger_hook
FUNC 1142a 6 0 _guard_check_icall
FUNC 11430 1b 0 std::bad_array_new_length::bad_array_new_length(std::bad_array_new_length const &)
FUNC 1144b 18 0 std::bad_array_new_length::bad_array_new_length()
FUNC 11463 1d 0 __scrt_throw_std_bad_array_new_length()
FUNC 11480 9c 0 __security_init_cookie
FUNC 1151c 6 c DllMain
FUNC 11522 c 0 __scrt_initialize_type_info()
FUNC 1152e c 0 __scrt_uninitialize_type_info()
FUNC 1153a 6 0 __local_stdio_scanf_options
FUNC 11540 1d 0 __scrt_initialize_default_local_stdio_options
FUNC 1155d 6 0 __scrt_get_dyn_tls_init_callback
FUNC 11563 2b 0 _RTC_Initialize
FUNC 1158e 2b 0 _RTC_Terminate
FUNC 115c0 46 0 _SEH_prolog4
FUNC 11606 15 0 _SEH_epilog4
FUNC 1161b 19a 0 __isa_available_init
FUNC 117b5 4 0 _get_startup_argv_mode
FUNC 117b9 c 0 __scrt_is_ucrt_dll_in_use
FUNC 117c5 1 0 _guard_check_icall_nop
FUNC 117d0 12b 0 strchr
PUBLIC 1183e 0 __from_strstr_to_strchr
FUNC 11900 574 0 memmove
FUNC 11e80 ad 0 memchr
FUNC 11f2d 63 0 __std_exception_copy
FUNC 11f90 1f 0 __std_exception_destroy
FUNC 11faf 6e 8 _CxxThrowException
FUNC 1201d 1d 0 __crt_fast_encode_pointer<void *>(void * const)
FUNC 1203a a0 0 try_get_function
FUNC 120da 81 0 try_get_module
FUNC 1215b 3a 0 __vcrt_FlsAlloc
FUNC 12195 3a 0 __vcrt_FlsFree
FUNC 121cf 3a 0 __vcrt_FlsGetValue
FUNC 12209 3d 0 __vcrt_FlsSetValue
FUNC 12246 46 0 __vcrt_InitializeCriticalSectionEx
FUNC 1228c 3a 0 __vcrt_initialize_winapi_thunks
FUNC 122c6 32 0 __vcrt_uninitialize_winapi_thunks
FUNC 12300 32 0 ValidateLocalCookies
FUNC 12340 166 0 _except_handler4
FUNC 124a6 29 0 __vcrt_initialize
FUNC 124cf b 0 __vcrt_thread_attach
FUNC 124da b 0 __vcrt_thread_detach
FUNC 124e5 1f 0 __vcrt_uninitialize
FUNC 12504 8 0 __vcrt_uninitialize_critical
FUNC 12510 15a 0 memset
FUNC 1266a 23 0 __std_type_info_destroy_list
FUNC 12690 90 0 _local_unwind4
FUNC 12720 46 0 _unwind_handler4
FUNC 12766 28 4 _seh_longjmp_unwind4
FUNC 1278e 17 0 _EH4_CallFilterFunc
FUNC 127a5 19 0 _EH4_TransferToHandler
FUNC 127be 19 0 _EH4_GlobalUnwind2
FUNC 127d7 17 8 _EH4_LocalUnwind
FUNC 127ee 1c 4 __vcrt_freefls
FUNC 1280a 36 0 __vcrt_freeptd
FUNC 12840 92 0 __vcrt_getptd_noexit
FUNC 128d2 33 0 __vcrt_initialize_ptd
FUNC 12905 1b 0 __vcrt_uninitialize_ptd
FUNC 12920 3c 0 __vcrt_initialize_locks
FUNC 1295c 2f 0 __vcrt_uninitialize_locks
FUNC 1298b 1d 0 __vcrt_initialize_pure_virtual_call_handler
FUNC 129b0 20 0 _global_unwind2
FUNC 129d0 45 0 __unwind_handler
FUNC 12a15 84 0 _local_unwind2
FUNC 12a99 23 0 _abnormal_termination
FUNC 12abc 9 0 _NLG_Notify1
FUNC 12ac5 1f 0 _NLG_Notify
PUBLIC 12adc 0 _NLG_Dispatch
FUNC 12ae4 3 0 _NLG_Call
PUBLIC 12ae6 0 _NLG_Return2
FUNC 12ae7 83 0 _LocaleUpdate::_LocaleUpdate(__crt_locale_pointers * const)
FUNC 12b6a 3b 0 __ascii_stricmp
FUNC 12ba5 48 0 _stricmp
FUNC 12bed 9a 0 _stricmp_l
FUNC 12c87 13b 0 __acrt_call_reportfault
FUNC 12dc2 14 0 __acrt_initialize_invalid_parameter_handler
FUNC 12dd6 7b 0 _invalid_parameter
FUNC 12e51 10 0 _invalid_parameter_noinfo
FUNC 12e61 1d 0 _invalid_parameter_noinfo_noreturn
FUNC 12e7e 33 14 _invoke_watson
FUNC 12eb1 c8 0 __acrt_initialize_stdio
FUNC 12f79 10 0 __acrt_iob_func
FUNC 12f89 4c 0 __acrt_uninitialize_stdio
FUNC 12fd5 14 0 _lock_file
FUNC 12fe9 14 0 _unlock_file
FUNC 12ffd 51 0 __crt_seh_guarded_call<int>::operator()<<lambda_db08b09ef7aa9d4f8620ce68402612bc>,<lambda_4f2c1eaeead2a5fc776db5b62ea0fb9b> &,<lambda_3ae262bc35d4ba6a3825c4f6bcaaf95c> >(<lambda_db08b09ef7aa9d4f8620ce68402612bc> &&,<lambda_4f2c1eaeead2a5fc776db5b62ea0fb9b> &,<lambda_3ae262bc35d4ba6a3825c4f6bcaaf95c> &&)
FUNC 1304e 28 0 __acrt_lock_stream_and_call<<lambda_4f2c1eaeead2a5fc776db5b62ea0fb9b> >(_iobuf * const,<lambda_4f2c1eaeead2a5fc776db5b62ea0fb9b> &&)
FUNC 13076 17c 0 common_vsprintf<__crt_stdio_output::standard_base,char>
FUNC 131f2 18 0 __crt_stdio_output::formatting_buffer::count<char>()
FUNC 1320a 86 0 __crt_stdio_output::formatting_buffer::ensure_buffer_is_big_enough<char>(unsigned int)
FUNC 13290 40 0 __crt_stdio_output::is_wide_character_specifier<char>(unsigned __int64,char,__crt_stdio_output::length_modifier)
FUNC 132d0 1e 0 __crt_stdio_output::formatting_buffer::scratch_data<char>()
FUNC 132ee 75 0 __crt_stdio_output::output_processor<char,__crt_stdio_output::stream_output_adapter<char>,__crt_stdio_output::standard_base<char,__crt_stdio_output::stream_output_adapter<char> > >::type_case_integer_parse_into_buffer<unsigned int>(unsigned int,unsigned int,bool)
FUNC 13363 88 0 __crt_stdio_output::output_processor<char,__crt_stdio_output::string_output_adapter<char>,__crt_stdio_output::standard_base<char,__crt_stdio_output::string_output_adapter<char> > >::type_case_integer_parse_into_buffer<unsigned __int64>(unsigned __int64,unsigned int,bool)
FUNC 133eb 2c 0 __crt_stdio_output::write_multiple_characters<__crt_stdio_output::stream_output_adapter<char>,char>(__crt_stdio_output::stream_output_adapter<char> const &,char,int,int * const)
FUNC 13417 2c 0 __crt_stdio_output::write_multiple_characters<__crt_stdio_output::string_output_adapter<char>,char>(__crt_stdio_output::string_output_adapter<char> const &,char,int,int * const)
FUNC 13443 47 0 __crt_stdio_output::common_data<char>::common_data<char>()
FUNC 1348a 3c 0 __crt_stdio_output::output_adapter_data<char,__crt_stdio_output::stream_output_adapter<char> >::output_adapter_data<char,__crt_stdio_output::stream_output_adapter<char> >(__crt_stdio_output::stream_output_adapter<char> const &,unsigned __int64,char const * const,__crt_locale_pointers * const,char * const)
FUNC 134c6 35 0 __crt_stdio_output::output_processor<char,__crt_stdio_output::stream_output_adapter<char>,__crt_stdio_output::standard_base<char,__crt_stdio_output::stream_output_adapter<char> > >::output_processor<char,__crt_stdio_output::stream_output_adapter<char>,__crt_stdio_output::standard_base<char,__crt_stdio_output::stream_output_adapter<char> > >(__crt_stdio_output::stream_output_adapter<char> const &,unsigned __int64,char const * const,__crt_locale_pointers * const,char * const)
FUNC 134fb 1a 0 __crt_stdio_output::formatting_buffer::~formatting_buffer()
FUNC 13515 24 0 __crt_unique_heap_ptr<char,__crt_internal_free_policy>::operator=(__crt_unique_heap_ptr<char,__crt_internal_free_policy> &&)
FUNC 13539 bd 0 <lambda_4f2c1eaeead2a5fc776db5b62ea0fb9b>::operator()
FUNC 135f6 57 0 __crt_stdio_output::crop_zeroes(char *,__crt_locale_pointers * const)
FUNC 1364d 32 0 __crt_stdio_output::output_processor<char,__crt_stdio_output::stream_output_adapter<char>,__crt_stdio_output::standard_base<char,__crt_stdio_output::stream_output_adapter<char> > >::find_next_state(char,__crt_stdio_output::state)
FUNC 1367f 5c 0 __crt_stdio_output::force_decimal_point(char *,__crt_locale_pointers * const)
FUNC 136db 5c 0 __crt_stdio_output::output_processor<char,__crt_stdio_output::stream_output_adapter<char>,__crt_stdio_output::standard_base<char,__crt_stdio_output::stream_output_adapter<char> > >::parse_int_from_format_string(int * const)
FUNC 13737 11c 0 __crt_stdio_output::output_processor<char,__crt_stdio_output::stream_output_adapter<char>,__crt_stdio_output::standard_base<char,__crt_stdio_output::stream_output_adapter<char> > >::process()
FUNC 13853 11c 0 __crt_stdio_output::output_processor<char,__crt_stdio_output::string_output_adapter<char>,__crt_stdio_output::standard_base<char,__crt_stdio_output::string_output_adapter<char> > >::process()
FUNC 1396f 3d 0 __crt_stdio_output::output_processor<char,__crt_stdio_output::stream_output_adapter<char>,__crt_stdio_output::standard_base<char,__crt_stdio_output::stream_output_adapter<char> > >::state_case_flag()
FUNC 139ac 1f 0 __crt_stdio_output::output_processor<char,__crt_stdio_output::stream_output_adapter<char>,__crt_stdio_output::standard_base<char,__crt_stdio_output::stream_output_adapter<char> > >::state_case_normal()
FUNC 139cb 1f 0 __crt_stdio_output::output_processor<char,__crt_stdio_output::string_output_adapter<char>,__crt_stdio_output::standard_base<char,__crt_stdio_output::string_output_adapter<char> > >::state_case_normal()
FUNC 139ea 2a 0 __crt_stdio_output::output_processor<char,__crt_stdio_output::stream_output_adapter<char>,__crt_stdio_output::standard_base<char,__crt_stdio_output::stream_output_adapter<char> > >::state_case_normal_common()
FUNC 13a14 2a 0 __crt_stdio_output::output_processor<char,__crt_stdio_output::string_output_adapter<char>,__crt_stdio_output::standard_base<char,__crt_stdio_output::string_output_adapter<char> > >::state_case_normal_common()
FUNC 13a3e 61 4 __crt_stdio_output::output_processor<char,__crt_stdio_output::stream_output_adapter<char>,__crt_stdio_output::standard_base<char,__crt_stdio_output::stream_output_adapter<char> > >::state_case_normal_tchar(char)
FUNC 13a9f 61 4 __crt_stdio_output::output_processor<char,__crt_stdio_output::string_output_adapter<char>,__crt_stdio_output::standard_base<char,__crt_stdio_output::string_output_adapter<char> > >::state_case_normal_tchar(char)
FUNC 13b00 28 0 __crt_stdio_output::output_processor<char,__crt_stdio_output::stream_output_adapter<char>,__crt_stdio_output::standard_base<char,__crt_stdio_output::stream_output_adapter<char> > >::state_case_precision()
FUNC 13b28 169 0 __crt_stdio_output::output_processor<char,__crt_stdio_output::stream_output_adapter<char>,__crt_stdio_output::standard_base<char,__crt_stdio_output::stream_output_adapter<char> > >::state_case_size()
FUNC 13c91 169 0 __crt_stdio_output::output_processor<char,__crt_stdio_output::string_output_adapter<char>,__crt_stdio_output::standard_base<char,__crt_stdio_output::string_output_adapter<char> > >::state_case_size()
FUNC 13dfa 22f 0 __crt_stdio_output::output_processor<char,__crt_stdio_output::stream_output_adapter<char>,__crt_stdio_output::standard_base<char,__crt_stdio_output::stream_output_adapter<char> > >::state_case_type()
FUNC 14029 22f 0 __crt_stdio_output::output_processor<char,__crt_stdio_output::string_output_adapter<char>,__crt_stdio_output::standard_base<char,__crt_stdio_output::string_output_adapter<char> > >::state_case_type()
FUNC 14258 2b 0 __crt_stdio_output::output_processor<char,__crt_stdio_output::stream_output_adapter<char>,__crt_stdio_output::standard_base<char,__crt_stdio_output::stream_output_adapter<char> > >::state_case_width()
FUNC 14283 5c 0 __crt_stdio_output::to_integer_size(__crt_stdio_output::length_modifier)
FUNC 142df 63 0 __crt_stdio_output::output_processor<char,__crt_stdio_output::stream_output_adapter<char>,__crt_stdio_output::standard_base<char,__crt_stdio_output::stream_output_adapter<char> > >::type_case_Z()
FUNC 14342 15a 0 __crt_stdio_output::output_processor<char,__crt_stdio_output::stream_output_adapter<char>,__crt_stdio_output::standard_base<char,__crt_stdio_output::stream_output_adapter<char> > >::type_case_a()
FUNC 1449c 90 4 __crt_stdio_output::output_processor<char,__crt_stdio_output::stream_output_adapter<char>,__crt_stdio_output::standard_base<char,__crt_stdio_output::stream_output_adapter<char> > >::type_case_c_tchar(char)
FUNC 1452c 14a 0 __crt_stdio_output::output_processor<char,__crt_stdio_output::stream_output_adapter<char>,__crt_stdio_output::standard_base<char,__crt_stdio_output::stream_output_adapter<char> > >::type_case_integer(unsigned int,bool)
FUNC 14676 74 0 __crt_stdio_output::output_processor<char,__crt_stdio_output::string_output_adapter<char>,__crt_stdio_output::standard_base<char,__crt_stdio_output::string_output_adapter<char> > >::type_case_n()
FUNC 146ea 1f 0 __crt_stdio_output::output_processor<char,__crt_stdio_output::stream_output_adapter<char>,__crt_stdio_output::standard_base<char,__crt_stdio_output::stream_output_adapter<char> > >::type_case_o()
FUNC 14709 18 0 __crt_stdio_output::output_processor<char,__crt_stdio_output::stream_output_adapter<char>,__crt_stdio_output::standard_base<char,__crt_stdio_output::stream_output_adapter<char> > >::type_case_p()
FUNC 14721 73 0 __crt_stdio_output::output_processor<char,__crt_stdio_output::stream_output_adapter<char>,__crt_stdio_output::standard_base<char,__crt_stdio_output::stream_output_adapter<char> > >::type_case_s()
FUNC 14794 21 0 __crt_stdio_output::stream_output_adapter<char>::validate()
FUNC 147b5 82 0 __acrt_stdio_char_traits<char>::validate_stream_is_ansi_if_required(_iobuf * const)
FUNC 14837 3d 0 __crt_stdio_output::stream_output_adapter<char>::write_character(char,int * const)
FUNC 14874 42 0 __crt_stdio_output::string_output_adapter<char>::write_character(char,int * const)
FUNC 148b6 a7 0 __crt_stdio_output::output_processor<char,__crt_stdio_output::stream_output_adapter<char>,__crt_stdio_output::standard_base<char,__crt_stdio_output::stream_output_adapter<char> > >::write_stored_string_tchar(char)
FUNC 1495d a7 0 __crt_stdio_output::output_processor<char,__crt_stdio_output::string_output_adapter<char>,__crt_stdio_output::standard_base<char,__crt_stdio_output::string_output_adapter<char> > >::write_stored_string_tchar(char)
FUNC 14a04 8a 0 __crt_stdio_output::stream_output_adapter<char>::write_string(char const * const,int,int * const,int * const)
FUNC 14a8e 93 0 __crt_stdio_output::string_output_adapter<char>::write_string(char const * const,int,int * const,int * const)
FUNC 14b21 77 0 __stdio_common_vfprintf
FUNC 14b98 24 0 __stdio_common_vsprintf
FUNC 14bc0 124 0 strncpy
FUNC 14ce4 76 0 _fclose_nolock
FUNC 14d5a 80 0 fclose
FUNC 14dda 14 0 __acrt_initialize_new_handler
FUNC 14dee 44 0 _callnewh
FUNC 14e32 52 0 _query_new_handler
FUNC 14e84 b 0 malloc
FUNC 14e8f 5 0 free
FUNC 14e94 5c 0 _initterm
FUNC 14ef0 45 0 _initterm_e
FUNC 14f35 20 0 _seh_filter_dll
FUNC 14f55 173 0 _seh_filter_exe
FUNC 150c8 13 0 atexit_exception_filter
FUNC 150db 119 0 common_exit
FUNC 151f4 41 0 exit_or_terminate_process
FUNC 15235 44 0 is_managed_app
FUNC 15279 6a 0 try_cor_exit_process
FUNC 152e3 f 0 __acrt_initialize_thread_local_exit_callback
FUNC 152f2 f 0 _cexit
FUNC 15301 16 0 _exit
FUNC 15317 6 0 _is_c_termination_complete
FUNC 1531d 124 0 common_configure_argv<char>
FUNC 15441 175 0 parse_command_line<char>
FUNC 155b6 55 0 __acrt_allocate_buffer_for_argv
FUNC 1560b b 0 _configure_narrow_argv
FUNC 15616 59 0 common_initialize_environment_nolock<char>
FUNC 1566f d1 0 create_environment<char>
FUNC 15740 2f 0 free_environment<char>
FUNC 1576f 40 0 __crt_state_management::dual_state_global<wchar_t * *>::uninitialize<void (&)(wchar_t * * &)>(void (&)(wchar_t * * &))
FUNC 157af 1b 0 uninitialize_environment_internal<char>
FUNC 157ca 1b 0 uninitialize_environment_internal<wchar_t>
FUNC 157e5 37 0 __dcrt_uninitialize_environments_nolock
FUNC 1581c 5 0 _initialize_narrow_environment
FUNC 15821 51 0 __crt_seh_guarded_call<int>::operator()<<lambda_800076c951b434888f4765a74a194fcc>,<lambda_4e60a939b0d047cfe11ddc22648dfba9> &,<lambda_6dbb1268764f43b569ce7b67e331d33a> >(<lambda_800076c951b434888f4765a74a194fcc> &&,<lambda_4e60a939b0d047cfe11ddc22648dfba9> &,<lambda_6dbb1268764f43b569ce7b67e331d33a> &&)
FUNC 15872 51 0 __crt_seh_guarded_call<int>::operator()<<lambda_995298e7d72eb4c2aab26c0585b3abe5>,<lambda_275893d493268fdec8709772e3fcec0e> &,<lambda_293819299cbf9a7022e18b56a874bb5c> >(<lambda_995298e7d72eb4c2aab26c0585b3abe5> &&,<lambda_275893d493268fdec8709772e3fcec0e> &,<lambda_293819299cbf9a7022e18b56a874bb5c> &&)
FUNC 158c3 28 0 __acrt_lock_and_call<<lambda_275893d493268fdec8709772e3fcec0e> >(__acrt_lock_id,<lambda_275893d493268fdec8709772e3fcec0e> &&)
FUNC 158eb 28 0 __acrt_lock_and_call<<lambda_4e60a939b0d047cfe11ddc22648dfba9> >(__acrt_lock_id,<lambda_4e60a939b0d047cfe11ddc22648dfba9> &&)
FUNC 15913 1f 0 __crt_fast_encode_pointer<int (*)(void)>(int (*const)(void))
FUNC 15932 120 0 <lambda_275893d493268fdec8709772e3fcec0e>::operator()
FUNC 15a52 141 0 <lambda_4e60a939b0d047cfe11ddc22648dfba9>::operator()
FUNC 15b93 16 0 _crt_atexit
FUNC 15ba9 1d 0 _execute_onexit_table
FUNC 15bc6 3d 0 _initialize_onexit_table
FUNC 15c03 24 0 _register_onexit_function
FUNC 15c27 12 0 initialize_global_variables
FUNC 15c39 1a 0 initialize_c
FUNC 15c53 8 4 uninitialize_environment
FUNC 15c5b 3d 0 initialize_pointers
FUNC 15c98 9 4 uninitialize_vcruntime
FUNC 15ca1 77 4 uninitialize_allocated_memory
FUNC 15d18 3 4 uninitialize_c
FUNC 15d1b 12 0 __acrt_initialize
FUNC 15d2d b 0 __acrt_thread_attach
FUNC 15d38 8 0 __acrt_thread_detach
FUNC 15d40 12 4 __acrt_uninitialize
FUNC 15d52 12 0 __acrt_uninitialize_critical
FUNC 15d64 3c 0 terminate
FUNC 15da0 5a 0 strcpy_s
FUNC 15dfa 3a 0 _free_base
FUNC 15e34 4e 0 _malloc_base
FUNC 15e82 43 0 abort
FUNC 15ec5 5d 0 _calloc_base
FUNC 15f22 33 0 __crt_strtox::is_overflow_condition<unsigned long>(unsigned int,unsigned long)
FUNC 15f55 228 0 __crt_strtox::parse_integer<unsigned long,__crt_strtox::c_string_character_source<char> >(__crt_locale_pointers * const,__crt_strtox::c_string_character_source<char>,int,bool)
FUNC 1617d 28 0 __crt_strtox::c_string_character_source<char>::unget(char)
FUNC 161a5 1b 0 __crt_strtox::c_string_character_source<char>::validate()
FUNC 161c0 2a 0 _chvalidchk_l
FUNC 161ea 33 0 _ischartype_l
FUNC 1621d 43 0 __acrt_errno_from_os_error
FUNC 16260 23 0 __acrt_errno_map_os_error
FUNC 16283 13 0 __doserrno
FUNC 16296 13 0 _errno
FUNC 162a9 14a 0 common_tox_l<&internal_isupper_l,&internal_map_lower>
FUNC 163f3 1d 0 internal_isupper_l
FUNC 16410 1a 0 _tolower_l
FUNC 1642a 30 0 tolower
FUNC 1645a 50 0 __crt_seh_guarded_call<void>::operator()<<lambda_3518db117f0e7cdb002338c5d3c47b6c>,<lambda_b2ea41f6bbb362cd97d94c6828d90b61> &,<lambda_abdedf541bb04549bc734292b4a045d4> >(<lambda_3518db117f0e7cdb002338c5d3c47b6c> &&,<lambda_b2ea41f6bbb362cd97d94c6828d90b61> &,<lambda_abdedf541bb04549bc734292b4a045d4> &&)
FUNC 164aa 61 0 __crt_seh_guarded_call<void>::operator()<<lambda_51b6e8b1eb166f2a3faf91f424b38130>,<lambda_6250bd4b2a391816dd638c3bf72b0bcb> &,<lambda_0b5a4a3e68152e1d9b943535f5f47bed> >(<lambda_51b6e8b1eb166f2a3faf91f424b38130> &&,<lambda_6250bd4b2a391816dd638c3bf72b0bcb> &,<lambda_0b5a4a3e68152e1d9b943535f5f47bed> &&)
FUNC 1650b 4b 0 __crt_seh_guarded_call<void>::operator()<<lambda_5b71d36f03204c0beab531769a5b5694>,<lambda_be2b3da3f62db62e9dad5dc70221a656> &,<lambda_8f9ce462984622f9bf76b59e2aaaf805> >(<lambda_5b71d36f03204c0beab531769a5b5694> &&,<lambda_be2b3da3f62db62e9dad5dc70221a656> &,<lambda_8f9ce462984622f9bf76b59e2aaaf805> &&)
FUNC 16556 48 0 __crt_seh_guarded_call<void>::operator()<<lambda_9df27f884b057bc3edfc946cb5b7cf47>,<lambda_e69574bed617af4e071282c136b37893> &,<lambda_cc0d902bcbbeb830f749456577db4721> >(<lambda_9df27f884b057bc3edfc946cb5b7cf47> &&,<lambda_e69574bed617af4e071282c136b37893> &,<lambda_cc0d902bcbbeb830f749456577db4721> &&)
FUNC 1659e 28 0 __acrt_lock_and_call<<lambda_6250bd4b2a391816dd638c3bf72b0bcb> >(__acrt_lock_id,<lambda_6250bd4b2a391816dd638c3bf72b0bcb> &&)
FUNC 165c6 28 0 __acrt_lock_and_call<<lambda_b2ea41f6bbb362cd97d94c6828d90b61> >(__acrt_lock_id,<lambda_b2ea41f6bbb362cd97d94c6828d90b61> &&)
FUNC 165ee 28 0 __acrt_lock_and_call<<lambda_be2b3da3f62db62e9dad5dc70221a656> >(__acrt_lock_id,<lambda_be2b3da3f62db62e9dad5dc70221a656> &&)
FUNC 16616 28 0 __acrt_lock_and_call<<lambda_e69574bed617af4e071282c136b37893> >(__acrt_lock_id,<lambda_e69574bed617af4e071282c136b37893> &&)
FUNC 1663e 79 0 construct_ptd
FUNC 166b7 21 0 destroy_fls
FUNC 166d8 a9 0 destroy_ptd
FUNC 16781 4b 0 replace_current_thread_locale_nolock
FUNC 167cc 2c 0 __acrt_freeptd
FUNC 167f8 84 0 __acrt_getptd
FUNC 1687c 85 0 __acrt_getptd_noexit
FUNC 16901 2c 0 __acrt_initialize_ptd
FUNC 1692d 1a 4 __acrt_uninitialize_ptd
FUNC 16947 2d 0 __acrt_update_locale_info
FUNC 16974 2d 0 __acrt_update_multibyte_info
FUNC 169a1 b 0 __acrt_set_locale_changed
FUNC 169ac 52 0 __acrt_uninitialize_locale
FUNC 169fe 9c 0 try_get_function
FUNC 16a9a 7b 0 try_get_module
FUNC 16b15 56 4 __acrt_FlsAlloc
FUNC 16b6b 56 4 __acrt_FlsFree
FUNC 16bc1 56 4 __acrt_FlsGetValue
FUNC 16c17 59 8 __acrt_FlsSetValue
FUNC 16c70 62 c __acrt_InitializeCriticalSectionEx
FUNC 16cd2 88 24 __acrt_LCMapStringEx
FUNC 16d5a 5c 8 __acrt_LocaleNameToLCID
FUNC 16db6 26 0 __acrt_initialize_winapi_thunks
FUNC 16ddc 87 0 __acrt_is_packaged_app
FUNC 16e63 36 0 __acrt_uninitialize_winapi_thunks
FUNC 16e99 a0 0 _fcloseall
FUNC 16f39 66 0 __acrt_stdio_flush_nolock
FUNC 16f9f 47 0 _fflush_nolock
FUNC 16fe6 9 0 _flushall
FUNC 16fef d8 0 common_flush_all
FUNC 170c7 3e 0 __acrt_stdio_free_buffer_nolock
FUNC 17105 b6 0 initialize_inherited_file_handles_nolock
FUNC 171bb b6 0 initialize_stdio_handles_nolock
FUNC 17271 56 0 __acrt_initialize_lowio
FUNC 172c7 2c 4 __acrt_uninitialize_lowio
FUNC 172f3 38 0 _isdigit_l
FUNC 1732b 2d 0 isdigit
FUNC 17358 1b 0 __crt_strtox::make_c_string_character_source<char,char * *>(char const * const,char * * const)
FUNC 17373 2c 0 strtol
FUNC 1739f fa 0 _mbtowc_l
FUNC 17499 1a 0 mbtowc
FUNC 174b3 121 0 _wctomb_s_l
FUNC 175d4 1d 0 wctomb_s
FUNC 175f1 127 8 strnlen
FUNC 17718 1b7 8 wcsnlen
FUNC 178cf 6c 0 __acrt_fp_classify(double const &)
FUNC 1793b 1e 0 __acrt_fp_is_negative(double const &)
FUNC 17959 303 0 fp_format_a
FUNC 17c5c 9b 0 fp_format_e
FUNC 17cf7 14b 0 fp_format_e_internal
FUNC 17e42 8d 0 fp_format_f
FUNC 17ecf d7 0 fp_format_f_internal
FUNC 17fa6 c8 0 fp_format_g
FUNC 1806e f8 0 fp_format_nan_or_infinity
FUNC 18166 34 0 shift_bytes
FUNC 1819a 14a 0 __acrt_fp_format
FUNC 182e4 26 0 _fileno
FUNC 1830a 29 0 _fputc_nolock
FUNC 18333 15 0 _get_printf_count_output
FUNC 18348 b5 0 __acrt_stdio_begin_temporary_buffering_nolock
FUNC 183fd 39 0 __acrt_stdio_end_temporary_buffering_nolock
FUNC 18436 3b 0 __acrt_stdio_free_stream(__crt_stdio_stream)
FUNC 18471 82 0 __crt_seh_guarded_call<int>::operator()<<lambda_123407a5e2ac06da108355a851863b7a>,<lambda_2fe9b910cf3cbf4a0ab98a02ba45b3ec> &,<lambda_ae55bdf541ad94d75914d381c370e64d> >(<lambda_123407a5e2ac06da108355a851863b7a> &&,<lambda_2fe9b910cf3cbf4a0ab98a02ba45b3ec> &,<lambda_ae55bdf541ad94d75914d381c370e64d> &&)
FUNC 184f3 28 0 __acrt_lowio_lock_fh_and_call<<lambda_2fe9b910cf3cbf4a0ab98a02ba45b3ec> >(int,<lambda_2fe9b910cf3cbf4a0ab98a02ba45b3ec> &&)
FUNC 1851b 7f 0 _close
FUNC 1859a 9c 0 _close_nolock
FUNC 18636 41 0 __acrt_initialize_locks
FUNC 18677 17 0 __acrt_lock
FUNC 1868e 31 4 __acrt_uninitialize_locks
FUNC 186bf 17 0 __acrt_unlock
FUNC 186d6 18 0 <lambda_62bb7ecb46d0a77b591a051c43eb5ad1>::<helper_func_cdecl>
FUNC 186ee 190 0 common_expand_argv_wildcards<char>
FUNC 1887e 96 0 copy_and_add_argument_to_buffer<char>
FUNC 18914 184 0 expand_argument_wildcards<char>
FUNC 18a98 25 0 `anonymous namespace'::argument_list<char>::~argument_list<char>()
FUNC 18abd 35 0 `anonymous namespace'::argument_list<char>::append(char * const)
FUNC 18af2 87 0 `anonymous namespace'::argument_list<char>::expand_if_necessary()
FUNC 18b79 b 0 __acrt_expand_narrow_argv_wildcards
FUNC 18b84 43 0 __crt_seh_guarded_call<void>::operator()<<lambda_978dc153c237d78434369da87b74ff60>,<lambda_ad1ced32f4ac17aa236e5ef05d6b3b7c> &,<lambda_4a8533e2866a575feecb8298ce776b0d> >(<lambda_978dc153c237d78434369da87b74ff60> &&,<lambda_ad1ced32f4ac17aa236e5ef05d6b3b7c> &,<lambda_4a8533e2866a575feecb8298ce776b0d> &&)
FUNC 18bc7 28 0 __acrt_lock_and_call<<lambda_ad1ced32f4ac17aa236e5ef05d6b3b7c> >(__acrt_lock_id,<lambda_ad1ced32f4ac17aa236e5ef05d6b3b7c> &&)
FUNC 18bef c4 0 <lambda_ad1ced32f4ac17aa236e5ef05d6b3b7c>::operator()
FUNC 18cb3 3e 0 CPtoLocaleName
FUNC 18cf1 73 0 getSystemCP
FUNC 18d64 65 0 setSBCS
FUNC 18dc9 194 0 setSBUpLow
FUNC 18f5d 101 0 setmbcp_internal
FUNC 1905e 1e 0 __acrt_initialize_multibyte
FUNC 1907c a2 0 __acrt_update_thread_multibyte_data
FUNC 1911e 1f1 0 _setmbcp_nolock
FUNC 1930f 59 0 x_ismbbtype_l
FUNC 19368 18 0 _ismbblead
FUNC 19380 19 0 __acrt_initialize_command_line
FUNC 19399 37 0 find_end_of_double_null_terminated_sequence
FUNC 193d0 83 0 __dcrt_get_narrow_environment_from_os
FUNC 19453 b 0 _recalloc
FUNC 1945e 6d 0 _recalloc_base
FUNC 194cb 11 0 __acrt_initialize_heap
FUNC 194dc a 4 __acrt_uninitialize_heap
FUNC 194e6 83 0 __acrt_execute_initializers
FUNC 19569 4d 0 __acrt_execute_uninitializers
FUNC 195b6 5a 0 __crt_seh_guarded_call<void (*)(int)>::operator()<<lambda_a048d3beccc847880fc8490e18b82769>,<lambda_ec61778202f4f5fc7e7711acc23c3bca> &,<lambda_f7496a158712204296dd6628a163878e> >(<lambda_a048d3beccc847880fc8490e18b82769> &&,<lambda_ec61778202f4f5fc7e7711acc23c3bca> &,<lambda_f7496a158712204296dd6628a163878e> &&)
FUNC 19610 28 0 __acrt_lock_and_call<<lambda_ec61778202f4f5fc7e7711acc23c3bca> >(__acrt_lock_id,<lambda_ec61778202f4f5fc7e7711acc23c3bca> &&)
FUNC 19638 42 0 get_global_action_nolock
FUNC 1967a 31 0 __crt_state_management::dual_state_global<void (*)(int)>::initialize(void (*const)(int))
FUNC 196ab 28 0 siglookup
FUNC 196d3 17 0 __acrt_get_sigabrt_handler
FUNC 196ea 3b 0 __acrt_initialize_signal_handlers
FUNC 19725 9 0 __fpecode
FUNC 1972e 208 0 raise
FUNC 19936 19 0 __acrt_has_user_matherr
FUNC 1994f 14 0 __acrt_initialize_user_matherr
FUNC 19963 49 0 __acrt_invoke_user_matherr
FUNC 199ac 6 0 _query_new_mode
FUNC 199b2 26 0 __pctype_func
FUNC 199d8 d2 0 _isctype_l
FUNC 19aaa 39 0 _isleadbyte_l
FUNC 19ae3 21d 0 __acrt_LCMapStringA_stat
FUNC 19d00 4b 0 __acrt_LCMapStringA
FUNC 19d4b 20 0 _freea_crt
FUNC 19d6b 7d 0 __acrt_add_locale_ref
FUNC 19de8 14a 0 __acrt_free_locale
FUNC 19f32 29 0 __acrt_locale_add_lc_time_reference
FUNC 19f5b 30 0 __acrt_locale_free_lc_time_if_unreferenced
FUNC 19f8b 29 0 __acrt_locale_release_lc_time_reference
FUNC 19fb5 81 0 __acrt_release_locale_ref
FUNC 1a036 77 0 __acrt_update_thread_locale_data
FUNC 1a0ad 50 0 _updatetlocinfoEx_nolock
FUNC 1a0fd fe 0 __acrt_locale_free_monetary
FUNC 1a1fb 69 0 __acrt_locale_free_numeric
FUNC 1a264 3c 0 free_crt_array_internal
FUNC 1a2a0 e4 0 __acrt_locale_free_time
FUNC 1a384 11d 0 __acrt_GetStringTypeA
FUNC 1a4a1 bc 0 GetTableIndexFromLocaleName
FUNC 1a55d 2c 0 __acrt_DownlevelLocaleNameToLCID
FUNC 1a589 98 0 __crt_seh_guarded_call<int>::operator()<<lambda_61cee617f5178ae960314fd4d05640a0>,<lambda_6978c1fb23f02e42e1d9e99668cc68aa> &,<lambda_9cd88cf8ad10232537feb2133f08c833> >(<lambda_61cee617f5178ae960314fd4d05640a0> &&,<lambda_6978c1fb23f02e42e1d9e99668cc68aa> &,<lambda_9cd88cf8ad10232537feb2133f08c833> &&)
FUNC 1a621 28 0 __acrt_lowio_lock_fh_and_call<<lambda_6978c1fb23f02e42e1d9e99668cc68aa> >(int,<lambda_6978c1fb23f02e42e1d9e99668cc68aa> &&)
FUNC 1a649 6f 0 _commit
FUNC 1a6b8 1b3 0 write_double_translated_ansi_nolock
FUNC 1a86b 6d 0 write_double_translated_unicode_nolock
FUNC 1a8d8 76 0 write_requires_double_translation_nolock
FUNC 1a94e df 0 write_text_ansi_nolock
FUNC 1aa2d ee 0 write_text_utf16le_nolock
FUNC 1ab1b 12d 0 write_text_utf8_nolock
FUNC 1ac48 eb 0 _write
FUNC 1ad33 20c 0 _write_nolock
FUNC 1af3f 7a 0 __acrt_lowio_create_handle_array
FUNC 1afb9 35 0 __acrt_lowio_destroy_handle_array
FUNC 1afee 98 0 __acrt_lowio_ensure_fh_exists
FUNC 1b086 23 0 __acrt_lowio_lock_fh
FUNC 1b0a9 23 0 __acrt_lowio_unlock_fh
FUNC 1b0cc 91 0 _free_osfhnd
FUNC 1b15d 6a 0 _get_osfhandle
FUNC 1b1c7 bc 0 __acrt_fp_strflt_to_string
FUNC 1b283 2a 0 `anonymous namespace'::scoped_fp_state_reset::scoped_fp_state_reset()
FUNC 1b2b0 4ae 0 __crt_strtox::divide(__crt_strtox::big_integer &,__crt_strtox::big_integer const &)
FUNC 1b75e 139c 0 __acrt_fltout
FUNC 1cafa 81 0 memcpy_s
FUNC 1cb7b 111 0 common_flush_and_write_nolock<char>
FUNC 1cc8c cc 0 write_buffer_nolock<char>
FUNC 1cd58 b 0 __acrt_stdio_flush_and_write_narrow_nolock
FUNC 1cd63 56 0 _isatty
FUNC 1cdc0 78 0 strncmp
FUNC 1ce40 96 0 shortsort
FUNC 1cee0 39 0 swap
FUNC 1cf20 39a 0 qsort
FUNC 1d2ba b1 0 common_tcsncpy_s<char>
FUNC 1d36b b 0 strncpy_s
FUNC 1d380 40 0 strpbrk
FUNC 1d3c0 17 0 _mbsdec
FUNC 1d3d7 8d 0 _mbsdec_l
FUNC 1d464 f 0 initialize_multibyte
FUNC 1d473 33 0 _msize
FUNC 1d4a6 69 0 _realloc_base
FUNC 1d50f 1c 0 __strncnt
FUNC 1d52b 105 0 common_lseek<__int64>
FUNC 1d630 7e 0 common_lseek_nolock<__int64>
FUNC 1d6ae 1b 0 _lseeki64
FUNC 1d6c9 1b 0 _lseeki64_nolock
FUNC 1d6e4 45 0 _putwch_nolock
FUNC 1d729 6 0 _query_app_type
FUNC 1d72f 1d 0 fegetenv
FUNC 1d74c 49 0 fesetenv
FUNC 1d795 4f 0 feholdexcept
FUNC 1d7f0 3f 0 log10
FUNC 1d830 3b 0 _CIlog10
FUNC 1d86b d5 0 _CIlog10_default
PUBLIC 1d87f 0 _log10_default
FUNC 1d940 40 0 ceil
FUNC 1d980 dd 0 _ceil_pentium4
FUNC 1da5d 5d 0 __acrt_stdio_allocate_buffer_nolock
FUNC 1dac0 61 0 __ascii_strnicmp
FUNC 1db21 1f 0 __dcrt_lowio_initialize_console_output
FUNC 1db40 17 0 __dcrt_terminate_console_output
FUNC 1db57 7d 0 __get_abstract_control_sse2
FUNC 1dbd4 73 0 __get_abstract_control_x87
FUNC 1dc47 71 0 __get_machine_control
FUNC 1dcb8 80 0 __get_machine_control_sse2
FUNC 1dd38 61 0 __get_machine_status_sse2
FUNC 1dd99 61 0 __get_machine_status_x87
FUNC 1ddfa 43 0 _getfpcontrolword
FUNC 1de3d a8 0 _getfpstatusword
FUNC 1dee5 80 0 _setfpcontrolword
FUNC 1df65 80 0 _setfpstatusword
FUNC 1dfe5 de 0 _clearfp
FUNC 1e0c3 f 0 __acrt_initialize_sse2
FUNC 1e0e0 284 0 _CIlog10_pentium4
PUBLIC 1e0f8 0 _log10_pentium4
PUBLIC 1e381 0 _fFEXP
PUBLIC 1e3d8 0 _rtinfpopse
PUBLIC 1e3da 0 _rtinfnpopse
PUBLIC 1e3ea 0 _fFLN
PUBLIC 1e49f 0 _rtinfpop
PUBLIC 1e4a1 0 _rtinfnpop
PUBLIC 1e4be 0 _ffexpm1
FUNC 1e570 67 0 _trandisp1
FUNC 1e5d7 8c 0 _trandisp2
PUBLIC 1e663 0 _rttospopde
PUBLIC 1e668 0 _rttospop
PUBLIC 1e66a 0 _rtnospop
PUBLIC 1e66c 0 _rttosnpop
PUBLIC 1e66d 0 _rtnospopde
PUBLIC 1e674 0 _rtzeropop
PUBLIC 1e676 0 _rtzeronpop
PUBLIC 1e67b 0 _rtzerospop
PUBLIC 1e688 0 _rtonepop
PUBLIC 1e68a 0 _rtonenpop
PUBLIC 1e68f 0 _tosnan1
PUBLIC 1e6ba 0 _nosnan2
PUBLIC 1e6bc 0 _tosnan2
PUBLIC 1e6e4 0 _nan2
PUBLIC 1e723 0 _rtindfpop
PUBLIC 1e725 0 _rtindfnpop
PUBLIC 1e736 0 _rttosnpopde
PUBLIC 1e740 0 _rtatan2inf
PUBLIC 1e75d 0 _rtchsifneg
FUNC 1e770 15 0 _twoToTOS
FUNC 1e785 17 0 _load_CW
FUNC 1e79c 19 0 _convertTOStoQNaN
FUNC 1e7b5 43 0 _fload_withFB
FUNC 1e7f8 16 0 _checkTOS_withFB
FUNC 1e80e d 0 _fast_exit
FUNC 1e81b 2a 0 _math_exit
FUNC 1e845 14 0 _check_overflow_exit
FUNC 1e859 a3 0 _check_range_exit
FUNC 1e900 17 0 _startTwoArgErrorHandling
FUNC 1e917 3c 0 _startOneArgErrorHandling
FUNC 1e953 218 0 __libm_error_support
FUNC 1eb6b b9 0 _ceil_default
FUNC 1ec24 13 0 _clrfp
FUNC 1ec37 2c 0 _ctrlfp
FUNC 1ec63 5b 0 _set_statfp
FUNC 1ecbe 12 0 _statfp
FUNC 1ecd0 6a 0 _d_inttype
FUNC 1ed3a 12b 0 _powhlp
FUNC 1ee65 10b 0 _87except
FUNC 1ef70 16 0 _frnd
FUNC 1ef86 34 0 _errcode
FUNC 1efba ce 0 _except1
FUNC 1f088 1e0 0 _handle_exc
FUNC 1f268 23 0 _raise_exc
FUNC 1f28b 2f1 0 _raise_exc_ex
FUNC 1f57c 2f 0 _set_errno_from_matherr
FUNC 1f5ab a2 0 _umatherr
FUNC 1f64d d4 0 _decomp
FUNC 1f721 2f 0 _set_exp
FUNC 1f750 5e 0 _sptype
FUNC 1f7ae a4 0 _fpclass
PUBLIC 1f852 4 IsProcessorFeaturePresent
PUBLIC 1f858 10 RtlUnwind
FUNC 1f860 43 0 _FindPESection
FUNC 1f8b0 ba 0 _IsNonwritableInCurrentImage
FUNC 1f970 31 0 _ValidateImageBase
FUNC 1f9b0 95 0 _aulldvrm
FUNC 1fa50 49 0 _SEH_prolog4_GS
FUNC 1fa99 11 0 _SEH_epilog4_GS
FUNC 1fab0 34 0 _allmul
FUNC 1faf0 df 0 _alldvrm
FUNC 1fbd0 1f 0 _aullshr
FUNC 1fbf0 2c 0 _alloca_probe_16
PUBLIC 1fc06 0 _alloca_probe_8
FUNC 1fc20 2d 0 _chkstk
FUNC 1fc50 1f 0 _allshl
FUNC 1fc70 9 0 _ftol2_sse
FUNC 1fc79 13 0 _ftol2_pentium4
FUNC 1fc8c 1a 0 _ftol2_sse_excpt
FUNC 1fcb0 75 0 _ftol2
FUNC 1fd30 574 0 memcpy
FUNC 202b0 137 0 strrchr
STACK WIN 4 1000 56 1 0 0 0 4 0 1 $T0 .raSearch = $eip $T0 ^ = $esp $T0 4 + = 
STACK WIN 4 1060 b3 18 0 4 10 0 0 1 $T0 .raSearch = $eip $T0 ^ = $esp $T0 4 + =  $20 $T0 4 - ^ =  $22 $T0 8 - ^ =  $23 $T0 12 - ^ =  $24 $T0 16 - ^ = 
STACK WIN 4 1120 df 7 0 0 10 14 0 1 $T0 .raSearch = $eip $T0 ^ = $esp $T0 4 + =  $20 $T0 24 - ^ =  $22 $T0 28 - ^ =  $23 $T0 32 - ^ =  $24 $T0 36 - ^ = 
STACK WIN 4 1200 189e 5 0 0 0 0 0 1 $T0 .raSearch = $eip $T0 ^ = $esp $T0 4 + = 
STACK WIN 4 1204 714 1 0 0 4 8 0 1 $T0 .raSearch = $eip $T0 ^ = $esp $T0 4 + =  $23 $T0 12 - ^ = 
STACK WIN 4 1205 712 0 0 0 8 8 0 1 $T0 .raSearch = $eip $T0 ^ = $esp $T0 4 + =  $23 $T0 12 - ^ =  $24 $T0 16 - ^ = 
STACK WIN 4 2aa0 1048 5 0 0 8 14 0 1 $T0 .raSearch = $eip $T0 ^ = $esp $T0 4 + =  $23 $T0 24 - ^ =  $24 $T0 28 - ^ = 
STACK WIN 4 3af0 67 3 0 c 0 0 0 1 $T0 .raSearch = $eip $T0 ^ = $esp $T0 4 + = 
STACK WIN 4 3af1 61 2 0 c 4 0 0 1 $T0 .raSearch = $eip $T0 ^ = $esp $T0 4 + =  $23 $T0 4 - ^ = 
STACK WIN 4 3af4 5d 0 0 c 8 0 0 1 $T0 .raSearch = $eip $T0 ^ = $esp $T0 4 + =  $23 $T0 4 - ^ =  $24 $T0 8 - ^ = 
STACK WIN 4 3b60 61 3 0 c 0 0 0 1 $T0 .raSearch = $eip $T0 ^ = $esp $T0 4 + = 
STACK WIN 4 3b61 5b 2 0 c 4 0 0 1 $T0 .raSearch = $eip $T0 ^ = $esp $T0 4 + =  $23 $T0 4 - ^ = 
STACK WIN 4 3b64 57 0 0 c 8 0 0 1 $T0 .raSearch = $eip $T0 ^ = $esp $T0 4 + =  $23 $T0 4 - ^ =  $24 $T0 8 - ^ = 
STACK WIN 4 3bd0 b5 5 0 c 0 0 0 1 $T0 .raSearch = $eip $T0 ^ = $esp $T0 4 + = 
STACK WIN 4 3bd1 a6 4 0 c 4 0 0 1 $T0 .raSearch = $eip $T0 ^ = $esp $T0 4 + =  $20 $T0 4 - ^ = 
STACK WIN 4 3bd2 a2 3 0 c 8 0 0 1 $T0 .raSearch = $eip $T0 ^ = $esp $T0 4 + =  $20 $T0 4 - ^ =  $22 $T0 8 - ^ = 
STACK WIN 4 3bd3 a0 2 0 c c 0 0 1 $T0 .raSearch = $eip $T0 ^ = $esp $T0 4 + =  $20 $T0 4 - ^ =  $22 $T0 8 - ^ =  $23 $T0 12 - ^ = 
STACK WIN 4 3bd6 9c 0 0 c 10 0 0 1 $T0 .raSearch = $eip $T0 ^ = $esp $T0 4 + =  $20 $T0 4 - ^ =  $22 $T0 8 - ^ =  $23 $T0 12 - ^ =  $24 $T0 16 - ^ = 
STACK WIN 4 3c90 5f 3 0 4 0 0 0 1 $T0 .raSearch = $eip $T0 ^ = $esp $T0 4 + = 
STACK WIN 4 3c91 50 2 0 4 4 0 0 1 $T0 .raSearch = $eip $T0 ^ = $esp $T0 4 + =  $23 $T0 4 - ^ = 
STACK WIN 4 3c94 4c 0 0 4 8 0 0 1 $T0 .raSearch = $eip $T0 ^ = $esp $T0 4 + =  $23 $T0 4 - ^ =  $24 $T0 8 - ^ = 
STACK WIN 4 3cab 34 0 0 4 c 0 0 1 $T0 .raSearch = $eip $T0 ^ = $esp $T0 4 + =  $23 $T0 4 - ^ =  $24 $T0 8 - ^ =  $20 $T0 12 - ^ = 
STACK WIN 4 3cf0 5f 3 0 4 0 0 0 1 $T0 .raSearch = $eip $T0 ^ = $esp $T0 4 + = 
STACK WIN 4 3cf1 50 2 0 4 4 0 0 1 $T0 .raSearch = $eip $T0 ^ = $esp $T0 4 + =  $23 $T0 4 - ^ = 
STACK WIN 4 3cf4 4c 0 0 4 8 0 0 1 $T0 .raSearch = $eip $T0 ^ = $esp $T0 4 + =  $23 $T0 4 - ^ =  $24 $T0 8 - ^ = 
STACK WIN 4 3d0b 34 0 0 4 c 0 0 1 $T0 .raSearch = $eip $T0 ^ = $esp $T0 4 + =  $23 $T0 4 - ^ =  $24 $T0 8 - ^ =  $20 $T0 12 - ^ = 
STACK WIN 4 3d50 fc a 0 4 10 0 0 1 $T0 .raSearch = $eip $T0 ^ = $esp $T0 4 + =  $20 $T0 4 - ^ =  $22 $T0 8 - ^ =  $23 $T0 12 - ^ =  $24 $T0 16 - ^ = 
STACK WIN 4 3e50 113 e 0 4 10 4 0 1 $T0 .raSearch = $eip $T0 ^ = $esp $T0 4 + =  $20 $T0 8 - ^ =  $22 $T0 12 - ^ =  $23 $T0 16 - ^ =  $24 $T0 20 - ^ = 
STACK WIN 4 3f70 a4 9 0 8 0 0 0 1 $T0 .raSearch = $eip $T0 ^ = $esp $T0 4 + = 
STACK WIN 4 3f72 a0 7 0 8 4 4 0 1 $T0 .raSearch = $eip $T0 ^ = $esp $T0 4 + =  $20 $T0 8 - ^ = 
STACK WIN 4 3f73 9b 6 0 8 8 4 0 1 $T0 .raSearch = $eip $T0 ^ = $esp $T0 4 + =  $20 $T0 8 - ^ =  $22 $T0 12 - ^ = 
STACK WIN 4 3f7c 91 0 0 8 c 4 0 1 $T0 .raSearch = $eip $T0 ^ = $esp $T0 4 + =  $20 $T0 8 - ^ =  $22 $T0 12 - ^ =  $23 $T0 16 - ^ = 
STACK WIN 4 3f7d 8c 0 0 8 10 4 0 1 $T0 .raSearch = $eip $T0 ^ = $esp $T0 4 + =  $20 $T0 8 - ^ =  $22 $T0 12 - ^ =  $23 $T0 16 - ^ =  $24 $T0 20 - ^ = 
STACK WIN 4 4020 79 7 0 8 0 0 0 1 $T0 .raSearch = $eip $T0 ^ = $esp $T0 4 + = 
STACK WIN 4 4021 77 6 0 8 4 0 0 1 $T0 .raSearch = $eip $T0 ^ = $esp $T0 4 + =  $20 $T0 4 - ^ = 
STACK WIN 4 4022 75 5 0 8 8 0 0 1 $T0 .raSearch = $eip $T0 ^ = $esp $T0 4 + =  $20 $T0 4 - ^ =  $22 $T0 8 - ^ = 
STACK WIN 4 4023 71 4 0 8 c 0 0 1 $T0 .raSearch = $eip $T0 ^ = $esp $T0 4 + =  $20 $T0 4 - ^ =  $22 $T0 8 - ^ =  $23 $T0 12 - ^ = 
STACK WIN 4 402a 69 0 0 8 10 0 0 1 $T0 .raSearch = $eip $T0 ^ = $esp $T0 4 + =  $20 $T0 4 - ^ =  $22 $T0 8 - ^ =  $23 $T0 12 - ^ =  $24 $T0 16 - ^ = 
STACK WIN 4 40a0 bc 9 0 4 8 10 0 1 $T0 .raSearch = $eip $T0 ^ = $esp $T0 4 + =  $20 $T0 20 - ^ =  $23 $T0 24 - ^ = 
STACK WIN 4 4160 116 11 0 8 10 3c 0 1 $T0 .raSearch = $eip $T0 ^ = $esp $T0 4 + =  $20 $T0 64 - ^ =  $22 $T0 68 - ^ =  $23 $T0 72 - ^ =  $24 $T0 76 - ^ = 
STACK WIN 4 4280 f95 23 0 4 c 174 0 1 $T1 .raSearch = $T0  $T1 4 - 64 @ = $ebp $T1 4 - ^ = $eip $T1 ^ = $esp $T1 4 + = $20 $T0 376 - ^ =  $23 $T0 380 - ^ =  $24 $T0 384 - ^ = 
STACK WIN 4 5220 569 12 0 4 c 44 0 1 $T1 .raSearch = $T0  $T1 4 - 8 @ = $ebp $T1 4 - ^ = $eip $T1 ^ = $esp $T1 4 + = $20 $T0 72 - ^ =  $23 $T0 76 - ^ =  $24 $T0 80 - ^ = 
STACK WIN 4 5790 d 0 0 0 0 0 0 1 $T0 .raSearch = $eip $T0 ^ = $esp $T0 4 + = 
STACK WIN 4 57a0 5a 0 0 8 0 0 0 1 $T0 .raSearch = $eip $T0 ^ = $esp $T0 4 + = 
STACK WIN 4 5800 78 9 0 c 8 18 0 1 $T0 .raSearch = $eip $T0 ^ = $esp $T0 4 + =  $23 $T0 28 - ^ =  $24 $T0 32 - ^ = 
STACK WIN 4 5880 1c 0 0 0 0 0 0 1 $T0 .raSearch = $eip $T0 ^ = $esp $T0 4 + = 
STACK WIN 4 58a0 c3 0 0 0 0 0 0 1 $T0 .raSearch = $eip $T0 ^ = $esp $T0 4 + = 
STACK WIN 4 5970 99 10 0 8 0 0 0 1 $T0 .raSearch = $eip $T0 ^ = $esp $T0 4 + = 
STACK WIN 4 5972 95 e 0 8 4 4 0 1 $T0 .raSearch = $eip $T0 ^ = $esp $T0 4 + =  $20 $T0 8 - ^ = 
STACK WIN 4 5973 93 d 0 8 8 4 0 1 $T0 .raSearch = $eip $T0 ^ = $esp $T0 4 + =  $20 $T0 8 - ^ =  $22 $T0 12 - ^ = 
STACK WIN 4 597a 8b 6 0 8 c 4 0 1 $T0 .raSearch = $eip $T0 ^ = $esp $T0 4 + =  $20 $T0 8 - ^ =  $22 $T0 12 - ^ =  $23 $T0 16 - ^ = 
STACK WIN 4 5981 83 0 0 8 10 4 0 1 $T0 .raSearch = $eip $T0 ^ = $esp $T0 4 + =  $20 $T0 8 - ^ =  $22 $T0 12 - ^ =  $23 $T0 16 - ^ =  $24 $T0 20 - ^ = 
STACK WIN 4 5a10 271 12 0 0 0 0 0 1 $T0 .raSearch = $eip $T0 ^ = $esp $T0 4 + = 
STACK WIN 4 5a1f 24c 3 0 0 4 1c 0 1 $T0 .raSearch = $eip $T0 ^ = $esp $T0 4 + =  $20 $T0 32 - ^ = 
STACK WIN 4 5a20 24a 2 0 0 8 1c 0 1 $T0 .raSearch = $eip $T0 ^ = $esp $T0 4 + =  $20 $T0 32 - ^ =  $22 $T0 36 - ^ = 
STACK WIN 4 5a38 1b2 0 0 0 c 1c 0 1 $T0 .raSearch = $eip $T0 ^ = $esp $T0 4 + =  $20 $T0 32 - ^ =  $22 $T0 36 - ^ =  $23 $T0 48 - ^ = 
STACK WIN 4 5aec fd 0 0 0 10 1c 0 1 $T0 .raSearch = $eip $T0 ^ = $esp $T0 4 + =  $20 $T0 32 - ^ =  $22 $T0 36 - ^ =  $23 $T0 48 - ^ =  $24 $T0 44 - ^ = 
STACK WIN 4 5c90 6 0 0 0 0 0 0 1 $T0 .raSearch = $eip $T0 ^ = $esp $T0 4 + = 
STACK WIN 4 5ca0 28 6 0 8 0 0 0 1 $T1 .raSearch = $T0  $T1 4 - 8 @ = $ebp $T1 4 - ^ = $eip $T1 ^ = $esp $T1 4 + =
STACK WIN 4 5cd0 30 0 0 8 0 0 0 1 $T0 .raSearch = $eip $T0 ^ = $esp $T0 4 + = 
STACK WIN 4 5d00 c9 c 0 8 0 0 0 1 $T0 .raSearch = $eip $T0 ^ = $esp $T0 4 + = 
STACK WIN 4 5d02 c5 a 0 8 4 4 0 1 $T0 .raSearch = $eip $T0 ^ = $esp $T0 4 + =  $20 $T0 8 - ^ = 
STACK WIN 4 5d03 c3 9 0 8 8 4 0 1 $T0 .raSearch = $eip $T0 ^ = $esp $T0 4 + =  $20 $T0 8 - ^ =  $22 $T0 12 - ^ = 
STACK WIN 4 5d0a bb 2 0 8 c 4 0 1 $T0 .raSearch = $eip $T0 ^ = $esp $T0 4 + =  $20 $T0 8 - ^ =  $22 $T0 12 - ^ =  $23 $T0 16 - ^ = 
STACK WIN 4 5d0d b7 0 0 8 10 4 0 1 $T0 .raSearch = $eip $T0 ^ = $esp $T0 4 + =  $20 $T0 8 - ^ =  $22 $T0 12 - ^ =  $23 $T0 16 - ^ =  $24 $T0 20 - ^ = 
STACK WIN 4 5dd0 14f c 0 8 0 0 0 1 $T0 .raSearch = $eip $T0 ^ = $esp $T0 4 + = 
STACK WIN 4 5dd6 145 6 0 8 4 18 0 1 $T0 .raSearch = $eip $T0 ^ = $esp $T0 4 + =  $20 $T0 28 - ^ = 
STACK WIN 4 5de1 139 0 0 8 8 18 0 1 $T0 .raSearch = $eip $T0 ^ = $esp $T0 4 + =  $20 $T0 28 - ^ =  $22 $T0 32 - ^ = 
STACK WIN 4 5de2 137 0 0 8 c 18 0 1 $T0 .raSearch = $eip $T0 ^ = $esp $T0 4 + =  $20 $T0 28 - ^ =  $22 $T0 32 - ^ =  $23 $T0 36 - ^ = 
STACK WIN 4 5dfc 11c 0 0 8 10 18 0 1 $T0 .raSearch = $eip $T0 ^ = $esp $T0 4 + =  $20 $T0 28 - ^ =  $22 $T0 32 - ^ =  $23 $T0 36 - ^ =  $24 $T0 40 - ^ = 
STACK WIN 4 5f20 1ac 15 0 8 0 0 0 1 $T0 .raSearch = $eip $T0 ^ = $esp $T0 4 + = 
STACK WIN 4 5f24 1a4 11 0 8 4 1c 0 1 $T0 .raSearch = $eip $T0 ^ = $esp $T0 4 + =  $20 $T0 32 - ^ = 
STACK WIN 4 5f2f 198 6 0 8 8 1c 0 1 $T0 .raSearch = $eip $T0 ^ = $esp $T0 4 + =  $20 $T0 32 - ^ =  $22 $T0 36 - ^ = 
STACK WIN 4 5f3c 18a 0 0 8 c 1c 0 1 $T0 .raSearch = $eip $T0 ^ = $esp $T0 4 + =  $20 $T0 32 - ^ =  $22 $T0 36 - ^ =  $23 $T0 40 - ^ = 
STACK WIN 4 5f3d 188 0 0 8 10 1c 0 1 $T0 .raSearch = $eip $T0 ^ = $esp $T0 4 + =  $20 $T0 32 - ^ =  $22 $T0 36 - ^ =  $23 $T0 40 - ^ =  $24 $T0 44 - ^ = 
STACK WIN 4 60d0 1f4 14 0 4 0 0 0 1 $T0 .raSearch = $eip $T0 ^ = $esp $T0 4 + = 
STACK WIN 4 60d4 1ec 10 0 4 4 1c 0 1 $T0 .raSearch = $eip $T0 ^ = $esp $T0 4 + =  $20 $T0 32 - ^ = 
STACK WIN 4 60e5 1da 0 0 4 8 1c 0 1 $T0 .raSearch = $eip $T0 ^ = $esp $T0 4 + =  $20 $T0 32 - ^ =  $22 $T0 36 - ^ = 
STACK WIN 4 60e6 1d8 0 0 4 c 1c 0 1 $T0 .raSearch = $eip $T0 ^ = $esp $T0 4 + =  $20 $T0 32 - ^ =  $22 $T0 36 - ^ =  $23 $T0 40 - ^ = 
STACK WIN 4 60e7 1d6 0 0 4 10 1c 0 1 $T0 .raSearch = $eip $T0 ^ = $esp $T0 4 + =  $20 $T0 32 - ^ =  $22 $T0 36 - ^ =  $23 $T0 40 - ^ =  $24 $T0 44 - ^ = 
STACK WIN 4 62d0 24b 1d 0 4 0 0 0 1 $T0 .raSearch = $eip $T0 ^ = $esp $T0 4 + = 
STACK WIN 4 62d4 243 19 0 4 4 18 0 1 $T0 .raSearch = $eip $T0 ^ = $esp $T0 4 + =  $20 $T0 28 - ^ = 
STACK WIN 4 62d5 241 18 0 4 8 18 0 1 $T0 .raSearch = $eip $T0 ^ = $esp $T0 4 + =  $20 $T0 28 - ^ =  $22 $T0 32 - ^ = 
STACK WIN 4 62d6 23f 17 0 4 c 18 0 1 $T0 .raSearch = $eip $T0 ^ = $esp $T0 4 + =  $20 $T0 28 - ^ =  $22 $T0 32 - ^ =  $23 $T0 36 - ^ = 
STACK WIN 4 62e4 230 9 0 4 10 18 0 1 $T0 .raSearch = $eip $T0 ^ = $esp $T0 4 + =  $20 $T0 28 - ^ =  $22 $T0 32 - ^ =  $23 $T0 36 - ^ =  $24 $T0 40 - ^ = 
STACK WIN 4 6520 bf 6 0 4 0 0 0 1 $T0 .raSearch = $eip $T0 ^ = $esp $T0 4 + = 
STACK WIN 4 6524 b7 2 0 4 4 8 0 1 $T0 .raSearch = $eip $T0 ^ = $esp $T0 4 + =  $22 $T0 12 - ^ = 
STACK WIN 4 6536 a4 0 0 4 8 8 0 1 $T0 .raSearch = $eip $T0 ^ = $esp $T0 4 + =  $22 $T0 12 - ^ =  $20 $T0 16 - ^ = 
STACK WIN 4 6537 a2 0 0 4 c 8 0 1 $T0 .raSearch = $eip $T0 ^ = $esp $T0 4 + =  $22 $T0 12 - ^ =  $20 $T0 16 - ^ =  $23 $T0 20 - ^ = 
STACK WIN 4 6538 a0 0 0 4 10 8 0 1 $T0 .raSearch = $eip $T0 ^ = $esp $T0 4 + =  $22 $T0 12 - ^ =  $20 $T0 16 - ^ =  $23 $T0 20 - ^ =  $24 $T0 24 - ^ = 
STACK WIN 4 65e0 2c1 9 0 4 10 30 0 1 $T0 .raSearch = $eip $T0 ^ = $esp $T0 4 + =  $20 $T0 52 - ^ =  $22 $T0 56 - ^ =  $23 $T0 60 - ^ =  $24 $T0 64 - ^ = 
STACK WIN 4 68b0 13d 11 0 10 0 0 0 1 $T0 .raSearch = $eip $T0 ^ = $esp $T0 4 + = 
STACK WIN 4 68b4 135 d 0 10 4 8 0 1 $T0 .raSearch = $eip $T0 ^ = $esp $T0 4 + =  $23 $T0 12 - ^ = 
STACK WIN 4 68b9 12f 8 0 10 8 8 0 1 $T0 .raSearch = $eip $T0 ^ = $esp $T0 4 + =  $23 $T0 12 - ^ =  $24 $T0 16 - ^ = 
STACK WIN 4 693b ac 0 0 10 c 8 0 1 $T0 .raSearch = $eip $T0 ^ = $esp $T0 4 + =  $23 $T0 12 - ^ =  $24 $T0 16 - ^ =  $22 $T0 20 - ^ = 
STACK WIN 4 6953 8b 0 0 10 10 8 0 1 $T0 .raSearch = $eip $T0 ^ = $esp $T0 4 + =  $23 $T0 12 - ^ =  $24 $T0 16 - ^ =  $22 $T0 20 - ^ =  $20 $T0 24 - ^ = 
STACK WIN 4 69f0 155 20 0 8 10 1c 0 1 $T0 .raSearch = $eip $T0 ^ = $esp $T0 4 + =  $20 $T0 32 - ^ =  $22 $T0 36 - ^ =  $23 $T0 40 - ^ =  $24 $T0 44 - ^ = 
STACK WIN 4 6b50 e5 6 0 c 10 0 0 1 $T0 .raSearch = $eip $T0 ^ = $esp $T0 4 + =  $20 $T0 4 - ^ =  $22 $T0 8 - ^ =  $23 $T0 12 - ^ =  $24 $T0 16 - ^ = 
STACK WIN 4 6c40 28d 2e 0 18 0 0 0 1 $T0 .raSearch = $eip $T0 ^ = $esp $T0 4 + = 
STACK WIN 4 6c4b 276 23 0 18 4 8 0 1 $T0 .raSearch = $eip $T0 ^ = $esp $T0 4 + =  $20 $T0 12 - ^ = 
STACK WIN 4 6c4c 274 22 0 18 8 8 0 1 $T0 .raSearch = $eip $T0 ^ = $esp $T0 4 + =  $20 $T0 12 - ^ =  $22 $T0 16 - ^ = 
STACK WIN 4 6c4d 272 21 0 18 c 8 0 1 $T0 .raSearch = $eip $T0 ^ = $esp $T0 4 + =  $20 $T0 12 - ^ =  $22 $T0 16 - ^ =  $23 $T0 20 - ^ = 
STACK WIN 4 6c6c 252 2 0 18 10 8 0 1 $T0 .raSearch = $eip $T0 ^ = $esp $T0 4 + =  $20 $T0 12 - ^ =  $22 $T0 16 - ^ =  $23 $T0 20 - ^ =  $24 $T0 24 - ^ = 
STACK WIN 4 6ed0 359 19 0 20 10 3c 0 1 $T0 .raSearch = $eip $T0 ^ = $esp $T0 4 + =  $20 $T0 64 - ^ =  $22 $T0 68 - ^ =  $23 $T0 72 - ^ =  $24 $T0 76 - ^ = 
STACK WIN 4 7230 b6 3 0 4 0 0 0 1 $T0 .raSearch = $eip $T0 ^ = $esp $T0 4 + = 
STACK WIN 4 7231 b4 2 0 4 4 0 0 1 $T0 .raSearch = $eip $T0 ^ = $esp $T0 4 + =  $23 $T0 4 - ^ = 
STACK WIN 4 7258 8c 0 0 4 8 0 0 1 $T0 .raSearch = $eip $T0 ^ = $esp $T0 4 + =  $23 $T0 4 - ^ =  $20 $T0 8 - ^ = 
STACK WIN 4 725d 86 0 0 4 c 0 0 1 $T0 .raSearch = $eip $T0 ^ = $esp $T0 4 + =  $23 $T0 4 - ^ =  $20 $T0 8 - ^ =  $24 $T0 12 - ^ = 
STACK WIN 4 72f0 7a 4 0 0 0 0 0 1 $T0 .raSearch = $eip $T0 ^ = $esp $T0 4 + = 
STACK WIN 4 72f1 78 3 0 0 4 0 0 1 $T0 .raSearch = $eip $T0 ^ = $esp $T0 4 + =  $20 $T0 4 - ^ = 
STACK WIN 4 72f2 76 2 0 0 8 0 0 1 $T0 .raSearch = $eip $T0 ^ = $esp $T0 4 + =  $20 $T0 4 - ^ =  $24 $T0 8 - ^ = 
STACK WIN 4 732b 3c 0 0 0 c 0 0 1 $T0 .raSearch = $eip $T0 ^ = $esp $T0 4 + =  $20 $T0 4 - ^ =  $24 $T0 8 - ^ =  $22 $T0 12 - ^ = 
STACK WIN 4 7337 2f 0 0 0 10 0 0 1 $T0 .raSearch = $eip $T0 ^ = $esp $T0 4 + =  $20 $T0 4 - ^ =  $24 $T0 8 - ^ =  $22 $T0 12 - ^ =  $23 $T0 16 - ^ = 
STACK WIN 4 7370 29e 1f 0 c 10 40 0 1 $T0 .raSearch = $eip $T0 ^ = $esp $T0 4 + =  $20 $T0 68 - ^ =  $22 $T0 72 - ^ =  $23 $T0 76 - ^ =  $24 $T0 80 - ^ = 
STACK WIN 4 7610 6a 8 0 4 0 0 0 1 $T0 .raSearch = $eip $T0 ^ = $esp $T0 4 + = 
STACK WIN 4 7611 68 7 0 4 4 0 0 1 $T0 .raSearch = $eip $T0 ^ = $esp $T0 4 + =  $20 $T0 4 - ^ = 
STACK WIN 4 7612 66 6 0 4 8 0 0 1 $T0 .raSearch = $eip $T0 ^ = $esp $T0 4 + =  $20 $T0 4 - ^ =  $24 $T0 8 - ^ = 
STACK WIN 4 7625 52 0 0 4 c 0 0 1 $T0 .raSearch = $eip $T0 ^ = $esp $T0 4 + =  $20 $T0 4 - ^ =  $24 $T0 8 - ^ =  $23 $T0 12 - ^ = 
STACK WIN 4 7680 861 6c 0 2c 10 540 0 1 $T0 .raSearch = $eip $T0 ^ = $esp $T0 4 + =  $20 $T0 1348 - ^ =  $22 $T0 1352 - ^ =  $23 $T0 1356 - ^ =  $24 $T0 1360 - ^ = 
STACK WIN 4 7ef0 a0 e 0 4 0 0 0 1 $T0 .raSearch = $eip $T0 ^ = $esp $T0 4 + = 
STACK WIN 4 7ef1 9c d 0 4 4 0 0 1 $T0 .raSearch = $eip $T0 ^ = $esp $T0 4 + =  $20 $T0 4 - ^ = 
STACK WIN 4 7ef2 9a c 0 4 8 0 0 1 $T0 .raSearch = $eip $T0 ^ = $esp $T0 4 + =  $20 $T0 4 - ^ =  $23 $T0 8 - ^ = 
STACK WIN 4 7efc 8f 2 0 4 c 0 0 1 $T0 .raSearch = $eip $T0 ^ = $esp $T0 4 + =  $20 $T0 4 - ^ =  $23 $T0 8 - ^ =  $24 $T0 12 - ^ = 
STACK WIN 4 7f90 68 3 0 0 0 0 0 1 $T0 .raSearch = $eip $T0 ^ = $esp $T0 4 + = 
STACK WIN 4 7f91 51 2 0 0 4 0 0 1 $T0 .raSearch = $eip $T0 ^ = $esp $T0 4 + =  $23 $T0 4 - ^ = 
STACK WIN 4 8000 75 3 0 0 0 0 0 1 $T0 .raSearch = $eip $T0 ^ = $esp $T0 4 + = 
STACK WIN 4 8001 59 2 0 0 4 0 0 1 $T0 .raSearch = $eip $T0 ^ = $esp $T0 4 + =  $23 $T0 4 - ^ = 
STACK WIN 4 8080 8c 3 0 4 0 0 0 1 $T0 .raSearch = $eip $T0 ^ = $esp $T0 4 + = 
STACK WIN 4 8081 7d 2 0 4 4 0 0 1 $T0 .raSearch = $eip $T0 ^ = $esp $T0 4 + =  $20 $T0 4 - ^ = 
STACK WIN 4 8089 74 0 0 4 8 0 0 1 $T0 .raSearch = $eip $T0 ^ = $esp $T0 4 + =  $20 $T0 4 - ^ =  $22 $T0 8 - ^ = 
STACK WIN 4 808a 72 0 0 4 c 0 0 1 $T0 .raSearch = $eip $T0 ^ = $esp $T0 4 + =  $20 $T0 4 - ^ =  $22 $T0 8 - ^ =  $23 $T0 12 - ^ = 
STACK WIN 4 808b 70 0 0 4 10 0 0 1 $T0 .raSearch = $eip $T0 ^ = $esp $T0 4 + =  $20 $T0 4 - ^ =  $22 $T0 8 - ^ =  $23 $T0 12 - ^ =  $24 $T0 16 - ^ = 
STACK WIN 4 8110 f1 8 0 8 0 0 0 1 $T0 .raSearch = $eip $T0 ^ = $esp $T0 4 + = 
STACK WIN 4 8111 e2 7 0 8 4 0 0 1 $T0 .raSearch = $eip $T0 ^ = $esp $T0 4 + =  $20 $T0 4 - ^ = 
STACK WIN 4 8116 dc 2 0 8 8 0 0 1 $T0 .raSearch = $eip $T0 ^ = $esp $T0 4 + =  $20 $T0 4 - ^ =  $23 $T0 8 - ^ = 
STACK WIN 4 8174 7b 0 0 8 c 0 0 1 $T0 .raSearch = $eip $T0 ^ = $esp $T0 4 + =  $20 $T0 4 - ^ =  $23 $T0 8 - ^ =  $24 $T0 12 - ^ = 
STACK WIN 4 81f6 b 0 0 8 8 0 0 1 $T0 .raSearch = $eip $T0 ^ = $esp $T0 4 + =  $20 $T0 4 - ^ =  $23 $T0 8 - ^ =  $24 $T0 12 - ^ = 
STACK WIN 4 8210 104 10 0 c 0 0 0 1 $T0 .raSearch = $eip $T0 ^ = $esp $T0 4 + = 
STACK WIN 4 8211 e1 f 0 c 4 0 0 1 $T0 .raSearch = $eip $T0 ^ = $esp $T0 4 + =  $20 $T0 4 - ^ = 
STACK WIN 4 8216 db a 0 c 8 0 0 1 $T0 .raSearch = $eip $T0 ^ = $esp $T0 4 + =  $20 $T0 4 - ^ =  $22 $T0 8 - ^ = 
STACK WIN 4 821b d5 5 0 c c 0 0 1 $T0 .raSearch = $eip $T0 ^ = $esp $T0 4 + =  $20 $T0 4 - ^ =  $22 $T0 8 - ^ =  $23 $T0 12 - ^ = 
STACK WIN 4 822b c2 0 0 c 10 0 0 1 $T0 .raSearch = $eip $T0 ^ = $esp $T0 4 + =  $20 $T0 4 - ^ =  $22 $T0 8 - ^ =  $23 $T0 12 - ^ =  $24 $T0 16 - ^ = 
STACK WIN 4 8320 cb 9 0 4 0 0 0 1 $T0 .raSearch = $eip $T0 ^ = $esp $T0 4 + = 
STACK WIN 4 8321 bc 8 0 4 4 0 0 1 $T0 .raSearch = $eip $T0 ^ = $esp $T0 4 + =  $20 $T0 4 - ^ = 
STACK WIN 4 8322 b7 7 0 4 8 0 0 1 $T0 .raSearch = $eip $T0 ^ = $esp $T0 4 + =  $20 $T0 4 - ^ =  $23 $T0 8 - ^ = 
STACK WIN 4 8323 b2 6 0 4 c 0 0 1 $T0 .raSearch = $eip $T0 ^ = $esp $T0 4 + =  $20 $T0 4 - ^ =  $23 $T0 8 - ^ =  $24 $T0 12 - ^ = 
STACK WIN 4 837a 5a 0 0 4 10 0 0 1 $T0 .raSearch = $eip $T0 ^ = $esp $T0 4 + =  $20 $T0 4 - ^ =  $23 $T0 8 - ^ =  $24 $T0 12 - ^ =  $22 $T0 16 - ^ = 
STACK WIN 4 83e0 b 0 0 4 c 0 0 1 $T0 .raSearch = $eip $T0 ^ = $esp $T0 4 + =  $20 $T0 4 - ^ =  $23 $T0 8 - ^ =  $24 $T0 12 - ^ =  $22 $T0 16 - ^ = 
STACK WIN 4 83f0 47 1 0 8 0 0 0 1 $T0 .raSearch = $eip $T0 ^ = $esp $T0 4 + = 
STACK WIN 4 83f1 38 0 0 8 4 0 0 1 $T0 .raSearch = $eip $T0 ^ = $esp $T0 4 + =  $23 $T0 4 - ^ = 
STACK WIN 4 8440 95 3 0 8 0 0 0 1 $T0 .raSearch = $eip $T0 ^ = $esp $T0 4 + = 
STACK WIN 4 8441 86 2 0 8 4 0 0 1 $T0 .raSearch = $eip $T0 ^ = $esp $T0 4 + =  $23 $T0 4 - ^ = 
STACK WIN 4 8448 7c 0 0 8 8 0 0 1 $T0 .raSearch = $eip $T0 ^ = $esp $T0 4 + =  $23 $T0 4 - ^ =  $24 $T0 8 - ^ = 
STACK WIN 4 848f 1f 0 0 8 c 0 0 1 $T0 .raSearch = $eip $T0 ^ = $esp $T0 4 + =  $23 $T0 4 - ^ =  $24 $T0 8 - ^ =  $20 $T0 12 - ^ = 
STACK WIN 4 84e0 125 b 0 8 0 0 0 1 $T0 .raSearch = $eip $T0 ^ = $esp $T0 4 + = 
STACK WIN 4 84e5 103 6 0 8 4 0 0 1 $T0 .raSearch = $eip $T0 ^ = $esp $T0 4 + =  $20 $T0 4 - ^ = 
STACK WIN 4 84e6 101 5 0 8 8 0 0 1 $T0 .raSearch = $eip $T0 ^ = $esp $T0 4 + =  $20 $T0 4 - ^ =  $23 $T0 8 - ^ = 
STACK WIN 4 84e7 ff 4 0 8 c 0 0 1 $T0 .raSearch = $eip $T0 ^ = $esp $T0 4 + =  $20 $T0 4 - ^ =  $23 $T0 8 - ^ =  $24 $T0 12 - ^ = 
STACK WIN 4 855b 8a 0 0 8 10 0 0 1 $T0 .raSearch = $eip $T0 ^ = $esp $T0 4 + =  $20 $T0 4 - ^ =  $23 $T0 8 - ^ =  $24 $T0 12 - ^ =  $22 $T0 16 - ^ = 
STACK WIN 4 8610 99 5 0 0 0 0 0 1 $T0 .raSearch = $eip $T0 ^ = $esp $T0 4 + = 
STACK WIN 4 8612 95 3 0 0 4 4 0 1 $T0 .raSearch = $eip $T0 ^ = $esp $T0 4 + =  $22 $T0 8 - ^ = 
STACK WIN 4 8616 90 0 0 0 8 4 0 1 $T0 .raSearch = $eip $T0 ^ = $esp $T0 4 + =  $22 $T0 8 - ^ =  $24 $T0 12 - ^ = 
STACK WIN 4 861e 87 0 0 0 c 4 0 1 $T0 .raSearch = $eip $T0 ^ = $esp $T0 4 + =  $22 $T0 8 - ^ =  $24 $T0 12 - ^ =  $20 $T0 16 - ^ = 
STACK WIN 4 8624 80 0 0 0 10 4 0 1 $T0 .raSearch = $eip $T0 ^ = $esp $T0 4 + =  $22 $T0 8 - ^ =  $24 $T0 12 - ^ =  $20 $T0 16 - ^ =  $23 $T0 20 - ^ = 
STACK WIN 4 86b0 78 3 0 0 0 0 0 1 $T0 .raSearch = $eip $T0 ^ = $esp $T0 4 + = 
STACK WIN 4 86b1 76 2 0 0 4 0 0 1 $T0 .raSearch = $eip $T0 ^ = $esp $T0 4 + =  $22 $T0 4 - ^ = 
STACK WIN 4 86b9 6d 0 0 0 8 0 0 1 $T0 .raSearch = $eip $T0 ^ = $esp $T0 4 + =  $22 $T0 4 - ^ =  $20 $T0 8 - ^ = 
STACK WIN 4 86ba 6b 0 0 0 c 0 0 1 $T0 .raSearch = $eip $T0 ^ = $esp $T0 4 + =  $22 $T0 4 - ^ =  $20 $T0 8 - ^ =  $23 $T0 12 - ^ = 
STACK WIN 4 86bf 5d 0 0 0 10 0 0 1 $T0 .raSearch = $eip $T0 ^ = $esp $T0 4 + =  $22 $T0 4 - ^ =  $20 $T0 8 - ^ =  $23 $T0 12 - ^ =  $24 $T0 16 - ^ = 
STACK WIN 4 8730 89 a 0 0 0 0 0 1 $T0 .raSearch = $eip $T0 ^ = $esp $T0 4 + = 
STACK WIN 4 8734 81 6 0 0 4 c 0 1 $T0 .raSearch = $eip $T0 ^ = $esp $T0 4 + =  $24 $T0 16 - ^ = 
STACK WIN 4 8742 72 0 0 0 8 c 0 1 $T0 .raSearch = $eip $T0 ^ = $esp $T0 4 + =  $24 $T0 16 - ^ =  $20 $T0 20 - ^ = 
STACK WIN 4 874c 61 0 0 0 c c 0 1 $T0 .raSearch = $eip $T0 ^ = $esp $T0 4 + =  $24 $T0 16 - ^ =  $20 $T0 20 - ^ =  $22 $T0 24 - ^ = 
STACK WIN 4 8751 5b 0 0 0 10 c 0 1 $T0 .raSearch = $eip $T0 ^ = $esp $T0 4 + =  $24 $T0 16 - ^ =  $20 $T0 20 - ^ =  $22 $T0 24 - ^ =  $23 $T0 28 - ^ = 
STACK WIN 4 87c0 38 3 0 0 0 0 0 1 $T0 .raSearch = $eip $T0 ^ = $esp $T0 4 + = 
STACK WIN 4 87c1 36 2 0 0 4 0 0 1 $T0 .raSearch = $eip $T0 ^ = $esp $T0 4 + =  $22 $T0 4 - ^ = 
STACK WIN 4 87c4 32 0 0 0 8 0 0 1 $T0 .raSearch = $eip $T0 ^ = $esp $T0 4 + =  $22 $T0 4 - ^ =  $23 $T0 8 - ^ = 
STACK WIN 4 87c5 2e 0 0 0 c 0 0 1 $T0 .raSearch = $eip $T0 ^ = $esp $T0 4 + =  $22 $T0 4 - ^ =  $23 $T0 8 - ^ =  $24 $T0 12 - ^ = 
STACK WIN 4 87d1 21 0 0 0 10 0 0 1 $T0 .raSearch = $eip $T0 ^ = $esp $T0 4 + =  $22 $T0 4 - ^ =  $23 $T0 8 - ^ =  $24 $T0 12 - ^ =  $20 $T0 16 - ^ = 
STACK WIN 4 8800 86 17 0 4 0 0 0 1 $T0 .raSearch = $eip $T0 ^ = $esp $T0 4 + = 
STACK WIN 4 8804 7e 13 0 4 4 8 0 1 $T0 .raSearch = $eip $T0 ^ = $esp $T0 4 + =  $20 $T0 12 - ^ = 
STACK WIN 4 8805 7c 12 0 4 8 8 0 1 $T0 .raSearch = $eip $T0 ^ = $esp $T0 4 + =  $20 $T0 12 - ^ =  $22 $T0 16 - ^ = 
STACK WIN 4 8806 78 11 0 4 c 8 0 1 $T0 .raSearch = $eip $T0 ^ = $esp $T0 4 + =  $20 $T0 12 - ^ =  $22 $T0 16 - ^ =  $23 $T0 20 - ^ = 
STACK WIN 4 8807 76 10 0 4 10 8 0 1 $T0 .raSearch = $eip $T0 ^ = $esp $T0 4 + =  $20 $T0 12 - ^ =  $22 $T0 16 - ^ =  $23 $T0 20 - ^ =  $24 $T0 24 - ^ = 
STACK WIN 4 8890 69 6 0 4 0 0 0 1 $T0 .raSearch = $eip $T0 ^ = $esp $T0 4 + = 
STACK WIN 4 8891 67 5 0 4 4 0 0 1 $T0 .raSearch = $eip $T0 ^ = $esp $T0 4 + =  $20 $T0 4 - ^ = 
STACK WIN 4 8892 65 4 0 4 8 0 0 1 $T0 .raSearch = $eip $T0 ^ = $esp $T0 4 + =  $20 $T0 4 - ^ =  $22 $T0 8 - ^ = 
STACK WIN 4 8893 63 3 0 4 c 0 0 1 $T0 .raSearch = $eip $T0 ^ = $esp $T0 4 + =  $20 $T0 4 - ^ =  $22 $T0 8 - ^ =  $23 $T0 12 - ^ = 
STACK WIN 4 8894 5a 2 0 4 10 0 0 1 $T0 .raSearch = $eip $T0 ^ = $esp $T0 4 + =  $20 $T0 4 - ^ =  $22 $T0 8 - ^ =  $23 $T0 12 - ^ =  $24 $T0 16 - ^ = 
STACK WIN 4 8900 6b 8 0 4 0 0 0 1 $T0 .raSearch = $eip $T0 ^ = $esp $T0 4 + = 
STACK WIN 4 8901 69 7 0 4 4 0 0 1 $T0 .raSearch = $eip $T0 ^ = $esp $T0 4 + =  $23 $T0 4 - ^ = 
STACK WIN 4 8902 65 6 0 4 8 0 0 1 $T0 .raSearch = $eip $T0 ^ = $esp $T0 4 + =  $23 $T0 4 - ^ =  $24 $T0 8 - ^ = 
STACK WIN 4 8970 165 1b 0 8 0 0 0 1 $T0 .raSearch = $eip $T0 ^ = $esp $T0 4 + = 
STACK WIN 4 8974 152 17 0 8 4 c 0 1 $T0 .raSearch = $eip $T0 ^ = $esp $T0 4 + =  $20 $T0 16 - ^ = 
STACK WIN 4 897b 14a 10 0 8 8 c 0 1 $T0 .raSearch = $eip $T0 ^ = $esp $T0 4 + =  $20 $T0 16 - ^ =  $22 $T0 20 - ^ = 
STACK WIN 4 8989 13b 2 0 8 c c 0 1 $T0 .raSearch = $eip $T0 ^ = $esp $T0 4 + =  $20 $T0 16 - ^ =  $22 $T0 20 - ^ =  $23 $T0 24 - ^ = 
STACK WIN 4 898c 135 0 0 8 10 c 0 1 $T0 .raSearch = $eip $T0 ^ = $esp $T0 4 + =  $20 $T0 16 - ^ =  $22 $T0 20 - ^ =  $23 $T0 24 - ^ =  $24 $T0 28 - ^ = 
STACK WIN 4 8ae0 c2 c 0 8 0 0 0 1 $T0 .raSearch = $eip $T0 ^ = $esp $T0 4 + = 
STACK WIN 4 8ae5 bc 7 0 8 4 0 0 1 $T0 .raSearch = $eip $T0 ^ = $esp $T0 4 + =  $23 $T0 4 - ^ = 
STACK WIN 4 8ae6 ba 6 0 8 8 0 0 1 $T0 .raSearch = $eip $T0 ^ = $esp $T0 4 + =  $23 $T0 4 - ^ =  $24 $T0 8 - ^ = 
STACK WIN 4 8b30 6f 0 0 8 c 0 0 1 $T0 .raSearch = $eip $T0 ^ = $esp $T0 4 + =  $23 $T0 4 - ^ =  $24 $T0 8 - ^ =  $20 $T0 12 - ^ = 
STACK WIN 4 8bb0 139 11 0 0 0 0 0 1 $T0 .raSearch = $eip $T0 ^ = $esp $T0 4 + = 
STACK WIN 4 8bbf 119 2 0 0 4 20 0 1 $T0 .raSearch = $eip $T0 ^ = $esp $T0 4 + =  $20 $T0 36 - ^ = 
STACK WIN 4 8bc6 111 0 0 0 8 20 0 1 $T0 .raSearch = $eip $T0 ^ = $esp $T0 4 + =  $20 $T0 36 - ^ =  $23 $T0 40 - ^ = 
STACK WIN 4 8be0 f2 0 0 0 c 20 0 1 $T0 .raSearch = $eip $T0 ^ = $esp $T0 4 + =  $20 $T0 36 - ^ =  $23 $T0 40 - ^ =  $24 $T0 44 - ^ = 
STACK WIN 4 8beb e6 0 0 0 10 20 0 1 $T0 .raSearch = $eip $T0 ^ = $esp $T0 4 + =  $20 $T0 36 - ^ =  $23 $T0 40 - ^ =  $24 $T0 44 - ^ =  $22 $T0 48 - ^ = 
STACK WIN 4 8ce3 6 0 0 0 10 20 0 1 $T0 .raSearch = $eip $T0 ^ = $esp $T0 4 + =  $20 $T0 36 - ^ =  $23 $T0 40 - ^ =  $24 $T0 44 - ^ =  $22 $T0 48 - ^ = 
STACK WIN 4 8cf0 5d 13 0 0 8 24 0 1 $T0 .raSearch = $eip $T0 ^ = $esp $T0 4 + =  $23 $T0 40 - ^ =  $24 $T0 44 - ^ = 
STACK WIN 4 8d50 bf 9 0 0 0 0 0 1 $T0 .raSearch = $eip $T0 ^ = $esp $T0 4 + = 
STACK WIN 4 8d54 b7 5 0 0 4 8 0 1 $T0 .raSearch = $eip $T0 ^ = $esp $T0 4 + =  $20 $T0 12 - ^ = 
STACK WIN 4 8d55 b5 4 0 0 8 8 0 1 $T0 .raSearch = $eip $T0 ^ = $esp $T0 4 + =  $20 $T0 12 - ^ =  $23 $T0 16 - ^ = 
STACK WIN 4 8d5a af 0 0 0 c 8 0 1 $T0 .raSearch = $eip $T0 ^ = $esp $T0 4 + =  $20 $T0 12 - ^ =  $23 $T0 16 - ^ =  $24 $T0 20 - ^ = 
STACK WIN 4 8e10 89 0 0 0 0 0 0 1 $T0 .raSearch = $eip $T0 ^ = $esp $T0 4 + = 
STACK WIN 4 8ea0 b4 11 0 0 0 0 0 1 $T0 .raSearch = $eip $T0 ^ = $esp $T0 4 + = 
STACK WIN 4 8eaf 9a 2 0 0 4 44 0 1 $T0 .raSearch = $eip $T0 ^ = $esp $T0 4 + =  $20 $T0 72 - ^ = 
STACK WIN 4 8eb2 96 0 0 0 8 44 0 1 $T0 .raSearch = $eip $T0 ^ = $esp $T0 4 + =  $20 $T0 72 - ^ =  $22 $T0 76 - ^ = 
STACK WIN 4 8eb5 92 0 0 0 c 44 0 1 $T0 .raSearch = $eip $T0 ^ = $esp $T0 4 + =  $20 $T0 72 - ^ =  $22 $T0 76 - ^ =  $23 $T0 80 - ^ = 
STACK WIN 4 8ece 72 0 0 0 10 44 0 1 $T0 .raSearch = $eip $T0 ^ = $esp $T0 4 + =  $20 $T0 72 - ^ =  $22 $T0 76 - ^ =  $23 $T0 80 - ^ =  $24 $T0 84 - ^ = 
STACK WIN 4 8f60 749 26 0 8 10 34 0 1 $T0 .raSearch = $eip $T0 ^ = $esp $T0 4 + =  $20 $T0 56 - ^ =  $22 $T0 60 - ^ =  $23 $T0 64 - ^ =  $24 $T0 68 - ^ = 
STACK WIN 4 96b0 60 3 0 8 0 0 0 1 $T0 .raSearch = $eip $T0 ^ = $esp $T0 4 + = 
STACK WIN 4 96b1 51 2 0 8 4 0 0 1 $T0 .raSearch = $eip $T0 ^ = $esp $T0 4 + =  $23 $T0 4 - ^ = 
STACK WIN 4 96b4 4b 0 0 8 8 0 0 1 $T0 .raSearch = $eip $T0 ^ = $esp $T0 4 + =  $23 $T0 4 - ^ =  $24 $T0 8 - ^ = 
STACK WIN 4 9710 fa e 0 c 0 0 0 1 $T0 .raSearch = $eip $T0 ^ = $esp $T0 4 + = 
STACK WIN 4 9716 f0 8 0 c 4 4 0 1 $T0 .raSearch = $eip $T0 ^ = $esp $T0 4 + =  $23 $T0 8 - ^ = 
STACK WIN 4 972f d3 0 0 c 8 4 0 1 $T0 .raSearch = $eip $T0 ^ = $esp $T0 4 + =  $23 $T0 8 - ^ =  $20 $T0 12 - ^ = 
STACK WIN 4 9730 d1 0 0 c c 4 0 1 $T0 .raSearch = $eip $T0 ^ = $esp $T0 4 + =  $23 $T0 8 - ^ =  $20 $T0 12 - ^ =  $22 $T0 16 - ^ = 
STACK WIN 4 9731 cf 0 0 c 10 4 0 1 $T0 .raSearch = $eip $T0 ^ = $esp $T0 4 + =  $23 $T0 8 - ^ =  $20 $T0 12 - ^ =  $22 $T0 16 - ^ =  $24 $T0 20 - ^ = 
STACK WIN 4 9810 da 8 0 8 0 0 0 1 $T0 .raSearch = $eip $T0 ^ = $esp $T0 4 + = 
STACK WIN 4 9811 cb 7 0 8 4 0 0 1 $T0 .raSearch = $eip $T0 ^ = $esp $T0 4 + =  $23 $T0 4 - ^ = 
STACK WIN 4 9812 c7 6 0 8 8 0 0 1 $T0 .raSearch = $eip $T0 ^ = $esp $T0 4 + =  $23 $T0 4 - ^ =  $24 $T0 8 - ^ = 
STACK WIN 4 9879 5f 0 0 8 c 0 0 1 $T0 .raSearch = $eip $T0 ^ = $esp $T0 4 + =  $23 $T0 4 - ^ =  $24 $T0 8 - ^ =  $20 $T0 12 - ^ = 
STACK WIN 4 9884 53 0 0 8 10 0 0 1 $T0 .raSearch = $eip $T0 ^ = $esp $T0 4 + =  $23 $T0 4 - ^ =  $24 $T0 8 - ^ =  $20 $T0 12 - ^ =  $22 $T0 16 - ^ = 
STACK WIN 4 98df b 0 0 8 8 0 0 1 $T0 .raSearch = $eip $T0 ^ = $esp $T0 4 + =  $23 $T0 4 - ^ =  $24 $T0 8 - ^ =  $20 $T0 12 - ^ =  $22 $T0 16 - ^ = 
STACK WIN 4 98f0 ad 8 0 c 0 0 0 1 $T0 .raSearch = $eip $T0 ^ = $esp $T0 4 + = 
STACK WIN 4 98f1 94 7 0 c 4 0 0 1 $T0 .raSearch = $eip $T0 ^ = $esp $T0 4 + =  $23 $T0 4 - ^ = 
STACK WIN 4 98f2 90 6 0 c 8 0 0 1 $T0 .raSearch = $eip $T0 ^ = $esp $T0 4 + =  $23 $T0 4 - ^ =  $24 $T0 8 - ^ = 
STACK WIN 4 990d 74 0 0 c c 0 0 1 $T0 .raSearch = $eip $T0 ^ = $esp $T0 4 + =  $23 $T0 4 - ^ =  $24 $T0 8 - ^ =  $20 $T0 12 - ^ = 
STACK WIN 4 991f 61 0 0 c 10 0 0 1 $T0 .raSearch = $eip $T0 ^ = $esp $T0 4 + =  $23 $T0 4 - ^ =  $24 $T0 8 - ^ =  $20 $T0 12 - ^ =  $22 $T0 16 - ^ = 
STACK WIN 4 99a0 63 8 0 4 0 0 0 1 $T0 .raSearch = $eip $T0 ^ = $esp $T0 4 + = 
STACK WIN 4 99a1 5f 7 0 4 4 0 0 1 $T0 .raSearch = $eip $T0 ^ = $esp $T0 4 + =  $23 $T0 4 - ^ = 
STACK WIN 4 99a6 56 2 0 4 8 0 0 1 $T0 .raSearch = $eip $T0 ^ = $esp $T0 4 + =  $23 $T0 4 - ^ =  $24 $T0 8 - ^ = 
STACK WIN 4 9a10 96 5 0 0 0 0 0 1 $T0 .raSearch = $eip $T0 ^ = $esp $T0 4 + = 
STACK WIN 4 9a11 94 4 0 0 4 0 0 1 $T0 .raSearch = $eip $T0 ^ = $esp $T0 4 + =  $20 $T0 4 - ^ = 
STACK WIN 4 9a12 92 3 0 0 8 0 0 1 $T0 .raSearch = $eip $T0 ^ = $esp $T0 4 + =  $20 $T0 4 - ^ =  $23 $T0 8 - ^ = 
STACK WIN 4 9a13 90 2 0 0 c 0 0 1 $T0 .raSearch = $eip $T0 ^ = $esp $T0 4 + =  $20 $T0 4 - ^ =  $23 $T0 8 - ^ =  $24 $T0 12 - ^ = 
STACK WIN 4 9ab0 86 5 0 0 0 0 0 1 $T0 .raSearch = $eip $T0 ^ = $esp $T0 4 + = 
STACK WIN 4 9ab1 84 4 0 0 4 0 0 1 $T0 .raSearch = $eip $T0 ^ = $esp $T0 4 + =  $20 $T0 4 - ^ = 
STACK WIN 4 9ab2 82 3 0 0 8 0 0 1 $T0 .raSearch = $eip $T0 ^ = $esp $T0 4 + =  $20 $T0 4 - ^ =  $23 $T0 8 - ^ = 
STACK WIN 4 9ab3 80 2 0 0 c 0 0 1 $T0 .raSearch = $eip $T0 ^ = $esp $T0 4 + =  $20 $T0 4 - ^ =  $23 $T0 8 - ^ =  $24 $T0 12 - ^ = 
STACK WIN 4 9b40 ec 11 0 8 0 0 0 1 $T0 .raSearch = $eip $T0 ^ = $esp $T0 4 + = 
STACK WIN 4 9b4f d2 2 0 8 4 14 0 1 $T0 .raSearch = $eip $T0 ^ = $esp $T0 4 + =  $23 $T0 24 - ^ = 
STACK WIN 4 9b79 7e 0 0 8 8 14 0 1 $T0 .raSearch = $eip $T0 ^ = $esp $T0 4 + =  $23 $T0 24 - ^ =  $24 $T0 28 - ^ = 
STACK WIN 4 9c30 14b 13 0 4 10 28 0 1 $T0 .raSearch = $eip $T0 ^ = $esp $T0 4 + =  $20 $T0 44 - ^ =  $22 $T0 48 - ^ =  $23 $T0 52 - ^ =  $24 $T0 56 - ^ = 
STACK WIN 4 9d80 df 6 0 0 0 0 0 1 $T0 .raSearch = $eip $T0 ^ = $esp $T0 4 + = 
STACK WIN 4 9d82 d0 4 0 0 4 4 0 1 $T0 .raSearch = $eip $T0 ^ = $esp $T0 4 + =  $20 $T0 8 - ^ = 
STACK WIN 4 9d83 ce 3 0 0 8 4 0 1 $T0 .raSearch = $eip $T0 ^ = $esp $T0 4 + =  $20 $T0 8 - ^ =  $22 $T0 12 - ^ = 
STACK WIN 4 9d84 cc 2 0 0 c 4 0 1 $T0 .raSearch = $eip $T0 ^ = $esp $T0 4 + =  $20 $T0 8 - ^ =  $22 $T0 12 - ^ =  $23 $T0 16 - ^ = 
STACK WIN 4 9d87 c6 0 0 0 10 4 0 1 $T0 .raSearch = $eip $T0 ^ = $esp $T0 4 + =  $20 $T0 8 - ^ =  $22 $T0 12 - ^ =  $23 $T0 16 - ^ =  $24 $T0 20 - ^ = 
STACK WIN 4 9e54 b 0 0 0 10 4 0 1 $T0 .raSearch = $eip $T0 ^ = $esp $T0 4 + =  $20 $T0 8 - ^ =  $22 $T0 12 - ^ =  $23 $T0 16 - ^ =  $24 $T0 20 - ^ = 
STACK WIN 4 9e60 ff 5 0 0 0 0 0 1 $T0 .raSearch = $eip $T0 ^ = $esp $T0 4 + = 
STACK WIN 4 9e62 fb 3 0 0 4 4 0 1 $T0 .raSearch = $eip $T0 ^ = $esp $T0 4 + =  $20 $T0 8 - ^ = 
STACK WIN 4 9e63 f9 2 0 0 8 4 0 1 $T0 .raSearch = $eip $T0 ^ = $esp $T0 4 + =  $20 $T0 8 - ^ =  $23 $T0 12 - ^ = 
STACK WIN 4 9e66 f3 0 0 0 c 4 0 1 $T0 .raSearch = $eip $T0 ^ = $esp $T0 4 + =  $20 $T0 8 - ^ =  $23 $T0 12 - ^ =  $24 $T0 16 - ^ = 
STACK WIN 4 9f60 5a8 3a 0 1c 10 78 0 1 $T0 .raSearch = $eip $T0 ^ = $esp $T0 4 + =  $20 $T0 124 - ^ =  $22 $T0 128 - ^ =  $23 $T0 132 - ^ =  $24 $T0 136 - ^ = 
STACK WIN 4 a510 93 3 0 4 0 0 0 1 $T0 .raSearch = $eip $T0 ^ = $esp $T0 4 + = 
STACK WIN 4 a511 7a 2 0 4 4 0 0 1 $T0 .raSearch = $eip $T0 ^ = $esp $T0 4 + =  $23 $T0 4 - ^ = 
STACK WIN 4 a5b0 107 b 0 0 0 0 0 1 $T0 .raSearch = $eip $T0 ^ = $esp $T0 4 + = 
STACK WIN 4 a5b2 fd 9 0 0 4 4 0 1 $T0 .raSearch = $eip $T0 ^ = $esp $T0 4 + =  $20 $T0 8 - ^ = 
STACK WIN 4 a5b3 fb 8 0 0 8 4 0 1 $T0 .raSearch = $eip $T0 ^ = $esp $T0 4 + =  $20 $T0 8 - ^ =  $22 $T0 12 - ^ = 
STACK WIN 4 a5b4 f9 7 0 0 c 4 0 1 $T0 .raSearch = $eip $T0 ^ = $esp $T0 4 + =  $20 $T0 8 - ^ =  $22 $T0 12 - ^ =  $23 $T0 16 - ^ = 
STACK WIN 4 a5b5 eb 6 0 0 10 4 0 1 $T0 .raSearch = $eip $T0 ^ = $esp $T0 4 + =  $20 $T0 8 - ^ =  $22 $T0 12 - ^ =  $23 $T0 16 - ^ =  $24 $T0 20 - ^ = 
STACK WIN 4 a6b1 6 0 0 0 10 4 0 1 $T0 .raSearch = $eip $T0 ^ = $esp $T0 4 + =  $20 $T0 8 - ^ =  $22 $T0 12 - ^ =  $23 $T0 16 - ^ =  $24 $T0 20 - ^ = 
STACK WIN 4 a6c0 9a 0 0 0 0 0 0 1 $T0 .raSearch = $eip $T0 ^ = $esp $T0 4 + = 
STACK WIN 4 a760 150 8 0 4 0 0 0 1 $T0 .raSearch = $eip $T0 ^ = $esp $T0 4 + = 
STACK WIN 4 a761 14e 7 0 4 4 0 0 1 $T0 .raSearch = $eip $T0 ^ = $esp $T0 4 + =  $23 $T0 4 - ^ = 
STACK WIN 4 a762 149 6 0 4 8 0 0 1 $T0 .raSearch = $eip $T0 ^ = $esp $T0 4 + =  $23 $T0 4 - ^ =  $24 $T0 8 - ^ = 
STACK WIN 4 a7a2 103 0 0 4 c 0 0 1 $T0 .raSearch = $eip $T0 ^ = $esp $T0 4 + =  $23 $T0 4 - ^ =  $24 $T0 8 - ^ =  $22 $T0 12 - ^ = 
STACK WIN 4 a7b3 64 0 0 4 10 0 0 1 $T0 .raSearch = $eip $T0 ^ = $esp $T0 4 + =  $23 $T0 4 - ^ =  $24 $T0 8 - ^ =  $22 $T0 12 - ^ =  $20 $T0 16 - ^ = 
STACK WIN 4 a8b0 13b 9 0 4 0 0 0 1 $T0 .raSearch = $eip $T0 ^ = $esp $T0 4 + = 
STACK WIN 4 a8b1 139 8 0 4 4 0 0 1 $T0 .raSearch = $eip $T0 ^ = $esp $T0 4 + =  $20 $T0 4 - ^ = 
STACK WIN 4 a8b2 134 7 0 4 8 0 0 1 $T0 .raSearch = $eip $T0 ^ = $esp $T0 4 + =  $20 $T0 4 - ^ =  $22 $T0 8 - ^ = 
STACK WIN 4 a8b7 12e 2 0 4 c 0 0 1 $T0 .raSearch = $eip $T0 ^ = $esp $T0 4 + =  $20 $T0 4 - ^ =  $22 $T0 8 - ^ =  $23 $T0 12 - ^ = 
STACK WIN 4 a8ee f0 0 0 4 10 0 0 1 $T0 .raSearch = $eip $T0 ^ = $esp $T0 4 + =  $20 $T0 4 - ^ =  $22 $T0 8 - ^ =  $23 $T0 12 - ^ =  $24 $T0 16 - ^ = 
STACK WIN 4 a9f0 16a 1a 0 4 0 0 0 1 $T0 .raSearch = $eip $T0 ^ = $esp $T0 4 + = 
STACK WIN 4 a9ff 14a b 0 4 4 18 0 1 $T0 .raSearch = $eip $T0 ^ = $esp $T0 4 + =  $20 $T0 28 - ^ = 
STACK WIN 4 aa08 13a 2 0 4 8 18 0 1 $T0 .raSearch = $eip $T0 ^ = $esp $T0 4 + =  $20 $T0 28 - ^ =  $22 $T0 32 - ^ = 
STACK WIN 4 aa0b 136 0 0 4 c 18 0 1 $T0 .raSearch = $eip $T0 ^ = $esp $T0 4 + =  $20 $T0 28 - ^ =  $22 $T0 32 - ^ =  $24 $T0 36 - ^ = 
STACK WIN 4 aa2d fa 0 0 4 10 18 0 1 $T0 .raSearch = $eip $T0 ^ = $esp $T0 4 + =  $20 $T0 28 - ^ =  $22 $T0 32 - ^ =  $24 $T0 36 - ^ =  $23 $T0 40 - ^ = 
STACK WIN 4 ab60 7b 7 0 4 0 0 0 1 $T0 .raSearch = $eip $T0 ^ = $esp $T0 4 + = 
STACK WIN 4 ab62 77 5 0 4 4 4 0 1 $T0 .raSearch = $eip $T0 ^ = $esp $T0 4 + =  $20 $T0 8 - ^ = 
STACK WIN 4 ab63 75 4 0 4 8 4 0 1 $T0 .raSearch = $eip $T0 ^ = $esp $T0 4 + =  $20 $T0 8 - ^ =  $22 $T0 12 - ^ = 
STACK WIN 4 ab64 73 3 0 4 c 4 0 1 $T0 .raSearch = $eip $T0 ^ = $esp $T0 4 + =  $20 $T0 8 - ^ =  $22 $T0 12 - ^ =  $23 $T0 16 - ^ = 
STACK WIN 4 ab65 71 2 0 4 10 4 0 1 $T0 .raSearch = $eip $T0 ^ = $esp $T0 4 + =  $20 $T0 8 - ^ =  $22 $T0 12 - ^ =  $23 $T0 16 - ^ =  $24 $T0 20 - ^ = 
STACK WIN 4 abe0 13a b 0 c 0 0 0 1 $T0 .raSearch = $eip $T0 ^ = $esp $T0 4 + = 
STACK WIN 4 abe9 12e 2 0 c 4 0 0 1 $T0 .raSearch = $eip $T0 ^ = $esp $T0 4 + =  $20 $T0 4 - ^ = 
STACK WIN 4 abec c9 0 0 c 8 0 0 1 $T0 .raSearch = $eip $T0 ^ = $esp $T0 4 + =  $20 $T0 4 - ^ =  $23 $T0 8 - ^ = 
STACK WIN 4 abed c7 0 0 c c 0 0 1 $T0 .raSearch = $eip $T0 ^ = $esp $T0 4 + =  $20 $T0 4 - ^ =  $23 $T0 8 - ^ =  $24 $T0 12 - ^ = 
STACK WIN 4 ad20 180 13 0 c 10 18 0 1 $T0 .raSearch = $eip $T0 ^ = $esp $T0 4 + =  $20 $T0 28 - ^ =  $22 $T0 32 - ^ =  $23 $T0 36 - ^ =  $24 $T0 40 - ^ = 
STACK WIN 4 aea0 2b6 a 0 4 0 0 0 1 $T0 .raSearch = $eip $T0 ^ = $esp $T0 4 + = 
STACK WIN 4 aea8 2a8 2 0 4 4 14 0 1 $T0 .raSearch = $eip $T0 ^ = $esp $T0 4 + =  $22 $T0 24 - ^ = 
STACK WIN 4 aeb3 29c 0 0 4 8 14 0 1 $T0 .raSearch = $eip $T0 ^ = $esp $T0 4 + =  $22 $T0 24 - ^ =  $23 $T0 28 - ^ = 
STACK WIN 4 aeb4 29a 0 0 4 c 14 0 1 $T0 .raSearch = $eip $T0 ^ = $esp $T0 4 + =  $22 $T0 24 - ^ =  $23 $T0 28 - ^ =  $24 $T0 32 - ^ = 
STACK WIN 4 af1b 1f2 0 0 4 10 14 0 1 $T0 .raSearch = $eip $T0 ^ = $esp $T0 4 + =  $22 $T0 24 - ^ =  $23 $T0 28 - ^ =  $24 $T0 32 - ^ =  $20 $T0 36 - ^ = 
STACK WIN 4 b160 7f3 6 0 4 10 30 0 1 $T0 .raSearch = $eip $T0 ^ = $esp $T0 4 + =  $20 $T0 52 - ^ =  $22 $T0 56 - ^ =  $23 $T0 60 - ^ =  $24 $T0 64 - ^ = 
STACK WIN 4 b960 d6 6 0 4 c 1c 0 1 $T0 .raSearch = $eip $T0 ^ = $esp $T0 4 + =  $20 $T0 32 - ^ =  $23 $T0 36 - ^ =  $24 $T0 40 - ^ = 
STACK WIN 4 ba40 136 6 0 0 10 c 0 1 $T0 .raSearch = $eip $T0 ^ = $esp $T0 4 + =  $20 $T0 16 - ^ =  $22 $T0 20 - ^ =  $23 $T0 24 - ^ =  $24 $T0 28 - ^ = 
STACK WIN 4 bb80 bf 36 0 c 0 0 0 1 $T0 .raSearch = $eip $T0 ^ = $esp $T0 4 + = 
STACK WIN 4 bb8a b1 2c 0 c 4 10 0 1 $T0 .raSearch = $eip $T0 ^ = $esp $T0 4 + =  $20 $T0 20 - ^ = 
STACK WIN 4 bb8b af 2b 0 c 8 10 0 1 $T0 .raSearch = $eip $T0 ^ = $esp $T0 4 + =  $20 $T0 20 - ^ =  $22 $T0 24 - ^ = 
STACK WIN 4 bb96 a3 20 0 c c 10 0 1 $T0 .raSearch = $eip $T0 ^ = $esp $T0 4 + =  $20 $T0 20 - ^ =  $22 $T0 24 - ^ =  $23 $T0 28 - ^ = 
STACK WIN 4 bb97 97 1f 0 c 10 10 0 1 $T0 .raSearch = $eip $T0 ^ = $esp $T0 4 + =  $20 $T0 20 - ^ =  $22 $T0 24 - ^ =  $23 $T0 28 - ^ =  $24 $T0 32 - ^ = 
STACK WIN 4 bc40 21d 32 0 c 0 0 0 1 $T0 .raSearch = $eip $T0 ^ = $esp $T0 4 + = 
STACK WIN 4 bc48 211 2a 0 c 4 28 0 1 $T0 .raSearch = $eip $T0 ^ = $esp $T0 4 + =  $20 $T0 44 - ^ = 
STACK WIN 4 bc4b 202 27 0 c 8 28 0 1 $T0 .raSearch = $eip $T0 ^ = $esp $T0 4 + =  $20 $T0 44 - ^ =  $22 $T0 48 - ^ = 
STACK WIN 4 bc56 1f6 1c 0 c c 28 0 1 $T0 .raSearch = $eip $T0 ^ = $esp $T0 4 + =  $20 $T0 44 - ^ =  $22 $T0 48 - ^ =  $23 $T0 52 - ^ = 
STACK WIN 4 bc57 1f4 1b 0 c 10 28 0 1 $T0 .raSearch = $eip $T0 ^ = $esp $T0 4 + =  $20 $T0 44 - ^ =  $22 $T0 48 - ^ =  $23 $T0 52 - ^ =  $24 $T0 56 - ^ = 
STACK WIN 4 be60 22c 22 0 c 0 0 0 1 $T0 .raSearch = $eip $T0 ^ = $esp $T0 4 + = 
STACK WIN 4 be6a 21e 18 0 c 4 34 0 1 $T0 .raSearch = $eip $T0 ^ = $esp $T0 4 + =  $20 $T0 56 - ^ = 
STACK WIN 4 be6b 21c 17 0 c 8 34 0 1 $T0 .raSearch = $eip $T0 ^ = $esp $T0 4 + =  $20 $T0 56 - ^ =  $22 $T0 60 - ^ = 
STACK WIN 4 be6c 21a 16 0 c c 34 0 1 $T0 .raSearch = $eip $T0 ^ = $esp $T0 4 + =  $20 $T0 56 - ^ =  $22 $T0 60 - ^ =  $23 $T0 64 - ^ = 
STACK WIN 4 be76 205 c 0 c 10 34 0 1 $T0 .raSearch = $eip $T0 ^ = $esp $T0 4 + =  $20 $T0 56 - ^ =  $22 $T0 60 - ^ =  $23 $T0 64 - ^ =  $24 $T0 68 - ^ = 
STACK WIN 4 c090 3ba d 0 c 10 50 0 1 $T0 .raSearch = $eip $T0 ^ = $esp $T0 4 + =  $20 $T0 84 - ^ =  $22 $T0 88 - ^ =  $23 $T0 92 - ^ =  $24 $T0 96 - ^ = 
STACK WIN 4 c450 164 d 0 4 0 0 0 1 $T0 .raSearch = $eip $T0 ^ = $esp $T0 4 + = 
STACK WIN 4 c454 15c 9 0 4 4 8 0 1 $T0 .raSearch = $eip $T0 ^ = $esp $T0 4 + =  $23 $T0 12 - ^ = 
STACK WIN 4 c459 154 4 0 4 8 8 0 1 $T0 .raSearch = $eip $T0 ^ = $esp $T0 4 + =  $23 $T0 12 - ^ =  $24 $T0 16 - ^ = 
STACK WIN 4 c46f 138 0 0 4 c 8 0 1 $T0 .raSearch = $eip $T0 ^ = $esp $T0 4 + =  $23 $T0 12 - ^ =  $24 $T0 16 - ^ =  $20 $T0 20 - ^ = 
STACK WIN 4 c472 134 0 0 4 10 8 0 1 $T0 .raSearch = $eip $T0 ^ = $esp $T0 4 + =  $23 $T0 12 - ^ =  $24 $T0 16 - ^ =  $20 $T0 20 - ^ =  $22 $T0 24 - ^ = 
STACK WIN 4 c5c0 142 9 0 4 0 0 0 1 $T0 .raSearch = $eip $T0 ^ = $esp $T0 4 + = 
STACK WIN 4 c5c1 140 8 0 4 4 0 0 1 $T0 .raSearch = $eip $T0 ^ = $esp $T0 4 + =  $20 $T0 4 - ^ = 
STACK WIN 4 c5c6 138 3 0 4 8 0 0 1 $T0 .raSearch = $eip $T0 ^ = $esp $T0 4 + =  $20 $T0 4 - ^ =  $22 $T0 8 - ^ = 
STACK WIN 4 c5c7 136 2 0 4 c 0 0 1 $T0 .raSearch = $eip $T0 ^ = $esp $T0 4 + =  $20 $T0 4 - ^ =  $22 $T0 8 - ^ =  $23 $T0 12 - ^ = 
STACK WIN 4 c5e1 113 0 0 4 10 0 0 1 $T0 .raSearch = $eip $T0 ^ = $esp $T0 4 + =  $20 $T0 4 - ^ =  $22 $T0 8 - ^ =  $23 $T0 12 - ^ =  $24 $T0 16 - ^ = 
STACK WIN 4 c710 1a9 15 0 4 0 0 0 1 $T0 .raSearch = $eip $T0 ^ = $esp $T0 4 + = 
STACK WIN 4 c717 19e e 0 4 4 14 0 1 $T0 .raSearch = $eip $T0 ^ = $esp $T0 4 + =  $20 $T0 24 - ^ = 
STACK WIN 4 c720 194 5 0 4 8 14 0 1 $T0 .raSearch = $eip $T0 ^ = $esp $T0 4 + =  $20 $T0 24 - ^ =  $23 $T0 28 - ^ = 
STACK WIN 4 c725 18a 0 0 4 c 14 0 1 $T0 .raSearch = $eip $T0 ^ = $esp $T0 4 + =  $20 $T0 24 - ^ =  $23 $T0 28 - ^ =  $24 $T0 32 - ^ = 
STACK WIN 4 c74a 164 0 0 4 10 14 0 1 $T0 .raSearch = $eip $T0 ^ = $esp $T0 4 + =  $20 $T0 24 - ^ =  $23 $T0 28 - ^ =  $24 $T0 32 - ^ =  $22 $T0 36 - ^ = 
STACK WIN 4 c8c0 6a8 25 0 18 0 0 0 1 $T0 .raSearch = $eip $T0 ^ = $esp $T0 4 + = 
STACK WIN 4 c8cb 66e 1a 0 18 4 38 0 1 $T0 .raSearch = $eip $T0 ^ = $esp $T0 4 + =  $20 $T0 60 - ^ = 
STACK WIN 4 c8df 655 6 0 18 8 38 0 1 $T0 .raSearch = $eip $T0 ^ = $esp $T0 4 + =  $20 $T0 60 - ^ =  $22 $T0 64 - ^ = 
STACK WIN 4 c8e5 648 0 0 18 c 38 0 1 $T0 .raSearch = $eip $T0 ^ = $esp $T0 4 + =  $20 $T0 60 - ^ =  $22 $T0 64 - ^ =  $24 $T0 68 - ^ = 
STACK WIN 4 c94a 5e2 0 0 18 10 38 0 1 $T0 .raSearch = $eip $T0 ^ = $esp $T0 4 + =  $20 $T0 60 - ^ =  $22 $T0 64 - ^ =  $24 $T0 68 - ^ =  $23 $T0 72 - ^ = 
STACK WIN 4 cf70 c9 14 0 18 10 2c 0 1 $T0 .raSearch = $eip $T0 ^ = $esp $T0 4 + =  $20 $T0 48 - ^ =  $22 $T0 52 - ^ =  $23 $T0 56 - ^ =  $24 $T0 60 - ^ = 
STACK WIN 4 d040 2a3 17 0 14 10 28 0 1 $T0 .raSearch = $eip $T0 ^ = $esp $T0 4 + =  $20 $T0 44 - ^ =  $22 $T0 48 - ^ =  $23 $T0 52 - ^ =  $24 $T0 56 - ^ = 
STACK WIN 4 d2f0 a9 9 0 0 10 4 0 1 $T0 .raSearch = $eip $T0 ^ = $esp $T0 4 + =  $20 $T0 8 - ^ =  $22 $T0 12 - ^ =  $23 $T0 16 - ^ =  $24 $T0 20 - ^ = 
STACK WIN 4 d3a0 163 11 0 18 10 c 0 1 $T0 .raSearch = $eip $T0 ^ = $esp $T0 4 + =  $20 $T0 16 - ^ =  $22 $T0 20 - ^ =  $23 $T0 24 - ^ =  $24 $T0 28 - ^ = 
STACK WIN 4 d510 143 2a 0 18 10 24c 0 1 $T0 .raSearch = $eip $T0 ^ = $esp $T0 4 + =  $20 $T0 592 - ^ =  $22 $T0 596 - ^ =  $23 $T0 600 - ^ =  $24 $T0 604 - ^ = 
STACK WIN 4 d660 114 1c 0 c 10 10 0 1 $T0 .raSearch = $eip $T0 ^ = $esp $T0 4 + =  $20 $T0 20 - ^ =  $22 $T0 24 - ^ =  $23 $T0 28 - ^ =  $24 $T0 32 - ^ = 
STACK WIN 4 d780 2d 1 0 0 0 0 0 1 $T0 .raSearch = $eip $T0 ^ = $esp $T0 4 + = 
STACK WIN 4 d781 2b 0 0 0 4 0 0 1 $T0 .raSearch = $eip $T0 ^ = $esp $T0 4 + =  $23 $T0 4 - ^ = 
STACK WIN 4 d7b0 247 13 0 c 10 30 0 1 $T0 .raSearch = $eip $T0 ^ = $esp $T0 4 + =  $20 $T0 52 - ^ =  $22 $T0 56 - ^ =  $23 $T0 60 - ^ =  $24 $T0 64 - ^ = 
STACK WIN 4 da00 1f6 2a 0 4 10 8 0 1 $T0 .raSearch = $eip $T0 ^ = $esp $T0 4 + =  $20 $T0 12 - ^ =  $22 $T0 16 - ^ =  $23 $T0 20 - ^ =  $24 $T0 24 - ^ = 
STACK WIN 4 dc00 e3 10 0 4 10 8 0 1 $T0 .raSearch = $eip $T0 ^ = $esp $T0 4 + =  $20 $T0 12 - ^ =  $22 $T0 16 - ^ =  $23 $T0 20 - ^ =  $24 $T0 24 - ^ = 
STACK WIN 4 dcf0 f1 8 0 0 10 4 0 1 $T0 .raSearch = $eip $T0 ^ = $esp $T0 4 + =  $20 $T0 8 - ^ =  $22 $T0 12 - ^ =  $23 $T0 16 - ^ =  $24 $T0 20 - ^ = 
STACK WIN 4 ddf0 d70 39 0 18 10 164 0 1 $T0 .raSearch = $eip $T0 ^ = $esp $T0 4 + =  $20 $T0 360 - ^ =  $22 $T0 364 - ^ =  $23 $T0 368 - ^ =  $24 $T0 372 - ^ = 
STACK WIN 4 eb60 192 1f 0 c 10 18 0 1 $T0 .raSearch = $eip $T0 ^ = $esp $T0 4 + =  $20 $T0 28 - ^ =  $22 $T0 32 - ^ =  $23 $T0 36 - ^ =  $24 $T0 40 - ^ = 
STACK WIN 4 ed00 2be d 0 4 0 0 0 1 $T0 .raSearch = $eip $T0 ^ = $esp $T0 4 + = 
STACK WIN 4 ed0a 2b0 3 0 4 4 40 0 1 $T0 .raSearch = $eip $T0 ^ = $esp $T0 4 + =  $20 $T0 68 - ^ = 
STACK WIN 4 ed0b 290 2 0 4 8 40 0 1 $T0 .raSearch = $eip $T0 ^ = $esp $T0 4 + =  $20 $T0 68 - ^ =  $22 $T0 72 - ^ = 
STACK WIN 4 ed0c 28e 1 0 4 c 40 0 1 $T0 .raSearch = $eip $T0 ^ = $esp $T0 4 + =  $20 $T0 68 - ^ =  $22 $T0 72 - ^ =  $23 $T0 76 - ^ = 
STACK WIN 4 ed0d 28c 0 0 4 10 40 0 1 $T0 .raSearch = $eip $T0 ^ = $esp $T0 4 + =  $20 $T0 68 - ^ =  $22 $T0 72 - ^ =  $23 $T0 76 - ^ =  $24 $T0 80 - ^ = 
STACK WIN 4 efc0 125 2d 0 4 0 0 0 1 $T0 .raSearch = $eip $T0 ^ = $esp $T0 4 + = 
STACK WIN 4 efc8 119 25 0 4 4 1c 0 1 $T0 .raSearch = $eip $T0 ^ = $esp $T0 4 + =  $20 $T0 32 - ^ = 
STACK WIN 4 efce 112 1f 0 4 8 1c 0 1 $T0 .raSearch = $eip $T0 ^ = $esp $T0 4 + =  $20 $T0 32 - ^ =  $22 $T0 36 - ^ = 
STACK WIN 4 efe4 fb 9 0 4 c 1c 0 1 $T0 .raSearch = $eip $T0 ^ = $esp $T0 4 + =  $20 $T0 32 - ^ =  $22 $T0 36 - ^ =  $23 $T0 40 - ^ = 
STACK WIN 4 efeb f3 2 0 4 10 1c 0 1 $T0 .raSearch = $eip $T0 ^ = $esp $T0 4 + =  $20 $T0 32 - ^ =  $22 $T0 36 - ^ =  $23 $T0 40 - ^ =  $24 $T0 44 - ^ = 
STACK WIN 4 f0f0 17c 27 0 18 10 434 0 1 $T0 .raSearch = $eip $T0 ^ = $esp $T0 4 + =  $20 $T0 1080 - ^ =  $22 $T0 1084 - ^ =  $23 $T0 1088 - ^ =  $24 $T0 1092 - ^ = 
STACK WIN 4 f270 105 d 0 8 10 24 0 1 $T0 .raSearch = $eip $T0 ^ = $esp $T0 4 + =  $20 $T0 40 - ^ =  $22 $T0 44 - ^ =  $23 $T0 48 - ^ =  $24 $T0 52 - ^ = 
STACK WIN 4 f380 173 14 0 8 10 c 0 1 $T0 .raSearch = $eip $T0 ^ = $esp $T0 4 + =  $20 $T0 16 - ^ =  $22 $T0 20 - ^ =  $23 $T0 24 - ^ =  $24 $T0 28 - ^ = 
STACK WIN 4 f500 14b 10 0 8 10 c 0 1 $T0 .raSearch = $eip $T0 ^ = $esp $T0 4 + =  $20 $T0 16 - ^ =  $22 $T0 20 - ^ =  $23 $T0 24 - ^ =  $24 $T0 28 - ^ = 
STACK WIN 4 f650 14c 1e 0 8 10 3c 0 1 $T0 .raSearch = $eip $T0 ^ = $esp $T0 4 + =  $20 $T0 64 - ^ =  $22 $T0 68 - ^ =  $23 $T0 72 - ^ =  $24 $T0 76 - ^ = 
STACK WIN 4 f7a0 1c8 16 0 4 10 1c 0 1 $T0 .raSearch = $eip $T0 ^ = $esp $T0 4 + =  $20 $T0 32 - ^ =  $22 $T0 36 - ^ =  $23 $T0 40 - ^ =  $24 $T0 44 - ^ = 
STACK WIN 4 f970 57 3 0 0 0 0 0 1 $T0 .raSearch = $eip $T0 ^ = $esp $T0 4 + = 
STACK WIN 4 f971 55 2 0 0 4 0 0 1 $T0 .raSearch = $eip $T0 ^ = $esp $T0 4 + =  $23 $T0 4 - ^ = 
STACK WIN 4 f9d0 148 3 0 10 0 0 0 1 $T0 .raSearch = $eip $T0 ^ = $esp $T0 4 + = 
STACK WIN 4 f9d1 144 2 0 10 4 0 0 1 $T0 .raSearch = $eip $T0 ^ = $esp $T0 4 + =  $23 $T0 4 - ^ = 
STACK WIN 4 f9d9 12d 0 0 10 8 0 0 1 $T0 .raSearch = $eip $T0 ^ = $esp $T0 4 + =  $23 $T0 4 - ^ =  $24 $T0 8 - ^ = 
STACK WIN 4 fa18 ed 0 0 10 c 0 0 1 $T0 .raSearch = $eip $T0 ^ = $esp $T0 4 + =  $23 $T0 4 - ^ =  $24 $T0 8 - ^ =  $20 $T0 12 - ^ = 
STACK WIN 4 fa1e e6 0 0 10 10 0 0 1 $T0 .raSearch = $eip $T0 ^ = $esp $T0 4 + =  $23 $T0 4 - ^ =  $24 $T0 8 - ^ =  $20 $T0 12 - ^ =  $22 $T0 16 - ^ = 
STACK WIN 4 fb20 e0 12 0 4 0 0 0 1 $T0 .raSearch = $eip $T0 ^ = $esp $T0 4 + = 
STACK WIN 4 fb24 d6 e 0 4 4 c 0 1 $T0 .raSearch = $eip $T0 ^ = $esp $T0 4 + =  $20 $T0 16 - ^ = 
STACK WIN 4 fb2c c6 6 0 4 8 c 0 1 $T0 .raSearch = $eip $T0 ^ = $esp $T0 4 + =  $20 $T0 16 - ^ =  $22 $T0 20 - ^ = 
STACK WIN 4 fb2d c4 5 0 4 c c 0 1 $T0 .raSearch = $eip $T0 ^ = $esp $T0 4 + =  $20 $T0 16 - ^ =  $22 $T0 20 - ^ =  $23 $T0 24 - ^ = 
STACK WIN 4 fb2e c2 4 0 4 10 c 0 1 $T0 .raSearch = $eip $T0 ^ = $esp $T0 4 + =  $20 $T0 16 - ^ =  $22 $T0 20 - ^ =  $23 $T0 24 - ^ =  $24 $T0 28 - ^ = 
STACK WIN 4 fc00 97 17 0 4 10 8 0 1 $T0 .raSearch = $eip $T0 ^ = $esp $T0 4 + =  $20 $T0 12 - ^ =  $22 $T0 16 - ^ =  $23 $T0 20 - ^ =  $24 $T0 24 - ^ = 
STACK WIN 4 fca0 a7 3 0 0 0 0 0 1 $T0 .raSearch = $eip $T0 ^ = $esp $T0 4 + = 
STACK WIN 4 fca1 a5 2 0 0 4 0 0 1 $T0 .raSearch = $eip $T0 ^ = $esp $T0 4 + =  $24 $T0 4 - ^ = 
STACK WIN 4 fcb7 8c 0 0 0 8 0 0 1 $T0 .raSearch = $eip $T0 ^ = $esp $T0 4 + =  $24 $T0 4 - ^ =  $20 $T0 8 - ^ = 
STACK WIN 4 fd17 29 0 0 0 c 0 0 1 $T0 .raSearch = $eip $T0 ^ = $esp $T0 4 + =  $24 $T0 4 - ^ =  $20 $T0 8 - ^ =  $23 $T0 12 - ^ = 
STACK WIN 4 fd50 34c 1d 0 8 10 10 0 1 $T0 .raSearch = $eip $T0 ^ = $esp $T0 4 + =  $20 $T0 20 - ^ =  $22 $T0 24 - ^ =  $23 $T0 28 - ^ =  $24 $T0 32 - ^ = 
STACK WIN 4 100a0 70 0 0 0 0 0 0 1 $T0 .raSearch = $eip $T0 ^ = $esp $T0 4 + = 
STACK WIN 4 10110 5d 0 0 0 0 0 0 1 $T0 .raSearch = $eip $T0 ^ = $esp $T0 4 + = 
STACK WIN 4 10170 67 3 0 0 0 0 0 1 $T0 .raSearch = $eip $T0 ^ = $esp $T0 4 + = 
STACK WIN 4 10171 65 2 0 0 4 0 0 1 $T0 .raSearch = $eip $T0 ^ = $esp $T0 4 + =  $23 $T0 4 - ^ = 
STACK WIN 4 101e0 b7 4 0 0 0 0 0 1 $T0 .raSearch = $eip $T0 ^ = $esp $T0 4 + = 
STACK WIN 4 101e1 b5 3 0 0 4 0 0 1 $T0 .raSearch = $eip $T0 ^ = $esp $T0 4 + =  $20 $T0 4 - ^ = 
STACK WIN 4 101e2 b3 2 0 0 8 0 0 1 $T0 .raSearch = $eip $T0 ^ = $esp $T0 4 + =  $20 $T0 4 - ^ =  $24 $T0 8 - ^ = 
STACK WIN 4 101f7 9d 0 0 0 c 0 0 1 $T0 .raSearch = $eip $T0 ^ = $esp $T0 4 + =  $20 $T0 4 - ^ =  $24 $T0 8 - ^ =  $23 $T0 12 - ^ = 
STACK WIN 4 102a0 60 d 0 c 0 0 0 1 $T0 .raSearch = $eip $T0 ^ = $esp $T0 4 + = 
STACK WIN 4 102a1 5c c 0 c 4 0 0 1 $T0 .raSearch = $eip $T0 ^ = $esp $T0 4 + =  $20 $T0 4 - ^ = 
STACK WIN 4 102a6 56 7 0 c 8 0 0 1 $T0 .raSearch = $eip $T0 ^ = $esp $T0 4 + =  $20 $T0 4 - ^ =  $22 $T0 8 - ^ = 
STACK WIN 4 102ab 50 2 0 c c 0 0 1 $T0 .raSearch = $eip $T0 ^ = $esp $T0 4 + =  $20 $T0 4 - ^ =  $22 $T0 8 - ^ =  $23 $T0 12 - ^ = 
STACK WIN 4 102b4 46 0 0 c 10 0 0 1 $T0 .raSearch = $eip $T0 ^ = $esp $T0 4 + =  $20 $T0 4 - ^ =  $22 $T0 8 - ^ =  $23 $T0 12 - ^ =  $24 $T0 16 - ^ = 
STACK WIN 4 10300 e9 6 0 0 0 0 0 1 $T0 .raSearch = $eip $T0 ^ = $esp $T0 4 + = 
STACK WIN 4 10302 e5 4 0 0 4 4 0 1 $T0 .raSearch = $eip $T0 ^ = $esp $T0 4 + =  $20 $T0 8 - ^ = 
STACK WIN 4 10306 d6 0 0 0 8 4 0 1 $T0 .raSearch = $eip $T0 ^ = $esp $T0 4 + =  $20 $T0 8 - ^ =  $24 $T0 12 - ^ = 
STACK WIN 4 10332 a9 0 0 0 c 4 0 1 $T0 .raSearch = $eip $T0 ^ = $esp $T0 4 + =  $20 $T0 8 - ^ =  $24 $T0 12 - ^ =  $23 $T0 16 - ^ = 
STACK WIN 4 103f0 12c 6 0 0 0 0 0 1 $T0 .raSearch = $eip $T0 ^ = $esp $T0 4 + = 
STACK WIN 4 103f4 124 2 0 0 4 8 0 1 $T0 .raSearch = $eip $T0 ^ = $esp $T0 4 + =  $23 $T0 12 - ^ = 
STACK WIN 4 10520 a6 3 0 4 0 0 0 1 $T0 .raSearch = $eip $T0 ^ = $esp $T0 4 + = 
STACK WIN 4 10521 a2 2 0 4 4 0 0 1 $T0 .raSearch = $eip $T0 ^ = $esp $T0 4 + =  $23 $T0 4 - ^ = 
STACK WIN 4 10524 9e 0 0 4 8 0 0 1 $T0 .raSearch = $eip $T0 ^ = $esp $T0 4 + =  $23 $T0 4 - ^ =  $24 $T0 8 - ^ = 
STACK WIN 4 105d0 65 3 0 4 0 0 0 1 $T0 .raSearch = $eip $T0 ^ = $esp $T0 4 + = 
STACK WIN 4 105d1 56 2 0 4 4 0 0 1 $T0 .raSearch = $eip $T0 ^ = $esp $T0 4 + =  $23 $T0 4 - ^ = 
STACK WIN 4 105d7 4b 0 0 4 8 0 0 1 $T0 .raSearch = $eip $T0 ^ = $esp $T0 4 + =  $23 $T0 4 - ^ =  $24 $T0 8 - ^ = 
STACK WIN 4 10635 1b 9 0 4 0 0 0 1 $T0 $ebp = $eip $T0 4 + ^ = $ebp $T0 ^ = $esp $T0 8 + = 
STACK WIN 4 10639 13 5 0 4 4 0 0 1 $T0 $ebp = $eip $T0 4 + ^ = $ebp $T0 ^ = $esp $T0 8 + =  $23 $T0 4 - ^ = 
STACK WIN 4 10650 18 0 0 0 0 0 0 1 $T0 .raSearch = $eip $T0 ^ = $esp $T0 4 + = 
STACK WIN 4 10668 2c 6 0 4 0 0 0 1 $T0 $ebp = $eip $T0 4 + ^ = $ebp $T0 ^ = $esp $T0 8 + = 
STACK WIN 4 1066c 24 2 0 4 4 0 0 1 $T0 $ebp = $eip $T0 4 + ^ = $ebp $T0 ^ = $esp $T0 8 + =  $23 $T0 4 - ^ = 
STACK WIN 4 10694 37 b 0 4 0 8 0 1 $T0 $ebp = $eip $T0 4 + ^ = $ebp $T0 ^ = $esp $T0 8 + = 
STACK WIN 4 1069d 28 2 0 4 4 8 0 1 $T0 $ebp = $eip $T0 4 + ^ = $ebp $T0 ^ = $esp $T0 8 + =  $23 $T0 12 - ^ = 
STACK WIN 4 106cb 1b 9 0 4 0 0 0 1 $T0 $ebp = $eip $T0 4 + ^ = $ebp $T0 ^ = $esp $T0 8 + = 
STACK WIN 4 106cf 13 5 0 4 4 0 0 1 $T0 $ebp = $eip $T0 4 + ^ = $ebp $T0 ^ = $esp $T0 8 + =  $23 $T0 4 - ^ = 
STACK WIN 4 106e6 21 d 0 4 0 4 0 1 $T0 $ebp = $eip $T0 4 + ^ = $ebp $T0 ^ = $esp $T0 8 + = 
STACK WIN 4 106eb 16 8 0 4 4 4 0 1 $T0 $ebp = $eip $T0 4 + ^ = $ebp $T0 ^ = $esp $T0 8 + =  $23 $T0 8 - ^ = 
STACK WIN 4 10707 1b 9 0 4 0 0 0 1 $T0 $ebp = $eip $T0 4 + ^ = $ebp $T0 ^ = $esp $T0 8 + = 
STACK WIN 4 1070b 13 5 0 4 4 0 0 1 $T0 $ebp = $eip $T0 4 + ^ = $ebp $T0 ^ = $esp $T0 8 + =  $23 $T0 4 - ^ = 
STACK WIN 4 10722 1b 9 0 4 0 0 0 1 $T0 $ebp = $eip $T0 4 + ^ = $ebp $T0 ^ = $esp $T0 8 + = 
STACK WIN 4 10726 13 5 0 4 4 0 0 1 $T0 $ebp = $eip $T0 4 + ^ = $ebp $T0 ^ = $esp $T0 8 + =  $23 $T0 4 - ^ = 
STACK WIN 4 1073d 21 d 0 4 0 4 0 1 $T0 $ebp = $eip $T0 4 + ^ = $ebp $T0 ^ = $esp $T0 8 + = 
STACK WIN 4 10742 16 8 0 4 4 4 0 1 $T0 $ebp = $eip $T0 4 + ^ = $ebp $T0 ^ = $esp $T0 8 + =  $23 $T0 8 - ^ = 
STACK WIN 4 1075e 11 0 0 0 0 0 0 1 $T0 .raSearch = $eip $T0 ^ = $esp $T0 4 + = 
STACK WIN 4 1076f 2d 6 0 4 0 0 0 1 $T0 $ebp = $eip $T0 4 + ^ = $ebp $T0 ^ = $esp $T0 8 + = 
STACK WIN 4 10773 25 2 0 4 4 0 0 1 $T0 $ebp = $eip $T0 4 + ^ = $ebp $T0 ^ = $esp $T0 8 + =  $23 $T0 4 - ^ = 
STACK WIN 4 1079c 1d 6 0 0 0 c 0 1 $T0 $ebp = $eip $T0 4 + ^ = $ebp $T0 ^ = $esp $T0 8 + = 
STACK WIN 4 107b9 20 6 0 4 0 c 0 1 $T0 $ebp = $eip $T0 4 + ^ = $ebp $T0 ^ = $esp $T0 8 + = 
STACK WIN 4 107d9 20 6 0 4 0 c 0 1 $T0 $ebp = $eip $T0 4 + ^ = $ebp $T0 ^ = $esp $T0 8 + = 
STACK WIN 4 107f9 d 0 0 0 0 0 0 1 $T0 .raSearch = $eip $T0 ^ = $esp $T0 4 + = 
STACK WIN 4 10806 11 0 0 0 0 0 0 1 $T0 .raSearch = $eip $T0 ^ = $esp $T0 4 + = 
STACK WIN 4 10817 c0 3 0 0 0 0 0 1 $T0 .raSearch = $eip $T0 ^ = $esp $T0 4 + = 
STACK WIN 4 10818 b6 2 0 0 4 0 0 1 $T0 .raSearch = $eip $T0 ^ = $esp $T0 4 + =  $20 $T0 4 - ^ = 
STACK WIN 4 10819 b2 1 0 0 8 0 0 1 $T0 .raSearch = $eip $T0 ^ = $esp $T0 4 + =  $20 $T0 4 - ^ =  $23 $T0 8 - ^ = 
STACK WIN 4 1081a b0 0 0 0 c 0 0 1 $T0 .raSearch = $eip $T0 ^ = $esp $T0 4 + =  $20 $T0 4 - ^ =  $23 $T0 8 - ^ =  $24 $T0 12 - ^ = 
STACK WIN 4 108d7 1c 0 0 0 0 0 0 1 $T0 .raSearch = $eip $T0 ^ = $esp $T0 4 + = 
STACK WIN 4 108f3 3f 3 0 4 0 0 0 1 $T0 $ebp = $eip $T0 4 + ^ = $ebp $T0 ^ = $esp $T0 8 + = 
STACK WIN 4 10932 46 4 0 4 0 0 0 1 $T0 $ebp = $eip $T0 4 + ^ = $ebp $T0 ^ = $esp $T0 8 + = 
STACK WIN 4 10936 3c 0 0 4 4 0 0 1 $T0 $ebp = $eip $T0 4 + ^ = $ebp $T0 ^ = $esp $T0 8 + =  $23 $T0 4 - ^ = 
STACK WIN 4 10978 c 0 0 0 0 0 0 1 $T0 .raSearch = $eip $T0 ^ = $esp $T0 4 + = 
STACK WIN 4 10984 41 0 0 0 0 0 0 1 $T0 .raSearch = $eip $T0 ^ = $esp $T0 4 + = 
STACK WIN 4 1098e 22 0 0 0 4 0 0 1 $T0 .raSearch = $eip $T0 ^ = $esp $T0 4 + =  $23 $T0 4 - ^ = 
STACK WIN 4 109c5 c 0 0 0 0 0 0 1 $T0 .raSearch = $eip $T0 ^ = $esp $T0 4 + = 
STACK WIN 4 109d1 65 b 0 4 0 0 0 1 $T0 $ebp = $eip $T0 4 + ^ = $ebp $T0 ^ = $esp $T0 8 + = 
STACK WIN 4 109dc 58 0 0 4 4 0 0 1 $T0 $ebp = $eip $T0 4 + ^ = $ebp $T0 ^ = $esp $T0 8 + =  $23 $T0 4 - ^ = 
STACK WIN 4 10a36 33 3 0 4 0 0 0 1 $T0 $ebp = $eip $T0 4 + ^ = $ebp $T0 ^ = $esp $T0 8 + = 
STACK WIN 4 10a69 5 0 0 4 0 0 0 1 $T0 $ebp = $eip $T0 4 + ^ = $ebp $T0 ^ = $esp $T0 8 + = 
STACK WIN 4 10a6e 53 3 0 c 0 0 0 1 $T0 $ebp = $eip $T0 4 + ^ = $ebp $T0 ^ = $esp $T0 8 + = 
STACK WIN 4 10ac1 112 c 0 8 10 20 0 1 $T0 $ebp = $eip $T0 4 + ^ = $ebp $T0 ^ = $esp $T0 8 + =  $20 $T0 36 - ^ =  $23 $T0 40 - ^ =  $24 $T0 44 - ^ = 
STACK WIN 4 10bc6 c 0 0 8 10 20 0 1 $T0 $ebp = $T2 $esp = $T1 .raSearchStart = $eip $T1 ^ = $ebp $T0 = $esp $T1 4 + = 
STACK WIN 4 10bd3 7d c 0 4 10 1c 0 1 $T0 $ebp = $eip $T0 4 + ^ = $ebp $T0 ^ = $esp $T0 8 + =  $20 $T0 32 - ^ =  $23 $T0 36 - ^ =  $24 $T0 40 - ^ = 
STACK WIN 4 10c41 e 0 0 4 10 1c 0 1 $T0 $ebp = $T2 $esp = $T1 .raSearchStart = $eip $T1 ^ = $ebp $T0 = $esp $T1 4 + = 
STACK WIN 4 10c50 fc c 0 c 10 1c 0 1 $T0 $ebp = $eip $T0 4 + ^ = $ebp $T0 ^ = $esp $T0 8 + =  $20 $T0 32 - ^ =  $23 $T0 36 - ^ =  $24 $T0 40 - ^ = 
STACK WIN 4 10d16 1f 0 0 c 10 1c 0 1 $T0 $ebp = $T2 $esp = $T1 .raSearchStart = $eip $T1 ^ = $ebp $T0 = $esp $T1 4 + = 
STACK WIN 4 10d4c 2a 4 0 c 0 0 0 1 $T0 $ebp = $eip $T0 4 + ^ = $ebp $T0 ^ = $esp $T0 8 + = 
STACK WIN 4 10d50 22 0 0 c 4 0 0 1 $T0 $ebp = $eip $T0 4 + ^ = $ebp $T0 ^ = $esp $T0 8 + =  $23 $T0 4 - ^ = 
STACK WIN 4 10d76 23 3 0 c 0 0 0 1 $T0 $ebp = $eip $T0 4 + ^ = $ebp $T0 ^ = $esp $T0 8 + = 
STACK WIN 4 10d99 28 3 0 4 0 0 0 1 $T0 $ebp = $eip $T0 4 + ^ = $ebp $T0 ^ = $esp $T0 8 + = 
STACK WIN 4 10dc1 fb 9 0 0 0 324 0 1 $T0 $ebp = $eip $T0 4 + ^ = $ebp $T0 ^ = $esp $T0 8 + = 
STACK WIN 4 10ebc c 3 0 0 0 0 0 1 $T0 $ebp = $eip $T0 4 + ^ = $ebp $T0 ^ = $esp $T0 8 + = 
STACK WIN 4 10ec8 d0 9 0 4 0 31c 0 1 $T0 $ebp = $eip $T0 4 + ^ = $ebp $T0 ^ = $esp $T0 8 + = 
STACK WIN 4 10f98 5 0 0 4 0 0 0 1 $T0 $ebp = $eip $T0 4 + ^ = $ebp $T0 ^ = $esp $T0 8 + = 
STACK WIN 4 10f9d 9 3 0 4 0 0 0 1 $T0 $ebp = $eip $T0 4 + ^ = $ebp $T0 ^ = $esp $T0 8 + = 
STACK WIN 4 10fa6 e 3 0 8 0 0 0 1 $T0 $ebp = $eip $T0 4 + ^ = $ebp $T0 ^ = $esp $T0 8 + = 
STACK WIN 4 10fb4 23 a 0 4 0 0 0 1 $T0 $ebp = $eip $T0 4 + ^ = $ebp $T0 ^ = $esp $T0 8 + = 
STACK WIN 4 10fbc 17 2 0 4 4 0 0 1 $T0 $ebp = $eip $T0 4 + ^ = $ebp $T0 ^ = $esp $T0 8 + =  $23 $T0 4 - ^ = 
STACK WIN 4 10fd7 44 7 0 8 0 0 0 1 $T0 $ebp = $eip $T0 4 + ^ = $ebp $T0 ^ = $esp $T0 8 + = 
STACK WIN 4 10fde 37 0 0 8 4 0 0 1 $T0 $ebp = $eip $T0 4 + ^ = $ebp $T0 ^ = $esp $T0 8 + =  $23 $T0 4 - ^ = 
STACK WIN 4 1101b 35 0 0 0 0 0 0 1 $T0 .raSearch = $eip $T0 ^ = $esp $T0 4 + = 
STACK WIN 4 1102e 21 0 0 0 4 0 0 1 $T0 .raSearch = $eip $T0 ^ = $esp $T0 4 + =  $23 $T0 4 - ^ = 
STACK WIN 4 11050 2b 0 0 0 0 0 0 1 $T0 .raSearch = $eip $T0 ^ = $esp $T0 4 + = 
STACK WIN 4 1107b e 0 0 0 0 0 0 1 $T0 .raSearch = $eip $T0 ^ = $esp $T0 4 + = 
STACK WIN 4 11089 1f 0 0 0 0 0 0 1 $T0 .raSearch = $eip $T0 ^ = $esp $T0 4 + = 
STACK WIN 4 110a8 d 0 0 0 0 0 0 1 $T0 .raSearch = $eip $T0 ^ = $esp $T0 4 + = 
STACK WIN 4 110b5 33 3 0 18 0 0 0 1 $T0 $ebp = $eip $T0 4 + ^ = $ebp $T0 ^ = $esp $T0 8 + = 
STACK WIN 4 110e8 23 0 0 0 0 0 0 1 $T0 .raSearch = $eip $T0 ^ = $esp $T0 4 + = 
STACK WIN 4 1110b d 0 0 0 0 0 0 1 $T0 .raSearch = $eip $T0 ^ = $esp $T0 4 + = 
STACK WIN 4 11118 39 3 0 4 0 0 0 1 $T0 $ebp = $eip $T0 4 + ^ = $ebp $T0 ^ = $esp $T0 8 + = 
STACK WIN 4 11151 97 7 0 4 0 c 0 1 $T0 $ebp = $eip $T0 4 + ^ = $ebp $T0 ^ = $esp $T0 8 + = 
STACK WIN 4 11158 84 0 0 4 4 c 0 1 $T0 $ebp = $eip $T0 4 + ^ = $ebp $T0 ^ = $esp $T0 8 + =  $23 $T0 16 - ^ = 
STACK WIN 4 111a0 3b 0 0 4 8 c 0 1 $T0 $ebp = $eip $T0 4 + ^ = $ebp $T0 ^ = $esp $T0 8 + =  $23 $T0 16 - ^ =  $24 $T0 20 - ^ = 
STACK WIN 4 111e8 8a c 0 4 10 18 0 1 $T0 $ebp = $eip $T0 4 + ^ = $ebp $T0 ^ = $esp $T0 8 + =  $20 $T0 28 - ^ =  $23 $T0 32 - ^ =  $24 $T0 36 - ^ = 
STACK WIN 4 1124d 13 0 0 4 10 18 0 1 $T0 $ebp = $T2 $esp = $T1 .raSearchStart = $eip $T1 ^ = $ebp $T0 = $esp $T1 4 + = 
STACK WIN 4 11272 1d 3 0 4 0 0 0 1 $T0 $ebp = $eip $T0 4 + ^ = $ebp $T0 ^ = $esp $T0 8 + = 
STACK WIN 4 1128f 28 3 0 8 0 0 0 1 $T0 $ebp = $eip $T0 4 + ^ = $ebp $T0 ^ = $esp $T0 8 + = 
STACK WIN 4 112b7 3b 3 0 4 0 0 0 1 $T0 $ebp = $eip $T0 4 + ^ = $ebp $T0 ^ = $esp $T0 8 + = 
STACK WIN 4 112f2 15 3 0 4 0 0 0 1 $T0 $ebp = $eip $T0 4 + ^ = $ebp $T0 ^ = $esp $T0 8 + = 
STACK WIN 4 11307 11b b 0 4 8 324 0 1 $T0 $ebp = $eip $T0 4 + ^ = $ebp $T0 ^ = $esp $T0 8 + =  $20 $T0 808 - ^ =  $23 $T0 812 - ^ = 
STACK WIN 4 11422 8 0 0 4 0 0 0 1 $T0 .raSearch = $eip $T0 ^ = $esp $T0 4 + = 
STACK WIN 4 1142a 6 0 0 0 0 0 0 1 $T0 .raSearch = $eip $T0 ^ = $esp $T0 4 + = 
STACK WIN 4 11430 1b 9 0 4 0 0 0 1 $T0 $ebp = $eip $T0 4 + ^ = $ebp $T0 ^ = $esp $T0 8 + = 
STACK WIN 4 11434 13 5 0 4 4 0 0 1 $T0 $ebp = $eip $T0 4 + ^ = $ebp $T0 ^ = $esp $T0 8 + =  $23 $T0 4 - ^ = 
STACK WIN 4 1144b 18 0 0 0 0 0 0 1 $T0 .raSearch = $eip $T0 ^ = $esp $T0 4 + = 
STACK WIN 4 11463 1d 6 0 0 0 c 0 1 $T0 $ebp = $eip $T0 4 + ^ = $ebp $T0 ^ = $esp $T0 8 + = 
STACK WIN 4 11480 9c 15 0 0 0 14 0 1 $T0 $ebp = $eip $T0 4 + ^ = $ebp $T0 ^ = $esp $T0 8 + = 
STACK WIN 4 11494 84 1 0 0 4 14 0 1 $T0 $ebp = $eip $T0 4 + ^ = $ebp $T0 ^ = $esp $T0 8 + =  $23 $T0 24 - ^ = 
STACK WIN 4 11495 82 0 0 0 8 14 0 1 $T0 $ebp = $eip $T0 4 + ^ = $ebp $T0 ^ = $esp $T0 8 + =  $23 $T0 24 - ^ =  $24 $T0 28 - ^ = 
STACK WIN 4 1151c 6 0 0 c 0 0 0 1 $T0 .raSearch = $eip $T0 ^ = $esp $T0 4 + = 
STACK WIN 4 11522 c 0 0 0 0 0 0 1 $T0 .raSearch = $eip $T0 ^ = $esp $T0 4 + = 
STACK WIN 4 1152e c 0 0 0 0 0 0 1 $T0 .raSearch = $eip $T0 ^ = $esp $T0 4 + = 
STACK WIN 4 1153a 6 0 0 0 0 0 0 1 $T0 .raSearch = $eip $T0 ^ = $esp $T0 4 + = 
STACK WIN 4 11540 1d 0 0 0 0 0 0 1 $T0 .raSearch = $eip $T0 ^ = $esp $T0 4 + = 
STACK WIN 4 1155d 6 0 0 0 0 0 0 1 $T0 .raSearch = $eip $T0 ^ = $esp $T0 4 + = 
STACK WIN 4 11563 2b 2 0 0 0 0 0 1 $T0 .raSearch = $eip $T0 ^ = $esp $T0 4 + = 
STACK WIN 4 11564 29 1 0 0 4 0 0 1 $T0 .raSearch = $eip $T0 ^ = $esp $T0 4 + =  $20 $T0 4 - ^ = 
STACK WIN 4 11565 27 0 0 0 8 0 0 1 $T0 .raSearch = $eip $T0 ^ = $esp $T0 4 + =  $20 $T0 4 - ^ =  $23 $T0 8 - ^ = 
STACK WIN 4 11574 17 0 0 0 c 0 0 1 $T0 .raSearch = $eip $T0 ^ = $esp $T0 4 + =  $20 $T0 4 - ^ =  $23 $T0 8 - ^ =  $24 $T0 12 - ^ = 
STACK WIN 4 1158e 2b 2 0 0 0 0 0 1 $T0 .raSearch = $eip $T0 ^ = $esp $T0 4 + = 
STACK WIN 4 1158f 29 1 0 0 4 0 0 1 $T0 .raSearch = $eip $T0 ^ = $esp $T0 4 + =  $20 $T0 4 - ^ = 
STACK WIN 4 11590 27 0 0 0 8 0 0 1 $T0 .raSearch = $eip $T0 ^ = $esp $T0 4 + =  $20 $T0 4 - ^ =  $23 $T0 8 - ^ = 
STACK WIN 4 1159f 17 0 0 0 c 0 0 1 $T0 .raSearch = $eip $T0 ^ = $esp $T0 4 + =  $20 $T0 4 - ^ =  $23 $T0 8 - ^ =  $24 $T0 12 - ^ = 
STACK WIN 4 1161b 19a e 0 0 0 28 0 1 $T0 $ebp = $eip $T0 4 + ^ = $ebp $T0 ^ = $esp $T0 8 + = 
STACK WIN 4 11629 188 0 0 0 4 28 0 1 $T0 $ebp = $eip $T0 4 + ^ = $ebp $T0 ^ = $esp $T0 8 + =  $20 $T0 44 - ^ = 
STACK WIN 4 11651 e9 0 0 0 8 28 0 1 $T0 $ebp = $eip $T0 4 + ^ = $ebp $T0 ^ = $esp $T0 8 + =  $20 $T0 44 - ^ =  $23 $T0 48 - ^ = 
STACK WIN 4 11652 e7 0 0 0 c 28 0 1 $T0 $ebp = $eip $T0 4 + ^ = $ebp $T0 ^ = $esp $T0 8 + =  $20 $T0 44 - ^ =  $23 $T0 48 - ^ =  $24 $T0 52 - ^ = 
STACK WIN 4 117b5 4 0 0 0 0 0 0 1 $T0 .raSearch = $eip $T0 ^ = $esp $T0 4 + = 
STACK WIN 4 117b9 c 0 0 0 0 0 0 1 $T0 .raSearch = $eip $T0 ^ = $esp $T0 4 + = 
STACK WIN 4 117c5 1 0 0 4 0 0 0 1 $T0 .raSearch = $eip $T0 ^ = $esp $T0 4 + = 
STACK WIN 4 11f2d 63 4 0 8 0 0 0 1 $T0 $ebp = $eip $T0 4 + ^ = $ebp $T0 ^ = $esp $T0 8 + = 
STACK WIN 4 11f31 5d 0 0 8 4 0 0 1 $T0 $ebp = $eip $T0 4 + ^ = $ebp $T0 ^ = $esp $T0 8 + =  $24 $T0 4 - ^ = 
STACK WIN 4 11f4d 33 0 0 8 8 0 0 1 $T0 $ebp = $eip $T0 4 + ^ = $ebp $T0 ^ = $esp $T0 8 + =  $24 $T0 4 - ^ =  $20 $T0 8 - ^ = 
STACK WIN 4 11f4e 31 0 0 8 c 0 0 1 $T0 $ebp = $eip $T0 4 + ^ = $ebp $T0 ^ = $esp $T0 8 + =  $24 $T0 4 - ^ =  $20 $T0 8 - ^ =  $23 $T0 12 - ^ = 
STACK WIN 4 11f90 1f 4 0 4 0 0 0 1 $T0 $ebp = $eip $T0 4 + ^ = $ebp $T0 ^ = $esp $T0 8 + = 
STACK WIN 4 11f94 19 0 0 4 4 0 0 1 $T0 $ebp = $eip $T0 4 + ^ = $ebp $T0 ^ = $esp $T0 8 + =  $23 $T0 4 - ^ = 
STACK WIN 4 11faf 6e c 0 8 0 20 0 1 $T0 $ebp = $eip $T0 4 + ^ = $ebp $T0 ^ = $esp $T0 8 + = 
STACK WIN 4 11fb6 61 5 0 8 4 20 0 1 $T0 $ebp = $eip $T0 4 + ^ = $ebp $T0 ^ = $esp $T0 8 + =  $20 $T0 36 - ^ = 
STACK WIN 4 11fba 5c 1 0 8 8 20 0 1 $T0 $ebp = $eip $T0 4 + ^ = $ebp $T0 ^ = $esp $T0 8 + =  $20 $T0 36 - ^ =  $23 $T0 40 - ^ = 
STACK WIN 4 11fbb 5a 0 0 8 c 20 0 1 $T0 $ebp = $eip $T0 4 + ^ = $ebp $T0 ^ = $esp $T0 8 + =  $20 $T0 36 - ^ =  $23 $T0 40 - ^ =  $24 $T0 44 - ^ = 
STACK WIN 4 1201d 1d 3 0 4 0 0 0 1 $T0 $ebp = $eip $T0 4 + ^ = $ebp $T0 ^ = $esp $T0 8 + = 
STACK WIN 4 1203a a0 b 0 10 0 0 0 1 $T0 $ebp = $eip $T0 4 + ^ = $ebp $T0 ^ = $esp $T0 8 + = 
STACK WIN 4 12043 95 2 0 10 4 0 0 1 $T0 $ebp = $eip $T0 4 + ^ = $ebp $T0 ^ = $esp $T0 8 + =  $20 $T0 4 - ^ = 
STACK WIN 4 12044 93 1 0 10 8 0 0 1 $T0 $ebp = $eip $T0 4 + ^ = $ebp $T0 ^ = $esp $T0 8 + =  $20 $T0 4 - ^ =  $23 $T0 8 - ^ = 
STACK WIN 4 12045 91 0 0 10 c 0 0 1 $T0 $ebp = $eip $T0 4 + ^ = $ebp $T0 ^ = $esp $T0 8 + =  $20 $T0 4 - ^ =  $23 $T0 8 - ^ =  $24 $T0 12 - ^ = 
STACK WIN 4 120da 81 a 0 4 0 0 0 1 $T0 $ebp = $eip $T0 4 + ^ = $ebp $T0 ^ = $esp $T0 8 + = 
STACK WIN 4 120de 7b 6 0 4 4 0 0 1 $T0 $ebp = $eip $T0 4 + ^ = $ebp $T0 ^ = $esp $T0 8 + =  $20 $T0 4 - ^ = 
STACK WIN 4 120e4 74 0 0 4 8 0 0 1 $T0 $ebp = $eip $T0 4 + ^ = $ebp $T0 ^ = $esp $T0 8 + =  $20 $T0 4 - ^ =  $24 $T0 8 - ^ = 
STACK WIN 4 1210a 4d 0 0 4 c 0 0 1 $T0 $ebp = $eip $T0 4 + ^ = $ebp $T0 ^ = $esp $T0 8 + =  $20 $T0 4 - ^ =  $24 $T0 8 - ^ =  $23 $T0 12 - ^ = 
STACK WIN 4 1215b 3a 4 0 4 0 0 0 1 $T0 $ebp = $eip $T0 4 + ^ = $ebp $T0 ^ = $esp $T0 8 + = 
STACK WIN 4 1215f 2f 0 0 4 4 0 0 1 $T0 $ebp = $eip $T0 4 + ^ = $ebp $T0 ^ = $esp $T0 8 + =  $23 $T0 4 - ^ = 
STACK WIN 4 12195 3a 4 0 4 0 0 0 1 $T0 $ebp = $eip $T0 4 + ^ = $ebp $T0 ^ = $esp $T0 8 + = 
STACK WIN 4 12199 34 0 0 4 4 0 0 1 $T0 $ebp = $eip $T0 4 + ^ = $ebp $T0 ^ = $esp $T0 8 + =  $23 $T0 4 - ^ = 
STACK WIN 4 121cf 3a 4 0 4 0 0 0 1 $T0 $ebp = $eip $T0 4 + ^ = $ebp $T0 ^ = $esp $T0 8 + = 
STACK WIN 4 121d3 34 0 0 4 4 0 0 1 $T0 $ebp = $eip $T0 4 + ^ = $ebp $T0 ^ = $esp $T0 8 + =  $23 $T0 4 - ^ = 
STACK WIN 4 12209 3d 4 0 8 0 0 0 1 $T0 $ebp = $eip $T0 4 + ^ = $ebp $T0 ^ = $esp $T0 8 + = 
STACK WIN 4 1220d 37 0 0 8 4 0 0 1 $T0 $ebp = $eip $T0 4 + ^ = $ebp $T0 ^ = $esp $T0 8 + =  $23 $T0 4 - ^ = 
STACK WIN 4 12246 46 4 0 c 0 0 0 1 $T0 $ebp = $eip $T0 4 + ^ = $ebp $T0 ^ = $esp $T0 8 + = 
STACK WIN 4 1224a 40 0 0 c 4 0 0 1 $T0 $ebp = $eip $T0 4 + ^ = $ebp $T0 ^ = $esp $T0 8 + =  $23 $T0 4 - ^ = 
STACK WIN 4 1228c 3a b 0 0 0 0 0 1 $T0 .raSearch = $eip $T0 ^ = $esp $T0 4 + = 
STACK WIN 4 12297 2e 0 0 0 4 0 0 1 $T0 .raSearch = $eip $T0 ^ = $esp $T0 4 + =  $23 $T0 4 - ^ = 
STACK WIN 4 122c6 32 3 0 4 0 0 0 1 $T0 $ebp = $eip $T0 4 + ^ = $ebp $T0 ^ = $esp $T0 8 + = 
STACK WIN 4 122d0 26 0 0 4 4 0 0 1 $T0 $ebp = $eip $T0 4 + ^ = $ebp $T0 ^ = $esp $T0 8 + =  $23 $T0 4 - ^ = 
STACK WIN 4 12300 32 8 0 8 0 0 0 1 $T0 $ebp = $eip $T0 4 + ^ = $ebp $T0 ^ = $esp $T0 8 + = 
STACK WIN 4 12304 28 4 0 8 4 0 0 1 $T0 $ebp = $eip $T0 4 + ^ = $ebp $T0 ^ = $esp $T0 8 + =  $23 $T0 4 - ^ = 
STACK WIN 4 12308 23 0 0 8 8 0 0 1 $T0 $ebp = $eip $T0 4 + ^ = $ebp $T0 ^ = $esp $T0 8 + =  $23 $T0 4 - ^ =  $24 $T0 8 - ^ = 
STACK WIN 4 12340 166 c 0 10 0 1c 0 1 $T0 $ebp = $eip $T0 4 + ^ = $ebp $T0 ^ = $esp $T0 8 + = 
STACK WIN 4 12347 129 5 0 10 4 1c 0 1 $T0 $ebp = $eip $T0 4 + ^ = $ebp $T0 ^ = $esp $T0 8 + =  $20 $T0 32 - ^ = 
STACK WIN 4 12348 127 4 0 10 8 1c 0 1 $T0 $ebp = $eip $T0 4 + ^ = $ebp $T0 ^ = $esp $T0 8 + =  $20 $T0 32 - ^ =  $23 $T0 36 - ^ = 
STACK WIN 4 1234c 122 0 0 10 c 1c 0 1 $T0 $ebp = $eip $T0 4 + ^ = $ebp $T0 ^ = $esp $T0 8 + =  $20 $T0 32 - ^ =  $23 $T0 36 - ^ =  $24 $T0 40 - ^ = 
STACK WIN 4 124a6 29 0 0 0 0 0 0 1 $T0 .raSearch = $eip $T0 ^ = $esp $T0 4 + = 
STACK WIN 4 124cf b 0 0 0 0 0 0 1 $T0 .raSearch = $eip $T0 ^ = $esp $T0 4 + = 
STACK WIN 4 124da b 0 0 0 0 0 0 1 $T0 .raSearch = $eip $T0 ^ = $esp $T0 4 + = 
STACK WIN 4 124e5 1f 3 0 4 0 0 0 1 $T0 $ebp = $eip $T0 4 + ^ = $ebp $T0 ^ = $esp $T0 8 + = 
STACK WIN 4 12504 8 0 0 0 0 0 0 1 $T0 .raSearch = $eip $T0 ^ = $esp $T0 4 + = 
STACK WIN 4 1266a 23 3 0 4 0 0 0 1 $T0 $ebp = $eip $T0 4 + ^ = $ebp $T0 ^ = $esp $T0 8 + = 
STACK WIN 4 1267b 10 0 0 4 4 0 0 1 $T0 $ebp = $eip $T0 4 + ^ = $ebp $T0 ^ = $esp $T0 8 + =  $23 $T0 4 - ^ = 
STACK WIN 4 127ee 1c 3 0 4 0 0 0 1 $T0 $ebp = $eip $T0 4 + ^ = $ebp $T0 ^ = $esp $T0 8 + = 
STACK WIN 4 1280a 36 3 0 4 0 0 0 1 $T0 $ebp = $eip $T0 4 + ^ = $ebp $T0 ^ = $esp $T0 8 + = 
STACK WIN 4 12818 26 0 0 4 4 0 0 1 $T0 $ebp = $eip $T0 4 + ^ = $ebp $T0 ^ = $esp $T0 8 + =  $23 $T0 4 - ^ = 
STACK WIN 4 12840 92 0 0 0 0 0 0 1 $T0 .raSearch = $eip $T0 ^ = $esp $T0 4 + = 
STACK WIN 4 1284d 84 0 0 0 4 0 0 1 $T0 .raSearch = $eip $T0 ^ = $esp $T0 4 + =  $20 $T0 4 - ^ = 
STACK WIN 4 1284e 80 0 0 0 8 0 0 1 $T0 .raSearch = $eip $T0 ^ = $esp $T0 4 + =  $20 $T0 4 - ^ =  $24 $T0 8 - ^ = 
STACK WIN 4 12885 41 0 0 0 c 0 0 1 $T0 .raSearch = $eip $T0 ^ = $esp $T0 4 + =  $20 $T0 4 - ^ =  $24 $T0 8 - ^ =  $23 $T0 12 - ^ = 
STACK WIN 4 128d2 33 0 0 0 0 0 0 1 $T0 .raSearch = $eip $T0 ^ = $esp $T0 4 + = 
STACK WIN 4 12905 1b 0 0 0 0 0 0 1 $T0 .raSearch = $eip $T0 ^ = $esp $T0 4 + = 
STACK WIN 4 12920 3c 2 0 0 0 0 0 1 $T0 .raSearch = $eip $T0 ^ = $esp $T0 4 + = 
STACK WIN 4 12921 3a 1 0 0 4 0 0 1 $T0 .raSearch = $eip $T0 ^ = $esp $T0 4 + =  $23 $T0 4 - ^ = 
STACK WIN 4 12922 38 0 0 0 8 0 0 1 $T0 .raSearch = $eip $T0 ^ = $esp $T0 4 + =  $23 $T0 4 - ^ =  $24 $T0 8 - ^ = 
STACK WIN 4 1295c 2f 1 0 0 0 0 0 1 $T0 .raSearch = $eip $T0 ^ = $esp $T0 4 + = 
STACK WIN 4 1295d 2d 0 0 0 4 0 0 1 $T0 .raSearch = $eip $T0 ^ = $esp $T0 4 + =  $23 $T0 4 - ^ = 
STACK WIN 4 1296b 1c 0 0 0 8 0 0 1 $T0 .raSearch = $eip $T0 ^ = $esp $T0 4 + =  $23 $T0 4 - ^ =  $24 $T0 8 - ^ = 
STACK WIN 4 1298b 1d 0 0 0 0 0 0 1 $T0 .raSearch = $eip $T0 ^ = $esp $T0 4 + = 
STACK WIN 4 12ae7 83 8 0 4 0 0 0 1 $T0 $ebp = $eip $T0 4 + ^ = $ebp $T0 ^ = $esp $T0 8 + = 
STACK WIN 4 12aed 79 2 0 4 4 0 0 1 $T0 $ebp = $eip $T0 4 + ^ = $ebp $T0 ^ = $esp $T0 8 + =  $24 $T0 4 - ^ = 
STACK WIN 4 12b20 32 0 0 4 8 0 0 1 $T0 $ebp = $eip $T0 4 + ^ = $ebp $T0 ^ = $esp $T0 8 + =  $24 $T0 4 - ^ =  $23 $T0 8 - ^ = 
STACK WIN 4 12b6a 3b a 0 8 0 0 0 1 $T0 $ebp = $eip $T0 4 + ^ = $ebp $T0 ^ = $esp $T0 8 + = 
STACK WIN 4 12b70 33 4 0 8 4 0 0 1 $T0 $ebp = $eip $T0 4 + ^ = $ebp $T0 ^ = $esp $T0 8 + =  $23 $T0 4 - ^ = 
STACK WIN 4 12b74 2c 0 0 8 8 0 0 1 $T0 $ebp = $eip $T0 4 + ^ = $ebp $T0 ^ = $esp $T0 8 + =  $23 $T0 4 - ^ =  $24 $T0 8 - ^ = 
STACK WIN 4 12ba5 48 5 0 8 0 0 0 1 $T0 $ebp = $eip $T0 4 + ^ = $ebp $T0 ^ = $esp $T0 8 + = 
STACK WIN 4 12bed 9a e 0 c 0 10 0 1 $T0 $ebp = $eip $T0 4 + ^ = $ebp $T0 ^ = $esp $T0 8 + = 
STACK WIN 4 12bf9 8a 2 0 c 4 10 0 1 $T0 $ebp = $eip $T0 4 + ^ = $ebp $T0 ^ = $esp $T0 8 + =  $20 $T0 20 - ^ = 
STACK WIN 4 12bfa 88 1 0 c 8 10 0 1 $T0 $ebp = $eip $T0 4 + ^ = $ebp $T0 ^ = $esp $T0 8 + =  $20 $T0 20 - ^ =  $23 $T0 24 - ^ = 
STACK WIN 4 12bfb 84 0 0 c c 10 0 1 $T0 $ebp = $eip $T0 4 + ^ = $ebp $T0 ^ = $esp $T0 8 + =  $20 $T0 20 - ^ =  $23 $T0 24 - ^ =  $24 $T0 28 - ^ = 
STACK WIN 4 12c87 13b 1a 0 c 4 328 0 1 $T0 $ebp = $eip $T0 4 + ^ = $ebp $T0 ^ = $esp $T0 8 + =  $24 $T0 812 - ^ = 
STACK WIN 4 12dc2 14 5 0 4 0 0 0 1 $T0 $ebp = $eip $T0 4 + ^ = $ebp $T0 ^ = $esp $T0 8 + = 
STACK WIN 4 12dd6 7b 11 0 14 0 4 0 1 $T0 $ebp = $eip $T0 4 + ^ = $ebp $T0 ^ = $esp $T0 8 + = 
STACK WIN 4 12de7 35 0 0 14 4 4 0 1 $T0 $ebp = $eip $T0 4 + ^ = $ebp $T0 ^ = $esp $T0 8 + =  $23 $T0 8 - ^ = 
STACK WIN 4 12e51 10 0 0 0 0 0 0 1 $T0 .raSearch = $eip $T0 ^ = $esp $T0 4 + = 
STACK WIN 4 12e61 1d 3 0 0 4 0 0 1 $T0 .raSearch = $eip $T0 ^ = $esp $T0 4 + =  $23 $T0 4 - ^ = 
STACK WIN 4 12e7e 33 0 0 14 0 0 0 1 $T0 .raSearch = $eip $T0 ^ = $esp $T0 4 + = 
STACK WIN 4 12e8f 21 0 0 14 4 0 0 1 $T0 .raSearch = $eip $T0 ^ = $esp $T0 4 + =  $23 $T0 4 - ^ = 
STACK WIN 4 12eb1 c8 6 0 0 0 0 0 1 $T0 .raSearch = $eip $T0 ^ = $esp $T0 4 + = 
STACK WIN 4 12eb7 c1 0 0 0 4 0 0 1 $T0 .raSearch = $eip $T0 ^ = $esp $T0 4 + =  $23 $T0 4 - ^ = 
STACK WIN 4 12f1c 59 0 0 0 8 0 0 1 $T0 .raSearch = $eip $T0 ^ = $esp $T0 4 + =  $23 $T0 4 - ^ =  $24 $T0 8 - ^ = 
STACK WIN 4 12f79 10 5 0 4 0 0 0 1 $T0 $ebp = $eip $T0 4 + ^ = $ebp $T0 ^ = $esp $T0 8 + = 
STACK WIN 4 12f89 4c 3 0 0 0 0 0 1 $T0 .raSearch = $eip $T0 ^ = $esp $T0 4 + = 
STACK WIN 4 12f8c 48 0 0 0 4 0 0 1 $T0 .raSearch = $eip $T0 ^ = $esp $T0 4 + =  $23 $T0 4 - ^ = 
STACK WIN 4 12fd5 14 5 0 4 0 0 0 1 $T0 $ebp = $eip $T0 4 + ^ = $ebp $T0 ^ = $esp $T0 8 + = 
STACK WIN 4 12fe9 14 5 0 4 0 0 0 1 $T0 $ebp = $eip $T0 4 + ^ = $ebp $T0 ^ = $esp $T0 8 + = 
STACK WIN 4 12ffd 51 c 0 c 10 1c 0 1 $T0 $ebp = $eip $T0 4 + ^ = $ebp $T0 ^ = $esp $T0 8 + =  $20 $T0 32 - ^ =  $23 $T0 36 - ^ =  $24 $T0 40 - ^ = 
STACK WIN 4 1303f e 0 0 c 10 1c 0 1 $T0 $ebp = $T2 $esp = $T1 .raSearchStart = $eip $T1 ^ = $ebp $T0 = $esp $T1 4 + = 
STACK WIN 4 1304e 28 8 0 8 0 c 0 1 $T0 $ebp = $eip $T0 4 + ^ = $ebp $T0 ^ = $esp $T0 8 + = 
STACK WIN 4 13076 17c 1d 0 1c 0 484 0 1 $T0 $ebp = $eip $T0 4 + ^ = $ebp $T0 ^ = $esp $T0 8 + = 
STACK WIN 4 13093 13a 0 0 1c 4 484 0 1 $T0 $ebp = $eip $T0 4 + ^ = $ebp $T0 ^ = $esp $T0 8 + =  $20 $T0 1160 - ^ = 
STACK WIN 4 130bf 12d 0 0 1c 8 484 0 1 $T0 $ebp = $eip $T0 4 + ^ = $ebp $T0 ^ = $esp $T0 8 + =  $20 $T0 1160 - ^ =  $23 $T0 1164 - ^ = 
STACK WIN 4 130c0 104 0 0 1c c 484 0 1 $T0 $ebp = $eip $T0 4 + ^ = $ebp $T0 ^ = $esp $T0 8 + =  $20 $T0 1160 - ^ =  $23 $T0 1164 - ^ =  $24 $T0 1168 - ^ = 
STACK WIN 4 131f2 18 0 0 0 0 0 0 1 $T0 .raSearch = $eip $T0 ^ = $esp $T0 4 + = 
STACK WIN 4 1320a 86 17 0 4 0 4 0 1 $T0 $ebp = $eip $T0 4 + ^ = $ebp $T0 ^ = $esp $T0 8 + = 
STACK WIN 4 13216 74 b 0 4 4 4 0 1 $T0 $ebp = $eip $T0 4 + ^ = $ebp $T0 ^ = $esp $T0 8 + =  $23 $T0 8 - ^ = 
STACK WIN 4 1321c 6d 5 0 4 8 4 0 1 $T0 $ebp = $eip $T0 4 + ^ = $ebp $T0 ^ = $esp $T0 8 + =  $23 $T0 8 - ^ =  $24 $T0 12 - ^ = 
STACK WIN 4 13236 52 0 0 4 c 4 0 1 $T0 $ebp = $eip $T0 4 + ^ = $ebp $T0 ^ = $esp $T0 8 + =  $23 $T0 8 - ^ =  $24 $T0 12 - ^ =  $20 $T0 16 - ^ = 
STACK WIN 4 13290 40 5 0 10 0 0 0 1 $T0 $ebp = $eip $T0 4 + ^ = $ebp $T0 ^ = $esp $T0 8 + = 
STACK WIN 4 132d0 1e 5 0 0 0 0 0 1 $T0 .raSearch = $eip $T0 ^ = $esp $T0 4 + = 
STACK WIN 4 132d3 1a 2 0 0 4 0 0 1 $T0 .raSearch = $eip $T0 ^ = $esp $T0 4 + =  $23 $T0 4 - ^ = 
STACK WIN 4 132d6 16 0 0 0 8 0 0 1 $T0 .raSearch = $eip $T0 ^ = $esp $T0 4 + =  $23 $T0 4 - ^ =  $24 $T0 8 - ^ = 
STACK WIN 4 132ee 75 9 0 c 0 0 0 1 $T0 $ebp = $eip $T0 4 + ^ = $ebp $T0 ^ = $esp $T0 8 + = 
STACK WIN 4 132f4 6b 3 0 c 4 0 0 1 $T0 $ebp = $eip $T0 4 + ^ = $ebp $T0 ^ = $esp $T0 8 + =  $20 $T0 4 - ^ = 
STACK WIN 4 132f5 69 2 0 c 8 0 0 1 $T0 $ebp = $eip $T0 4 + ^ = $ebp $T0 ^ = $esp $T0 8 + =  $20 $T0 4 - ^ =  $23 $T0 8 - ^ = 
STACK WIN 4 132f8 62 0 0 c c 0 0 1 $T0 $ebp = $eip $T0 4 + ^ = $ebp $T0 ^ = $esp $T0 8 + =  $20 $T0 4 - ^ =  $23 $T0 8 - ^ =  $24 $T0 12 - ^ = 
STACK WIN 4 13363 88 b 0 10 0 8 0 1 $T0 $ebp = $eip $T0 4 + ^ = $ebp $T0 ^ = $esp $T0 8 + = 
STACK WIN 4 1336b 7a 3 0 10 4 8 0 1 $T0 $ebp = $eip $T0 4 + ^ = $ebp $T0 ^ = $esp $T0 8 + =  $20 $T0 12 - ^ = 
STACK WIN 4 1336c 78 2 0 10 8 8 0 1 $T0 $ebp = $eip $T0 4 + ^ = $ebp $T0 ^ = $esp $T0 8 + =  $20 $T0 12 - ^ =  $23 $T0 16 - ^ = 
STACK WIN 4 1336f 71 0 0 10 c 8 0 1 $T0 $ebp = $eip $T0 4 + ^ = $ebp $T0 ^ = $esp $T0 8 + =  $20 $T0 12 - ^ =  $23 $T0 16 - ^ =  $24 $T0 20 - ^ = 
STACK WIN 4 133eb 2c 6 0 10 0 0 0 1 $T0 $ebp = $eip $T0 4 + ^ = $ebp $T0 ^ = $esp $T0 8 + = 
STACK WIN 4 133f1 24 0 0 10 4 0 0 1 $T0 $ebp = $eip $T0 4 + ^ = $ebp $T0 ^ = $esp $T0 8 + =  $23 $T0 4 - ^ = 
STACK WIN 4 133f9 1b 0 0 10 8 0 0 1 $T0 $ebp = $eip $T0 4 + ^ = $ebp $T0 ^ = $esp $T0 8 + =  $23 $T0 4 - ^ =  $24 $T0 8 - ^ = 
STACK WIN 4 13417 2c 6 0 10 0 0 0 1 $T0 $ebp = $eip $T0 4 + ^ = $ebp $T0 ^ = $esp $T0 8 + = 
STACK WIN 4 1341d 24 0 0 10 4 0 0 1 $T0 $ebp = $eip $T0 4 + ^ = $ebp $T0 ^ = $esp $T0 8 + =  $23 $T0 4 - ^ = 
STACK WIN 4 13425 1b 0 0 10 8 0 0 1 $T0 $ebp = $eip $T0 4 + ^ = $ebp $T0 ^ = $esp $T0 8 + =  $23 $T0 4 - ^ =  $24 $T0 8 - ^ = 
STACK WIN 4 13443 47 b 0 0 0 4 0 1 $T0 $ebp = $eip $T0 4 + ^ = $ebp $T0 ^ = $esp $T0 8 + = 
STACK WIN 4 1348a 3c 8 0 18 0 0 0 1 $T0 $ebp = $eip $T0 4 + ^ = $ebp $T0 ^ = $esp $T0 8 + = 
STACK WIN 4 13490 32 2 0 18 4 0 0 1 $T0 $ebp = $eip $T0 4 + ^ = $ebp $T0 ^ = $esp $T0 8 + =  $23 $T0 4 - ^ = 
STACK WIN 4 134c6 35 b 0 18 0 0 0 1 $T0 $ebp = $eip $T0 4 + ^ = $ebp $T0 ^ = $esp $T0 8 + = 
STACK WIN 4 134cc 2b 5 0 18 4 0 0 1 $T0 $ebp = $eip $T0 4 + ^ = $ebp $T0 ^ = $esp $T0 8 + =  $23 $T0 4 - ^ = 
STACK WIN 4 134fb 1a 5 0 0 0 0 0 1 $T0 .raSearch = $eip $T0 ^ = $esp $T0 4 + = 
STACK WIN 4 134fe 16 2 0 0 4 0 0 1 $T0 .raSearch = $eip $T0 ^ = $esp $T0 4 + =  $23 $T0 4 - ^ = 
STACK WIN 4 13515 24 8 0 4 0 0 0 1 $T0 $ebp = $eip $T0 4 + ^ = $ebp $T0 ^ = $esp $T0 8 + = 
STACK WIN 4 1351b 1a 2 0 4 4 0 0 1 $T0 $ebp = $eip $T0 4 + ^ = $ebp $T0 ^ = $esp $T0 8 + =  $23 $T0 4 - ^ = 
STACK WIN 4 13539 bd 18 0 0 0 478 0 1 $T0 $ebp = $eip $T0 4 + ^ = $ebp $T0 ^ = $esp $T0 8 + = 
STACK WIN 4 1354f 9e 2 0 0 4 478 0 1 $T0 $ebp = $eip $T0 4 + ^ = $ebp $T0 ^ = $esp $T0 8 + =  $23 $T0 1148 - ^ = 
STACK WIN 4 13552 98 0 0 0 8 478 0 1 $T0 $ebp = $eip $T0 4 + ^ = $ebp $T0 ^ = $esp $T0 8 + =  $23 $T0 1148 - ^ =  $24 $T0 1152 - ^ = 
STACK WIN 4 135f6 57 c 0 8 0 0 0 1 $T0 $ebp = $eip $T0 4 + ^ = $ebp $T0 ^ = $esp $T0 8 + = 
STACK WIN 4 13602 49 0 0 8 4 0 0 1 $T0 $ebp = $eip $T0 4 + ^ = $ebp $T0 ^ = $esp $T0 8 + =  $20 $T0 4 - ^ = 
STACK WIN 4 1364d 32 5 0 8 0 0 0 1 $T0 $ebp = $eip $T0 4 + ^ = $ebp $T0 ^ = $esp $T0 8 + = 
STACK WIN 4 1367f 5c 6 0 8 0 0 0 1 $T0 $ebp = $eip $T0 4 + ^ = $ebp $T0 ^ = $esp $T0 8 + = 
STACK WIN 4 13685 54 0 0 8 4 0 0 1 $T0 $ebp = $eip $T0 4 + ^ = $ebp $T0 ^ = $esp $T0 8 + =  $23 $T0 4 - ^ = 
STACK WIN 4 136db 5c a 0 4 0 4 0 1 $T0 $ebp = $eip $T0 4 + ^ = $ebp $T0 ^ = $esp $T0 8 + = 
STACK WIN 4 136e2 4f 3 0 4 4 4 0 1 $T0 $ebp = $eip $T0 4 + ^ = $ebp $T0 ^ = $esp $T0 8 + =  $20 $T0 8 - ^ = 
STACK WIN 4 136e3 4d 2 0 4 8 4 0 1 $T0 $ebp = $eip $T0 4 + ^ = $ebp $T0 ^ = $esp $T0 8 + =  $20 $T0 8 - ^ =  $23 $T0 12 - ^ = 
STACK WIN 4 136e9 46 0 0 4 c 4 0 1 $T0 $ebp = $eip $T0 4 + ^ = $ebp $T0 ^ = $esp $T0 8 + =  $20 $T0 8 - ^ =  $23 $T0 12 - ^ =  $24 $T0 16 - ^ = 
STACK WIN 4 13737 11c 5 0 0 0 0 0 1 $T0 .raSearch = $eip $T0 ^ = $esp $T0 4 + = 
STACK WIN 4 1373a f5 2 0 0 4 0 0 1 $T0 .raSearch = $eip $T0 ^ = $esp $T0 4 + =  $23 $T0 4 - ^ = 
STACK WIN 4 13751 dd 0 0 0 8 0 0 1 $T0 .raSearch = $eip $T0 ^ = $esp $T0 4 + =  $23 $T0 4 - ^ =  $20 $T0 8 - ^ = 
STACK WIN 4 13853 11c 5 0 0 0 0 0 1 $T0 .raSearch = $eip $T0 ^ = $esp $T0 4 + = 
STACK WIN 4 13856 f5 2 0 0 4 0 0 1 $T0 .raSearch = $eip $T0 ^ = $esp $T0 4 + =  $23 $T0 4 - ^ = 
STACK WIN 4 1386d dd 0 0 0 8 0 0 1 $T0 .raSearch = $eip $T0 ^ = $esp $T0 4 + =  $23 $T0 4 - ^ =  $20 $T0 8 - ^ = 
STACK WIN 4 1396f 3d 0 0 0 0 0 0 1 $T0 .raSearch = $eip $T0 ^ = $esp $T0 4 + = 
STACK WIN 4 139ac 1f 0 0 0 0 0 0 1 $T0 .raSearch = $eip $T0 ^ = $esp $T0 4 + = 
STACK WIN 4 139cb 1f 0 0 0 0 0 0 1 $T0 .raSearch = $eip $T0 ^ = $esp $T0 4 + = 
STACK WIN 4 139ea 2a 7 0 0 0 0 0 1 $T0 .raSearch = $eip $T0 ^ = $esp $T0 4 + = 
STACK WIN 4 139ed 26 4 0 0 4 0 0 1 $T0 .raSearch = $eip $T0 ^ = $esp $T0 4 + =  $23 $T0 4 - ^ = 
STACK WIN 4 13a14 2a 7 0 0 0 0 0 1 $T0 .raSearch = $eip $T0 ^ = $esp $T0 4 + = 
STACK WIN 4 13a17 26 4 0 0 4 0 0 1 $T0 .raSearch = $eip $T0 ^ = $esp $T0 4 + =  $23 $T0 4 - ^ = 
STACK WIN 4 13a3e 61 5 0 4 0 0 0 1 $T0 .raSearch = $eip $T0 ^ = $esp $T0 4 + = 
STACK WIN 4 13a41 5b 2 0 4 4 0 0 1 $T0 .raSearch = $eip $T0 ^ = $esp $T0 4 + =  $23 $T0 4 - ^ = 
STACK WIN 4 13a44 57 0 0 4 8 0 0 1 $T0 .raSearch = $eip $T0 ^ = $esp $T0 4 + =  $23 $T0 4 - ^ =  $24 $T0 8 - ^ = 
STACK WIN 4 13a9f 61 5 0 4 0 0 0 1 $T0 .raSearch = $eip $T0 ^ = $esp $T0 4 + = 
STACK WIN 4 13aa2 5b 2 0 4 4 0 0 1 $T0 .raSearch = $eip $T0 ^ = $esp $T0 4 + =  $23 $T0 4 - ^ = 
STACK WIN 4 13aa5 57 0 0 4 8 0 0 1 $T0 .raSearch = $eip $T0 ^ = $esp $T0 4 + =  $23 $T0 4 - ^ =  $24 $T0 8 - ^ = 
STACK WIN 4 13b00 28 0 0 0 0 0 0 1 $T0 .raSearch = $eip $T0 ^ = $esp $T0 4 + = 
STACK WIN 4 13b28 169 0 0 0 0 0 0 1 $T0 .raSearch = $eip $T0 ^ = $esp $T0 4 + = 
STACK WIN 4 13c91 169 0 0 0 0 0 0 1 $T0 .raSearch = $eip $T0 ^ = $esp $T0 4 + = 
STACK WIN 4 13dfa 22f a 0 0 0 4 0 1 $T0 $ebp = $eip $T0 4 + ^ = $ebp $T0 ^ = $esp $T0 8 + = 
STACK WIN 4 13e01 224 3 0 0 4 4 0 1 $T0 $ebp = $eip $T0 4 + ^ = $ebp $T0 ^ = $esp $T0 8 + =  $20 $T0 8 - ^ = 
STACK WIN 4 13e02 222 2 0 0 8 4 0 1 $T0 $ebp = $eip $T0 4 + ^ = $ebp $T0 ^ = $esp $T0 8 + =  $20 $T0 8 - ^ =  $23 $T0 12 - ^ = 
STACK WIN 4 13f01 122 0 0 0 c 4 0 1 $T0 $ebp = $eip $T0 4 + ^ = $ebp $T0 ^ = $esp $T0 8 + =  $20 $T0 8 - ^ =  $23 $T0 12 - ^ =  $24 $T0 16 - ^ = 
STACK WIN 4 14029 22f a 0 0 0 4 0 1 $T0 $ebp = $eip $T0 4 + ^ = $ebp $T0 ^ = $esp $T0 8 + = 
STACK WIN 4 14030 224 3 0 0 4 4 0 1 $T0 $ebp = $eip $T0 4 + ^ = $ebp $T0 ^ = $esp $T0 8 + =  $20 $T0 8 - ^ = 
STACK WIN 4 14031 222 2 0 0 8 4 0 1 $T0 $ebp = $eip $T0 4 + ^ = $ebp $T0 ^ = $esp $T0 8 + =  $20 $T0 8 - ^ =  $23 $T0 12 - ^ = 
STACK WIN 4 14130 122 0 0 0 c 4 0 1 $T0 $ebp = $eip $T0 4 + ^ = $ebp $T0 ^ = $esp $T0 8 + =  $20 $T0 8 - ^ =  $23 $T0 12 - ^ =  $24 $T0 16 - ^ = 
STACK WIN 4 14258 2b 0 0 0 0 0 0 1 $T0 .raSearch = $eip $T0 ^ = $esp $T0 4 + = 
STACK WIN 4 14283 5c 5 0 4 0 0 0 1 $T0 $ebp = $eip $T0 4 + ^ = $ebp $T0 ^ = $esp $T0 8 + = 
STACK WIN 4 142df 63 6 0 0 0 0 0 1 $T0 .raSearch = $eip $T0 ^ = $esp $T0 4 + = 
STACK WIN 4 142e2 5f 3 0 0 4 0 0 1 $T0 .raSearch = $eip $T0 ^ = $esp $T0 4 + =  $20 $T0 4 - ^ = 
STACK WIN 4 142e3 5b 2 0 0 8 0 0 1 $T0 .raSearch = $eip $T0 ^ = $esp $T0 4 + =  $20 $T0 4 - ^ =  $23 $T0 8 - ^ = 
STACK WIN 4 142e6 57 0 0 0 c 0 0 1 $T0 .raSearch = $eip $T0 ^ = $esp $T0 4 + =  $20 $T0 4 - ^ =  $23 $T0 8 - ^ =  $24 $T0 12 - ^ = 
STACK WIN 4 14342 15a a 0 0 0 8 0 1 $T0 $ebp = $eip $T0 4 + ^ = $ebp $T0 ^ = $esp $T0 8 + = 
STACK WIN 4 1434a 14e 2 0 0 4 8 0 1 $T0 $ebp = $eip $T0 4 + ^ = $ebp $T0 ^ = $esp $T0 8 + =  $23 $T0 12 - ^ = 
STACK WIN 4 1434d 147 0 0 0 8 8 0 1 $T0 $ebp = $eip $T0 4 + ^ = $ebp $T0 ^ = $esp $T0 8 + =  $23 $T0 12 - ^ =  $24 $T0 16 - ^ = 
STACK WIN 4 14390 93 0 0 0 c 8 0 1 $T0 $ebp = $eip $T0 4 + ^ = $ebp $T0 ^ = $esp $T0 8 + =  $23 $T0 12 - ^ =  $24 $T0 16 - ^ =  $20 $T0 20 - ^ = 
STACK WIN 4 1449c 90 5 0 4 0 0 0 1 $T0 .raSearch = $eip $T0 ^ = $esp $T0 4 + = 
STACK WIN 4 1449f 8a 2 0 4 4 0 0 1 $T0 .raSearch = $eip $T0 ^ = $esp $T0 4 + =  $23 $T0 4 - ^ = 
STACK WIN 4 144a2 86 0 0 4 8 0 0 1 $T0 .raSearch = $eip $T0 ^ = $esp $T0 4 + =  $23 $T0 4 - ^ =  $24 $T0 8 - ^ = 
STACK WIN 4 144c6 27 0 0 4 c 0 0 1 $T0 .raSearch = $eip $T0 ^ = $esp $T0 4 + =  $23 $T0 4 - ^ =  $24 $T0 8 - ^ =  $20 $T0 28 - ^ = 
STACK WIN 4 1452c 14a 9 0 8 0 0 0 1 $T0 $ebp = $eip $T0 4 + ^ = $ebp $T0 ^ = $esp $T0 8 + = 
STACK WIN 4 14532 140 3 0 8 4 0 0 1 $T0 $ebp = $eip $T0 4 + ^ = $ebp $T0 ^ = $esp $T0 8 + =  $20 $T0 4 - ^ = 
STACK WIN 4 14533 13e 2 0 8 8 0 0 1 $T0 $ebp = $eip $T0 4 + ^ = $ebp $T0 ^ = $esp $T0 8 + =  $20 $T0 4 - ^ =  $23 $T0 8 - ^ = 
STACK WIN 4 145de 28 0 0 8 c 0 0 1 $T0 $ebp = $eip $T0 4 + ^ = $ebp $T0 ^ = $esp $T0 8 + =  $20 $T0 4 - ^ =  $23 $T0 8 - ^ =  $24 $T0 12 - ^ = 
STACK WIN 4 14676 74 5 0 0 0 0 0 1 $T0 .raSearch = $eip $T0 ^ = $esp $T0 4 + = 
STACK WIN 4 14679 70 2 0 0 4 0 0 1 $T0 .raSearch = $eip $T0 ^ = $esp $T0 4 + =  $23 $T0 4 - ^ = 
STACK WIN 4 1467c 6c 0 0 0 8 0 0 1 $T0 .raSearch = $eip $T0 ^ = $esp $T0 4 + =  $23 $T0 4 - ^ =  $24 $T0 8 - ^ = 
STACK WIN 4 146ea 1f 0 0 0 0 0 0 1 $T0 .raSearch = $eip $T0 ^ = $esp $T0 4 + = 
STACK WIN 4 14709 18 0 0 0 0 0 0 1 $T0 .raSearch = $eip $T0 ^ = $esp $T0 4 + = 
STACK WIN 4 14721 73 6 0 0 0 0 0 1 $T0 .raSearch = $eip $T0 ^ = $esp $T0 4 + = 
STACK WIN 4 14724 6f 3 0 0 4 0 0 1 $T0 .raSearch = $eip $T0 ^ = $esp $T0 4 + =  $20 $T0 4 - ^ = 
STACK WIN 4 14725 6d 2 0 0 8 0 0 1 $T0 .raSearch = $eip $T0 ^ = $esp $T0 4 + =  $20 $T0 4 - ^ =  $23 $T0 8 - ^ = 
STACK WIN 4 14728 64 0 0 0 c 0 0 1 $T0 .raSearch = $eip $T0 ^ = $esp $T0 4 + =  $20 $T0 4 - ^ =  $23 $T0 8 - ^ =  $24 $T0 12 - ^ = 
STACK WIN 4 14794 21 0 0 0 0 0 0 1 $T0 .raSearch = $eip $T0 ^ = $esp $T0 4 + = 
STACK WIN 4 147b5 82 9 0 4 0 0 0 1 $T0 $ebp = $eip $T0 4 + ^ = $ebp $T0 ^ = $esp $T0 8 + = 
STACK WIN 4 147be 77 0 0 4 4 0 0 1 $T0 $ebp = $eip $T0 4 + ^ = $ebp $T0 ^ = $esp $T0 8 + =  $23 $T0 4 - ^ = 
STACK WIN 4 14837 3d 5 0 8 0 0 0 1 $T0 $ebp = $eip $T0 4 + ^ = $ebp $T0 ^ = $esp $T0 8 + = 
STACK WIN 4 14874 42 7 0 8 0 0 0 1 $T0 $ebp = $eip $T0 4 + ^ = $ebp $T0 ^ = $esp $T0 8 + = 
STACK WIN 4 148b6 a7 16 0 4 0 10 0 1 $T0 $ebp = $eip $T0 4 + ^ = $ebp $T0 ^ = $esp $T0 8 + = 
STACK WIN 4 148c9 89 3 0 4 4 10 0 1 $T0 $ebp = $eip $T0 4 + ^ = $ebp $T0 ^ = $esp $T0 8 + =  $20 $T0 20 - ^ = 
STACK WIN 4 148ca 85 2 0 4 8 10 0 1 $T0 $ebp = $eip $T0 4 + ^ = $ebp $T0 ^ = $esp $T0 8 + =  $20 $T0 20 - ^ =  $23 $T0 24 - ^ = 
STACK WIN 4 148cd 81 0 0 4 c 10 0 1 $T0 $ebp = $eip $T0 4 + ^ = $ebp $T0 ^ = $esp $T0 8 + =  $20 $T0 20 - ^ =  $23 $T0 24 - ^ =  $24 $T0 28 - ^ = 
STACK WIN 4 1495d a7 16 0 4 0 10 0 1 $T0 $ebp = $eip $T0 4 + ^ = $ebp $T0 ^ = $esp $T0 8 + = 
STACK WIN 4 14970 89 3 0 4 4 10 0 1 $T0 $ebp = $eip $T0 4 + ^ = $ebp $T0 ^ = $esp $T0 8 + =  $20 $T0 20 - ^ = 
STACK WIN 4 14971 85 2 0 4 8 10 0 1 $T0 $ebp = $eip $T0 4 + ^ = $ebp $T0 ^ = $esp $T0 8 + =  $20 $T0 20 - ^ =  $23 $T0 24 - ^ = 
STACK WIN 4 14974 81 0 0 4 c 10 0 1 $T0 $ebp = $eip $T0 4 + ^ = $ebp $T0 ^ = $esp $T0 8 + =  $20 $T0 20 - ^ =  $23 $T0 24 - ^ =  $24 $T0 28 - ^ = 
STACK WIN 4 14a04 8a a 0 10 0 8 0 1 $T0 $ebp = $eip $T0 4 + ^ = $ebp $T0 ^ = $esp $T0 8 + = 
STACK WIN 4 14a0c 7c 2 0 10 4 8 0 1 $T0 $ebp = $eip $T0 4 + ^ = $ebp $T0 ^ = $esp $T0 8 + =  $20 $T0 12 - ^ = 
STACK WIN 4 14a30 57 0 0 10 8 8 0 1 $T0 $ebp = $eip $T0 4 + ^ = $ebp $T0 ^ = $esp $T0 8 + =  $20 $T0 12 - ^ =  $23 $T0 16 - ^ = 
STACK WIN 4 14a34 52 0 0 10 c 8 0 1 $T0 $ebp = $eip $T0 4 + ^ = $ebp $T0 ^ = $esp $T0 8 + =  $20 $T0 12 - ^ =  $23 $T0 16 - ^ =  $24 $T0 20 - ^ = 
STACK WIN 4 14a8e 93 11 0 10 0 8 0 1 $T0 $ebp = $eip $T0 4 + ^ = $ebp $T0 ^ = $esp $T0 8 + = 
STACK WIN 4 14a96 85 9 0 10 4 8 0 1 $T0 $ebp = $eip $T0 4 + ^ = $ebp $T0 ^ = $esp $T0 8 + =  $23 $T0 12 - ^ = 
STACK WIN 4 14a97 83 8 0 10 8 8 0 1 $T0 $ebp = $eip $T0 4 + ^ = $ebp $T0 ^ = $esp $T0 8 + =  $23 $T0 12 - ^ =  $24 $T0 16 - ^ = 
STACK WIN 4 14acd 3e 0 0 10 c 8 0 1 $T0 $ebp = $eip $T0 4 + ^ = $ebp $T0 ^ = $esp $T0 8 + =  $23 $T0 12 - ^ =  $24 $T0 16 - ^ =  $20 $T0 20 - ^ = 
STACK WIN 4 14b21 77 8 0 18 0 2c 0 1 $T0 $ebp = $eip $T0 4 + ^ = $ebp $T0 ^ = $esp $T0 8 + = 
STACK WIN 4 14b98 24 5 0 1c 0 0 0 1 $T0 $ebp = $eip $T0 4 + ^ = $ebp $T0 ^ = $esp $T0 8 + = 
STACK WIN 4 14ce4 76 6 0 4 0 0 0 1 $T0 $ebp = $eip $T0 4 + ^ = $ebp $T0 ^ = $esp $T0 8 + = 
STACK WIN 4 14cea 6e 0 0 4 4 0 0 1 $T0 $ebp = $eip $T0 4 + ^ = $ebp $T0 ^ = $esp $T0 8 + =  $23 $T0 4 - ^ = 
STACK WIN 4 14d0a 4d 0 0 4 8 0 0 1 $T0 $ebp = $eip $T0 4 + ^ = $ebp $T0 ^ = $esp $T0 8 + =  $23 $T0 4 - ^ =  $24 $T0 8 - ^ = 
STACK WIN 4 14d5a 80 c 0 4 10 20 0 1 $T0 $ebp = $eip $T0 4 + ^ = $ebp $T0 ^ = $esp $T0 8 + =  $20 $T0 36 - ^ =  $23 $T0 40 - ^ =  $24 $T0 44 - ^ = 
STACK WIN 4 14dcd c 0 0 4 10 20 0 1 $T0 $ebp = $T2 $esp = $T1 .raSearchStart = $eip $T1 ^ = $ebp $T0 = $esp $T1 4 + = 
STACK WIN 4 14dda 14 5 0 4 0 0 0 1 $T0 $ebp = $eip $T0 4 + ^ = $ebp $T0 ^ = $esp $T0 8 + = 
STACK WIN 4 14dee 44 11 0 4 0 4 0 1 $T0 $ebp = $eip $T0 4 + ^ = $ebp $T0 ^ = $esp $T0 8 + = 
STACK WIN 4 14dff 2a 0 0 4 4 4 0 1 $T0 $ebp = $eip $T0 4 + ^ = $ebp $T0 ^ = $esp $T0 8 + =  $23 $T0 8 - ^ = 
STACK WIN 4 14e32 52 c 0 0 10 1c 0 1 $T0 $ebp = $eip $T0 4 + ^ = $ebp $T0 ^ = $esp $T0 8 + =  $20 $T0 32 - ^ =  $23 $T0 36 - ^ =  $24 $T0 40 - ^ = 
STACK WIN 4 14e78 b 0 0 0 10 1c 0 1 $T0 $ebp = $T2 $esp = $T1 .raSearchStart = $eip $T1 ^ = $ebp $T0 = $esp $T1 4 + = 
STACK WIN 4 14e84 b 5 0 4 0 0 0 1 $T0 $ebp = $eip $T0 4 + ^ = $ebp $T0 ^ = $esp $T0 8 + = 
STACK WIN 4 14e8f 5 0 0 4 0 0 0 1 $T0 $ebp = $eip $T0 4 + ^ = $ebp $T0 ^ = $esp $T0 8 + = 
STACK WIN 4 14e94 5c 1f 0 8 0 8 0 1 $T0 $ebp = $eip $T0 4 + ^ = $ebp $T0 ^ = $esp $T0 8 + = 
STACK WIN 4 14ea9 3e a 0 8 4 8 0 1 $T0 $ebp = $eip $T0 4 + ^ = $ebp $T0 ^ = $esp $T0 8 + =  $20 $T0 12 - ^ = 
STACK WIN 4 14eaa 3a 9 0 8 8 8 0 1 $T0 $ebp = $eip $T0 4 + ^ = $ebp $T0 ^ = $esp $T0 8 + =  $20 $T0 12 - ^ =  $23 $T0 16 - ^ = 
STACK WIN 4 14eb3 30 0 0 8 c 8 0 1 $T0 $ebp = $eip $T0 4 + ^ = $ebp $T0 ^ = $esp $T0 8 + =  $20 $T0 12 - ^ =  $23 $T0 16 - ^ =  $24 $T0 20 - ^ = 
STACK WIN 4 14ef0 45 15 0 8 0 4 0 1 $T0 $ebp = $eip $T0 4 + ^ = $ebp $T0 ^ = $esp $T0 8 + = 
STACK WIN 4 14f01 2b 4 0 8 4 4 0 1 $T0 $ebp = $eip $T0 4 + ^ = $ebp $T0 ^ = $esp $T0 8 + =  $23 $T0 8 - ^ = 
STACK WIN 4 14f05 24 0 0 8 8 4 0 1 $T0 $ebp = $eip $T0 4 + ^ = $ebp $T0 ^ = $esp $T0 8 + =  $23 $T0 8 - ^ =  $24 $T0 12 - ^ = 
STACK WIN 4 14f35 20 5 0 8 0 0 0 1 $T0 $ebp = $eip $T0 4 + ^ = $ebp $T0 ^ = $esp $T0 8 + = 
STACK WIN 4 14f55 173 12 0 8 0 8 0 1 $T0 $ebp = $eip $T0 4 + ^ = $ebp $T0 ^ = $esp $T0 8 + = 
STACK WIN 4 14f67 158 0 0 8 4 8 0 1 $T0 $ebp = $eip $T0 4 + ^ = $ebp $T0 ^ = $esp $T0 8 + =  $23 $T0 12 - ^ = 
STACK WIN 4 14f7b 13e 0 0 8 8 8 0 1 $T0 $ebp = $eip $T0 4 + ^ = $ebp $T0 ^ = $esp $T0 8 + =  $23 $T0 12 - ^ =  $20 $T0 16 - ^ = 
STACK WIN 4 14f7e 13a 0 0 8 c 8 0 1 $T0 $ebp = $eip $T0 4 + ^ = $ebp $T0 ^ = $esp $T0 8 + =  $23 $T0 12 - ^ =  $20 $T0 16 - ^ =  $24 $T0 20 - ^ = 
STACK WIN 4 150c8 13 5 0 4 0 0 0 1 $T0 $ebp = $eip $T0 4 + ^ = $ebp $T0 ^ = $esp $T0 8 + = 
STACK WIN 4 150db 119 c 0 c 10 1c 0 1 $T0 $ebp = $eip $T0 4 + ^ = $ebp $T0 ^ = $esp $T0 8 + =  $20 $T0 32 - ^ =  $23 $T0 36 - ^ =  $24 $T0 40 - ^ = 
STACK WIN 4 151ca 10 0 0 c 10 1c 0 1 $T0 $ebp = $T2 $esp = $T1 .raSearchStart = $eip $T1 ^ = $ebp $T0 = $esp $T1 4 + = 
STACK WIN 4 151e2 b 0 0 c 10 1c 0 1 $T0 $ebp = $T2 $esp = $T1 .raSearchStart = $eip $T1 ^ = $ebp $T0 = $esp $T1 4 + = 
STACK WIN 4 151f4 41 5 0 4 0 0 0 1 $T0 $ebp = $eip $T0 4 + ^ = $ebp $T0 ^ = $esp $T0 8 + = 
STACK WIN 4 15235 44 0 0 0 0 0 0 1 $T0 .raSearch = $eip $T0 ^ = $esp $T0 4 + = 
STACK WIN 4 15279 6a 11 0 4 0 8 0 1 $T0 $ebp = $eip $T0 4 + ^ = $ebp $T0 ^ = $esp $T0 8 + = 
STACK WIN 4 152a4 22 0 0 4 4 8 0 1 $T0 $ebp = $eip $T0 4 + ^ = $ebp $T0 ^ = $esp $T0 8 + =  $23 $T0 12 - ^ = 
STACK WIN 4 152e3 f 5 0 4 0 0 0 1 $T0 $ebp = $eip $T0 4 + ^ = $ebp $T0 ^ = $esp $T0 8 + = 
STACK WIN 4 152f2 f 0 0 0 0 0 0 1 $T0 .raSearch = $eip $T0 ^ = $esp $T0 4 + = 
STACK WIN 4 15301 16 5 0 4 0 0 0 1 $T0 $ebp = $eip $T0 4 + ^ = $ebp $T0 ^ = $esp $T0 8 + = 
STACK WIN 4 15317 6 0 0 0 0 0 0 1 $T0 .raSearch = $eip $T0 ^ = $esp $T0 4 + = 
STACK WIN 4 1531d 124 d 0 4 0 c 0 1 $T0 $ebp = $eip $T0 4 + ^ = $ebp $T0 ^ = $esp $T0 8 + = 
STACK WIN 4 1532a 113 0 0 4 4 c 0 1 $T0 $ebp = $eip $T0 4 + ^ = $ebp $T0 ^ = $esp $T0 8 + =  $23 $T0 16 - ^ = 
STACK WIN 4 15349 f3 0 0 4 8 c 0 1 $T0 $ebp = $eip $T0 4 + ^ = $ebp $T0 ^ = $esp $T0 8 + =  $23 $T0 16 - ^ =  $20 $T0 20 - ^ = 
STACK WIN 4 1534a ef 0 0 4 c c 0 1 $T0 $ebp = $eip $T0 4 + ^ = $ebp $T0 ^ = $esp $T0 8 + =  $23 $T0 16 - ^ =  $20 $T0 20 - ^ =  $24 $T0 24 - ^ = 
STACK WIN 4 15441 175 12 0 14 0 4 0 1 $T0 $ebp = $eip $T0 4 + ^ = $ebp $T0 ^ = $esp $T0 8 + = 
STACK WIN 4 1544b 15b 8 0 14 4 4 0 1 $T0 $ebp = $eip $T0 4 + ^ = $ebp $T0 ^ = $esp $T0 8 + =  $20 $T0 8 - ^ = 
STACK WIN 4 1544f 156 4 0 14 8 4 0 1 $T0 $ebp = $eip $T0 4 + ^ = $ebp $T0 ^ = $esp $T0 8 + =  $20 $T0 8 - ^ =  $23 $T0 12 - ^ = 
STACK WIN 4 15453 151 0 0 14 c 4 0 1 $T0 $ebp = $eip $T0 4 + ^ = $ebp $T0 ^ = $esp $T0 8 + =  $20 $T0 8 - ^ =  $23 $T0 12 - ^ =  $24 $T0 16 - ^ = 
STACK WIN 4 155b6 55 6 0 c 0 0 0 1 $T0 $ebp = $eip $T0 4 + ^ = $ebp $T0 ^ = $esp $T0 8 + = 
STACK WIN 4 155bc 4d 0 0 c 4 0 0 1 $T0 $ebp = $eip $T0 4 + ^ = $ebp $T0 ^ = $esp $T0 8 + =  $23 $T0 4 - ^ = 
STACK WIN 4 155cc 3c 0 0 c 8 0 0 1 $T0 $ebp = $eip $T0 4 + ^ = $ebp $T0 ^ = $esp $T0 8 + =  $23 $T0 4 - ^ =  $24 $T0 8 - ^ = 
STACK WIN 4 1560b b 5 0 4 0 0 0 1 $T0 $ebp = $eip $T0 4 + ^ = $ebp $T0 ^ = $esp $T0 8 + = 
STACK WIN 4 15616 59 0 0 0 0 0 0 1 $T0 .raSearch = $eip $T0 ^ = $esp $T0 4 + = 
STACK WIN 4 15623 4b 0 0 0 4 0 0 1 $T0 .raSearch = $eip $T0 ^ = $esp $T0 4 + =  $23 $T0 4 - ^ = 
STACK WIN 4 15624 49 0 0 0 8 0 0 1 $T0 .raSearch = $eip $T0 ^ = $esp $T0 4 + =  $23 $T0 4 - ^ =  $24 $T0 8 - ^ = 
STACK WIN 4 1566f d1 a 0 4 0 8 0 1 $T0 $ebp = $eip $T0 4 + ^ = $ebp $T0 ^ = $esp $T0 8 + = 
STACK WIN 4 15677 b8 2 0 4 4 8 0 1 $T0 $ebp = $eip $T0 4 + ^ = $ebp $T0 ^ = $esp $T0 8 + =  $20 $T0 12 - ^ = 
STACK WIN 4 15678 b4 1 0 4 8 8 0 1 $T0 $ebp = $eip $T0 4 + ^ = $ebp $T0 ^ = $esp $T0 8 + =  $20 $T0 12 - ^ =  $23 $T0 16 - ^ = 
STACK WIN 4 15679 b2 0 0 4 c 8 0 1 $T0 $ebp = $eip $T0 4 + ^ = $ebp $T0 ^ = $esp $T0 8 + =  $20 $T0 12 - ^ =  $23 $T0 16 - ^ =  $24 $T0 20 - ^ = 
STACK WIN 4 15740 2f 6 0 4 0 0 0 1 $T0 $ebp = $eip $T0 4 + ^ = $ebp $T0 ^ = $esp $T0 8 + = 
STACK WIN 4 15746 27 0 0 4 4 0 0 1 $T0 $ebp = $eip $T0 4 + ^ = $ebp $T0 ^ = $esp $T0 8 + =  $23 $T0 4 - ^ = 
STACK WIN 4 15750 1c 0 0 4 8 0 0 1 $T0 $ebp = $eip $T0 4 + ^ = $ebp $T0 ^ = $esp $T0 8 + =  $23 $T0 4 - ^ =  $24 $T0 8 - ^ = 
STACK WIN 4 1576f 40 13 0 4 0 4 0 1 $T0 $ebp = $eip $T0 4 + ^ = $ebp $T0 ^ = $esp $T0 8 + = 
STACK WIN 4 15780 24 2 0 4 4 4 0 1 $T0 $ebp = $eip $T0 4 + ^ = $ebp $T0 ^ = $esp $T0 8 + =  $23 $T0 8 - ^ = 
STACK WIN 4 15783 1e 0 0 4 8 4 0 1 $T0 $ebp = $eip $T0 4 + ^ = $ebp $T0 ^ = $esp $T0 8 + =  $23 $T0 8 - ^ =  $24 $T0 12 - ^ = 
STACK WIN 4 157af 1b 5 0 4 0 0 0 1 $T0 $ebp = $eip $T0 4 + ^ = $ebp $T0 ^ = $esp $T0 8 + = 
STACK WIN 4 157ca 1b 5 0 4 0 0 0 1 $T0 $ebp = $eip $T0 4 + ^ = $ebp $T0 ^ = $esp $T0 8 + = 
STACK WIN 4 157e5 37 0 0 0 0 0 0 1 $T0 .raSearch = $eip $T0 ^ = $esp $T0 4 + = 
STACK WIN 4 1581c 5 0 0 0 0 0 0 1 $T0 .raSearch = $eip $T0 ^ = $esp $T0 4 + = 
STACK WIN 4 15821 51 c 0 c 10 1c 0 1 $T0 $ebp = $eip $T0 4 + ^ = $ebp $T0 ^ = $esp $T0 8 + =  $20 $T0 32 - ^ =  $23 $T0 36 - ^ =  $24 $T0 40 - ^ = 
STACK WIN 4 15863 e 0 0 c 10 1c 0 1 $T0 $ebp = $T2 $esp = $T1 .raSearchStart = $eip $T1 ^ = $ebp $T0 = $esp $T1 4 + = 
STACK WIN 4 15872 51 c 0 c 10 1c 0 1 $T0 $ebp = $eip $T0 4 + ^ = $ebp $T0 ^ = $esp $T0 8 + =  $20 $T0 32 - ^ =  $23 $T0 36 - ^ =  $24 $T0 40 - ^ = 
STACK WIN 4 158b4 e 0 0 c 10 1c 0 1 $T0 $ebp = $T2 $esp = $T1 .raSearchStart = $eip $T1 ^ = $ebp $T0 = $esp $T1 4 + = 
STACK WIN 4 158c3 28 8 0 8 0 c 0 1 $T0 $ebp = $eip $T0 4 + ^ = $ebp $T0 ^ = $esp $T0 8 + = 
STACK WIN 4 158eb 28 8 0 8 0 c 0 1 $T0 $ebp = $eip $T0 4 + ^ = $ebp $T0 ^ = $esp $T0 8 + = 
STACK WIN 4 15913 1f 5 0 4 0 0 0 1 $T0 $ebp = $eip $T0 4 + ^ = $ebp $T0 ^ = $esp $T0 8 + = 
STACK WIN 4 15932 120 17 0 0 0 18 0 1 $T0 $ebp = $eip $T0 4 + ^ = $ebp $T0 ^ = $esp $T0 8 + = 
STACK WIN 4 1594a ff 0 0 0 4 18 0 1 $T0 $ebp = $eip $T0 4 + ^ = $ebp $T0 ^ = $esp $T0 8 + =  $20 $T0 28 - ^ = 
STACK WIN 4 15961 e2 0 0 0 8 18 0 1 $T0 $ebp = $eip $T0 4 + ^ = $ebp $T0 ^ = $esp $T0 8 + =  $20 $T0 28 - ^ =  $23 $T0 32 - ^ = 
STACK WIN 4 15962 de 0 0 0 c 18 0 1 $T0 $ebp = $eip $T0 4 + ^ = $ebp $T0 ^ = $esp $T0 8 + =  $20 $T0 28 - ^ =  $23 $T0 32 - ^ =  $24 $T0 36 - ^ = 
STACK WIN 4 15a52 141 d 0 0 0 c 0 1 $T0 $ebp = $eip $T0 4 + ^ = $ebp $T0 ^ = $esp $T0 8 + = 
STACK WIN 4 15a60 12f 0 0 0 4 c 0 1 $T0 $ebp = $eip $T0 4 + ^ = $ebp $T0 ^ = $esp $T0 8 + =  $23 $T0 16 - ^ = 
STACK WIN 4 15a78 116 0 0 0 8 c 0 1 $T0 $ebp = $eip $T0 4 + ^ = $ebp $T0 ^ = $esp $T0 8 + =  $23 $T0 16 - ^ =  $20 $T0 20 - ^ = 
STACK WIN 4 15a7e 10f 0 0 0 c c 0 1 $T0 $ebp = $eip $T0 4 + ^ = $ebp $T0 ^ = $esp $T0 8 + =  $23 $T0 16 - ^ =  $20 $T0 20 - ^ =  $24 $T0 24 - ^ = 
STACK WIN 4 15b93 16 5 0 4 0 0 0 1 $T0 $ebp = $eip $T0 4 + ^ = $ebp $T0 ^ = $esp $T0 8 + = 
STACK WIN 4 15ba9 1d 6 0 4 0 4 0 1 $T0 $ebp = $eip $T0 4 + ^ = $ebp $T0 ^ = $esp $T0 8 + = 
STACK WIN 4 15bc6 3d 6 0 4 0 0 0 1 $T0 $ebp = $eip $T0 4 + ^ = $ebp $T0 ^ = $esp $T0 8 + = 
STACK WIN 4 15bcc 35 0 0 4 4 0 0 1 $T0 $ebp = $eip $T0 4 + ^ = $ebp $T0 ^ = $esp $T0 8 + =  $23 $T0 4 - ^ = 
STACK WIN 4 15c03 24 7 0 8 0 8 0 1 $T0 $ebp = $eip $T0 4 + ^ = $ebp $T0 ^ = $esp $T0 8 + = 
STACK WIN 4 15c27 12 0 0 0 0 0 0 1 $T0 .raSearch = $eip $T0 ^ = $esp $T0 4 + = 
STACK WIN 4 15c39 1a 0 0 0 0 0 0 1 $T0 .raSearch = $eip $T0 ^ = $esp $T0 4 + = 
STACK WIN 4 15c53 8 0 0 4 0 0 0 1 $T0 .raSearch = $eip $T0 ^ = $esp $T0 4 + = 
STACK WIN 4 15c5b 3d 6 0 0 0 0 0 1 $T0 .raSearch = $eip $T0 ^ = $esp $T0 4 + = 
STACK WIN 4 15c61 36 0 0 0 4 0 0 1 $T0 .raSearch = $eip $T0 ^ = $esp $T0 4 + =  $23 $T0 4 - ^ = 
STACK WIN 4 15c98 9 0 0 4 0 0 0 1 $T0 .raSearch = $eip $T0 ^ = $esp $T0 4 + = 
STACK WIN 4 15ca1 77 9 0 4 0 0 0 1 $T0 .raSearch = $eip $T0 ^ = $esp $T0 4 + = 
STACK WIN 4 15caa 6d 0 0 4 4 0 0 1 $T0 .raSearch = $eip $T0 ^ = $esp $T0 4 + =  $23 $T0 4 - ^ = 
STACK WIN 4 15d18 3 0 0 4 0 0 0 1 $T0 .raSearch = $eip $T0 ^ = $esp $T0 4 + = 
STACK WIN 4 15d1b 12 0 0 0 0 0 0 1 $T0 .raSearch = $eip $T0 ^ = $esp $T0 4 + = 
STACK WIN 4 15d2d b 0 0 0 0 0 0 1 $T0 .raSearch = $eip $T0 ^ = $esp $T0 4 + = 
STACK WIN 4 15d38 8 0 0 0 0 0 0 1 $T0 .raSearch = $eip $T0 ^ = $esp $T0 4 + = 
STACK WIN 4 15d40 12 0 0 4 0 0 0 1 $T0 .raSearch = $eip $T0 ^ = $esp $T0 4 + = 
STACK WIN 4 15d52 12 5 0 4 0 0 0 1 $T0 $ebp = $eip $T0 4 + ^ = $ebp $T0 ^ = $esp $T0 8 + = 
STACK WIN 4 15d64 3c c 0 0 10 1c 0 1 $T0 $ebp = $eip $T0 4 + ^ = $ebp $T0 ^ = $esp $T0 8 + =  $20 $T0 32 - ^ =  $23 $T0 36 - ^ =  $24 $T0 40 - ^ = 
STACK WIN 4 15d8c 4 0 0 0 10 1c 0 1 $T0 $ebp = $T2 $esp = $T1 .raSearchStart = $eip $T1 ^ = $ebp $T0 = $esp $T1 4 + = 
STACK WIN 4 15da0 5a 9 0 c 0 0 0 1 $T0 $ebp = $eip $T0 4 + ^ = $ebp $T0 ^ = $esp $T0 8 + = 
STACK WIN 4 15da9 27 0 0 c 4 0 0 1 $T0 $ebp = $eip $T0 4 + ^ = $ebp $T0 ^ = $esp $T0 8 + =  $23 $T0 4 - ^ = 
STACK WIN 4 15dd3 14 0 0 c 8 0 0 1 $T0 $ebp = $eip $T0 4 + ^ = $ebp $T0 ^ = $esp $T0 8 + =  $23 $T0 4 - ^ =  $24 $T0 8 - ^ = 
STACK WIN 4 15dfa 3a 5 0 4 0 0 0 1 $T0 $ebp = $eip $T0 4 + ^ = $ebp $T0 ^ = $esp $T0 8 + = 
STACK WIN 4 15e1b 17 0 0 4 4 0 0 1 $T0 $ebp = $eip $T0 4 + ^ = $ebp $T0 ^ = $esp $T0 8 + =  $23 $T0 4 - ^ = 
STACK WIN 4 15e34 4e 6 0 4 0 0 0 1 $T0 $ebp = $eip $T0 4 + ^ = $ebp $T0 ^ = $esp $T0 8 + = 
STACK WIN 4 15e3a 46 0 0 4 4 0 0 1 $T0 $ebp = $eip $T0 4 + ^ = $ebp $T0 ^ = $esp $T0 8 + =  $23 $T0 4 - ^ = 
STACK WIN 4 15e82 43 0 0 0 0 0 0 1 $T0 .raSearch = $eip $T0 ^ = $esp $T0 4 + = 
STACK WIN 4 15ec5 5d 6 0 8 0 0 0 1 $T0 $ebp = $eip $T0 4 + ^ = $ebp $T0 ^ = $esp $T0 8 + = 
STACK WIN 4 15ecb 55 0 0 8 4 0 0 1 $T0 $ebp = $eip $T0 4 + ^ = $ebp $T0 ^ = $esp $T0 8 + =  $23 $T0 4 - ^ = 
STACK WIN 4 15f22 33 5 0 8 0 0 0 1 $T0 $ebp = $eip $T0 4 + ^ = $ebp $T0 ^ = $esp $T0 8 + = 
STACK WIN 4 15f55 228 d 0 14 0 28 0 1 $T0 $ebp = $eip $T0 4 + ^ = $ebp $T0 ^ = $esp $T0 8 + = 
STACK WIN 4 15f61 3d 1 0 14 4 28 0 1 $T0 $ebp = $eip $T0 4 + ^ = $ebp $T0 ^ = $esp $T0 8 + =  $20 $T0 44 - ^ = 
STACK WIN 4 15f62 11f 0 0 14 8 28 0 1 $T0 $ebp = $eip $T0 4 + ^ = $ebp $T0 ^ = $esp $T0 8 + =  $20 $T0 44 - ^ =  $24 $T0 48 - ^ = 
STACK WIN 4 15fa3 1c5 0 0 14 c 28 0 1 $T0 $ebp = $eip $T0 4 + ^ = $ebp $T0 ^ = $esp $T0 8 + =  $20 $T0 44 - ^ =  $24 $T0 48 - ^ =  $23 $T0 52 - ^ = 
STACK WIN 4 1617d 28 5 0 4 0 0 0 1 $T0 $ebp = $eip $T0 4 + ^ = $ebp $T0 ^ = $esp $T0 8 + = 
STACK WIN 4 161a5 1b 0 0 0 0 0 0 1 $T0 .raSearch = $eip $T0 ^ = $esp $T0 4 + = 
STACK WIN 4 161c0 2a 5 0 c 0 0 0 1 $T0 $ebp = $eip $T0 4 + ^ = $ebp $T0 ^ = $esp $T0 8 + = 
STACK WIN 4 161ea 33 5 0 c 0 0 0 1 $T0 $ebp = $eip $T0 4 + ^ = $ebp $T0 ^ = $esp $T0 8 + = 
STACK WIN 4 1621d 43 5 0 4 0 0 0 1 $T0 $ebp = $eip $T0 4 + ^ = $ebp $T0 ^ = $esp $T0 8 + = 
STACK WIN 4 16260 23 6 0 4 0 0 0 1 $T0 $ebp = $eip $T0 4 + ^ = $ebp $T0 ^ = $esp $T0 8 + = 
STACK WIN 4 16266 1b 0 0 4 4 0 0 1 $T0 $ebp = $eip $T0 4 + ^ = $ebp $T0 ^ = $esp $T0 8 + =  $23 $T0 4 - ^ = 
STACK WIN 4 16283 13 0 0 0 0 0 0 1 $T0 .raSearch = $eip $T0 ^ = $esp $T0 4 + = 
STACK WIN 4 16296 13 0 0 0 0 0 0 1 $T0 .raSearch = $eip $T0 ^ = $esp $T0 4 + = 
STACK WIN 4 162a9 14a c 0 c 0 1c 0 1 $T0 $ebp = $eip $T0 4 + ^ = $ebp $T0 ^ = $esp $T0 8 + = 
STACK WIN 4 162b5 13a 0 0 c 4 1c 0 1 $T0 $ebp = $eip $T0 4 + ^ = $ebp $T0 ^ = $esp $T0 8 + =  $20 $T0 32 - ^ = 
STACK WIN 4 163f3 1d 5 0 8 0 0 0 1 $T0 $ebp = $eip $T0 4 + ^ = $ebp $T0 ^ = $esp $T0 8 + = 
STACK WIN 4 16410 1a 5 0 8 0 0 0 1 $T0 $ebp = $eip $T0 4 + ^ = $ebp $T0 ^ = $esp $T0 8 + = 
STACK WIN 4 1642a 30 5 0 4 0 0 0 1 $T0 $ebp = $eip $T0 4 + ^ = $ebp $T0 ^ = $esp $T0 8 + = 
STACK WIN 4 1645a 50 c 0 c 10 18 0 1 $T0 $ebp = $eip $T0 4 + ^ = $ebp $T0 ^ = $esp $T0 8 + =  $20 $T0 28 - ^ =  $23 $T0 32 - ^ =  $24 $T0 36 - ^ = 
STACK WIN 4 1649e b 0 0 c 10 18 0 1 $T0 $ebp = $T2 $esp = $T1 .raSearchStart = $eip $T1 ^ = $ebp $T0 = $esp $T1 4 + = 
STACK WIN 4 164aa 61 c 0 c 10 18 0 1 $T0 $ebp = $eip $T0 4 + ^ = $ebp $T0 ^ = $esp $T0 8 + =  $20 $T0 28 - ^ =  $23 $T0 32 - ^ =  $24 $T0 36 - ^ = 
STACK WIN 4 164ff b 0 0 c 10 18 0 1 $T0 $ebp = $T2 $esp = $T1 .raSearchStart = $eip $T1 ^ = $ebp $T0 = $esp $T1 4 + = 
STACK WIN 4 1650b 4b c 0 c 10 18 0 1 $T0 $ebp = $eip $T0 4 + ^ = $ebp $T0 ^ = $esp $T0 8 + =  $20 $T0 28 - ^ =  $23 $T0 32 - ^ =  $24 $T0 36 - ^ = 
STACK WIN 4 1654a b 0 0 c 10 18 0 1 $T0 $ebp = $T2 $esp = $T1 .raSearchStart = $eip $T1 ^ = $ebp $T0 = $esp $T1 4 + = 
STACK WIN 4 16556 48 c 0 c 10 18 0 1 $T0 $ebp = $eip $T0 4 + ^ = $ebp $T0 ^ = $esp $T0 8 + =  $20 $T0 28 - ^ =  $23 $T0 32 - ^ =  $24 $T0 36 - ^ = 
STACK WIN 4 16592 b 0 0 c 10 18 0 1 $T0 $ebp = $T2 $esp = $T1 .raSearchStart = $eip $T1 ^ = $ebp $T0 = $esp $T1 4 + = 
STACK WIN 4 1659e 28 8 0 8 0 c 0 1 $T0 $ebp = $eip $T0 4 + ^ = $ebp $T0 ^ = $esp $T0 8 + = 
STACK WIN 4 165c6 28 8 0 8 0 c 0 1 $T0 $ebp = $eip $T0 4 + ^ = $ebp $T0 ^ = $esp $T0 8 + = 
STACK WIN 4 165ee 28 8 0 8 0 c 0 1 $T0 $ebp = $eip $T0 4 + ^ = $ebp $T0 ^ = $esp $T0 8 + = 
STACK WIN 4 16616 28 8 0 8 0 c 0 1 $T0 $ebp = $eip $T0 4 + ^ = $ebp $T0 ^ = $esp $T0 8 + = 
STACK WIN 4 1663e 79 7 0 8 0 8 0 1 $T0 $ebp = $eip $T0 4 + ^ = $ebp $T0 ^ = $esp $T0 8 + = 
STACK WIN 4 166b7 21 5 0 4 0 0 0 1 $T0 $ebp = $eip $T0 4 + ^ = $ebp $T0 ^ = $esp $T0 8 + = 
STACK WIN 4 166d8 a9 6 0 4 0 4 0 1 $T0 $ebp = $eip $T0 4 + ^ = $ebp $T0 ^ = $esp $T0 8 + = 
STACK WIN 4 16781 4b 6 0 8 0 0 0 1 $T0 $ebp = $eip $T0 4 + ^ = $ebp $T0 ^ = $esp $T0 8 + = 
STACK WIN 4 16787 38 0 0 8 4 0 0 1 $T0 $ebp = $eip $T0 4 + ^ = $ebp $T0 ^ = $esp $T0 8 + =  $23 $T0 4 - ^ = 
STACK WIN 4 167cc 2c 0 0 0 0 0 0 1 $T0 .raSearch = $eip $T0 ^ = $esp $T0 4 + = 
STACK WIN 4 167d7 20 0 0 0 4 0 0 1 $T0 .raSearch = $eip $T0 ^ = $esp $T0 4 + =  $23 $T0 4 - ^ = 
STACK WIN 4 167f8 84 4 0 0 0 0 0 1 $T0 .raSearch = $eip $T0 ^ = $esp $T0 4 + = 
STACK WIN 4 167fb 73 1 0 0 4 0 0 1 $T0 .raSearch = $eip $T0 ^ = $esp $T0 4 + =  $23 $T0 4 - ^ = 
STACK WIN 4 167fc 71 0 0 0 8 0 0 1 $T0 .raSearch = $eip $T0 ^ = $esp $T0 4 + =  $23 $T0 4 - ^ =  $24 $T0 8 - ^ = 
STACK WIN 4 1686f d 0 0 0 8 0 0 1 $T0 .raSearch = $eip $T0 ^ = $esp $T0 4 + =  $23 $T0 4 - ^ =  $24 $T0 8 - ^ = 
STACK WIN 4 1687c 85 5 0 0 0 0 0 1 $T0 .raSearch = $eip $T0 ^ = $esp $T0 4 + = 
STACK WIN 4 1687f 81 2 0 0 4 0 0 1 $T0 .raSearch = $eip $T0 ^ = $esp $T0 4 + =  $20 $T0 4 - ^ = 
STACK WIN 4 16880 7d 1 0 0 8 0 0 1 $T0 .raSearch = $eip $T0 ^ = $esp $T0 4 + =  $20 $T0 4 - ^ =  $23 $T0 8 - ^ = 
STACK WIN 4 16881 7b 0 0 0 c 0 0 1 $T0 .raSearch = $eip $T0 ^ = $esp $T0 4 + =  $20 $T0 4 - ^ =  $23 $T0 8 - ^ =  $24 $T0 12 - ^ = 
STACK WIN 4 16901 2c 0 0 0 0 0 0 1 $T0 .raSearch = $eip $T0 ^ = $esp $T0 4 + = 
STACK WIN 4 1692d 1a 0 0 4 0 0 0 1 $T0 .raSearch = $eip $T0 ^ = $esp $T0 4 + = 
STACK WIN 4 16947 2d 6 0 8 0 0 0 1 $T0 $ebp = $eip $T0 4 + ^ = $ebp $T0 ^ = $esp $T0 8 + = 
STACK WIN 4 1694d 25 0 0 8 4 0 0 1 $T0 $ebp = $eip $T0 4 + ^ = $ebp $T0 ^ = $esp $T0 8 + =  $23 $T0 4 - ^ = 
STACK WIN 4 16974 2d 6 0 8 0 0 0 1 $T0 $ebp = $eip $T0 4 + ^ = $ebp $T0 ^ = $esp $T0 8 + = 
STACK WIN 4 1697a 25 0 0 8 4 0 0 1 $T0 $ebp = $eip $T0 4 + ^ = $ebp $T0 ^ = $esp $T0 8 + =  $23 $T0 4 - ^ = 
STACK WIN 4 169a1 b 0 0 0 0 0 0 1 $T0 .raSearch = $eip $T0 ^ = $esp $T0 4 + = 
STACK WIN 4 169ac 52 c 0 0 10 18 0 1 $T0 $ebp = $eip $T0 4 + ^ = $ebp $T0 ^ = $esp $T0 8 + =  $20 $T0 28 - ^ =  $23 $T0 32 - ^ =  $24 $T0 36 - ^ = 
STACK WIN 4 169f5 8 0 0 0 10 18 0 1 $T0 $ebp = $T2 $esp = $T1 .raSearchStart = $eip $T1 ^ = $ebp $T0 = $esp $T1 4 + = 
STACK WIN 4 169fe 9c b 0 10 0 0 0 1 $T0 $ebp = $eip $T0 4 + ^ = $ebp $T0 ^ = $esp $T0 8 + = 
STACK WIN 4 16a07 91 2 0 10 4 0 0 1 $T0 $ebp = $eip $T0 4 + ^ = $ebp $T0 ^ = $esp $T0 8 + =  $20 $T0 4 - ^ = 
STACK WIN 4 16a08 8f 1 0 10 8 0 0 1 $T0 $ebp = $eip $T0 4 + ^ = $ebp $T0 ^ = $esp $T0 8 + =  $20 $T0 4 - ^ =  $23 $T0 8 - ^ = 
STACK WIN 4 16a09 8d 0 0 10 c 0 0 1 $T0 $ebp = $eip $T0 4 + ^ = $ebp $T0 ^ = $esp $T0 8 + =  $20 $T0 4 - ^ =  $23 $T0 8 - ^ =  $24 $T0 12 - ^ = 
STACK WIN 4 16a9a 7b 9 0 4 0 0 0 1 $T0 $ebp = $eip $T0 4 + ^ = $ebp $T0 ^ = $esp $T0 8 + = 
STACK WIN 4 16aa3 70 0 0 4 4 0 0 1 $T0 $ebp = $eip $T0 4 + ^ = $ebp $T0 ^ = $esp $T0 8 + =  $24 $T0 4 - ^ = 
STACK WIN 4 16abc 56 0 0 4 8 0 0 1 $T0 $ebp = $eip $T0 4 + ^ = $ebp $T0 ^ = $esp $T0 8 + =  $24 $T0 4 - ^ =  $20 $T0 8 - ^ = 
STACK WIN 4 16ac4 4d 0 0 4 c 0 0 1 $T0 $ebp = $eip $T0 4 + ^ = $ebp $T0 ^ = $esp $T0 8 + =  $24 $T0 4 - ^ =  $20 $T0 8 - ^ =  $23 $T0 12 - ^ = 
STACK WIN 4 16b15 56 11 0 4 0 4 0 1 $T0 $ebp = $eip $T0 4 + ^ = $ebp $T0 ^ = $esp $T0 8 + = 
STACK WIN 4 16b26 3a 0 0 4 4 4 0 1 $T0 $ebp = $eip $T0 4 + ^ = $ebp $T0 ^ = $esp $T0 8 + =  $23 $T0 8 - ^ = 
STACK WIN 4 16b6b 56 11 0 4 0 4 0 1 $T0 $ebp = $eip $T0 4 + ^ = $ebp $T0 ^ = $esp $T0 8 + = 
STACK WIN 4 16b7c 3a 0 0 4 4 4 0 1 $T0 $ebp = $eip $T0 4 + ^ = $ebp $T0 ^ = $esp $T0 8 + =  $23 $T0 8 - ^ = 
STACK WIN 4 16bc1 56 11 0 4 0 4 0 1 $T0 $ebp = $eip $T0 4 + ^ = $ebp $T0 ^ = $esp $T0 8 + = 
STACK WIN 4 16bd2 3a 0 0 4 4 4 0 1 $T0 $ebp = $eip $T0 4 + ^ = $ebp $T0 ^ = $esp $T0 8 + =  $23 $T0 8 - ^ = 
STACK WIN 4 16c17 59 11 0 8 0 4 0 1 $T0 $ebp = $eip $T0 4 + ^ = $ebp $T0 ^ = $esp $T0 8 + = 
STACK WIN 4 16c28 3d 0 0 8 4 4 0 1 $T0 $ebp = $eip $T0 4 + ^ = $ebp $T0 ^ = $esp $T0 8 + =  $23 $T0 8 - ^ = 
STACK WIN 4 16c70 62 11 0 c 0 4 0 1 $T0 $ebp = $eip $T0 4 + ^ = $ebp $T0 ^ = $esp $T0 8 + = 
STACK WIN 4 16c81 46 0 0 c 4 4 0 1 $T0 $ebp = $eip $T0 4 + ^ = $ebp $T0 ^ = $esp $T0 8 + =  $23 $T0 8 - ^ = 
STACK WIN 4 16cd2 88 11 0 24 0 4 0 1 $T0 $ebp = $eip $T0 4 + ^ = $ebp $T0 ^ = $esp $T0 8 + = 
STACK WIN 4 16ce3 6c 0 0 24 4 4 0 1 $T0 $ebp = $eip $T0 4 + ^ = $ebp $T0 ^ = $esp $T0 8 + =  $23 $T0 8 - ^ = 
STACK WIN 4 16d5a 5c 11 0 8 0 4 0 1 $T0 $ebp = $eip $T0 4 + ^ = $ebp $T0 ^ = $esp $T0 8 + = 
STACK WIN 4 16d6b 40 0 0 8 4 4 0 1 $T0 $ebp = $eip $T0 4 + ^ = $ebp $T0 ^ = $esp $T0 8 + =  $23 $T0 8 - ^ = 
STACK WIN 4 16db6 26 6 0 0 0 0 0 1 $T0 .raSearch = $eip $T0 ^ = $esp $T0 4 + = 
STACK WIN 4 16dbc 1f 0 0 0 4 0 0 1 $T0 .raSearch = $eip $T0 ^ = $esp $T0 4 + =  $24 $T0 4 - ^ = 
STACK WIN 4 16ddc 87 11 0 0 0 8 0 1 $T0 $ebp = $eip $T0 4 + ^ = $ebp $T0 ^ = $esp $T0 8 + = 
STACK WIN 4 16e02 53 0 0 0 4 8 0 1 $T0 $ebp = $eip $T0 4 + ^ = $ebp $T0 ^ = $esp $T0 8 + =  $23 $T0 12 - ^ = 
STACK WIN 4 16e63 36 5 0 4 0 0 0 1 $T0 $ebp = $eip $T0 4 + ^ = $ebp $T0 ^ = $esp $T0 8 + = 
STACK WIN 4 16e6f 26 0 0 4 4 0 0 1 $T0 $ebp = $eip $T0 4 + ^ = $ebp $T0 ^ = $esp $T0 8 + =  $23 $T0 4 - ^ = 
STACK WIN 4 16e99 a0 c 0 0 10 20 0 1 $T0 $ebp = $eip $T0 4 + ^ = $ebp $T0 ^ = $esp $T0 8 + =  $20 $T0 36 - ^ =  $23 $T0 40 - ^ =  $24 $T0 44 - ^ = 
STACK WIN 4 16f30 8 0 0 0 10 20 0 1 $T0 $ebp = $T2 $esp = $T1 .raSearchStart = $eip $T1 ^ = $ebp $T0 = $esp $T1 4 + = 
STACK WIN 4 16f39 66 9 0 4 0 0 0 1 $T0 $ebp = $eip $T0 4 + ^ = $ebp $T0 ^ = $esp $T0 8 + = 
STACK WIN 4 16f42 5b 0 0 4 4 0 0 1 $T0 $ebp = $eip $T0 4 + ^ = $ebp $T0 ^ = $esp $T0 8 + =  $23 $T0 4 - ^ = 
STACK WIN 4 16f5b 41 0 0 4 8 0 0 1 $T0 $ebp = $eip $T0 4 + ^ = $ebp $T0 ^ = $esp $T0 8 + =  $23 $T0 4 - ^ =  $24 $T0 8 - ^ = 
STACK WIN 4 16f9f 47 6 0 4 0 0 0 1 $T0 $ebp = $eip $T0 4 + ^ = $ebp $T0 ^ = $esp $T0 8 + = 
STACK WIN 4 16fa5 3f 0 0 4 4 0 0 1 $T0 $ebp = $eip $T0 4 + ^ = $ebp $T0 ^ = $esp $T0 8 + =  $23 $T0 4 - ^ = 
STACK WIN 4 16fe6 9 0 0 0 0 0 0 1 $T0 .raSearch = $eip $T0 ^ = $esp $T0 4 + = 
STACK WIN 4 16fef d8 c 0 4 10 2c 0 1 $T0 $ebp = $eip $T0 4 + ^ = $ebp $T0 ^ = $esp $T0 8 + =  $20 $T0 48 - ^ =  $23 $T0 52 - ^ =  $24 $T0 56 - ^ = 
STACK WIN 4 1708e f 0 0 4 10 2c 0 1 $T0 $ebp = $T2 $esp = $T1 .raSearchStart = $eip $T1 ^ = $ebp $T0 = $esp $T1 4 + = 
STACK WIN 4 170bb b 0 0 4 10 2c 0 1 $T0 $ebp = $T2 $esp = $T1 .raSearchStart = $eip $T1 ^ = $ebp $T0 = $esp $T1 4 + = 
STACK WIN 4 170c7 3e a 0 4 0 0 0 1 $T0 $ebp = $eip $T0 4 + ^ = $ebp $T0 ^ = $esp $T0 8 + = 
STACK WIN 4 170cd 36 4 0 4 4 0 0 1 $T0 $ebp = $eip $T0 4 + ^ = $ebp $T0 ^ = $esp $T0 8 + =  $23 $T0 4 - ^ = 
STACK WIN 4 170d1 31 0 0 4 8 0 0 1 $T0 $ebp = $eip $T0 4 + ^ = $ebp $T0 ^ = $esp $T0 8 + =  $23 $T0 4 - ^ =  $24 $T0 8 - ^ = 
STACK WIN 4 17105 b6 8 0 0 0 48 0 1 $T0 $ebp = $eip $T0 4 + ^ = $ebp $T0 ^ = $esp $T0 8 + = 
STACK WIN 4 1712e 89 0 0 0 4 48 0 1 $T0 $ebp = $eip $T0 4 + ^ = $ebp $T0 ^ = $esp $T0 8 + =  $20 $T0 76 - ^ = 
STACK WIN 4 1712f 87 0 0 0 8 48 0 1 $T0 $ebp = $eip $T0 4 + ^ = $ebp $T0 ^ = $esp $T0 8 + =  $20 $T0 76 - ^ =  $23 $T0 80 - ^ = 
STACK WIN 4 17158 5d 0 0 0 c 48 0 1 $T0 $ebp = $eip $T0 4 + ^ = $ebp $T0 ^ = $esp $T0 8 + =  $20 $T0 76 - ^ =  $23 $T0 80 - ^ =  $24 $T0 84 - ^ = 
STACK WIN 4 171bb b6 5 0 0 0 0 0 1 $T0 .raSearch = $eip $T0 ^ = $esp $T0 4 + = 
STACK WIN 4 171be b2 2 0 0 4 0 0 1 $T0 .raSearch = $eip $T0 ^ = $esp $T0 4 + =  $20 $T0 4 - ^ = 
STACK WIN 4 171bf b0 1 0 0 8 0 0 1 $T0 .raSearch = $eip $T0 ^ = $esp $T0 4 + =  $20 $T0 4 - ^ =  $23 $T0 8 - ^ = 
STACK WIN 4 171c0 ae 0 0 0 c 0 0 1 $T0 .raSearch = $eip $T0 ^ = $esp $T0 4 + =  $20 $T0 4 - ^ =  $23 $T0 8 - ^ =  $24 $T0 12 - ^ = 
STACK WIN 4 17271 56 c 0 0 10 1c 0 1 $T0 $ebp = $eip $T0 4 + ^ = $ebp $T0 ^ = $esp $T0 8 + =  $20 $T0 32 - ^ =  $23 $T0 36 - ^ =  $24 $T0 40 - ^ = 
STACK WIN 4 172bb b 0 0 0 10 1c 0 1 $T0 $ebp = $T2 $esp = $T1 .raSearchStart = $eip $T1 ^ = $ebp $T0 = $esp $T1 4 + = 
STACK WIN 4 172c7 2c 3 0 4 0 0 0 1 $T0 .raSearch = $eip $T0 ^ = $esp $T0 4 + = 
STACK WIN 4 172ca 28 0 0 4 4 0 0 1 $T0 .raSearch = $eip $T0 ^ = $esp $T0 4 + =  $23 $T0 4 - ^ = 
STACK WIN 4 172f3 38 8 0 8 0 10 0 1 $T0 $ebp = $eip $T0 4 + ^ = $ebp $T0 ^ = $esp $T0 8 + = 
STACK WIN 4 1732b 2d 5 0 4 0 0 0 1 $T0 $ebp = $eip $T0 4 + ^ = $ebp $T0 ^ = $esp $T0 8 + = 
STACK WIN 4 17358 1b 5 0 c 0 0 0 1 $T0 $ebp = $eip $T0 4 + ^ = $ebp $T0 ^ = $esp $T0 8 + = 
STACK WIN 4 17373 2c 6 0 c 0 4 0 1 $T0 $ebp = $eip $T0 4 + ^ = $ebp $T0 ^ = $esp $T0 8 + = 
STACK WIN 4 1739f fa a 0 10 0 10 0 1 $T0 $ebp = $eip $T0 4 + ^ = $ebp $T0 ^ = $esp $T0 8 + = 
STACK WIN 4 173a8 24 1 0 10 4 10 0 1 $T0 $ebp = $eip $T0 4 + ^ = $ebp $T0 ^ = $esp $T0 8 + =  $20 $T0 20 - ^ = 
STACK WIN 4 173a9 22 0 0 10 8 10 0 1 $T0 $ebp = $eip $T0 4 + ^ = $ebp $T0 ^ = $esp $T0 8 + =  $20 $T0 20 - ^ =  $23 $T0 24 - ^ = 
STACK WIN 4 173d1 c3 0 0 10 c 10 0 1 $T0 $ebp = $eip $T0 4 + ^ = $ebp $T0 ^ = $esp $T0 8 + =  $20 $T0 20 - ^ =  $23 $T0 24 - ^ =  $24 $T0 28 - ^ = 
STACK WIN 4 17499 1a 5 0 c 0 0 0 1 $T0 $ebp = $eip $T0 4 + ^ = $ebp $T0 ^ = $esp $T0 8 + = 
STACK WIN 4 174b3 121 d 0 14 0 14 0 1 $T0 $ebp = $eip $T0 4 + ^ = $ebp $T0 ^ = $esp $T0 8 + = 
STACK WIN 4 174bc 99 4 0 14 4 14 0 1 $T0 $ebp = $eip $T0 4 + ^ = $ebp $T0 ^ = $esp $T0 8 + =  $20 $T0 24 - ^ = 
STACK WIN 4 174c0 94 0 0 14 8 14 0 1 $T0 $ebp = $eip $T0 4 + ^ = $ebp $T0 ^ = $esp $T0 8 + =  $20 $T0 24 - ^ =  $24 $T0 28 - ^ = 
STACK WIN 4 174e4 e4 0 0 14 c 14 0 1 $T0 $ebp = $eip $T0 4 + ^ = $ebp $T0 ^ = $esp $T0 8 + =  $20 $T0 24 - ^ =  $24 $T0 28 - ^ =  $23 $T0 32 - ^ = 
STACK WIN 4 175d4 1d 5 0 10 0 0 0 1 $T0 $ebp = $eip $T0 4 + ^ = $ebp $T0 ^ = $esp $T0 8 + = 
STACK WIN 4 175f1 127 c 0 8 0 0 0 1 $T0 $ebp = $eip $T0 4 + ^ = $ebp $T0 ^ = $esp $T0 8 + = 
STACK WIN 4 175fc 11a 1 0 8 4 0 0 1 $T0 $ebp = $eip $T0 4 + ^ = $ebp $T0 ^ = $esp $T0 8 + =  $23 $T0 4 - ^ = 
STACK WIN 4 175fd 116 0 0 8 8 0 0 1 $T0 $ebp = $eip $T0 4 + ^ = $ebp $T0 ^ = $esp $T0 8 + =  $23 $T0 4 - ^ =  $24 $T0 8 - ^ = 
STACK WIN 4 17718 1b7 10 0 8 0 4 0 1 $T0 $ebp = $eip $T0 4 + ^ = $ebp $T0 ^ = $esp $T0 8 + = 
STACK WIN 4 17727 1a4 1 0 8 4 4 0 1 $T0 $ebp = $eip $T0 4 + ^ = $ebp $T0 ^ = $esp $T0 8 + =  $23 $T0 8 - ^ = 
STACK WIN 4 17728 1a0 0 0 8 8 4 0 1 $T0 $ebp = $eip $T0 4 + ^ = $ebp $T0 ^ = $esp $T0 8 + =  $23 $T0 8 - ^ =  $24 $T0 12 - ^ = 
STACK WIN 4 178cf 6c 1e 0 4 0 0 0 1 $T0 $ebp = $eip $T0 4 + ^ = $ebp $T0 ^ = $esp $T0 8 + = 
STACK WIN 4 178dd 5c 10 0 4 4 0 0 1 $T0 $ebp = $eip $T0 4 + ^ = $ebp $T0 ^ = $esp $T0 8 + =  $20 $T0 4 - ^ = 
STACK WIN 4 178de 5a f 0 4 8 0 0 1 $T0 $ebp = $eip $T0 4 + ^ = $ebp $T0 ^ = $esp $T0 8 + =  $20 $T0 4 - ^ =  $23 $T0 8 - ^ = 
STACK WIN 4 178ed 4a 0 0 4 c 0 0 1 $T0 $ebp = $eip $T0 4 + ^ = $ebp $T0 ^ = $esp $T0 8 + =  $20 $T0 4 - ^ =  $23 $T0 8 - ^ =  $24 $T0 12 - ^ = 
STACK WIN 4 1793b 1e 5 0 4 0 0 0 1 $T0 $ebp = $eip $T0 4 + ^ = $ebp $T0 ^ = $esp $T0 8 + = 
STACK WIN 4 17959 303 b 0 24 0 30 0 1 $T0 $ebp = $eip $T0 4 + ^ = $ebp $T0 ^ = $esp $T0 8 + = 
STACK WIN 4 17962 2f6 2 0 24 4 30 0 1 $T0 $ebp = $eip $T0 4 + ^ = $ebp $T0 ^ = $esp $T0 8 + =  $20 $T0 52 - ^ = 
STACK WIN 4 17963 2f4 1 0 24 8 30 0 1 $T0 $ebp = $eip $T0 4 + ^ = $ebp $T0 ^ = $esp $T0 8 + =  $20 $T0 52 - ^ =  $23 $T0 56 - ^ = 
STACK WIN 4 17964 2f2 0 0 24 c 30 0 1 $T0 $ebp = $eip $T0 4 + ^ = $ebp $T0 ^ = $esp $T0 8 + =  $20 $T0 52 - ^ =  $23 $T0 56 - ^ =  $24 $T0 60 - ^ = 
STACK WIN 4 17c5c 9b 10 0 24 0 c 0 1 $T0 $ebp = $eip $T0 4 + ^ = $ebp $T0 ^ = $esp $T0 8 + = 
STACK WIN 4 17c68 8b 4 0 24 4 c 0 1 $T0 $ebp = $eip $T0 4 + ^ = $ebp $T0 ^ = $esp $T0 8 + =  $23 $T0 16 - ^ = 
STACK WIN 4 17c6c 86 0 0 24 8 c 0 1 $T0 $ebp = $eip $T0 4 + ^ = $ebp $T0 ^ = $esp $T0 8 + =  $23 $T0 16 - ^ =  $24 $T0 20 - ^ = 
STACK WIN 4 17cf7 14b a 0 20 0 10 0 1 $T0 $ebp = $eip $T0 4 + ^ = $ebp $T0 ^ = $esp $T0 8 + = 
STACK WIN 4 17d00 29 1 0 20 4 10 0 1 $T0 $ebp = $eip $T0 4 + ^ = $ebp $T0 ^ = $esp $T0 8 + =  $23 $T0 20 - ^ = 
STACK WIN 4 17d01 f4 0 0 20 8 10 0 1 $T0 $ebp = $eip $T0 4 + ^ = $ebp $T0 ^ = $esp $T0 8 + =  $23 $T0 20 - ^ =  $24 $T0 24 - ^ = 
STACK WIN 4 17d2e 8d 0 0 20 c 10 0 1 $T0 $ebp = $eip $T0 4 + ^ = $ebp $T0 ^ = $esp $T0 8 + =  $23 $T0 20 - ^ =  $24 $T0 24 - ^ =  $20 $T0 28 - ^ = 
STACK WIN 4 17e42 8d c 0 1c 0 c 0 1 $T0 $ebp = $eip $T0 4 + ^ = $ebp $T0 ^ = $esp $T0 8 + = 
STACK WIN 4 17e4d 7e 1 0 1c 4 c 0 1 $T0 $ebp = $eip $T0 4 + ^ = $ebp $T0 ^ = $esp $T0 8 + =  $23 $T0 16 - ^ = 
STACK WIN 4 17e4e 7c 0 0 1c 8 c 0 1 $T0 $ebp = $eip $T0 4 + ^ = $ebp $T0 ^ = $esp $T0 8 + =  $23 $T0 16 - ^ =  $24 $T0 20 - ^ = 
STACK WIN 4 17ecf d7 e 0 18 0 10 0 1 $T0 $ebp = $eip $T0 4 + ^ = $ebp $T0 ^ = $esp $T0 8 + = 
STACK WIN 4 17edb b9 2 0 18 4 10 0 1 $T0 $ebp = $eip $T0 4 + ^ = $ebp $T0 ^ = $esp $T0 8 + =  $20 $T0 20 - ^ = 
STACK WIN 4 17edc b7 1 0 18 8 10 0 1 $T0 $ebp = $eip $T0 4 + ^ = $ebp $T0 ^ = $esp $T0 8 + =  $20 $T0 20 - ^ =  $23 $T0 24 - ^ = 
STACK WIN 4 17edd b5 0 0 18 c 10 0 1 $T0 $ebp = $eip $T0 4 + ^ = $ebp $T0 ^ = $esp $T0 8 + =  $20 $T0 20 - ^ =  $23 $T0 24 - ^ =  $24 $T0 28 - ^ = 
STACK WIN 4 17fa6 c8 b 0 24 0 10 0 1 $T0 $ebp = $eip $T0 4 + ^ = $ebp $T0 ^ = $esp $T0 8 + = 
STACK WIN 4 17faf bb 2 0 24 4 10 0 1 $T0 $ebp = $eip $T0 4 + ^ = $ebp $T0 ^ = $esp $T0 8 + =  $20 $T0 20 - ^ = 
STACK WIN 4 17fb0 b9 1 0 24 8 10 0 1 $T0 $ebp = $eip $T0 4 + ^ = $ebp $T0 ^ = $esp $T0 8 + =  $20 $T0 20 - ^ =  $23 $T0 24 - ^ = 
STACK WIN 4 17fb1 b7 0 0 24 c 10 0 1 $T0 $ebp = $eip $T0 4 + ^ = $ebp $T0 ^ = $esp $T0 8 + =  $20 $T0 20 - ^ =  $23 $T0 24 - ^ =  $24 $T0 28 - ^ = 
STACK WIN 4 1806e f8 19 0 14 0 48 0 1 $T0 $ebp = $eip $T0 4 + ^ = $ebp $T0 ^ = $esp $T0 8 + = 
STACK WIN 4 18087 19 0 0 14 4 48 0 1 $T0 $ebp = $eip $T0 4 + ^ = $ebp $T0 ^ = $esp $T0 8 + =  $20 $T0 76 - ^ = 
STACK WIN 4 180fa 57 0 0 14 8 48 0 1 $T0 $ebp = $eip $T0 4 + ^ = $ebp $T0 ^ = $esp $T0 8 + =  $20 $T0 76 - ^ =  $23 $T0 80 - ^ = 
STACK WIN 4 18107 49 0 0 14 c 48 0 1 $T0 $ebp = $eip $T0 4 + ^ = $ebp $T0 ^ = $esp $T0 8 + =  $20 $T0 76 - ^ =  $23 $T0 80 - ^ =  $24 $T0 84 - ^ = 
STACK WIN 4 18166 34 5 0 10 0 0 0 1 $T0 $ebp = $eip $T0 4 + ^ = $ebp $T0 ^ = $esp $T0 8 + = 
STACK WIN 4 18173 25 0 0 10 4 0 0 1 $T0 $ebp = $eip $T0 4 + ^ = $ebp $T0 ^ = $esp $T0 8 + =  $23 $T0 4 - ^ = 
STACK WIN 4 18179 1e 0 0 10 8 0 0 1 $T0 $ebp = $eip $T0 4 + ^ = $ebp $T0 ^ = $esp $T0 8 + =  $23 $T0 4 - ^ =  $24 $T0 8 - ^ = 
STACK WIN 4 1819a 14a 9 0 28 0 8 0 1 $T0 $ebp = $eip $T0 4 + ^ = $ebp $T0 ^ = $esp $T0 8 + = 
STACK WIN 4 181a2 13e 1 0 28 4 8 0 1 $T0 $ebp = $eip $T0 4 + ^ = $ebp $T0 ^ = $esp $T0 8 + =  $23 $T0 12 - ^ = 
STACK WIN 4 181a3 13c 0 0 28 8 8 0 1 $T0 $ebp = $eip $T0 4 + ^ = $ebp $T0 ^ = $esp $T0 8 + =  $23 $T0 12 - ^ =  $24 $T0 16 - ^ = 
STACK WIN 4 181c1 11d 0 0 28 c 8 0 1 $T0 $ebp = $eip $T0 4 + ^ = $ebp $T0 ^ = $esp $T0 8 + =  $23 $T0 12 - ^ =  $24 $T0 16 - ^ =  $20 $T0 20 - ^ = 
STACK WIN 4 182e4 26 5 0 4 0 0 0 1 $T0 $ebp = $eip $T0 4 + ^ = $ebp $T0 ^ = $esp $T0 8 + = 
STACK WIN 4 1830a 29 5 0 8 0 0 0 1 $T0 $ebp = $eip $T0 4 + ^ = $ebp $T0 ^ = $esp $T0 8 + = 
STACK WIN 4 18333 15 0 0 0 0 0 0 1 $T0 .raSearch = $eip $T0 ^ = $esp $T0 4 + = 
STACK WIN 4 18348 b5 6 0 4 0 0 0 1 $T0 $ebp = $eip $T0 4 + ^ = $ebp $T0 ^ = $esp $T0 8 + = 
STACK WIN 4 1834e ad 0 0 4 4 0 0 1 $T0 $ebp = $eip $T0 4 + ^ = $ebp $T0 ^ = $esp $T0 8 + =  $23 $T0 4 - ^ = 
STACK WIN 4 1836b 8f 0 0 4 8 0 0 1 $T0 $ebp = $eip $T0 4 + ^ = $ebp $T0 ^ = $esp $T0 8 + =  $23 $T0 4 - ^ =  $20 $T0 8 - ^ = 
STACK WIN 4 1836c 8d 0 0 4 c 0 0 1 $T0 $ebp = $eip $T0 4 + ^ = $ebp $T0 ^ = $esp $T0 8 + =  $23 $T0 4 - ^ =  $20 $T0 8 - ^ =  $24 $T0 12 - ^ = 
STACK WIN 4 183fd 39 5 0 8 0 0 0 1 $T0 $ebp = $eip $T0 4 + ^ = $ebp $T0 ^ = $esp $T0 8 + = 
STACK WIN 4 18409 2b 0 0 8 4 0 0 1 $T0 $ebp = $eip $T0 4 + ^ = $ebp $T0 ^ = $esp $T0 8 + =  $23 $T0 4 - ^ = 
STACK WIN 4 1840d 26 0 0 8 8 0 0 1 $T0 $ebp = $eip $T0 4 + ^ = $ebp $T0 ^ = $esp $T0 8 + =  $23 $T0 4 - ^ =  $24 $T0 8 - ^ = 
STACK WIN 4 18436 3b 5 0 4 0 0 0 1 $T0 $ebp = $eip $T0 4 + ^ = $ebp $T0 ^ = $esp $T0 8 + = 
STACK WIN 4 18471 82 c 0 c 10 1c 0 1 $T0 $ebp = $eip $T0 4 + ^ = $ebp $T0 ^ = $esp $T0 8 + =  $20 $T0 32 - ^ =  $23 $T0 36 - ^ =  $24 $T0 40 - ^ = 
STACK WIN 4 184e4 e 0 0 c 10 1c 0 1 $T0 $ebp = $T2 $esp = $T1 .raSearchStart = $eip $T1 ^ = $ebp $T0 = $esp $T1 4 + = 
STACK WIN 4 184f3 28 8 0 8 0 c 0 1 $T0 $ebp = $eip $T0 4 + ^ = $ebp $T0 ^ = $esp $T0 8 + = 
STACK WIN 4 1851b 7f 7 0 4 0 4 0 1 $T0 $ebp = $eip $T0 4 + ^ = $ebp $T0 ^ = $esp $T0 8 + = 
STACK WIN 4 18522 74 0 0 4 4 4 0 1 $T0 $ebp = $eip $T0 4 + ^ = $ebp $T0 ^ = $esp $T0 8 + =  $23 $T0 8 - ^ = 
STACK WIN 4 1859a 9c 7 0 4 0 0 0 1 $T0 $ebp = $eip $T0 4 + ^ = $ebp $T0 ^ = $esp $T0 8 + = 
STACK WIN 4 185a0 94 1 0 4 4 0 0 1 $T0 $ebp = $eip $T0 4 + ^ = $ebp $T0 ^ = $esp $T0 8 + =  $23 $T0 4 - ^ = 
STACK WIN 4 185a1 92 0 0 4 8 0 0 1 $T0 $ebp = $eip $T0 4 + ^ = $ebp $T0 ^ = $esp $T0 8 + =  $23 $T0 4 - ^ =  $24 $T0 8 - ^ = 
STACK WIN 4 18636 41 4 0 0 0 0 0 1 $T0 .raSearch = $eip $T0 ^ = $esp $T0 4 + = 
STACK WIN 4 18639 3d 1 0 0 4 0 0 1 $T0 .raSearch = $eip $T0 ^ = $esp $T0 4 + =  $23 $T0 4 - ^ = 
STACK WIN 4 1863a 3b 0 0 0 8 0 0 1 $T0 .raSearch = $eip $T0 ^ = $esp $T0 4 + =  $23 $T0 4 - ^ =  $24 $T0 8 - ^ = 
STACK WIN 4 18677 17 5 0 4 0 0 0 1 $T0 $ebp = $eip $T0 4 + ^ = $ebp $T0 ^ = $esp $T0 8 + = 
STACK WIN 4 1868e 31 3 0 4 0 0 0 1 $T0 .raSearch = $eip $T0 ^ = $esp $T0 4 + = 
STACK WIN 4 18691 2d 0 0 4 4 0 0 1 $T0 .raSearch = $eip $T0 ^ = $esp $T0 4 + =  $23 $T0 4 - ^ = 
STACK WIN 4 1869f 1c 0 0 4 8 0 0 1 $T0 .raSearch = $eip $T0 ^ = $esp $T0 4 + =  $23 $T0 4 - ^ =  $24 $T0 8 - ^ = 
STACK WIN 4 186bf 17 5 0 4 0 0 0 1 $T0 $ebp = $eip $T0 4 + ^ = $ebp $T0 ^ = $esp $T0 8 + = 
STACK WIN 4 186d6 18 5 0 8 0 0 0 1 $T0 $ebp = $eip $T0 4 + ^ = $ebp $T0 ^ = $esp $T0 8 + = 
STACK WIN 4 186ee 190 c 0 8 0 20 0 1 $T0 $ebp = $eip $T0 4 + ^ = $ebp $T0 ^ = $esp $T0 8 + = 
STACK WIN 4 186fa 173 0 0 8 4 20 0 1 $T0 $ebp = $eip $T0 4 + ^ = $ebp $T0 ^ = $esp $T0 8 + =  $23 $T0 36 - ^ = 
STACK WIN 4 1871a 152 0 0 8 8 20 0 1 $T0 $ebp = $eip $T0 4 + ^ = $ebp $T0 ^ = $esp $T0 8 + =  $23 $T0 36 - ^ =  $20 $T0 40 - ^ = 
STACK WIN 4 1871b 150 0 0 8 c 20 0 1 $T0 $ebp = $eip $T0 4 + ^ = $ebp $T0 ^ = $esp $T0 8 + =  $23 $T0 36 - ^ =  $20 $T0 40 - ^ =  $24 $T0 44 - ^ = 
STACK WIN 4 1887e 96 6 0 10 0 4 0 1 $T0 $ebp = $eip $T0 4 + ^ = $ebp $T0 ^ = $esp $T0 8 + = 
STACK WIN 4 18897 6c 0 0 10 4 4 0 1 $T0 $ebp = $eip $T0 4 + ^ = $ebp $T0 ^ = $esp $T0 8 + =  $24 $T0 8 - ^ = 
STACK WIN 4 188aa 58 0 0 10 8 4 0 1 $T0 $ebp = $eip $T0 4 + ^ = $ebp $T0 ^ = $esp $T0 8 + =  $24 $T0 8 - ^ =  $20 $T0 12 - ^ = 
STACK WIN 4 188ab 56 0 0 10 c 4 0 1 $T0 $ebp = $eip $T0 4 + ^ = $ebp $T0 ^ = $esp $T0 8 + =  $24 $T0 8 - ^ =  $20 $T0 12 - ^ =  $23 $T0 16 - ^ = 
STACK WIN 4 18914 184 21 0 c 0 150 0 1 $T0 $ebp = $eip $T0 4 + ^ = $ebp $T0 ^ = $esp $T0 8 + = 
STACK WIN 4 1892d cd 8 0 c 4 150 0 1 $T0 $ebp = $eip $T0 4 + ^ = $ebp $T0 ^ = $esp $T0 8 + =  $20 $T0 340 - ^ = 
STACK WIN 4 18931 c6 4 0 c 8 150 0 1 $T0 $ebp = $eip $T0 4 + ^ = $ebp $T0 ^ = $esp $T0 8 + =  $20 $T0 340 - ^ =  $23 $T0 344 - ^ = 
STACK WIN 4 18935 c1 0 0 c c 150 0 1 $T0 $ebp = $eip $T0 4 + ^ = $ebp $T0 ^ = $esp $T0 8 + =  $20 $T0 340 - ^ =  $23 $T0 344 - ^ =  $24 $T0 348 - ^ = 
STACK WIN 4 18a98 25 6 0 0 0 0 0 1 $T0 .raSearch = $eip $T0 ^ = $esp $T0 4 + = 
STACK WIN 4 18a9b 21 3 0 0 4 0 0 1 $T0 .raSearch = $eip $T0 ^ = $esp $T0 4 + =  $23 $T0 4 - ^ = 
STACK WIN 4 18a9c 1f 2 0 0 8 0 0 1 $T0 .raSearch = $eip $T0 ^ = $esp $T0 4 + =  $23 $T0 4 - ^ =  $24 $T0 8 - ^ = 
STACK WIN 4 18abd 35 9 0 4 0 0 0 1 $T0 $ebp = $eip $T0 4 + ^ = $ebp $T0 ^ = $esp $T0 8 + = 
STACK WIN 4 18ac3 2b 3 0 4 4 0 0 1 $T0 $ebp = $eip $T0 4 + ^ = $ebp $T0 ^ = $esp $T0 8 + =  $23 $T0 4 - ^ = 
STACK WIN 4 18ac4 29 2 0 4 8 0 0 1 $T0 $ebp = $eip $T0 4 + ^ = $ebp $T0 ^ = $esp $T0 8 + =  $23 $T0 4 - ^ =  $24 $T0 8 - ^ = 
STACK WIN 4 18af2 87 5 0 0 0 0 0 1 $T0 .raSearch = $eip $T0 ^ = $esp $T0 4 + = 
STACK WIN 4 18af5 83 2 0 0 4 0 0 1 $T0 .raSearch = $eip $T0 ^ = $esp $T0 4 + =  $23 $T0 4 - ^ = 
STACK WIN 4 18af8 7f 0 0 0 8 0 0 1 $T0 .raSearch = $eip $T0 ^ = $esp $T0 4 + =  $23 $T0 4 - ^ =  $24 $T0 8 - ^ = 
STACK WIN 4 18b42 34 0 0 0 c 0 0 1 $T0 .raSearch = $eip $T0 ^ = $esp $T0 4 + =  $23 $T0 4 - ^ =  $24 $T0 8 - ^ =  $20 $T0 12 - ^ = 
STACK WIN 4 18b79 b 5 0 8 0 0 0 1 $T0 $ebp = $eip $T0 4 + ^ = $ebp $T0 ^ = $esp $T0 8 + = 
STACK WIN 4 18b84 43 c 0 c 10 18 0 1 $T0 $ebp = $eip $T0 4 + ^ = $ebp $T0 ^ = $esp $T0 8 + =  $20 $T0 28 - ^ =  $23 $T0 32 - ^ =  $24 $T0 36 - ^ = 
STACK WIN 4 18bbb b 0 0 c 10 18 0 1 $T0 $ebp = $T2 $esp = $T1 .raSearchStart = $eip $T1 ^ = $ebp $T0 = $esp $T1 4 + = 
STACK WIN 4 18bc7 28 8 0 8 0 c 0 1 $T0 $ebp = $eip $T0 4 + ^ = $ebp $T0 ^ = $esp $T0 8 + = 
STACK WIN 4 18bef c4 5 0 0 0 0 0 1 $T0 .raSearch = $eip $T0 ^ = $esp $T0 4 + = 
STACK WIN 4 18bf2 c0 2 0 0 4 0 0 1 $T0 .raSearch = $eip $T0 ^ = $esp $T0 4 + =  $23 $T0 4 - ^ = 
STACK WIN 4 18cb3 3e 5 0 4 0 0 0 1 $T0 $ebp = $eip $T0 4 + ^ = $ebp $T0 ^ = $esp $T0 8 + = 
STACK WIN 4 18cf1 73 8 0 4 0 10 0 1 $T0 $ebp = $eip $T0 4 + ^ = $ebp $T0 ^ = $esp $T0 8 + = 
STACK WIN 4 18d64 65 b 0 4 0 0 0 1 $T0 $ebp = $eip $T0 4 + ^ = $ebp $T0 ^ = $esp $T0 8 + = 
STACK WIN 4 18d6a 5d 5 0 4 4 0 0 1 $T0 $ebp = $eip $T0 4 + ^ = $ebp $T0 ^ = $esp $T0 8 + =  $20 $T0 4 - ^ = 
STACK WIN 4 18d6e 58 1 0 4 8 0 0 1 $T0 $ebp = $eip $T0 4 + ^ = $ebp $T0 ^ = $esp $T0 8 + =  $20 $T0 4 - ^ =  $23 $T0 8 - ^ = 
STACK WIN 4 18d6f 56 0 0 4 c 0 0 1 $T0 $ebp = $eip $T0 4 + ^ = $ebp $T0 ^ = $esp $T0 8 + =  $20 $T0 4 - ^ =  $23 $T0 8 - ^ =  $24 $T0 12 - ^ = 
STACK WIN 4 18dc9 194 21 0 4 0 720 0 1 $T0 $ebp = $eip $T0 4 + ^ = $ebp $T0 ^ = $esp $T0 8 + = 
STACK WIN 4 18ddf 175 b 0 4 4 720 0 1 $T0 $ebp = $eip $T0 4 + ^ = $ebp $T0 ^ = $esp $T0 8 + =  $20 $T0 1828 - ^ = 
STACK WIN 4 18de0 171 a 0 4 8 720 0 1 $T0 $ebp = $eip $T0 4 + ^ = $ebp $T0 ^ = $esp $T0 8 + =  $20 $T0 1828 - ^ =  $23 $T0 1832 - ^ = 
STACK WIN 4 18dea 166 0 0 4 c 720 0 1 $T0 $ebp = $eip $T0 4 + ^ = $ebp $T0 ^ = $esp $T0 8 + =  $20 $T0 1828 - ^ =  $23 $T0 1832 - ^ =  $24 $T0 1836 - ^ = 
STACK WIN 4 18f5d 101 8 0 8 0 c 0 1 $T0 $ebp = $eip $T0 4 + ^ = $ebp $T0 ^ = $esp $T0 8 + = 
STACK WIN 4 18f8e 52 0 0 8 4 c 0 1 $T0 $ebp = $eip $T0 4 + ^ = $ebp $T0 ^ = $esp $T0 8 + =  $20 $T0 16 - ^ = 
STACK WIN 4 18f8f 50 0 0 8 8 c 0 1 $T0 $ebp = $eip $T0 4 + ^ = $ebp $T0 ^ = $esp $T0 8 + =  $20 $T0 16 - ^ =  $23 $T0 20 - ^ = 
STACK WIN 4 18f90 4c 0 0 8 c c 0 1 $T0 $ebp = $eip $T0 4 + ^ = $ebp $T0 ^ = $esp $T0 8 + =  $20 $T0 16 - ^ =  $23 $T0 20 - ^ =  $24 $T0 24 - ^ = 
STACK WIN 4 1905e 1e 0 0 0 0 0 0 1 $T0 .raSearch = $eip $T0 ^ = $esp $T0 4 + = 
STACK WIN 4 1907c a2 c 0 0 10 1c 0 1 $T0 $ebp = $eip $T0 4 + ^ = $ebp $T0 ^ = $esp $T0 8 + =  $20 $T0 32 - ^ =  $23 $T0 36 - ^ =  $24 $T0 40 - ^ = 
STACK WIN 4 1910a b 0 0 0 10 1c 0 1 $T0 $ebp = $T2 $esp = $T1 .raSearchStart = $eip $T1 ^ = $ebp $T0 = $esp $T1 4 + = 
STACK WIN 4 1911e 1f1 14 0 8 0 20 0 1 $T0 $ebp = $eip $T0 4 + ^ = $ebp $T0 ^ = $esp $T0 8 + = 
STACK WIN 4 19131 1d5 1 0 8 4 20 0 1 $T0 $ebp = $eip $T0 4 + ^ = $ebp $T0 ^ = $esp $T0 8 + =  $20 $T0 36 - ^ = 
STACK WIN 4 19132 1d1 0 0 8 8 20 0 1 $T0 $ebp = $eip $T0 4 + ^ = $ebp $T0 ^ = $esp $T0 8 + =  $20 $T0 36 - ^ =  $23 $T0 40 - ^ = 
STACK WIN 4 19153 1ac 0 0 8 c 20 0 1 $T0 $ebp = $eip $T0 4 + ^ = $ebp $T0 ^ = $esp $T0 8 + =  $20 $T0 36 - ^ =  $23 $T0 40 - ^ =  $24 $T0 44 - ^ = 
STACK WIN 4 1930f 59 9 0 10 0 10 0 1 $T0 $ebp = $eip $T0 4 + ^ = $ebp $T0 ^ = $esp $T0 8 + = 
STACK WIN 4 19318 3e 0 0 10 4 10 0 1 $T0 $ebp = $eip $T0 4 + ^ = $ebp $T0 ^ = $esp $T0 8 + =  $23 $T0 20 - ^ = 
STACK WIN 4 19368 18 5 0 4 0 0 0 1 $T0 $ebp = $eip $T0 4 + ^ = $ebp $T0 ^ = $esp $T0 8 + = 
STACK WIN 4 19380 19 0 0 0 0 0 0 1 $T0 .raSearch = $eip $T0 ^ = $esp $T0 4 + = 
STACK WIN 4 19399 37 9 0 4 0 0 0 1 $T0 $ebp = $eip $T0 4 + ^ = $ebp $T0 ^ = $esp $T0 8 + = 
STACK WIN 4 193a2 2c 0 0 4 4 0 0 1 $T0 $ebp = $eip $T0 4 + ^ = $ebp $T0 ^ = $esp $T0 8 + =  $24 $T0 4 - ^ = 
STACK WIN 4 193aa 20 0 0 4 8 0 0 1 $T0 $ebp = $eip $T0 4 + ^ = $ebp $T0 ^ = $esp $T0 8 + =  $24 $T0 4 - ^ =  $23 $T0 8 - ^ = 
STACK WIN 4 193d0 83 9 0 0 0 4 0 1 $T0 $ebp = $eip $T0 4 + ^ = $ebp $T0 ^ = $esp $T0 8 + = 
STACK WIN 4 193d7 78 2 0 0 4 4 0 1 $T0 $ebp = $eip $T0 4 + ^ = $ebp $T0 ^ = $esp $T0 8 + =  $20 $T0 8 - ^ = 
STACK WIN 4 193d8 74 1 0 0 8 4 0 1 $T0 $ebp = $eip $T0 4 + ^ = $ebp $T0 ^ = $esp $T0 8 + =  $20 $T0 8 - ^ =  $23 $T0 12 - ^ = 
STACK WIN 4 193d9 72 0 0 0 c 4 0 1 $T0 $ebp = $eip $T0 4 + ^ = $ebp $T0 ^ = $esp $T0 8 + =  $20 $T0 8 - ^ =  $23 $T0 12 - ^ =  $24 $T0 16 - ^ = 
STACK WIN 4 19453 b 5 0 c 0 0 0 1 $T0 $ebp = $eip $T0 4 + ^ = $ebp $T0 ^ = $esp $T0 8 + = 
STACK WIN 4 1945e 6d 6 0 c 0 0 0 1 $T0 $ebp = $eip $T0 4 + ^ = $ebp $T0 ^ = $esp $T0 8 + = 
STACK WIN 4 19464 65 0 0 c 4 0 0 1 $T0 $ebp = $eip $T0 4 + ^ = $ebp $T0 ^ = $esp $T0 8 + =  $23 $T0 4 - ^ = 
STACK WIN 4 19487 41 0 0 c 8 0 0 1 $T0 $ebp = $eip $T0 4 + ^ = $ebp $T0 ^ = $esp $T0 8 + =  $23 $T0 4 - ^ =  $20 $T0 8 - ^ = 
STACK WIN 4 1948b 3a 0 0 c c 0 0 1 $T0 $ebp = $eip $T0 4 + ^ = $ebp $T0 ^ = $esp $T0 8 + =  $23 $T0 4 - ^ =  $20 $T0 8 - ^ =  $24 $T0 12 - ^ = 
STACK WIN 4 194cb 11 0 0 0 0 0 0 1 $T0 .raSearch = $eip $T0 ^ = $esp $T0 4 + = 
STACK WIN 4 194dc a 0 0 4 0 0 0 1 $T0 .raSearch = $eip $T0 ^ = $esp $T0 4 + = 
STACK WIN 4 194e6 83 11 0 8 0 4 0 1 $T0 $ebp = $eip $T0 4 + ^ = $ebp $T0 ^ = $esp $T0 8 + = 
STACK WIN 4 194f7 69 0 0 8 4 4 0 1 $T0 $ebp = $eip $T0 4 + ^ = $ebp $T0 ^ = $esp $T0 8 + =  $24 $T0 8 - ^ = 
STACK WIN 4 19504 56 0 0 8 8 4 0 1 $T0 $ebp = $eip $T0 4 + ^ = $ebp $T0 ^ = $esp $T0 8 + =  $24 $T0 8 - ^ =  $23 $T0 12 - ^ = 
STACK WIN 4 19507 52 0 0 8 c 4 0 1 $T0 $ebp = $eip $T0 4 + ^ = $ebp $T0 ^ = $esp $T0 8 + =  $24 $T0 8 - ^ =  $23 $T0 12 - ^ =  $20 $T0 16 - ^ = 
STACK WIN 4 19569 4d 11 0 8 0 4 0 1 $T0 $ebp = $eip $T0 4 + ^ = $ebp $T0 ^ = $esp $T0 8 + = 
STACK WIN 4 1957a 33 0 0 8 4 4 0 1 $T0 $ebp = $eip $T0 4 + ^ = $ebp $T0 ^ = $esp $T0 8 + =  $23 $T0 8 - ^ = 
STACK WIN 4 19586 1f 0 0 8 8 4 0 1 $T0 $ebp = $eip $T0 4 + ^ = $ebp $T0 ^ = $esp $T0 8 + =  $23 $T0 8 - ^ =  $24 $T0 12 - ^ = 
STACK WIN 4 195b6 5a c 0 c 10 1c 0 1 $T0 $ebp = $eip $T0 4 + ^ = $ebp $T0 ^ = $esp $T0 8 + =  $20 $T0 32 - ^ =  $23 $T0 36 - ^ =  $24 $T0 40 - ^ = 
STACK WIN 4 19601 e 0 0 c 10 1c 0 1 $T0 $ebp = $T2 $esp = $T1 .raSearchStart = $eip $T1 ^ = $ebp $T0 = $esp $T1 4 + = 
STACK WIN 4 19610 28 8 0 8 0 c 0 1 $T0 $ebp = $eip $T0 4 + ^ = $ebp $T0 ^ = $esp $T0 8 + = 
STACK WIN 4 19638 42 5 0 4 0 0 0 1 $T0 $ebp = $eip $T0 4 + ^ = $ebp $T0 ^ = $esp $T0 8 + = 
STACK WIN 4 1967a 31 10 0 4 0 0 0 1 $T0 $ebp = $eip $T0 4 + ^ = $ebp $T0 ^ = $esp $T0 8 + = 
STACK WIN 4 1968a 1d 0 0 4 4 0 0 1 $T0 $ebp = $eip $T0 4 + ^ = $ebp $T0 ^ = $esp $T0 8 + =  $23 $T0 4 - ^ = 
STACK WIN 4 196ab 28 5 0 8 0 0 0 1 $T0 $ebp = $eip $T0 4 + ^ = $ebp $T0 ^ = $esp $T0 8 + = 
STACK WIN 4 196d3 17 6 0 0 0 4 0 1 $T0 $ebp = $eip $T0 4 + ^ = $ebp $T0 ^ = $esp $T0 8 + = 
STACK WIN 4 196ea 3b 5 0 4 0 0 0 1 $T0 $ebp = $eip $T0 4 + ^ = $ebp $T0 ^ = $esp $T0 8 + = 
STACK WIN 4 19725 9 0 0 0 0 0 0 1 $T0 .raSearch = $eip $T0 ^ = $esp $T0 4 + = 
STACK WIN 4 1972e 208 c 0 4 10 3c 0 1 $T0 $ebp = $eip $T0 4 + ^ = $ebp $T0 ^ = $esp $T0 8 + =  $20 $T0 64 - ^ =  $23 $T0 68 - ^ =  $24 $T0 72 - ^ = 
STACK WIN 4 198df 1d 0 0 4 10 3c 0 1 $T0 $ebp = $T2 $esp = $T1 .raSearchStart = $eip $T1 ^ = $ebp $T0 = $esp $T1 4 + = 
STACK WIN 4 19936 19 0 0 0 0 0 0 1 $T0 .raSearch = $eip $T0 ^ = $esp $T0 4 + = 
STACK WIN 4 1994f 14 5 0 4 0 0 0 1 $T0 $ebp = $eip $T0 4 + ^ = $ebp $T0 ^ = $esp $T0 8 + = 
STACK WIN 4 19963 49 11 0 4 0 4 0 1 $T0 $ebp = $eip $T0 4 + ^ = $ebp $T0 ^ = $esp $T0 8 + = 
STACK WIN 4 19974 2f 0 0 4 4 4 0 1 $T0 $ebp = $eip $T0 4 + ^ = $ebp $T0 ^ = $esp $T0 8 + =  $23 $T0 8 - ^ = 
STACK WIN 4 199ac 6 0 0 0 0 0 0 1 $T0 .raSearch = $eip $T0 ^ = $esp $T0 4 + = 
STACK WIN 4 199b2 26 6 0 0 0 4 0 1 $T0 $ebp = $eip $T0 4 + ^ = $ebp $T0 ^ = $esp $T0 8 + = 
STACK WIN 4 199d8 d2 13 0 c 0 24 0 1 $T0 $ebp = $eip $T0 4 + ^ = $ebp $T0 ^ = $esp $T0 8 + = 
STACK WIN 4 199eb b6 0 0 c 4 24 0 1 $T0 $ebp = $eip $T0 4 + ^ = $ebp $T0 ^ = $esp $T0 8 + =  $20 $T0 40 - ^ = 
STACK WIN 4 19aaa 39 8 0 8 0 10 0 1 $T0 $ebp = $eip $T0 4 + ^ = $ebp $T0 ^ = $esp $T0 8 + = 
STACK WIN 4 19ae3 21d 17 0 24 c 8 0 1 $T0 $ebp = $eip $T0 4 + ^ = $ebp $T0 ^ = $esp $T0 8 + =  $20 $T0 12 - ^ =  $23 $T0 16 - ^ =  $24 $T0 20 - ^ = 
STACK WIN 4 19d00 4b 8 0 24 0 10 0 1 $T0 $ebp = $eip $T0 4 + ^ = $ebp $T0 ^ = $esp $T0 8 + = 
STACK WIN 4 19d4b 20 5 0 4 0 0 0 1 $T0 $ebp = $eip $T0 4 + ^ = $ebp $T0 ^ = $esp $T0 8 + = 
STACK WIN 4 19d6b 7d 5 0 4 0 0 0 1 $T0 $ebp = $eip $T0 4 + ^ = $ebp $T0 ^ = $esp $T0 8 + = 
STACK WIN 4 19da9 3d 0 0 4 4 0 0 1 $T0 $ebp = $eip $T0 4 + ^ = $ebp $T0 ^ = $esp $T0 8 + =  $23 $T0 4 - ^ = 
STACK WIN 4 19de8 14a c 0 4 0 4 0 1 $T0 $ebp = $eip $T0 4 + ^ = $ebp $T0 ^ = $esp $T0 8 + = 
STACK WIN 4 19def 13f 5 0 4 4 4 0 1 $T0 $ebp = $eip $T0 4 + ^ = $ebp $T0 ^ = $esp $T0 8 + =  $20 $T0 8 - ^ = 
STACK WIN 4 19df0 13d 4 0 4 8 4 0 1 $T0 $ebp = $eip $T0 4 + ^ = $ebp $T0 ^ = $esp $T0 8 + =  $20 $T0 8 - ^ =  $23 $T0 12 - ^ = 
STACK WIN 4 19df4 138 0 0 4 c 4 0 1 $T0 $ebp = $eip $T0 4 + ^ = $ebp $T0 ^ = $esp $T0 8 + =  $20 $T0 8 - ^ =  $23 $T0 12 - ^ =  $24 $T0 16 - ^ = 
STACK WIN 4 19f32 29 5 0 4 0 0 0 1 $T0 $ebp = $eip $T0 4 + ^ = $ebp $T0 ^ = $esp $T0 8 + = 
STACK WIN 4 19f5b 30 6 0 4 0 0 0 1 $T0 $ebp = $eip $T0 4 + ^ = $ebp $T0 ^ = $esp $T0 8 + = 
STACK WIN 4 19f61 28 0 0 4 4 0 0 1 $T0 $ebp = $eip $T0 4 + ^ = $ebp $T0 ^ = $esp $T0 8 + =  $23 $T0 4 - ^ = 
STACK WIN 4 19f8b 29 5 0 4 0 0 0 1 $T0 $ebp = $eip $T0 4 + ^ = $ebp $T0 ^ = $esp $T0 8 + = 
STACK WIN 4 19fb5 81 5 0 4 0 0 0 1 $T0 $ebp = $eip $T0 4 + ^ = $ebp $T0 ^ = $esp $T0 8 + = 
STACK WIN 4 19ff7 3d 0 0 4 4 0 0 1 $T0 $ebp = $eip $T0 4 + ^ = $ebp $T0 ^ = $esp $T0 8 + =  $23 $T0 4 - ^ = 
STACK WIN 4 1a036 77 c 0 0 10 1c 0 1 $T0 $ebp = $eip $T0 4 + ^ = $ebp $T0 ^ = $esp $T0 8 + =  $20 $T0 32 - ^ =  $23 $T0 36 - ^ =  $24 $T0 40 - ^ = 
STACK WIN 4 1a099 b 0 0 0 10 1c 0 1 $T0 $ebp = $T2 $esp = $T1 .raSearchStart = $eip $T1 ^ = $ebp $T0 = $esp $T1 4 + = 
STACK WIN 4 1a0ad 50 a 0 8 0 0 0 1 $T0 $ebp = $eip $T0 4 + ^ = $ebp $T0 ^ = $esp $T0 8 + = 
STACK WIN 4 1a0b3 48 4 0 8 4 0 0 1 $T0 $ebp = $eip $T0 4 + ^ = $ebp $T0 ^ = $esp $T0 8 + =  $23 $T0 4 - ^ = 
STACK WIN 4 1a0b7 43 0 0 8 8 0 0 1 $T0 $ebp = $eip $T0 4 + ^ = $ebp $T0 ^ = $esp $T0 8 + =  $23 $T0 4 - ^ =  $24 $T0 8 - ^ = 
STACK WIN 4 1a0fd fe 6 0 4 0 0 0 1 $T0 $ebp = $eip $T0 4 + ^ = $ebp $T0 ^ = $esp $T0 8 + = 
STACK WIN 4 1a103 f6 0 0 4 4 0 0 1 $T0 $ebp = $eip $T0 4 + ^ = $ebp $T0 ^ = $esp $T0 8 + =  $23 $T0 4 - ^ = 
STACK WIN 4 1a1fb 69 6 0 4 0 0 0 1 $T0 $ebp = $eip $T0 4 + ^ = $ebp $T0 ^ = $esp $T0 8 + = 
STACK WIN 4 1a201 61 0 0 4 4 0 0 1 $T0 $ebp = $eip $T0 4 + ^ = $ebp $T0 ^ = $esp $T0 8 + =  $23 $T0 4 - ^ = 
STACK WIN 4 1a264 3c e 0 8 0 0 0 1 $T0 $ebp = $eip $T0 4 + ^ = $ebp $T0 ^ = $esp $T0 8 + = 
STACK WIN 4 1a26d 31 5 0 8 4 0 0 1 $T0 $ebp = $eip $T0 4 + ^ = $ebp $T0 ^ = $esp $T0 8 + =  $20 $T0 4 - ^ = 
STACK WIN 4 1a26e 2f 4 0 8 8 0 0 1 $T0 $ebp = $eip $T0 4 + ^ = $ebp $T0 ^ = $esp $T0 8 + =  $20 $T0 4 - ^ =  $23 $T0 8 - ^ = 
STACK WIN 4 1a272 2a 0 0 8 c 0 0 1 $T0 $ebp = $eip $T0 4 + ^ = $ebp $T0 ^ = $esp $T0 8 + =  $20 $T0 4 - ^ =  $23 $T0 8 - ^ =  $24 $T0 12 - ^ = 
STACK WIN 4 1a2a0 e4 6 0 4 0 0 0 1 $T0 $ebp = $eip $T0 4 + ^ = $ebp $T0 ^ = $esp $T0 8 + = 
STACK WIN 4 1a2a6 dc 0 0 4 4 0 0 1 $T0 $ebp = $eip $T0 4 + ^ = $ebp $T0 ^ = $esp $T0 8 + =  $23 $T0 4 - ^ = 
STACK WIN 4 1a384 11d 15 0 1c c 18 0 1 $T0 $ebp = $eip $T0 4 + ^ = $ebp $T0 ^ = $esp $T0 8 + =  $20 $T0 28 - ^ =  $23 $T0 32 - ^ =  $24 $T0 36 - ^ = 
STACK WIN 4 1a4a1 bc b 0 4 0 10 0 1 $T0 $ebp = $eip $T0 4 + ^ = $ebp $T0 ^ = $esp $T0 8 + = 
STACK WIN 4 1a4aa af 2 0 4 4 10 0 1 $T0 $ebp = $eip $T0 4 + ^ = $ebp $T0 ^ = $esp $T0 8 + =  $20 $T0 20 - ^ = 
STACK WIN 4 1a4ab ad 1 0 4 8 10 0 1 $T0 $ebp = $eip $T0 4 + ^ = $ebp $T0 ^ = $esp $T0 8 + =  $20 $T0 20 - ^ =  $23 $T0 24 - ^ = 
STACK WIN 4 1a4ac ab 0 0 4 c 10 0 1 $T0 $ebp = $eip $T0 4 + ^ = $ebp $T0 ^ = $esp $T0 8 + =  $20 $T0 20 - ^ =  $23 $T0 24 - ^ =  $24 $T0 28 - ^ = 
STACK WIN 4 1a55d 2c 5 0 4 0 0 0 1 $T0 $ebp = $eip $T0 4 + ^ = $ebp $T0 ^ = $esp $T0 8 + = 
STACK WIN 4 1a589 98 c 0 c 10 1c 0 1 $T0 $ebp = $eip $T0 4 + ^ = $ebp $T0 ^ = $esp $T0 8 + =  $20 $T0 32 - ^ =  $23 $T0 36 - ^ =  $24 $T0 40 - ^ = 
STACK WIN 4 1a612 e 0 0 c 10 1c 0 1 $T0 $ebp = $T2 $esp = $T1 .raSearchStart = $eip $T1 ^ = $ebp $T0 = $esp $T1 4 + = 
STACK WIN 4 1a621 28 8 0 8 0 c 0 1 $T0 $ebp = $eip $T0 4 + ^ = $ebp $T0 ^ = $esp $T0 8 + = 
STACK WIN 4 1a649 6f 7 0 4 0 4 0 1 $T0 $ebp = $eip $T0 4 + ^ = $ebp $T0 ^ = $esp $T0 8 + = 
STACK WIN 4 1a650 64 0 0 4 4 4 0 1 $T0 $ebp = $eip $T0 4 + ^ = $ebp $T0 ^ = $esp $T0 8 + =  $23 $T0 8 - ^ = 
STACK WIN 4 1a6b8 1b3 2a 0 10 0 38 0 1 $T0 $ebp = $eip $T0 4 + ^ = $ebp $T0 ^ = $esp $T0 8 + = 
STACK WIN 4 1a6d6 18c c 0 10 4 38 0 1 $T0 $ebp = $eip $T0 4 + ^ = $ebp $T0 ^ = $esp $T0 8 + =  $20 $T0 60 - ^ = 
STACK WIN 4 1a6da 185 8 0 10 8 38 0 1 $T0 $ebp = $eip $T0 4 + ^ = $ebp $T0 ^ = $esp $T0 8 + =  $20 $T0 60 - ^ =  $23 $T0 64 - ^ = 
STACK WIN 4 1a6e2 17c 0 0 10 c 38 0 1 $T0 $ebp = $eip $T0 4 + ^ = $ebp $T0 ^ = $esp $T0 8 + =  $20 $T0 60 - ^ =  $23 $T0 64 - ^ =  $24 $T0 68 - ^ = 
STACK WIN 4 1a86b 6d e 0 c 0 4 0 1 $T0 $ebp = $eip $T0 4 + ^ = $ebp $T0 ^ = $esp $T0 8 + = 
STACK WIN 4 1a872 62 7 0 c 4 4 0 1 $T0 $ebp = $eip $T0 4 + ^ = $ebp $T0 ^ = $esp $T0 8 + =  $20 $T0 8 - ^ = 
STACK WIN 4 1a873 60 6 0 c 8 4 0 1 $T0 $ebp = $eip $T0 4 + ^ = $ebp $T0 ^ = $esp $T0 8 + =  $20 $T0 8 - ^ =  $23 $T0 12 - ^ = 
STACK WIN 4 1a879 57 0 0 c c 4 0 1 $T0 $ebp = $eip $T0 4 + ^ = $ebp $T0 ^ = $esp $T0 8 + =  $20 $T0 8 - ^ =  $23 $T0 12 - ^ =  $24 $T0 16 - ^ = 
STACK WIN 4 1a8d8 76 7 0 4 0 4 0 1 $T0 $ebp = $eip $T0 4 + ^ = $ebp $T0 ^ = $esp $T0 8 + = 
STACK WIN 4 1a8df 6b 0 0 4 4 4 0 1 $T0 $ebp = $eip $T0 4 + ^ = $ebp $T0 ^ = $esp $T0 8 + =  $23 $T0 8 - ^ = 
STACK WIN 4 1a8f2 57 0 0 4 8 4 0 1 $T0 $ebp = $eip $T0 4 + ^ = $ebp $T0 ^ = $esp $T0 8 + =  $23 $T0 8 - ^ =  $24 $T0 12 - ^ = 
STACK WIN 4 1a94e df 37 0 10 0 1410 0 1 $T0 $ebp = $eip $T0 4 + ^ = $ebp $T0 ^ = $esp $T0 8 + = 
STACK WIN 4 1a976 ae f 0 10 4 1410 0 1 $T0 $ebp = $eip $T0 4 + ^ = $ebp $T0 ^ = $esp $T0 8 + =  $20 $T0 5140 - ^ = 
STACK WIN 4 1a981 a0 4 0 10 8 1410 0 1 $T0 $ebp = $eip $T0 4 + ^ = $ebp $T0 ^ = $esp $T0 8 + =  $20 $T0 5140 - ^ =  $23 $T0 5144 - ^ = 
STACK WIN 4 1a985 9b 0 0 10 c 1410 0 1 $T0 $ebp = $eip $T0 4 + ^ = $ebp $T0 ^ = $esp $T0 8 + =  $20 $T0 5140 - ^ =  $23 $T0 5144 - ^ =  $24 $T0 5148 - ^ = 
STACK WIN 4 1aa2d ee 37 0 10 0 1410 0 1 $T0 $ebp = $eip $T0 4 + ^ = $ebp $T0 ^ = $esp $T0 8 + = 
STACK WIN 4 1aa55 bd f 0 10 4 1410 0 1 $T0 $ebp = $eip $T0 4 + ^ = $ebp $T0 ^ = $esp $T0 8 + =  $20 $T0 5140 - ^ = 
STACK WIN 4 1aa60 af 4 0 10 8 1410 0 1 $T0 $ebp = $eip $T0 4 + ^ = $ebp $T0 ^ = $esp $T0 8 + =  $20 $T0 5140 - ^ =  $23 $T0 5144 - ^ = 
STACK WIN 4 1aa64 aa 0 0 10 c 1410 0 1 $T0 $ebp = $eip $T0 4 + ^ = $ebp $T0 ^ = $esp $T0 8 + =  $20 $T0 5140 - ^ =  $23 $T0 5144 - ^ =  $24 $T0 5148 - ^ = 
STACK WIN 4 1ab1b 12d 36 0 10 0 1418 0 1 $T0 $ebp = $eip $T0 4 + ^ = $ebp $T0 ^ = $esp $T0 8 + = 
STACK WIN 4 1ab43 fc e 0 10 4 1418 0 1 $T0 $ebp = $eip $T0 4 + ^ = $ebp $T0 ^ = $esp $T0 8 + =  $20 $T0 5148 - ^ = 
STACK WIN 4 1ab44 f8 d 0 10 8 1418 0 1 $T0 $ebp = $eip $T0 4 + ^ = $ebp $T0 ^ = $esp $T0 8 + =  $20 $T0 5148 - ^ =  $23 $T0 5152 - ^ = 
STACK WIN 4 1ab51 ea 0 0 10 c 1418 0 1 $T0 $ebp = $eip $T0 4 + ^ = $ebp $T0 ^ = $esp $T0 8 + =  $20 $T0 5148 - ^ =  $23 $T0 5152 - ^ =  $24 $T0 5156 - ^ = 
STACK WIN 4 1ac48 eb c 0 c 10 24 0 1 $T0 $ebp = $eip $T0 4 + ^ = $ebp $T0 ^ = $esp $T0 8 + =  $20 $T0 40 - ^ =  $23 $T0 44 - ^ =  $24 $T0 48 - ^ = 
STACK WIN 4 1ad04 d 0 0 c 10 24 0 1 $T0 $ebp = $T2 $esp = $T1 .raSearchStart = $eip $T1 ^ = $ebp $T0 = $esp $T1 4 + = 
STACK WIN 4 1ad33 20c 1d 0 c 0 30 0 1 $T0 $ebp = $eip $T0 4 + ^ = $ebp $T0 ^ = $esp $T0 8 + = 
STACK WIN 4 1ad4c 1ea 4 0 c 4 30 0 1 $T0 $ebp = $eip $T0 4 + ^ = $ebp $T0 ^ = $esp $T0 8 + =  $23 $T0 52 - ^ = 
STACK WIN 4 1ad50 1e3 0 0 c 8 30 0 1 $T0 $ebp = $eip $T0 4 + ^ = $ebp $T0 ^ = $esp $T0 8 + =  $23 $T0 52 - ^ =  $24 $T0 56 - ^ = 
STACK WIN 4 1ad85 1aa 0 0 c c 30 0 1 $T0 $ebp = $eip $T0 4 + ^ = $ebp $T0 ^ = $esp $T0 8 + =  $23 $T0 52 - ^ =  $24 $T0 56 - ^ =  $20 $T0 60 - ^ = 
STACK WIN 4 1af3f 7a 9 0 0 0 8 0 1 $T0 $ebp = $eip $T0 4 + ^ = $ebp $T0 ^ = $esp $T0 8 + = 
STACK WIN 4 1af47 6e 1 0 0 4 8 0 1 $T0 $ebp = $eip $T0 4 + ^ = $ebp $T0 ^ = $esp $T0 8 + =  $20 $T0 12 - ^ = 
STACK WIN 4 1af48 6c 0 0 0 8 8 0 1 $T0 $ebp = $eip $T0 4 + ^ = $ebp $T0 ^ = $esp $T0 8 + =  $20 $T0 12 - ^ =  $24 $T0 16 - ^ = 
STACK WIN 4 1af6d 3d 0 0 0 c 8 0 1 $T0 $ebp = $eip $T0 4 + ^ = $ebp $T0 ^ = $esp $T0 8 + =  $20 $T0 12 - ^ =  $24 $T0 16 - ^ =  $23 $T0 20 - ^ = 
STACK WIN 4 1afb9 35 6 0 4 0 0 0 1 $T0 $ebp = $eip $T0 4 + ^ = $ebp $T0 ^ = $esp $T0 8 + = 
STACK WIN 4 1afbf 2d 0 0 4 4 0 0 1 $T0 $ebp = $eip $T0 4 + ^ = $ebp $T0 ^ = $esp $T0 8 + =  $23 $T0 4 - ^ = 
STACK WIN 4 1afc7 24 0 0 4 8 0 0 1 $T0 $ebp = $eip $T0 4 + ^ = $ebp $T0 ^ = $esp $T0 8 + =  $23 $T0 4 - ^ =  $20 $T0 8 - ^ = 
STACK WIN 4 1afce 1c 0 0 4 c 0 0 1 $T0 $ebp = $eip $T0 4 + ^ = $ebp $T0 ^ = $esp $T0 8 + =  $23 $T0 4 - ^ =  $20 $T0 8 - ^ =  $24 $T0 12 - ^ = 
STACK WIN 4 1afee 98 c 0 4 10 24 0 1 $T0 $ebp = $eip $T0 4 + ^ = $ebp $T0 ^ = $esp $T0 8 + =  $20 $T0 40 - ^ =  $23 $T0 44 - ^ =  $24 $T0 48 - ^ = 
STACK WIN 4 1b07a b 0 0 4 10 24 0 1 $T0 $ebp = $T2 $esp = $T1 .raSearchStart = $eip $T1 ^ = $ebp $T0 = $esp $T1 4 + = 
STACK WIN 4 1b086 23 5 0 4 0 0 0 1 $T0 $ebp = $eip $T0 4 + ^ = $ebp $T0 ^ = $esp $T0 8 + = 
STACK WIN 4 1b0a9 23 5 0 4 0 0 0 1 $T0 $ebp = $eip $T0 4 + ^ = $ebp $T0 ^ = $esp $T0 8 + = 
STACK WIN 4 1b0cc 91 b 0 4 0 0 0 1 $T0 $ebp = $eip $T0 4 + ^ = $ebp $T0 ^ = $esp $T0 8 + = 
STACK WIN 4 1b0d2 89 5 0 4 4 0 0 1 $T0 $ebp = $eip $T0 4 + ^ = $ebp $T0 ^ = $esp $T0 8 + =  $20 $T0 4 - ^ = 
STACK WIN 4 1b0d3 87 4 0 4 8 0 0 1 $T0 $ebp = $eip $T0 4 + ^ = $ebp $T0 ^ = $esp $T0 8 + =  $20 $T0 4 - ^ =  $23 $T0 8 - ^ = 
STACK WIN 4 1b0d7 82 0 0 4 c 0 0 1 $T0 $ebp = $eip $T0 4 + ^ = $ebp $T0 ^ = $esp $T0 8 + =  $20 $T0 4 - ^ =  $23 $T0 8 - ^ =  $24 $T0 12 - ^ = 
STACK WIN 4 1b15d 6a 5 0 4 0 0 0 1 $T0 $ebp = $eip $T0 4 + ^ = $ebp $T0 ^ = $esp $T0 8 + = 
STACK WIN 4 1b1c7 bc 9 0 10 0 0 0 1 $T0 $ebp = $eip $T0 4 + ^ = $ebp $T0 ^ = $esp $T0 8 + = 
STACK WIN 4 1b1d0 b1 0 0 10 4 0 0 1 $T0 $ebp = $eip $T0 4 + ^ = $ebp $T0 ^ = $esp $T0 8 + =  $23 $T0 4 - ^ = 
STACK WIN 4 1b217 69 0 0 10 8 0 0 1 $T0 $ebp = $eip $T0 4 + ^ = $ebp $T0 ^ = $esp $T0 8 + =  $23 $T0 4 - ^ =  $20 $T0 8 - ^ = 
STACK WIN 4 1b21d 60 0 0 10 c 0 0 1 $T0 $ebp = $eip $T0 4 + ^ = $ebp $T0 ^ = $esp $T0 8 + =  $23 $T0 4 - ^ =  $20 $T0 8 - ^ =  $24 $T0 12 - ^ = 
STACK WIN 4 1b283 2a 5 0 0 0 0 0 1 $T0 .raSearch = $eip $T0 ^ = $esp $T0 4 + = 
STACK WIN 4 1b286 26 2 0 0 4 0 0 1 $T0 .raSearch = $eip $T0 ^ = $esp $T0 4 + =  $23 $T0 4 - ^ = 
STACK WIN 4 1b2b0 4ae c 0 8 0 21c 0 1 $T0 $ebp = $eip $T0 4 + ^ = $ebp $T0 ^ = $esp $T0 8 + = 
STACK WIN 4 1b2bc 49e 0 0 8 4 21c 0 1 $T0 $ebp = $eip $T0 4 + ^ = $ebp $T0 ^ = $esp $T0 8 + =  $20 $T0 544 - ^ = 
STACK WIN 4 1b2cd 48c 0 0 8 8 21c 0 1 $T0 $ebp = $eip $T0 4 + ^ = $ebp $T0 ^ = $esp $T0 8 + =  $20 $T0 544 - ^ =  $24 $T0 548 - ^ = 
STACK WIN 4 1b2e1 477 0 0 8 c 21c 0 1 $T0 $ebp = $eip $T0 4 + ^ = $ebp $T0 ^ = $esp $T0 8 + =  $20 $T0 544 - ^ =  $24 $T0 548 - ^ =  $23 $T0 552 - ^ = 
STACK WIN 4 1b75e 139c 21 0 18 0 964 0 1 $T0 $ebp = $eip $T0 4 + ^ = $ebp $T0 ^ = $esp $T0 8 + = 
STACK WIN 4 1b774 135c b 0 18 4 964 0 1 $T0 $ebp = $eip $T0 4 + ^ = $ebp $T0 ^ = $esp $T0 8 + =  $20 $T0 2408 - ^ = 
STACK WIN 4 1b77e 1351 1 0 18 8 964 0 1 $T0 $ebp = $eip $T0 4 + ^ = $ebp $T0 ^ = $esp $T0 8 + =  $20 $T0 2408 - ^ =  $23 $T0 2412 - ^ = 
STACK WIN 4 1b77f 134f 0 0 18 c 964 0 1 $T0 $ebp = $eip $T0 4 + ^ = $ebp $T0 ^ = $esp $T0 8 + =  $20 $T0 2408 - ^ =  $23 $T0 2412 - ^ =  $24 $T0 2416 - ^ = 
STACK WIN 4 1caed d 0 0 18 c 964 0 1 $T0 $ebp = $eip $T0 4 + ^ = $ebp $T0 ^ = $esp $T0 8 + =  $20 $T0 2408 - ^ =  $23 $T0 2412 - ^ =  $24 $T0 2416 - ^ = 
STACK WIN 4 1cafa 81 6 0 10 0 0 0 1 $T0 $ebp = $eip $T0 4 + ^ = $ebp $T0 ^ = $esp $T0 8 + = 
STACK WIN 4 1cb00 79 0 0 10 4 0 0 1 $T0 $ebp = $eip $T0 4 + ^ = $ebp $T0 ^ = $esp $T0 8 + =  $23 $T0 4 - ^ = 
STACK WIN 4 1cb26 52 0 0 10 8 0 0 1 $T0 $ebp = $eip $T0 4 + ^ = $ebp $T0 ^ = $esp $T0 8 + =  $23 $T0 4 - ^ =  $24 $T0 8 - ^ = 
STACK WIN 4 1cb7b 111 6 0 8 0 0 0 1 $T0 $ebp = $eip $T0 4 + ^ = $ebp $T0 ^ = $esp $T0 8 + = 
STACK WIN 4 1cb81 109 0 0 8 4 0 0 1 $T0 $ebp = $eip $T0 4 + ^ = $ebp $T0 ^ = $esp $T0 8 + =  $24 $T0 4 - ^ = 
STACK WIN 4 1cc06 83 0 0 8 8 0 0 1 $T0 $ebp = $eip $T0 4 + ^ = $ebp $T0 ^ = $esp $T0 8 + =  $24 $T0 4 - ^ =  $20 $T0 8 - ^ = 
STACK WIN 4 1cc30 32 0 0 8 c 0 0 1 $T0 $ebp = $eip $T0 4 + ^ = $ebp $T0 ^ = $esp $T0 8 + =  $24 $T0 4 - ^ =  $20 $T0 8 - ^ =  $23 $T0 12 - ^ = 
STACK WIN 4 1cc8c cc 7 0 8 0 0 0 1 $T0 $ebp = $eip $T0 4 + ^ = $ebp $T0 ^ = $esp $T0 8 + = 
STACK WIN 4 1cc92 c4 1 0 8 4 0 0 1 $T0 $ebp = $eip $T0 4 + ^ = $ebp $T0 ^ = $esp $T0 8 + =  $23 $T0 4 - ^ = 
STACK WIN 4 1cc93 c2 0 0 8 8 0 0 1 $T0 $ebp = $eip $T0 4 + ^ = $ebp $T0 ^ = $esp $T0 8 + =  $23 $T0 4 - ^ =  $24 $T0 8 - ^ = 
STACK WIN 4 1cd58 b 5 0 8 0 0 0 1 $T0 $ebp = $eip $T0 4 + ^ = $ebp $T0 ^ = $esp $T0 8 + = 
STACK WIN 4 1cd63 56 5 0 4 0 0 0 1 $T0 $ebp = $eip $T0 4 + ^ = $ebp $T0 ^ = $esp $T0 8 + = 
STACK WIN 4 1ce40 96 14 0 10 0 4 0 1 $T0 $ebp = $eip $T0 4 + ^ = $ebp $T0 ^ = $esp $T0 8 + = 
STACK WIN 4 1ce54 79 0 0 10 4 4 0 1 $T0 $ebp = $eip $T0 4 + ^ = $ebp $T0 ^ = $esp $T0 8 + =  $20 $T0 8 - ^ = 
STACK WIN 4 1ce5f 68 0 0 10 8 4 0 1 $T0 $ebp = $eip $T0 4 + ^ = $ebp $T0 ^ = $esp $T0 8 + =  $20 $T0 8 - ^ =  $23 $T0 12 - ^ = 
STACK WIN 4 1ce60 66 0 0 10 c 4 0 1 $T0 $ebp = $eip $T0 4 + ^ = $ebp $T0 ^ = $esp $T0 8 + =  $20 $T0 8 - ^ =  $23 $T0 12 - ^ =  $24 $T0 16 - ^ = 
STACK WIN 4 1cee0 39 9 0 c 0 0 0 1 $T0 $ebp = $eip $T0 4 + ^ = $ebp $T0 ^ = $esp $T0 8 + = 
STACK WIN 4 1cee9 2e 0 0 c 4 0 0 1 $T0 $ebp = $eip $T0 4 + ^ = $ebp $T0 ^ = $esp $T0 8 + =  $24 $T0 4 - ^ = 
STACK WIN 4 1cef1 25 0 0 c 8 0 0 1 $T0 $ebp = $eip $T0 4 + ^ = $ebp $T0 ^ = $esp $T0 8 + =  $24 $T0 4 - ^ =  $23 $T0 8 - ^ = 
STACK WIN 4 1cf20 39a 2c 0 10 0 11c 0 1 $T0 $ebp = $eip $T0 4 + ^ = $ebp $T0 ^ = $esp $T0 8 + = 
STACK WIN 4 1cf42 36f a 0 10 4 11c 0 1 $T0 $ebp = $eip $T0 4 + ^ = $ebp $T0 ^ = $esp $T0 8 + =  $23 $T0 288 - ^ = 
STACK WIN 4 1cf4c 362 0 0 10 8 11c 0 1 $T0 $ebp = $eip $T0 4 + ^ = $ebp $T0 ^ = $esp $T0 8 + =  $23 $T0 288 - ^ =  $24 $T0 292 - ^ = 
STACK WIN 4 1cf9d 30d 0 0 10 c 11c 0 1 $T0 $ebp = $eip $T0 4 + ^ = $ebp $T0 ^ = $esp $T0 8 + =  $23 $T0 288 - ^ =  $24 $T0 292 - ^ =  $20 $T0 296 - ^ = 
STACK WIN 4 1d2ba b1 d 0 10 0 4 0 1 $T0 $ebp = $eip $T0 4 + ^ = $ebp $T0 ^ = $esp $T0 8 + = 
STACK WIN 4 1d2c7 40 0 0 10 4 4 0 1 $T0 $ebp = $eip $T0 4 + ^ = $ebp $T0 ^ = $esp $T0 8 + =  $23 $T0 8 - ^ = 
STACK WIN 4 1d30c 3f 0 0 10 8 4 0 1 $T0 $ebp = $eip $T0 4 + ^ = $ebp $T0 ^ = $esp $T0 8 + =  $23 $T0 8 - ^ =  $20 $T0 12 - ^ = 
STACK WIN 4 1d311 37 0 0 10 c 4 0 1 $T0 $ebp = $eip $T0 4 + ^ = $ebp $T0 ^ = $esp $T0 8 + =  $23 $T0 8 - ^ =  $20 $T0 12 - ^ =  $24 $T0 16 - ^ = 
STACK WIN 4 1d36b b 5 0 10 0 0 0 1 $T0 $ebp = $eip $T0 4 + ^ = $ebp $T0 ^ = $esp $T0 8 + = 
STACK WIN 4 1d3c0 17 5 0 8 0 0 0 1 $T0 $ebp = $eip $T0 4 + ^ = $ebp $T0 ^ = $esp $T0 8 + = 
STACK WIN 4 1d3d7 8d 8 0 c 0 10 0 1 $T0 $ebp = $eip $T0 4 + ^ = $ebp $T0 ^ = $esp $T0 8 + = 
STACK WIN 4 1d3fa 66 0 0 c 4 10 0 1 $T0 $ebp = $eip $T0 4 + ^ = $ebp $T0 ^ = $esp $T0 8 + =  $23 $T0 20 - ^ = 
STACK WIN 4 1d464 f 0 0 0 0 0 0 1 $T0 .raSearch = $eip $T0 ^ = $esp $T0 4 + = 
STACK WIN 4 1d473 33 5 0 4 0 0 0 1 $T0 $ebp = $eip $T0 4 + ^ = $ebp $T0 ^ = $esp $T0 8 + = 
STACK WIN 4 1d4a6 69 6 0 8 0 0 0 1 $T0 $ebp = $eip $T0 4 + ^ = $ebp $T0 ^ = $esp $T0 8 + = 
STACK WIN 4 1d4ac 37 0 0 8 4 0 0 1 $T0 $ebp = $eip $T0 4 + ^ = $ebp $T0 ^ = $esp $T0 8 + =  $24 $T0 4 - ^ = 
STACK WIN 4 1d4bf 23 0 0 8 8 0 0 1 $T0 $ebp = $eip $T0 4 + ^ = $ebp $T0 ^ = $esp $T0 8 + =  $24 $T0 4 - ^ =  $23 $T0 8 - ^ = 
STACK WIN 4 1d50f 1c 5 0 8 0 0 0 1 $T0 $ebp = $eip $T0 4 + ^ = $ebp $T0 ^ = $esp $T0 8 + = 
STACK WIN 4 1d52b 105 c 0 10 10 2c 0 1 $T0 $ebp = $eip $T0 4 + ^ = $ebp $T0 ^ = $esp $T0 8 + =  $20 $T0 48 - ^ =  $23 $T0 52 - ^ =  $24 $T0 56 - ^ = 
STACK WIN 4 1d5fa 10 0 0 10 10 2c 0 1 $T0 $ebp = $T2 $esp = $T1 .raSearchStart = $eip $T1 ^ = $ebp $T0 = $esp $T1 4 + = 
STACK WIN 4 1d630 7e c 0 10 0 8 0 1 $T0 $ebp = $eip $T0 4 + ^ = $ebp $T0 ^ = $esp $T0 8 + = 
STACK WIN 4 1d638 72 4 0 10 4 8 0 1 $T0 $ebp = $eip $T0 4 + ^ = $ebp $T0 ^ = $esp $T0 8 + =  $23 $T0 12 - ^ = 
STACK WIN 4 1d63c 6d 0 0 10 8 8 0 1 $T0 $ebp = $eip $T0 4 + ^ = $ebp $T0 ^ = $esp $T0 8 + =  $23 $T0 12 - ^ =  $24 $T0 16 - ^ = 
STACK WIN 4 1d6ae 1b 5 0 10 0 0 0 1 $T0 $ebp = $eip $T0 4 + ^ = $ebp $T0 ^ = $esp $T0 8 + = 
STACK WIN 4 1d6c9 1b 5 0 10 0 0 0 1 $T0 $ebp = $eip $T0 4 + ^ = $ebp $T0 ^ = $esp $T0 8 + = 
STACK WIN 4 1d6e4 45 6 0 4 0 4 0 1 $T0 $ebp = $eip $T0 4 + ^ = $ebp $T0 ^ = $esp $T0 8 + = 
STACK WIN 4 1d729 6 0 0 0 0 0 0 1 $T0 .raSearch = $eip $T0 ^ = $esp $T0 4 + = 
STACK WIN 4 1d72f 1d 6 0 4 0 0 0 1 $T0 $ebp = $eip $T0 4 + ^ = $ebp $T0 ^ = $esp $T0 8 + = 
STACK WIN 4 1d735 15 0 0 4 4 0 0 1 $T0 $ebp = $eip $T0 4 + ^ = $ebp $T0 ^ = $esp $T0 8 + =  $23 $T0 4 - ^ = 
STACK WIN 4 1d74c 49 10 0 4 0 8 0 1 $T0 $ebp = $eip $T0 4 + ^ = $ebp $T0 ^ = $esp $T0 8 + = 
STACK WIN 4 1d75c 35 0 0 4 4 8 0 1 $T0 $ebp = $eip $T0 4 + ^ = $ebp $T0 ^ = $esp $T0 8 + =  $23 $T0 12 - ^ = 
STACK WIN 4 1d795 4f 7 0 4 0 8 0 1 $T0 $ebp = $eip $T0 4 + ^ = $ebp $T0 ^ = $esp $T0 8 + = 
STACK WIN 4 1da5d 5d d 0 4 0 0 0 1 $T0 $ebp = $eip $T0 4 + ^ = $ebp $T0 ^ = $esp $T0 8 + = 
STACK WIN 4 1da69 4f 1 0 4 4 0 0 1 $T0 $ebp = $eip $T0 4 + ^ = $ebp $T0 ^ = $esp $T0 8 + =  $20 $T0 4 - ^ = 
STACK WIN 4 1da6a 4d 0 0 4 8 0 0 1 $T0 $ebp = $eip $T0 4 + ^ = $ebp $T0 ^ = $esp $T0 8 + =  $20 $T0 4 - ^ =  $23 $T0 8 - ^ = 
STACK WIN 4 1db21 1f 0 0 0 0 0 0 1 $T0 .raSearch = $eip $T0 ^ = $esp $T0 4 + = 
STACK WIN 4 1db40 17 0 0 0 0 0 0 1 $T0 .raSearch = $eip $T0 ^ = $esp $T0 4 + = 
STACK WIN 4 1db57 7d 5 0 4 0 0 0 1 $T0 $ebp = $eip $T0 4 + ^ = $ebp $T0 ^ = $esp $T0 8 + = 
STACK WIN 4 1db71 5f 0 0 4 4 0 0 1 $T0 $ebp = $eip $T0 4 + ^ = $ebp $T0 ^ = $esp $T0 8 + =  $24 $T0 4 - ^ = 
STACK WIN 4 1db9f c 0 0 4 8 0 0 1 $T0 $ebp = $eip $T0 4 + ^ = $ebp $T0 ^ = $esp $T0 8 + =  $24 $T0 4 - ^ =  $23 $T0 8 - ^ = 
STACK WIN 4 1dbd4 73 5 0 4 0 0 0 1 $T0 $ebp = $eip $T0 4 + ^ = $ebp $T0 ^ = $esp $T0 8 + = 
STACK WIN 4 1dc0f c 0 0 4 4 0 0 1 $T0 $ebp = $eip $T0 4 + ^ = $ebp $T0 ^ = $esp $T0 8 + =  $23 $T0 4 - ^ = 
STACK WIN 4 1dc47 71 5 0 4 0 0 0 1 $T0 $ebp = $eip $T0 4 + ^ = $ebp $T0 ^ = $esp $T0 8 + = 
STACK WIN 4 1dc80 c 0 0 4 4 0 0 1 $T0 $ebp = $eip $T0 4 + ^ = $ebp $T0 ^ = $esp $T0 8 + =  $23 $T0 4 - ^ = 
STACK WIN 4 1dcb8 80 5 0 4 0 0 0 1 $T0 $ebp = $eip $T0 4 + ^ = $ebp $T0 ^ = $esp $T0 8 + = 
STACK WIN 4 1dcd5 5f 0 0 4 4 0 0 1 $T0 $ebp = $eip $T0 4 + ^ = $ebp $T0 ^ = $esp $T0 8 + =  $24 $T0 4 - ^ = 
STACK WIN 4 1dd03 c 0 0 4 8 0 0 1 $T0 $ebp = $eip $T0 4 + ^ = $ebp $T0 ^ = $esp $T0 8 + =  $24 $T0 4 - ^ =  $23 $T0 8 - ^ = 
STACK WIN 4 1dd38 61 5 0 4 0 0 0 1 $T0 $ebp = $eip $T0 4 + ^ = $ebp $T0 ^ = $esp $T0 8 + = 
STACK WIN 4 1dd48 3a 0 0 4 4 0 0 1 $T0 $ebp = $eip $T0 4 + ^ = $ebp $T0 ^ = $esp $T0 8 + =  $23 $T0 4 - ^ = 
STACK WIN 4 1dd99 61 5 0 4 0 0 0 1 $T0 $ebp = $eip $T0 4 + ^ = $ebp $T0 ^ = $esp $T0 8 + = 
STACK WIN 4 1dda9 3a 0 0 4 4 0 0 1 $T0 $ebp = $eip $T0 4 + ^ = $ebp $T0 ^ = $esp $T0 8 + =  $23 $T0 4 - ^ = 
STACK WIN 4 1ddfa 43 7 0 0 0 8 0 1 $T0 $ebp = $eip $T0 4 + ^ = $ebp $T0 ^ = $esp $T0 8 + = 
STACK WIN 4 1de1f 1a 0 0 0 4 8 0 1 $T0 $ebp = $eip $T0 4 + ^ = $ebp $T0 ^ = $esp $T0 8 + =  $23 $T0 12 - ^ = 
STACK WIN 4 1de3d a8 7 0 0 0 8 0 1 $T0 $ebp = $eip $T0 4 + ^ = $ebp $T0 ^ = $esp $T0 8 + = 
STACK WIN 4 1dee5 80 b 0 4 0 20 0 1 $T0 $ebp = $eip $T0 4 + ^ = $ebp $T0 ^ = $esp $T0 8 + = 
STACK WIN 4 1deee 73 2 0 4 4 20 0 1 $T0 $ebp = $eip $T0 4 + ^ = $ebp $T0 ^ = $esp $T0 8 + =  $20 $T0 36 - ^ = 
STACK WIN 4 1deef 71 1 0 4 8 20 0 1 $T0 $ebp = $eip $T0 4 + ^ = $ebp $T0 ^ = $esp $T0 8 + =  $20 $T0 36 - ^ =  $23 $T0 40 - ^ = 
STACK WIN 4 1def0 6f 0 0 4 c 20 0 1 $T0 $ebp = $eip $T0 4 + ^ = $ebp $T0 ^ = $esp $T0 8 + =  $20 $T0 36 - ^ =  $23 $T0 40 - ^ =  $24 $T0 44 - ^ = 
STACK WIN 4 1df65 80 b 0 4 0 20 0 1 $T0 $ebp = $eip $T0 4 + ^ = $ebp $T0 ^ = $esp $T0 8 + = 
STACK WIN 4 1df6e 73 2 0 4 4 20 0 1 $T0 $ebp = $eip $T0 4 + ^ = $ebp $T0 ^ = $esp $T0 8 + =  $20 $T0 36 - ^ = 
STACK WIN 4 1df6f 71 1 0 4 8 20 0 1 $T0 $ebp = $eip $T0 4 + ^ = $ebp $T0 ^ = $esp $T0 8 + =  $20 $T0 36 - ^ =  $23 $T0 40 - ^ = 
STACK WIN 4 1df70 6f 0 0 4 c 20 0 1 $T0 $ebp = $eip $T0 4 + ^ = $ebp $T0 ^ = $esp $T0 8 + =  $20 $T0 36 - ^ =  $23 $T0 40 - ^ =  $24 $T0 44 - ^ = 
STACK WIN 4 1dfe5 de 8 0 0 0 c 0 1 $T0 $ebp = $eip $T0 4 + ^ = $ebp $T0 ^ = $esp $T0 8 + = 
STACK WIN 4 1e008 78 0 0 0 4 c 0 1 $T0 $ebp = $eip $T0 4 + ^ = $ebp $T0 ^ = $esp $T0 8 + =  $24 $T0 16 - ^ = 
STACK WIN 4 1e0c3 f 0 0 0 0 0 0 1 $T0 .raSearch = $eip $T0 ^ = $esp $T0 4 + = 
STACK WIN 4 1e953 218 1b 0 10 0 24 0 1 $T0 $ebp = $eip $T0 4 + ^ = $ebp $T0 ^ = $esp $T0 8 + = 
STACK WIN 4 1e96d 1f5 1 0 10 4 24 0 1 $T0 $ebp = $eip $T0 4 + ^ = $ebp $T0 ^ = $esp $T0 8 + =  $23 $T0 40 - ^ = 
STACK WIN 4 1e96e 1f1 0 0 10 8 24 0 1 $T0 $ebp = $eip $T0 4 + ^ = $ebp $T0 ^ = $esp $T0 8 + =  $23 $T0 40 - ^ =  $24 $T0 44 - ^ = 
STACK WIN 4 1eb6b b9 9 0 8 0 8 0 1 $T0 $ebp = $eip $T0 4 + ^ = $ebp $T0 ^ = $esp $T0 8 + = 
STACK WIN 4 1eb73 ad 1 0 8 4 8 0 1 $T0 $ebp = $eip $T0 4 + ^ = $ebp $T0 ^ = $esp $T0 8 + =  $20 $T0 12 - ^ = 
STACK WIN 4 1eb74 ab 0 0 8 8 8 0 1 $T0 $ebp = $eip $T0 4 + ^ = $ebp $T0 ^ = $esp $T0 8 + =  $20 $T0 12 - ^ =  $23 $T0 16 - ^ = 
STACK WIN 4 1ec24 13 6 0 0 0 4 0 1 $T0 $ebp = $eip $T0 4 + ^ = $ebp $T0 ^ = $esp $T0 8 + = 
STACK WIN 4 1ec37 2c 7 0 8 0 8 0 1 $T0 $ebp = $eip $T0 4 + ^ = $ebp $T0 ^ = $esp $T0 8 + = 
STACK WIN 4 1ec63 5b b 0 4 0 c 0 1 $T0 $ebp = $eip $T0 4 + ^ = $ebp $T0 ^ = $esp $T0 8 + = 
STACK WIN 4 1ecbe 12 6 0 0 0 4 0 1 $T0 $ebp = $eip $T0 4 + ^ = $ebp $T0 ^ = $esp $T0 8 + = 
STACK WIN 4 1ecd0 6a 7 0 8 0 8 0 1 $T0 $ebp = $eip $T0 4 + ^ = $ebp $T0 ^ = $esp $T0 8 + = 
STACK WIN 4 1ed3a 12b 5 0 14 0 0 0 1 $T0 $ebp = $eip $T0 4 + ^ = $ebp $T0 ^ = $esp $T0 8 + = 
STACK WIN 4 1ee65 10b 2f 0 c 8 88 0 1 $T0 $ebp = $T1 $ebx = $eip $T1 4 + ^ = $ebx $T1 ^ = $esp $T1 8 + = $ebp $ebp ^ =  $23 $T0 140 - ^ =  $24 $T0 144 - ^ = 
STACK WIN 4 1ef70 16 7 0 8 0 8 0 1 $T0 $ebp = $eip $T0 4 + ^ = $ebp $T0 ^ = $esp $T0 8 + = 
STACK WIN 4 1ef86 34 5 0 4 0 0 0 1 $T0 $ebp = $eip $T0 4 + ^ = $ebp $T0 ^ = $esp $T0 8 + = 
STACK WIN 4 1efba ce 2f 0 1c 8 88 0 1 $T0 $ebp = $T1 $ebx = $eip $T1 4 + ^ = $ebx $T1 ^ = $esp $T1 8 + = $ebp $ebp ^ =  $23 $T0 140 - ^ =  $24 $T0 144 - ^ = 
STACK WIN 4 1f088 1e0 d 0 c 0 10 0 1 $T0 $ebp = $eip $T0 4 + ^ = $ebp $T0 ^ = $esp $T0 8 + = 
STACK WIN 4 1f091 1d3 4 0 c 4 10 0 1 $T0 $ebp = $eip $T0 4 + ^ = $ebp $T0 ^ = $esp $T0 8 + =  $20 $T0 20 - ^ = 
STACK WIN 4 1f095 1cb 0 0 c 8 10 0 1 $T0 $ebp = $eip $T0 4 + ^ = $ebp $T0 ^ = $esp $T0 8 + =  $20 $T0 20 - ^ =  $23 $T0 24 - ^ = 
STACK WIN 4 1f185 b3 0 0 c c 10 0 1 $T0 $ebp = $eip $T0 4 + ^ = $ebp $T0 ^ = $esp $T0 8 + =  $20 $T0 20 - ^ =  $23 $T0 24 - ^ =  $24 $T0 28 - ^ = 
STACK WIN 4 1f268 23 5 0 18 0 0 0 1 $T0 $ebp = $eip $T0 4 + ^ = $ebp $T0 ^ = $esp $T0 8 + = 
STACK WIN 4 1f28b 2f1 15 0 1c 0 0 0 1 $T0 $ebp = $eip $T0 4 + ^ = $ebp $T0 ^ = $esp $T0 8 + = 
STACK WIN 4 1f296 2e4 a 0 1c 4 0 0 1 $T0 $ebp = $eip $T0 4 + ^ = $ebp $T0 ^ = $esp $T0 8 + =  $20 $T0 4 - ^ = 
STACK WIN 4 1f2a0 2d9 0 0 1c 8 0 0 1 $T0 $ebp = $eip $T0 4 + ^ = $ebp $T0 ^ = $esp $T0 8 + =  $20 $T0 4 - ^ =  $24 $T0 8 - ^ = 
STACK WIN 4 1f309 261 0 0 1c c 0 0 1 $T0 $ebp = $eip $T0 4 + ^ = $ebp $T0 ^ = $esp $T0 8 + =  $20 $T0 4 - ^ =  $24 $T0 8 - ^ =  $23 $T0 12 - ^ = 
STACK WIN 4 1f57c 2f 5 0 4 0 0 0 1 $T0 $ebp = $eip $T0 4 + ^ = $ebp $T0 ^ = $esp $T0 8 + = 
STACK WIN 4 1f5ab a2 b 0 24 0 20 0 1 $T0 $ebp = $eip $T0 4 + ^ = $ebp $T0 ^ = $esp $T0 8 + = 
STACK WIN 4 1f5ef 3d 0 0 24 4 20 0 1 $T0 $ebp = $eip $T0 4 + ^ = $ebp $T0 ^ = $esp $T0 8 + =  $23 $T0 36 - ^ = 
STACK WIN 4 1f64d d4 f 0 c 0 0 0 1 $T0 $ebp = $eip $T0 4 + ^ = $ebp $T0 ^ = $esp $T0 8 + = 
STACK WIN 4 1f65c c3 0 0 c 4 0 0 1 $T0 $ebp = $eip $T0 4 + ^ = $ebp $T0 ^ = $esp $T0 8 + =  $24 $T0 4 - ^ = 
STACK WIN 4 1f66b ae 0 0 c 8 0 0 1 $T0 $ebp = $eip $T0 4 + ^ = $ebp $T0 ^ = $esp $T0 8 + =  $24 $T0 4 - ^ =  $23 $T0 8 - ^ = 
STACK WIN 4 1f721 2f 7 0 c 0 8 0 1 $T0 $ebp = $eip $T0 4 + ^ = $ebp $T0 ^ = $esp $T0 8 + = 
STACK WIN 4 1f750 5e 5 0 8 0 0 0 1 $T0 $ebp = $eip $T0 4 + ^ = $ebp $T0 ^ = $esp $T0 8 + = 
STACK WIN 4 1f7ae a4 5 0 8 0 0 0 1 $T0 $ebp = $eip $T0 4 + ^ = $ebp $T0 ^ = $esp $T0 8 + = 
STACK WIN 4 1f860 43 b 0 8 0 0 0 1 $T0 $ebp = $eip $T0 4 + ^ = $ebp $T0 ^ = $esp $T0 8 + = 
STACK WIN 4 1f869 38 2 0 8 4 0 0 1 $T0 $ebp = $eip $T0 4 + ^ = $ebp $T0 ^ = $esp $T0 8 + =  $20 $T0 4 - ^ = 
STACK WIN 4 1f86a 36 1 0 8 8 0 0 1 $T0 $ebp = $eip $T0 4 + ^ = $ebp $T0 ^ = $esp $T0 8 + =  $20 $T0 4 - ^ =  $23 $T0 8 - ^ = 
STACK WIN 4 1f86b 34 0 0 8 c 0 0 1 $T0 $ebp = $eip $T0 4 + ^ = $ebp $T0 ^ = $esp $T0 8 + =  $20 $T0 4 - ^ =  $23 $T0 8 - ^ =  $24 $T0 12 - ^ = 
STACK WIN 4 1f8b0 ba 33 0 4 10 18 0 1 $T0 $ebp = $eip $T0 4 + ^ = $ebp $T0 ^ = $esp $T0 8 + =  $20 $T0 28 - ^ =  $23 $T0 32 - ^ =  $24 $T0 36 - ^ = 
STACK WIN 4 1f939 13 0 0 4 10 18 0 1 $T0 $ebp = $T2 $esp = $T1 .raSearchStart = $eip $T1 ^ = $ebp $T0 = $esp $T1 4 + = 
STACK WIN 4 1f970 31 3 0 4 0 0 0 1 $T0 $ebp = $eip $T0 4 + ^ = $ebp $T0 ^ = $esp $T0 8 + = 
STACK WIN 0 10bc6 d 0 0 0 0 0 0 0 0
STACK WIN 0 10c41 f 0 0 0 0 0 0 0 0
STACK WIN 0 10d16 1f 0 0 0 0 0 0 0 0
STACK WIN 0 1124d 13 0 0 0 0 0 0 0 0
STACK WIN 0 117d0 12b 0 0 8 0 0 0 0 0
STACK WIN 0 11902 572 2 0 c 8 0 0 0 0
STACK WIN 0 11e80 ad 0 0 4 0 0 0 0 0
STACK WIN 0 12510 15a 0 0 c 0 0 0 0 0
STACK WIN 0 12690 90 3 0 c c 0 0 0 0
STACK WIN 0 12720 46 0 0 10 4 0 0 0 1
STACK WIN 0 1278e 17 4 0 0 10 0 0 0 1
STACK WIN 0 127a5 19 0 0 0 0 0 0 0 0
STACK WIN 0 127d7 17 1 0 8 4 0 0 0 1
STACK WIN 0 12a15 84 3 0 8 c 0 0 0 0
STACK WIN 0 12a99 23 0 0 0 0 0 0 0 0
STACK WIN 0 12ae4 3 0 0 0 0 0 0 0 0
STACK WIN 0 1303f f 0 0 0 0 0 0 0 0
STACK WIN 0 14bc0 124 0 0 c 0 0 0 0 0
STACK WIN 0 14dcd d 0 0 0 0 0 0 0 0
STACK WIN 0 14e78 c 0 0 0 0 0 0 0 0
STACK WIN 0 151ca 10 0 0 0 0 0 0 0 0
STACK WIN 0 151e2 c 0 0 0 0 0 0 0 0
STACK WIN 0 15863 f 0 0 0 0 0 0 0 0
STACK WIN 0 158b4 f 0 0 0 0 0 0 0 0
STACK WIN 0 15d8c 4 0 0 0 0 0 0 0 0
STACK WIN 0 1649e c 0 0 0 0 0 0 0 0
STACK WIN 0 164ff c 0 0 0 0 0 0 0 0
STACK WIN 0 1654a c 0 0 0 0 0 0 0 0
STACK WIN 0 16592 c 0 0 0 0 0 0 0 0
STACK WIN 0 169f5 9 0 0 0 0 0 0 0 0
STACK WIN 0 16f30 9 0 0 0 0 0 0 0 0
STACK WIN 0 1708e 10 0 0 0 0 0 0 0 0
STACK WIN 0 170bb c 0 0 0 0 0 0 0 0
STACK WIN 0 172bb c 0 0 0 0 0 0 0 0
STACK WIN 0 184e4 f 0 0 0 0 0 0 0 0
STACK WIN 0 18bbb c 0 0 0 0 0 0 0 0
STACK WIN 0 1910a c 0 0 0 0 0 0 0 0
STACK WIN 0 19601 f 0 0 0 0 0 0 0 0
STACK WIN 0 198df 1e 0 0 0 0 0 0 0 0
STACK WIN 0 1a099 c 0 0 0 0 0 0 0 0
STACK WIN 0 1a612 f 0 0 0 0 0 0 0 0
STACK WIN 0 1ad04 e 0 0 0 0 0 0 0 0
STACK WIN 0 1b07a c 0 0 0 0 0 0 0 0
STACK WIN 0 1cdc2 76 2 0 c 8 0 0 0 0
STACK WIN 0 1d5fa 11 0 0 0 0 0 0 0 0
STACK WIN 0 1f939 13 0 0 0 0 0 0 0 0
STACK WIN 0 1f9b0 95 0 0 10 0 4 0 0 0
STACK WIN 0 1fab0 1a 0 0 10 0 0 0 0 0
STACK WIN 0 1faca 1a 0 0 10 0 4 0 0 0
STACK WIN 0 1faf0 df 0 0 10 0 c 0 0 1
STACK WIN 0 1fbd0 1f 0 0 0 0 0 0 0 0
STACK WIN 0 1fc50 1f 0 0 0 0 0 0 0 0
STACK WIN 0 1fd32 572 2 0 c 8 0 0 0 0
STACK WIN 0 202b0 137 0 0 8 0 0 0 0 0
