MODULE windows x86 81E4FB6568D744888540822AC946F6A01 spellchecker.pdb
INFO CODE_ID 5BD84BE466000 spellchecker.node
FUNC 1000 bc 0 Nan::imp::FunctionCallbackWrapper
FUNC 10c0 153 8 Nan::imp::Factory<v8::FunctionTemplate>::New(void (*)(Nan::FunctionCallbackInfo<v8::Value> const &),v8::Local<v8::Value>,v8::Local<v8::Signature>)
FUNC 1220 72 0 Nan::ThrowError(char const *)
FUNC 12a0 9c 0 Nan::ObjectWrap::Wrap(v8::Local<v8::Object>)
FUNC 1340 2e 0 Nan::ObjectWrap::Ref()
FUNC 1370 7c 0 Nan::ObjectWrap::Unref()
FUNC 13f0 6c 0 Nan::ObjectWrap::WeakCallback(v8::WeakCallbackInfo<Nan::ObjectWrap> const &)
FUNC 1460 73 0 Nan::ObjectWrap::`scalar deleting destructor'(unsigned int)
FUNC 14e0 8c 0 `anonymous namespace'::Spellchecker::New
FUNC 1570 218 4 `anonymous namespace'::Spellchecker::SetDictionary
FUNC 1790 12d 4 `anonymous namespace'::Spellchecker::IsMisspelled
FUNC 18c0 2ff 0 `anonymous namespace'::Spellchecker::CheckSpelling
FUNC 1bc0 101 4 `anonymous namespace'::Spellchecker::Add
FUNC 1cd0 101 4 `anonymous namespace'::Spellchecker::Remove
FUNC 1de0 24e 4 `anonymous namespace'::Spellchecker::GetAvailableDictionaries
FUNC 2030 22f 4 `anonymous namespace'::Spellchecker::GetCorrectionsForMisspelling
FUNC 2260 71 0 `anonymous namespace'::Spellchecker::~Spellchecker
FUNC 22e0 1a2 0 `anonymous namespace'::Spellchecker::Init
FUNC 2490 20 0 `anonymous namespace'::Spellchecker::`scalar deleting destructor'(unsigned int)
FUNC 24b0 b 0 `anonymous namespace'::Init
FUNC 24c0 d 0 _register_spellchecker
FUNC 24d0 5c 0 std::vector<unsigned short,std::allocator<unsigned short> >::vector<unsigned short,std::allocator<unsigned short> >(unsigned int)
FUNC 2530 4f 0 std::vector<std::basic_string<char,std::char_traits<char>,std::allocator<char> >,std::allocator<std::basic_string<char,std::char_traits<char>,std::allocator<char> > > >::~vector<std::basic_string<char,std::char_traits<char>,std::allocator<char> >,std::allocator<std::basic_string<char,std::char_traits<char>,std::allocator<char> > > >()
FUNC 2580 f1 0 std::basic_string<char,std::char_traits<char>,std::allocator<char> >::assign(char const *,unsigned int)
FUNC 2680 103 0 std::basic_string<char,std::char_traits<char>,std::allocator<char> >::assign(std::basic_string<char,std::char_traits<char>,std::allocator<char> > const &,unsigned int,unsigned int)
FUNC 2790 5a 0 std::_Wrap_alloc<std::allocator<std::basic_string<char,std::char_traits<char>,std::allocator<char> > > >::deallocate(std::basic_string<char,std::char_traits<char>,std::allocator<char> > *,unsigned int)
FUNC 27f0 57 0 std::_Wrap_alloc<std::allocator<spellchecker::MisspelledRange> >::deallocate(spellchecker::MisspelledRange *,unsigned int)
FUNC 2850 56 0 std::_Wrap_alloc<std::allocator<unsigned short> >::deallocate(unsigned short *,unsigned int)
FUNC 28b0 56 0 std::_Wrap_alloc<std::allocator<unsigned short> >::allocate(unsigned int)
FUNC 2910 46 0 std::_Wrap_alloc<std::allocator<char> >::deallocate(char *,unsigned int)
FUNC 2960 72 0 std::basic_string<char,std::char_traits<char>,std::allocator<char> >::erase(unsigned int,unsigned int)
FUNC 29e0 ed 0 std::basic_string<char,std::char_traits<char>,std::allocator<char> >::_Copy(unsigned int,unsigned int)
FUNC 2ad0 48 0 std::_Wrap_alloc<std::allocator<char> >::allocate(unsigned int)
FUNC 2b20 6d 0 Nan::ObjectWrap::Unwrap<`anonymous namespace'::Spellchecker>(v8::Local<v8::Object>)
FUNC 2b90 8d 0 Nan::SetMethod<v8::ObjectTemplate,v8::Local>(v8::Local<v8::ObjectTemplate>,char const *,void (*)(Nan::FunctionCallbackInfo<v8::Value> const &))
FUNC 2c20 4b 0 std::_Destroy_range1<std::allocator<std::basic_string<char,std::char_traits<char>,std::allocator<char> > >,std::basic_string<char,std::char_traits<char>,std::allocator<char> > *>(std::basic_string<char,std::char_traits<char>,std::allocator<char> > *,std::basic_string<char,std::char_traits<char>,std::allocator<char> > *,std::_Wrap_alloc<std::allocator<std::basic_string<char,std::char_traits<char>,std::allocator<char> > > > &,std::integral_constant<bool,0>)
FUNC 2c70 21 0 spellchecker::SpellcheckerImplementation::`scalar deleting destructor'(unsigned int)
FUNC 2ca0 54 0 spellchecker::HunspellSpellchecker::`scalar deleting destructor'(unsigned int)
FUNC 2d00 2b 0 spellchecker::HunspellSpellchecker::SetDictionary(std::basic_string<char,std::char_traits<char>,std::allocator<char> > const &)
FUNC 2d30 47 0 spellchecker::HunspellSpellchecker::SetDictionaryToContents(unsigned char const *,unsigned int)
FUNC 2d80 1b 0 spellchecker::HunspellSpellchecker::GetAvailableDictionaries(std::basic_string<char,std::char_traits<char>,std::allocator<char> > const &)
FUNC 2da0 29 0 spellchecker::HunspellSpellchecker::IsMisspelled(std::basic_string<char,std::char_traits<char>,std::allocator<char> > const &)
FUNC 2dd0 1d0 0 spellchecker::HunspellSpellchecker::CheckSpelling(unsigned short const *,unsigned int)
FUNC 2fa0 1f 0 spellchecker::HunspellSpellchecker::Add(std::basic_string<char,std::char_traits<char>,std::allocator<char> > const &)
FUNC 2fc0 26 0 spellchecker::HunspellSpellchecker::Remove(std::basic_string<char,std::char_traits<char>,std::allocator<char> > const &)
FUNC 2ff0 127 4 spellchecker::HunspellSpellchecker::GetCorrectionsForMisspelling(std::basic_string<char,std::char_traits<char>,std::allocator<char> > const &)
FUNC 3120 103 0 std::vector<spellchecker::MisspelledRange,std::allocator<spellchecker::MisspelledRange> >::push_back(spellchecker::MisspelledRange const &)
FUNC 3230 b9 0 std::vector<std::basic_string<char,std::char_traits<char>,std::allocator<char> >,std::allocator<std::basic_string<char,std::char_traits<char>,std::allocator<char> > > >::push_back(std::basic_string<char,std::char_traits<char>,std::allocator<char> > &&)
FUNC 32f0 41 0 std::vector<std::basic_string<char,std::char_traits<char>,std::allocator<char> >,std::allocator<std::basic_string<char,std::char_traits<char>,std::allocator<char> > > >::vector<std::basic_string<char,std::char_traits<char>,std::allocator<char> >,std::allocator<std::basic_string<char,std::char_traits<char>,std::allocator<char> > > >(std::vector<std::basic_string<char,std::char_traits<char>,std::allocator<char> >,std::allocator<std::basic_string<char,std::char_traits<char>,std::allocator<char> > > > &&)
FUNC 3340 4c 0 std::vector<char,std::allocator<char> >::vector<char,std::allocator<char> >(unsigned int)
FUNC 3390 89 0 std::vector<std::basic_string<char,std::char_traits<char>,std::allocator<char> >,std::allocator<std::basic_string<char,std::char_traits<char>,std::allocator<char> > > >::_Reserve(unsigned int)
FUNC 3420 ef 0 std::vector<std::basic_string<char,std::char_traits<char>,std::allocator<char> >,std::allocator<std::basic_string<char,std::char_traits<char>,std::allocator<char> > > >::_Reallocate(unsigned int)
FUNC 3510 63 0 std::vector<char,std::allocator<char> >::_Tidy()
FUNC 3580 9d 0 std::vector<spellchecker::MisspelledRange,std::allocator<spellchecker::MisspelledRange> >::_Reallocate(unsigned int)
FUNC 3620 93 0 std::_Uninitialized_move_al_unchecked1<std::basic_string<char,std::char_traits<char>,std::allocator<char> > *,std::basic_string<char,std::char_traits<char>,std::allocator<char> > *,std::allocator<std::basic_string<char,std::char_traits<char>,std::allocator<char> > > >(std::basic_string<char,std::char_traits<char>,std::allocator<char> > *,std::basic_string<char,std::char_traits<char>,std::allocator<char> > *,std::basic_string<char,std::char_traits<char>,std::allocator<char> > *,std::_Wrap_alloc<std::allocator<std::basic_string<char,std::char_traits<char>,std::allocator<char> > > > &,std::_General_ptr_iterator_tag,std::_Any_tag)
FUNC 36c0 111 0 spellchecker::ToUTF8(std::basic_string<wchar_t,std::char_traits<wchar_t>,std::allocator<wchar_t> > const &)
FUNC 37e0 131 0 spellchecker::ToWString(std::basic_string<char,std::char_traits<char>,std::allocator<char> > const &)
FUNC 3920 67 0 spellchecker::WindowsSpellchecker::WindowsSpellchecker()
FUNC 3990 62 0 spellchecker::WindowsSpellchecker::`scalar deleting destructor'(unsigned int)
FUNC 3a00 15d 4 spellchecker::WindowsSpellchecker::SetDictionary(std::basic_string<char,std::char_traits<char>,std::allocator<char> > const &)
FUNC 3b60 5 0 spellchecker::WindowsSpellchecker::SetDictionaryToContents(unsigned char const *,unsigned int)
FUNC 3b70 174 4 spellchecker::WindowsSpellchecker::GetAvailableDictionaries(std::basic_string<char,std::char_traits<char>,std::allocator<char> > const &)
FUNC 3cf0 c6 4 spellchecker::WindowsSpellchecker::IsMisspelled(std::basic_string<char,std::char_traits<char>,std::allocator<char> > const &)
FUNC 3dc0 157 8 spellchecker::WindowsSpellchecker::CheckSpelling(unsigned short const *,unsigned int)
FUNC 3f20 67 4 spellchecker::WindowsSpellchecker::Add(std::basic_string<char,std::char_traits<char>,std::allocator<char> > const &)
FUNC 3f90 3 0 spellchecker::WindowsSpellchecker::Remove(std::basic_string<char,std::char_traits<char>,std::allocator<char> > const &)
FUNC 3fa0 1dd 4 spellchecker::WindowsSpellchecker::GetCorrectionsForMisspelling(std::basic_string<char,std::char_traits<char>,std::allocator<char> > const &)
FUNC 4180 68 0 spellchecker::SpellcheckerFactory::CreateSpellchecker()
FUNC 41f0 38 0 std::basic_string<wchar_t,std::char_traits<wchar_t>,std::allocator<wchar_t> >::~basic_string<wchar_t,std::char_traits<wchar_t>,std::allocator<wchar_t> >()
FUNC 4230 f4 0 std::basic_string<wchar_t,std::char_traits<wchar_t>,std::allocator<wchar_t> >::assign(wchar_t const *,unsigned int)
FUNC 4330 69 0 std::basic_string<wchar_t,std::char_traits<wchar_t>,std::allocator<wchar_t> >::_Assign_rv(std::basic_string<wchar_t,std::char_traits<wchar_t>,std::allocator<wchar_t> > &&)
FUNC 43a0 113 0 std::basic_string<wchar_t,std::char_traits<wchar_t>,std::allocator<wchar_t> >::assign(std::basic_string<wchar_t,std::char_traits<wchar_t>,std::allocator<wchar_t> > const &,unsigned int,unsigned int)
FUNC 44c0 ca 0 std::basic_string<wchar_t,std::char_traits<wchar_t>,std::allocator<wchar_t> >::_Copy(unsigned int,unsigned int)
FUNC 4590 82 0 std::basic_string<wchar_t,std::char_traits<wchar_t>,std::allocator<wchar_t> >::erase(unsigned int,unsigned int)
FUNC 4620 6 0 __local_stdio_printf_options
FUNC 4630 36 8 sprintf
FUNC 4670 184 0 Hunspell::Hunspell(unsigned char const *,unsigned int)
FUNC 4800 b6 0 Hunspell::~Hunspell()
FUNC 48c0 108 0 Hunspell::cleanword2(char *,char const *,w_char *,int *,int *,int *)
FUNC 49d0 2e1 0 Hunspell::cleanword(char *,char const *,int *,int *)
FUNC 4cc0 144 0 Hunspell::mkallcap(char *)
FUNC 4e10 100 0 Hunspell::mkallsmall2(char *,w_char *,int)
FUNC 4f10 ee 0 Hunspell::spellsharps(char *,char *,int,int,char *,int *,char * *)
FUNC 5000 3e 0 Hunspell::is_keepcase(hentry const *)
FUNC 5040 8d 0 Hunspell::insert_sug(char * * *,char *,int)
FUNC 50d0 9e8 c Hunspell::spell(char const *,int *,char * *)
FUNC 5ac0 4ed 0 Hunspell::checkword(char const *,int *,char * *)
FUNC 5fb0 107c 0 Hunspell::suggest(char * * *,char const *)
FUNC 7030 40c 0 Hunspell::stem(char * * *,char * *,int)
FUNC 7440 3a 0 Hunspell::stem(char * * *,char const *)
FUNC 7480 d7 0 Hunspell::mkinitcap(char *)
FUNC 7560 b0 0 Hunspell::mkinitcap2(char *,w_char *,int)
FUNC 7610 b0 0 Hunspell::mkinitsmall2(char *,w_char *,int)
FUNC 76c0 63 0 Hunspell::add(char const *)
FUNC 7730 3b 0 Hunspell::cat_result(char *,char *)
FUNC 7770 754 0 Hunspell::analyze(char * * *,char const *)
FUNC 7ed0 1f4 0 Hunspell::generate(char * * *,char const *,char * *,int)
FUNC 80d0 48 0 Hunspell::generate(char * * *,char const *,char const *)
FUNC 8120 86 0 Hunspell::get_xml_par(char *,char const *,int)
FUNC 81b0 45 0 Hunspell::get_xml_pos(char const *,char const *)
FUNC 8200 9e 0 Hunspell::check_xml_par(char const *,char const *,char const *)
FUNC 82a0 e6 0 Hunspell::get_xml_list(char * * *,char *,char const *)
FUNC 8390 348 0 Hunspell::spellml(char * * *,char const *)
FUNC 86e0 1 0 HUNSPELL_WARNING
FUNC 86f0 9a 0 u16_u8(char *,int,w_char const *,int)
FUNC 8790 235 0 u8_u16(w_char *,int,char const *)
FUNC 89d0 6d 0 flag_qsort(unsigned short * const,int,int)
FUNC 8a40 48 0 flag_bsearch(unsigned short * const,unsigned short,int)
FUNC 8a90 52 0 mystrdup(char const *)
FUNC 8af0 56 0 mystrcat(char *,char const *,int)
FUNC 8b50 18f 0 line_tok(char const *,char * * *,char)
FUNC 8ce0 139 0 line_uniq(char *,char)
FUNC 8e20 1fe 0 line_uniq_app(char * *,char)
FUNC 9020 af 0 strlinecat(char *,char const *)
FUNC 90d0 2f1 0 morphcmp(char const *,char const *)
FUNC 93d0 88 0 get_sfxcount(char const *)
FUNC 9460 123 0 mystrrep(char *,char const *,char const *)
FUNC 9590 2a 0 reverseword(char *)
FUNC 95c0 a5 0 reverseword_utf(char *)
FUNC 9670 a9 0 uniqlist(char * *,int)
FUNC 9720 4b 0 freelist(char * * *,int)
FUNC 9770 1d 0 mkallsmall(char *,cs_info const *)
FUNC 9790 bd 0 mkallsmall_utf(w_char *,int,int)
FUNC 9850 bd 0 mkallcap_utf(w_char *,int,int)
FUNC 9910 f4 0 get_current_cs(char const *)
FUNC 9a10 61 0 get_lang_num(char const *)
FUNC 9a80 a0 0 initialize_utf_tbl()
FUNC 9b20 d3 0 get_captype(char *,int,cs_info *)
FUNC 9c00 1a2 0 get_captype_utf8(w_char *,int,int)
FUNC 9db0 d6 0 remove_ignored_chars_utf(char *,unsigned short * const,int)
FUNC 9e90 33 0 remove_ignored_chars(char *,char *)
FUNC 9ed0 13b 0 parse_string(char *,char * *,int)
FUNC a010 29 0 hunspell::NodeReader::is_list()
FUNC a040 41 0 hunspell::NodeReader::NodeReader(unsigned char const *,unsigned int,unsigned int,int)
FUNC a090 ae 8 hunspell::NodeReader::FindWord(unsigned char const *,int * const)
FUNC a140 a0 0 hunspell::NodeReader::GetChildAt(int,char *,hunspell::NodeReader *)
FUNC a1e0 d1 0 hunspell::NodeReader::CompareLeafNode(unsigned char const *,int * const)
FUNC a2c0 e6 0 hunspell::NodeReader::FillAffixesForLeafMatch(unsigned int,int * const)
FUNC a3b0 f0 0 hunspell::NodeReader::FindInLookup(unsigned char const *,int * const)
FUNC a4a0 92 0 hunspell::NodeReader::ReaderForLookup0th(hunspell::NodeReader *)
FUNC a540 12f 0 hunspell::NodeReader::ReaderForLookupAt(unsigned int,char *,hunspell::NodeReader *)
FUNC a670 10d 0 hunspell::NodeReader::FindInList(unsigned char const *,int * const)
FUNC a780 165 0 hunspell::NodeReader::ReaderForListAt(unsigned int,char *,hunspell::NodeReader *)
FUNC a8f0 f4 0 hunspell::WordIterator::Advance(char *,unsigned int,int * const)
FUNC a9f0 c8 0 hunspell::WordIterator::FoundLeaf(hunspell::NodeReader const &,char,char *,unsigned int,int * const)
FUNC aac0 68 0 hunspell::LineIterator::AdvanceAndCopy(char *,unsigned int)
FUNC ab30 80 0 hunspell::ReplacementIterator::GetNext(char const * *,char const * *)
FUNC abb0 f2 0 std::vector<hunspell::WordIterator::NodeInfo,std::allocator<hunspell::WordIterator::NodeInfo> >::push_back(hunspell::WordIterator::NodeInfo &&)
FUNC acb0 13a 0 std::vector<hunspell::WordIterator::NodeInfo,std::allocator<hunspell::WordIterator::NodeInfo> >::operator=(std::vector<hunspell::WordIterator::NodeInfo,std::allocator<hunspell::WordIterator::NodeInfo> > const &)
FUNC adf0 58 0 std::_Wrap_alloc<std::allocator<hunspell::WordIterator::NodeInfo> >::deallocate(hunspell::WordIterator::NodeInfo *,unsigned int)
FUNC ae50 57 0 std::_Wrap_alloc<std::allocator<hunspell::WordIterator::NodeInfo> >::allocate(unsigned int)
FUNC aeb0 bc 0 std::vector<hunspell::WordIterator::NodeInfo,std::allocator<hunspell::WordIterator::NodeInfo> >::_Reallocate(unsigned int)
FUNC af70 82 0 base::operator<(base::BasicStringPiece<std::basic_string<char,std::char_traits<char>,std::allocator<char> > > const &,base::BasicStringPiece<std::basic_string<char,std::char_traits<char>,std::allocator<char> > > const &)
FUNC b000 14c 0 HashMgr::HashMgr(hunspell::BDictReader *)
FUNC b150 295 0 HashMgr::~HashMgr()
FUNC b3f0 68 0 HashMgr::EmptyHentryCache()
FUNC b460 10c 4 HashMgr::lookup(char const *)
FUNC b570 fd 0 HashMgr::add_word(char const *,int,int,unsigned short *,int,char const *,bool)
FUNC b670 139 20 HashMgr::add_hidden_capitalized_word(char *,int,int,unsigned short *,int,char *,int)
FUNC b7b0 8e 0 HashMgr::get_clen_and_captype(char const *,int,int *)
FUNC b840 6f 0 HashMgr::remove(char const *)
FUNC b8b0 e3 0 HashMgr::remove_forbidden_flag(char const *)
FUNC b9a0 28e 0 HashMgr::walk_hashtable(int &,hentry *)
FUNC bc30 23c 0 HashMgr::decode_flags(unsigned short * *,char *,FileMgr *)
FUNC be70 99 0 HashMgr::decode_flag(char const *)
FUNC bf10 ec 0 HashMgr::encode_flag(unsigned short)
FUNC c000 443 0 HashMgr::load_config(char const *,char const *)
FUNC c450 38e 0 HashMgr::parse_aliasf(char *,FileMgr *)
FUNC c7e0 a5 0 HashMgr::LoadAFLines()
FUNC c890 206 0 HashMgr::AffixIDsToHentry(char *,int *,int)
FUNC caa0 32f 0 HashMgr::parse_aliasm(char *,FileMgr *)
FUNC cdd0 5f 0 std::vector<std::basic_string<char,std::char_traits<char>,std::allocator<char> > *,std::allocator<std::basic_string<char,std::char_traits<char>,std::allocator<char> > *> >::push_back(std::basic_string<char,std::char_traits<char>,std::allocator<char> > * const &)
FUNC ce30 5e 0 std::_Tree<std::_Tmap_traits<base::BasicStringPiece<std::basic_string<char,std::char_traits<char>,std::allocator<char> > >,int,std::less<base::BasicStringPiece<std::basic_string<char,std::char_traits<char>,std::allocator<char> > > >,std::allocator<std::pair<base::BasicStringPiece<std::basic_string<char,std::char_traits<char>,std::allocator<char> > > const ,int> >,0> >::find(base::BasicStringPiece<std::basic_string<char,std::char_traits<char>,std::allocator<char> > > const &)
FUNC ce90 2a4 0 std::_Tree<std::_Tmap_traits<base::BasicStringPiece<std::basic_string<char,std::char_traits<char>,std::allocator<char> > >,int,std::less<base::BasicStringPiece<std::basic_string<char,std::char_traits<char>,std::allocator<char> > > >,std::allocator<std::pair<base::BasicStringPiece<std::basic_string<char,std::char_traits<char>,std::allocator<char> > > const ,int> >,0> >::erase(std::_Tree_const_iterator<std::_Tree_val<std::_Tree_simple_types<std::pair<base::BasicStringPiece<std::basic_string<char,std::char_traits<char>,std::allocator<char> > > const ,int> > > >)
FUNC d140 63 0 std::_Tree<std::_Tmap_traits<std::basic_string<char,std::char_traits<char>,std::allocator<char> >,hentry *,std::less<std::basic_string<char,std::char_traits<char>,std::allocator<char> > >,std::allocator<std::pair<std::basic_string<char,std::char_traits<char>,std::allocator<char> > const ,hentry *> >,0> >::_Erase(std::_Tree_node<std::pair<std::basic_string<char,std::char_traits<char>,std::allocator<char> > const ,hentry *>,void *> *)
FUNC d1b0 39 0 std::less<std::basic_string<char,std::char_traits<char>,std::allocator<char> > >::operator()(std::basic_string<char,std::char_traits<char>,std::allocator<char> > const &,std::basic_string<char,std::char_traits<char>,std::allocator<char> > const &)
FUNC d1f0 5f 0 std::vector<std::basic_string<char,std::char_traits<char>,std::allocator<char> > *,std::allocator<std::basic_string<char,std::char_traits<char>,std::allocator<char> > *> >::_Reserve(unsigned int)
FUNC d250 53 0 std::_Tree<std::_Tmap_traits<base::BasicStringPiece<std::basic_string<char,std::char_traits<char>,std::allocator<char> > >,int,std::less<base::BasicStringPiece<std::basic_string<char,std::char_traits<char>,std::allocator<char> > > >,std::allocator<std::pair<base::BasicStringPiece<std::basic_string<char,std::char_traits<char>,std::allocator<char> > > const ,int> >,0> >::_Rrotate(std::_Tree_node<std::pair<base::BasicStringPiece<std::basic_string<char,std::char_traits<char>,std::allocator<char> > > const ,int>,void *> *)
FUNC d2b0 4f 0 std::_Tree<std::_Tmap_traits<base::BasicStringPiece<std::basic_string<char,std::char_traits<char>,std::allocator<char> > >,int,std::less<base::BasicStringPiece<std::basic_string<char,std::char_traits<char>,std::allocator<char> > > >,std::allocator<std::pair<base::BasicStringPiece<std::basic_string<char,std::char_traits<char>,std::allocator<char> > > const ,int> >,0> >::_Lrotate(std::_Tree_node<std::pair<base::BasicStringPiece<std::basic_string<char,std::char_traits<char>,std::allocator<char> > > const ,int>,void *> *)
FUNC d300 83 0 std::basic_string<char,std::char_traits<char>,std::allocator<char> >::_Traits_compare(char const * const,unsigned int,char const * const,unsigned int)
FUNC d390 4f 0 std::_Tree_unchecked_const_iterator<std::_Tree_val<std::_Tree_simple_types<std::pair<base::BasicStringPiece<std::basic_string<char,std::char_traits<char>,std::allocator<char> > > const ,int> > >,std::_Iterator_base0>::operator++()
FUNC d3e0 7c 0 std::_Tree<std::_Tmap_traits<std::basic_string<char,std::char_traits<char>,std::allocator<char> >,hentry *,std::less<std::basic_string<char,std::char_traits<char>,std::allocator<char> > >,std::allocator<std::pair<std::basic_string<char,std::char_traits<char>,std::allocator<char> > const ,hentry *> >,0> >::erase(std::_Tree_const_iterator<std::_Tree_val<std::_Tree_simple_types<std::pair<std::basic_string<char,std::char_traits<char>,std::allocator<char> > const ,hentry *> > > >,std::_Tree_const_iterator<std::_Tree_val<std::_Tree_simple_types<std::pair<std::basic_string<char,std::char_traits<char>,std::allocator<char> > const ,hentry *> > > >)
FUNC d460 57 0 std::_Wrap_alloc<std::allocator<std::basic_string<char,std::char_traits<char>,std::allocator<char> > *> >::deallocate(std::basic_string<char,std::char_traits<char>,std::allocator<char> > * *,unsigned int)
FUNC d4c0 9d 0 std::vector<std::basic_string<char,std::char_traits<char>,std::allocator<char> > *,std::allocator<std::basic_string<char,std::char_traits<char>,std::allocator<char> > *> >::_Reallocate(unsigned int)
FUNC d560 5e 0 std::_Tree<std::_Tmap_traits<base::BasicStringPiece<std::basic_string<char,std::char_traits<char>,std::allocator<char> > >,int,std::less<base::BasicStringPiece<std::basic_string<char,std::char_traits<char>,std::allocator<char> > > >,std::allocator<std::pair<base::BasicStringPiece<std::basic_string<char,std::char_traits<char>,std::allocator<char> > > const ,int> >,0> >::erase(std::_Tree_const_iterator<std::_Tree_val<std::_Tree_simple_types<std::pair<base::BasicStringPiece<std::basic_string<char,std::char_traits<char>,std::allocator<char> > > const ,int> > > >,std::_Tree_const_iterator<std::_Tree_val<std::_Tree_simple_types<std::pair<base::BasicStringPiece<std::basic_string<char,std::char_traits<char>,std::allocator<char> > > const ,int> > > >)
FUNC d5c0 403 0 std::_Tree<std::_Tmap_traits<std::basic_string<char,std::char_traits<char>,std::allocator<char> >,hentry *,std::less<std::basic_string<char,std::char_traits<char>,std::allocator<char> > >,std::allocator<std::pair<std::basic_string<char,std::char_traits<char>,std::allocator<char> > const ,hentry *> >,0> >::erase(std::_Tree_const_iterator<std::_Tree_val<std::_Tree_simple_types<std::pair<std::basic_string<char,std::char_traits<char>,std::allocator<char> > const ,hentry *> > > >)
FUNC d9d0 48 0 std::_Tree<std::_Tmap_traits<base::BasicStringPiece<std::basic_string<char,std::char_traits<char>,std::allocator<char> > >,int,std::less<base::BasicStringPiece<std::basic_string<char,std::char_traits<char>,std::allocator<char> > > >,std::allocator<std::pair<base::BasicStringPiece<std::basic_string<char,std::char_traits<char>,std::allocator<char> > > const ,int> >,0> >::clear()
FUNC da20 34 0 std::_Tree<std::_Tmap_traits<base::BasicStringPiece<std::basic_string<char,std::char_traits<char>,std::allocator<char> > >,int,std::less<base::BasicStringPiece<std::basic_string<char,std::char_traits<char>,std::allocator<char> > > >,std::allocator<std::pair<base::BasicStringPiece<std::basic_string<char,std::char_traits<char>,std::allocator<char> > > const ,int> >,0> >::_Erase(std::_Tree_node<std::pair<base::BasicStringPiece<std::basic_string<char,std::char_traits<char>,std::allocator<char> > > const ,int>,void *> *)
FUNC da60 5a 0 std::_Tree<std::_Tmap_traits<std::basic_string<char,std::char_traits<char>,std::allocator<char> >,hentry *,std::less<std::basic_string<char,std::char_traits<char>,std::allocator<char> > >,std::allocator<std::pair<std::basic_string<char,std::char_traits<char>,std::allocator<char> > const ,hentry *> >,0> >::_Lbound<std::basic_string<char,std::char_traits<char>,std::allocator<char> > >(std::basic_string<char,std::char_traits<char>,std::allocator<char> > const &)
FUNC dac0 7f 0 std::map<std::basic_string<char,std::char_traits<char>,std::allocator<char> >,hentry *,std::less<std::basic_string<char,std::char_traits<char>,std::allocator<char> > >,std::allocator<std::pair<std::basic_string<char,std::char_traits<char>,std::allocator<char> > const ,hentry *> > >::_Try_emplace<std::basic_string<char,std::char_traits<char>,std::allocator<char> > const &>(std::basic_string<char,std::char_traits<char>,std::allocator<char> > const &)
FUNC db40 d2 0 std::map<base::BasicStringPiece<std::basic_string<char,std::char_traits<char>,std::allocator<char> > >,int,std::less<base::BasicStringPiece<std::basic_string<char,std::char_traits<char>,std::allocator<char> > > >,std::allocator<std::pair<base::BasicStringPiece<std::basic_string<char,std::char_traits<char>,std::allocator<char> > > const ,int> > >::_Try_emplace<base::BasicStringPiece<std::basic_string<char,std::char_traits<char>,std::allocator<char> > > const &>(base::BasicStringPiece<std::basic_string<char,std::char_traits<char>,std::allocator<char> > > const &)
FUNC dc20 80 0 std::_Tree<std::_Tmap_traits<std::basic_string<char,std::char_traits<char>,std::allocator<char> >,hentry *,std::less<std::basic_string<char,std::char_traits<char>,std::allocator<char> > >,std::allocator<std::pair<std::basic_string<char,std::char_traits<char>,std::allocator<char> > const ,hentry *> >,0> >::emplace_hint<std::piecewise_construct_t const &,std::tuple<std::basic_string<char,std::char_traits<char>,std::allocator<char> > const &>,std::tuple<> >(std::_Tree_const_iterator<std::_Tree_val<std::_Tree_simple_types<std::pair<std::basic_string<char,std::char_traits<char>,std::allocator<char> > const ,hentry *> > > >,std::piecewise_construct_t const &,std::tuple<std::basic_string<char,std::char_traits<char>,std::allocator<char> > const &> &&,std::tuple<> &&)
FUNC dca0 1ab 0 std::_Tree<std::_Tmap_traits<std::basic_string<char,std::char_traits<char>,std::allocator<char> >,hentry *,std::less<std::basic_string<char,std::char_traits<char>,std::allocator<char> > >,std::allocator<std::pair<std::basic_string<char,std::char_traits<char>,std::allocator<char> > const ,hentry *> >,0> >::_Insert_hint<std::pair<std::basic_string<char,std::char_traits<char>,std::allocator<char> > const ,hentry *> &,std::_Tree_node<std::pair<std::basic_string<char,std::char_traits<char>,std::allocator<char> > const ,hentry *>,void *> *>(std::_Tree_const_iterator<std::_Tree_val<std::_Tree_simple_types<std::pair<std::basic_string<char,std::char_traits<char>,std::allocator<char> > const ,hentry *> > > >,std::pair<std::basic_string<char,std::char_traits<char>,std::allocator<char> > const ,hentry *> &,std::_Tree_node<std::pair<std::basic_string<char,std::char_traits<char>,std::allocator<char> > const ,hentry *>,void *> *)
FUNC de50 1ab 0 std::_Tree<std::_Tmap_traits<base::BasicStringPiece<std::basic_string<char,std::char_traits<char>,std::allocator<char> > >,int,std::less<base::BasicStringPiece<std::basic_string<char,std::char_traits<char>,std::allocator<char> > > >,std::allocator<std::pair<base::BasicStringPiece<std::basic_string<char,std::char_traits<char>,std::allocator<char> > > const ,int> >,0> >::_Insert_hint<std::pair<base::BasicStringPiece<std::basic_string<char,std::char_traits<char>,std::allocator<char> > > const ,int> &,std::_Tree_node<std::pair<base::BasicStringPiece<std::basic_string<char,std::char_traits<char>,std::allocator<char> > > const ,int>,void *> *>(std::_Tree_const_iterator<std::_Tree_val<std::_Tree_simple_types<std::pair<base::BasicStringPiece<std::basic_string<char,std::char_traits<char>,std::allocator<char> > > const ,int> > > >,std::pair<base::BasicStringPiece<std::basic_string<char,std::char_traits<char>,std::allocator<char> > > const ,int> &,std::_Tree_node<std::pair<base::BasicStringPiece<std::basic_string<char,std::char_traits<char>,std::allocator<char> > > const ,int>,void *> *)
FUNC e000 41 0 std::_Tree<std::_Tmap_traits<std::basic_string<char,std::char_traits<char>,std::allocator<char> >,hentry *,std::less<std::basic_string<char,std::char_traits<char>,std::allocator<char> > >,std::allocator<std::pair<std::basic_string<char,std::char_traits<char>,std::allocator<char> > const ,hentry *> >,0> >::_Destroy_if_not_nil(std::_Tree_node<std::pair<std::basic_string<char,std::char_traits<char>,std::allocator<char> > const ,hentry *>,void *> *)
FUNC e050 5e 0 std::_Tree_unchecked_const_iterator<std::_Tree_val<std::_Tree_simple_types<std::pair<base::BasicStringPiece<std::basic_string<char,std::char_traits<char>,std::allocator<char> > > const ,int> > >,std::_Iterator_base0>::operator--()
FUNC e0b0 23e 0 std::_Tree<std::_Tmap_traits<std::basic_string<char,std::char_traits<char>,std::allocator<char> >,hentry *,std::less<std::basic_string<char,std::char_traits<char>,std::allocator<char> > >,std::allocator<std::pair<std::basic_string<char,std::char_traits<char>,std::allocator<char> > const ,hentry *> >,0> >::_Insert_at<std::pair<std::basic_string<char,std::char_traits<char>,std::allocator<char> > const ,hentry *> &,std::_Tree_node<std::pair<std::basic_string<char,std::char_traits<char>,std::allocator<char> > const ,hentry *>,void *> *>(bool,std::_Tree_node<std::pair<std::basic_string<char,std::char_traits<char>,std::allocator<char> > const ,hentry *>,void *> *,std::pair<std::basic_string<char,std::char_traits<char>,std::allocator<char> > const ,hentry *> &,std::_Tree_node<std::pair<std::basic_string<char,std::char_traits<char>,std::allocator<char> > const ,hentry *>,void *> *)
FUNC e2f0 111 0 std::_Tree<std::_Tmap_traits<std::basic_string<char,std::char_traits<char>,std::allocator<char> >,hentry *,std::less<std::basic_string<char,std::char_traits<char>,std::allocator<char> > >,std::allocator<std::pair<std::basic_string<char,std::char_traits<char>,std::allocator<char> > const ,hentry *> >,0> >::_Insert_nohint<std::pair<std::basic_string<char,std::char_traits<char>,std::allocator<char> > const ,hentry *> &,std::_Tree_node<std::pair<std::basic_string<char,std::char_traits<char>,std::allocator<char> > const ,hentry *>,void *> *>(bool,std::pair<std::basic_string<char,std::char_traits<char>,std::allocator<char> > const ,hentry *> &,std::_Tree_node<std::pair<std::basic_string<char,std::char_traits<char>,std::allocator<char> > const ,hentry *>,void *> *)
FUNC e410 1d3 0 std::_Tree<std::_Tmap_traits<base::BasicStringPiece<std::basic_string<char,std::char_traits<char>,std::allocator<char> > >,int,std::less<base::BasicStringPiece<std::basic_string<char,std::char_traits<char>,std::allocator<char> > > >,std::allocator<std::pair<base::BasicStringPiece<std::basic_string<char,std::char_traits<char>,std::allocator<char> > > const ,int> >,0> >::_Insert_at<std::pair<base::BasicStringPiece<std::basic_string<char,std::char_traits<char>,std::allocator<char> > > const ,int> &,std::_Tree_node<std::pair<base::BasicStringPiece<std::basic_string<char,std::char_traits<char>,std::allocator<char> > > const ,int>,void *> *>(bool,std::_Tree_node<std::pair<base::BasicStringPiece<std::basic_string<char,std::char_traits<char>,std::allocator<char> > > const ,int>,void *> *,std::pair<base::BasicStringPiece<std::basic_string<char,std::char_traits<char>,std::allocator<char> > > const ,int> &,std::_Tree_node<std::pair<base::BasicStringPiece<std::basic_string<char,std::char_traits<char>,std::allocator<char> > > const ,int>,void *> *)
FUNC e5f0 c5 0 std::_Tree<std::_Tmap_traits<base::BasicStringPiece<std::basic_string<char,std::char_traits<char>,std::allocator<char> > >,int,std::less<base::BasicStringPiece<std::basic_string<char,std::char_traits<char>,std::allocator<char> > > >,std::allocator<std::pair<base::BasicStringPiece<std::basic_string<char,std::char_traits<char>,std::allocator<char> > > const ,int> >,0> >::_Insert_nohint<std::pair<base::BasicStringPiece<std::basic_string<char,std::char_traits<char>,std::allocator<char> > > const ,int> &,std::_Tree_node<std::pair<base::BasicStringPiece<std::basic_string<char,std::char_traits<char>,std::allocator<char> > > const ,int>,void *> *>(bool,std::pair<base::BasicStringPiece<std::basic_string<char,std::char_traits<char>,std::allocator<char> > > const ,int> &,std::_Tree_node<std::pair<base::BasicStringPiece<std::basic_string<char,std::char_traits<char>,std::allocator<char> > > const ,int>,void *> *)
FUNC e6c0 49 0 RepList::~RepList()
FUNC e710 68 0 RepList::near(char const *)
FUNC e780 e4 0 RepList::add(char *,char *)
FUNC e870 130 0 RepList::conv(char const *,char *)
FUNC e9a0 1f 0 HENTRY_DATA2(hentry const *)
FUNC e9c0 3b 0 HENTRY_FIND(hentry *,char const *)
FUNC ea00 22f 0 SuggestMgr::SuggestMgr(hunspell::BDictReader *,char const *,int,AffixMgr *)
FUNC ec30 7b 0 SuggestMgr::~SuggestMgr()
FUNC ecb0 10c 0 SuggestMgr::testsug(char * *,char const *,int,int,int,int *,long *)
FUNC edc0 5c2 0 SuggestMgr::suggest(char * * *,char const *,int,int *)
FUNC f390 b3 0 SuggestMgr::capchars(char * *,char const *,int,int)
FUNC f450 27c 0 SuggestMgr::map_related(char const *,char *,int,int,char * *,int,int,mapentry const *,int,int *,long *)
FUNC f6d0 30d 0 SuggestMgr::replchars(char * *,char const *,int,int)
FUNC f9e0 f9 0 SuggestMgr::doubletwochars(char * *,char const *,int,int)
FUNC fae0 16f 0 SuggestMgr::doubletwochars_utf(char * *,w_char const *,int,int,int)
FUNC fc50 1a2 0 SuggestMgr::badcharkey(char * *,char const *,int,int)
FUNC fe00 289 0 SuggestMgr::badcharkey_utf(char * *,w_char const *,int,int,int)
FUNC 10090 fb 0 SuggestMgr::badchar(char * *,char const *,int,int)
FUNC 10190 15e 0 SuggestMgr::badchar_utf(char * *,w_char const *,int,int,int)
FUNC 102f0 133 0 SuggestMgr::extrachar_utf(char * *,w_char const *,int,int,int)
FUNC 10430 ce 0 SuggestMgr::extrachar(char * *,char const *,int,int)
FUNC 10500 110 0 SuggestMgr::forgotchar(char * *,char const *,int,int)
FUNC 10610 15a 0 SuggestMgr::forgotchar_utf(char * *,w_char const *,int,int,int)
FUNC 10770 3cc 0 SuggestMgr::twowords(char * *,char const *,int,int)
FUNC 10b40 16b 0 SuggestMgr::swapchar(char * *,char const *,int,int)
FUNC 10cb0 234 0 SuggestMgr::swapchar_utf(char * *,w_char const *,int,int,int)
FUNC 10ef0 e8 0 SuggestMgr::longswapchar(char * *,char const *,int,int)
FUNC 10fe0 15b 0 SuggestMgr::longswapchar_utf(char * *,w_char const *,int,int,int)
FUNC 11140 1a8 0 SuggestMgr::movechar(char * *,char const *,int,int)
FUNC 112f0 253 0 SuggestMgr::movechar_utf(char * *,w_char const *,int,int,int)
FUNC 11550 134c 0 SuggestMgr::ngsuggest(char * *,char *,int,HashMgr * *,int)
FUNC 128a0 4ca 0 SuggestMgr::checkword(char const *,int,int,int *,long *)
FUNC 12d70 2a5 0 SuggestMgr::check_forbidden(char const *,int)
FUNC 13020 31e 0 SuggestMgr::suggest_morph(char const *)
FUNC 13340 33f 0 SuggestMgr::suggest_hentry_gen(hentry *,char *)
FUNC 13680 645 0 SuggestMgr::suggest_gen(char * *,int,char *)
FUNC 13cd0 318 0 SuggestMgr::ngram(int,char *,char const *,int)
FUNC 13ff0 1ff 0 SuggestMgr::leftcommonsubstring(char *,char const *)
FUNC 141f0 1f6 0 SuggestMgr::commoncharacterpositions(char *,char const *,int *)
FUNC 143f0 e4 0 SuggestMgr::bubblesort(char * *,char * *,int *,int)
FUNC 144e0 240 0 SuggestMgr::lcs(char const *,char const *,int *,int *,char * *)
FUNC 14720 7a 0 SuggestMgr::lcslen(char const *,char const *)
FUNC 147a0 2ff 0 AffixMgr::AffixMgr(hunspell::BDictReader *,HashMgr * *,int *)
FUNC 14aa0 54b 0 AffixMgr::~AffixMgr()
FUNC 14ff0 8a 0 PfxEntry::`scalar deleting destructor'(unsigned int)
FUNC 15080 2b 0 AffixMgr::finishFileMgr(FileMgr *)
FUNC 150b0 1426 0 AffixMgr::parse_file(char const *,char const *)
FUNC 164e0 bf 0 AffixMgr::build_pfxtree(PfxEntry *)
FUNC 165a0 d6 0 AffixMgr::build_sfxtree(SfxEntry *)
FUNC 16680 43 0 AffixMgr::process_pfx_tree_to_list()
FUNC 166d0 34 0 AffixMgr::process_pfx_in_order(PfxEntry *,PfxEntry *)
FUNC 16710 41 0 AffixMgr::process_sfx_tree_to_list()
FUNC 16760 34 0 AffixMgr::process_sfx_in_order(SfxEntry *,SfxEntry *)
FUNC 167a0 10b 0 AffixMgr::process_pfx_order()
FUNC 168b0 119 0 AffixMgr::process_sfx_order()
FUNC 169d0 cb 0 AffixMgr::encodeit(affentry &,char *)
FUNC 16aa0 1c4 0 AffixMgr::prefix_check(char const *,int,char,unsigned short)
FUNC 16c70 b2 0 AffixMgr::prefix_check_twosfx(char const *,int,char,unsigned short)
FUNC 16d30 17b 0 AffixMgr::prefix_check_morph(char const *,int,char,unsigned short)
FUNC 16eb0 168 0 AffixMgr::prefix_check_twosfx_morph(char const *,int,char,unsigned short)
FUNC 17020 23a 0 AffixMgr::cpdrep_check(char const *,int)
FUNC 17260 15b 0 AffixMgr::cpdpat_check(char const *,int,hentry *,hentry *,char)
FUNC 173c0 13a 0 AffixMgr::cpdcase_check(char const *,int)
FUNC 17500 5b1 0 AffixMgr::defcpd_check(hentry * * *,short,hentry *,hentry * *,char)
FUNC 17ac0 109 0 AffixMgr::get_syllable(char const *,int)
FUNC 17bd0 b6 0 AffixMgr::setcminmax(int *,int *,char const *,int)
FUNC 17c90 23a6 0 AffixMgr::compound_check(char const *,int,short,short,short,short,hentry * *,char,char,int *)
FUNC 1a040 1dce 0 AffixMgr::compound_check_morph(char const *,int,short,short,short,short,hentry * *,char,char * *,char *)
FUNC 1be10 408 0 AffixMgr::suffix_check(char const *,int,int,PfxEntry *,char * *,int,int *,unsigned short,unsigned short,char)
FUNC 1c220 1f0 0 AffixMgr::suffix_check_twosfx(char const *,int,int,PfxEntry *,unsigned short)
FUNC 1c410 46f 0 AffixMgr::suffix_check_twosfx_morph(char const *,int,int,PfxEntry *,unsigned short)
FUNC 1c880 c09 0 AffixMgr::suffix_check_morph(char const *,int,int,PfxEntry *,unsigned short,unsigned short,char)
FUNC 1d490 7b 0 AffixMgr::affix_check(char const *,int,unsigned short,char)
FUNC 1d510 169 0 AffixMgr::affix_check_morph(char const *,int,unsigned short,char)
FUNC 1d680 308 0 AffixMgr::morphgen(char *,int,unsigned short const *,unsigned short,char *,char *,int)
FUNC 1d990 76f 0 AffixMgr::expand_rootword(guessword *,int,char const *,int,unsigned short const *,unsigned short,char *,int,char *)
FUNC 1e100 97 0 AffixMgr::get_encoding()
FUNC 1e1a0 92 0 AffixMgr::get_key_string()
FUNC 1e240 3f 0 AffixMgr::lookup(char const *)
FUNC 1e280 212 0 AffixMgr::parse_cpdsyllable(char *,FileMgr *)
FUNC 1e4a0 355 0 AffixMgr::parse_convtable(char *,FileMgr *,RepList * *,char const *)
FUNC 1e800 427 0 AffixMgr::parse_phonetable(char *,FileMgr *)
FUNC 1ec30 3cc 0 AffixMgr::parse_checkcpdtable(char *,FileMgr *)
FUNC 1f000 448 0 AffixMgr::parse_defcpdtable(char *,FileMgr *)
FUNC 1f450 42e 0 AffixMgr::parse_maptable(char *,FileMgr *)
FUNC 1f880 2d0 0 AffixMgr::parse_breaktable(char *,FileMgr *)
FUNC 1fb50 74 0 AffixMgr::reverse_condition(char *)
FUNC 1fbd0 940 0 AffixMgr::parse_affix(char *,char,FileMgr *,char *)
FUNC 20510 213 0 AffixMgr::redundant_condition(char,char *,int,char const *,int)
FUNC 20730 a9 0 std::vector<affentry,std::allocator<affentry> >::resize(unsigned int)
FUNC 207e0 86 0 std::vector<affentry,std::allocator<affentry> >::_Tidy()
FUNC 20870 8f 0 std::vector<affentry,std::allocator<affentry> >::_Reserve(unsigned int)
FUNC 20900 57 0 std::vector<char,std::allocator<char> >::_Reserve(unsigned int)
FUNC 20960 11e 0 std::vector<affentry,std::allocator<affentry> >::_Reallocate(unsigned int)
FUNC 20a80 bf 0 std::vector<char,std::allocator<char> >::_Reallocate(unsigned int)
FUNC 20b40 677 0 phonet(char const *,char *,int,phonetable &)
FUNC 211c0 fc 0 PfxEntry::add(char const *,int)
FUNC 212c0 35b 0 PfxEntry::test_condition(char const *)
FUNC 21620 1d0 0 PfxEntry::checkword(char const *,int,char,unsigned short)
FUNC 217f0 e6 0 PfxEntry::check_twosfx(char const *,int,char,unsigned short)
FUNC 218e0 dc 0 PfxEntry::check_twosfx_morph(char const *,int,char,unsigned short)
FUNC 219c0 2a5 0 PfxEntry::check_morph(char const *,int,char,unsigned short)
FUNC 21c70 d9 0 SfxEntry::SfxEntry(AffixMgr *,affentry *)
FUNC 21d50 8b 0 SfxEntry::~SfxEntry()
FUNC 21de0 126 0 SfxEntry::add(char const *,int)
FUNC 21f10 42f 0 SfxEntry::test_condition(char const *,char const *)
FUNC 22340 216 0 SfxEntry::checkword(char const *,int,int,PfxEntry *,char * *,int,int *,unsigned short,unsigned short,unsigned short)
FUNC 22560 14c 0 SfxEntry::check_twosfx(char const *,int,int,PfxEntry *,unsigned short)
FUNC 226b0 2a6 0 SfxEntry::check_twosfx_morph(char const *,int,int,PfxEntry *,unsigned short)
FUNC 22960 22f 0 SfxEntry::get_next_homonym(hentry *,int,PfxEntry *,unsigned short,unsigned short)
FUNC 22b8f 1b 0 std::bad_alloc::bad_alloc(std::bad_alloc const &)
FUNC 22baa 18 0 std::bad_alloc::bad_alloc()
FUNC 22bc2 2c 0 std::exception::exception(std::exception const &)
FUNC 22bee 37 0 std::exception::exception(char const * const)
FUNC 22c25 1b 0 std::length_error::length_error(std::length_error const &)
FUNC 22c40 21 0 std::length_error::length_error(char const *)
FUNC 22c61 1b 0 std::logic_error::logic_error(std::logic_error const &)
FUNC 22c7c 1b 0 std::out_of_range::out_of_range(std::out_of_range const &)
FUNC 22c97 21 0 std::out_of_range::out_of_range(char const *)
FUNC 22cb8 11 0 std::out_of_range::~out_of_range()
FUNC 22cc9 2d 0 std::out_of_range::`scalar deleting destructor'(unsigned int)
FUNC 22cf6 1d 0 std::_Xbad_alloc()
FUNC 22d13 20 0 std::_Xlength_error(char const *)
FUNC 22d33 20 0 std::_Xout_of_range(char const *)
FUNC 22d53 d 0 std::exception::what()
FUNC 22d60 11 0 __security_check_cookie
FUNC 22d71 33 0 operator new(unsigned int)
FUNC 22da4 5 0 operator delete(void *)
FUNC 22da9 e 0 operator delete(void *,unsigned int)
FUNC 22db7 9 0 operator new[](unsigned int)
FUNC 22dc0 53 0 dllmain_crt_dispatch
FUNC 22e13 112 0 dllmain_crt_process_attach
FUNC 22f25 7d 0 dllmain_crt_process_detach
FUNC 22fa2 fc 0 dllmain_dispatch
FUNC 2309e 2a 0 dllmain_raw
FUNC 230c8 23 c _DllMainCRTStartup
FUNC 230eb 28 0 __raise_securityfailure
FUNC 23113 fb 0 __report_gsfailure
FUNC 2320e c 0 __report_rangecheckfailure
FUNC 2321a d0 0 __report_securityfailure
FUNC 232ea 5 0 operator delete[](void *)
FUNC 232ef c0 0 __scrt_initialize_thread_safe_statics
FUNC 233af 1d 0 __crt_fast_encode_pointer<int (*)(_RTL_CONDITION_VARIABLE *,_RTL_CRITICAL_SECTION *,unsigned long)>(int (*const)(_RTL_CONDITION_VARIABLE *,_RTL_CRITICAL_SECTION *,unsigned long))
FUNC 233cc 1c 0 __scrt_uninitialize_thread_safe_statics
FUNC 233e8 3f 0 _Init_thread_footer
FUNC 23427 46 0 _Init_thread_header
FUNC 2346d c 0 _Init_thread_lock
FUNC 23479 41 0 _Init_thread_notify
FUNC 234ba c 0 _Init_thread_unlock
FUNC 234c6 65 0 _Init_thread_wait
FUNC 2352b 23 0 type_info::`scalar deleting destructor'(unsigned int)
FUNC 2354e 1b 0 std::bad_array_new_length::bad_array_new_length(std::bad_array_new_length const &)
FUNC 23569 18 0 std::bad_array_new_length::bad_array_new_length()
FUNC 23581 1d 0 __scrt_throw_std_bad_array_new_length()
FUNC 2359e 44 0 find_pe_section
FUNC 235e2 35 0 __scrt_acquire_startup_lock
FUNC 23617 2b 0 __scrt_dllmain_after_initialize_c
FUNC 23642 e 0 __scrt_dllmain_before_initialize_c
FUNC 23650 1f 0 __scrt_dllmain_crt_thread_attach
FUNC 2366f d 0 __scrt_dllmain_crt_thread_detach
FUNC 2367c 33 0 __scrt_dllmain_exception_filter
FUNC 236af 23 0 __scrt_dllmain_uninitialize_c
FUNC 236d2 d 0 __scrt_dllmain_uninitialize_critical
FUNC 236df 39 0 __scrt_initialize_crt
FUNC 23718 97 0 __scrt_initialize_onexit_tables
FUNC 237af 8a 0 __scrt_is_nonwritable_in_current_image
FUNC 23839 1d 0 __scrt_release_startup_lock
FUNC 23856 28 0 __scrt_uninitialize_crt
FUNC 2387e 3b 0 _onexit
FUNC 238b9 15 0 atexit
FUNC 238ce 9c 0 __security_init_cookie
FUNC 2396a 6 c DllMain
FUNC 23970 c 0 __scrt_initialize_type_info()
FUNC 2397c c 0 __scrt_uninitialize_type_info()
FUNC 23988 6 0 __local_stdio_scanf_options
FUNC 2398e 1d 0 __scrt_initialize_default_local_stdio_options
FUNC 239ab 6 0 __scrt_get_dyn_tls_init_callback
FUNC 239b1 11b 0 __scrt_fastfail
FUNC 23acc 8 4 _crt_debugger_hook
FUNC 23ad4 2b 0 _RTC_Initialize
FUNC 23aff 2b 0 _RTC_Terminate
FUNC 23b2a 6 0 _guard_check_icall
FUNC 23b30 46 0 _SEH_prolog4
FUNC 23b76 15 0 _SEH_epilog4
FUNC 23b8b 19a 0 __isa_available_init
FUNC 23d25 4 0 _get_startup_argv_mode
FUNC 23d29 c 0 __scrt_is_ucrt_dll_in_use
FUNC 23d40 574 0 memmove
FUNC 242b4 1f 0 _get_purecall_handler
FUNC 242d3 1b 0 _purecall
FUNC 242f0 263 0 strstr
FUNC 24560 12b 0 strchr
PUBLIC 245ce 0 __from_strstr_to_strchr
FUNC 2468b 63 0 __std_exception_copy
FUNC 246ee 1f 0 __std_exception_destroy
FUNC 2470d 6e 8 _CxxThrowException
FUNC 24780 32 0 ValidateLocalCookies
FUNC 247c0 166 0 _except_handler4
FUNC 24926 a0 0 try_get_function
FUNC 249c6 81 0 try_get_module
FUNC 24a47 3a 0 __vcrt_FlsAlloc
FUNC 24a81 3a 0 __vcrt_FlsFree
FUNC 24abb 3a 0 __vcrt_FlsGetValue
FUNC 24af5 3d 0 __vcrt_FlsSetValue
FUNC 24b32 46 0 __vcrt_InitializeCriticalSectionEx
FUNC 24b78 3a 0 __vcrt_initialize_winapi_thunks
FUNC 24bb2 32 0 __vcrt_uninitialize_winapi_thunks
FUNC 24be4 29 0 __vcrt_initialize
FUNC 24c0d b 0 __vcrt_thread_attach
FUNC 24c18 b 0 __vcrt_thread_detach
FUNC 24c23 1f 0 __vcrt_uninitialize
FUNC 24c42 8 0 __vcrt_uninitialize_critical
FUNC 24c4a 23 0 __std_type_info_destroy_list
FUNC 24c70 15a 0 memset
FUNC 24dca 1d 0 __vcrt_initialize_pure_virtual_call_handler
FUNC 24df0 90 0 _local_unwind4
FUNC 24e80 46 0 _unwind_handler4
FUNC 24ec6 28 4 _seh_longjmp_unwind4
FUNC 24eee 17 0 _EH4_CallFilterFunc
FUNC 24f05 19 0 _EH4_TransferToHandler
FUNC 24f1e 19 0 _EH4_GlobalUnwind2
FUNC 24f37 17 8 _EH4_LocalUnwind
FUNC 24f4e 1c 4 __vcrt_freefls
FUNC 24f6a 36 0 __vcrt_freeptd
FUNC 24fa0 92 0 __vcrt_getptd_noexit
FUNC 25032 33 0 __vcrt_initialize_ptd
FUNC 25065 1b 0 __vcrt_uninitialize_ptd
FUNC 25080 3c 0 __vcrt_initialize_locks
FUNC 250bc 2f 0 __vcrt_uninitialize_locks
FUNC 250f0 20 0 _global_unwind2
FUNC 25110 45 0 __unwind_handler
FUNC 25155 84 0 _local_unwind2
FUNC 251d9 23 0 _abnormal_termination
FUNC 251fc 9 0 _NLG_Notify1
FUNC 25205 1f 0 _NLG_Notify
PUBLIC 2521c 0 _NLG_Dispatch
FUNC 25224 3 0 _NLG_Call
PUBLIC 25226 0 _NLG_Return2
FUNC 25227 9c 0 common_assert_to_message_box<wchar_t>
FUNC 252c3 545 0 common_assert_to_message_box_build_string<wchar_t>
FUNC 25808 83 0 common_assert_to_stderr<wchar_t>
FUNC 2588b 28 0 __crt_char_traits<wchar_t>::ftprintf<_iobuf *,wchar_t const *,wchar_t const * const &,wchar_t const * const &,unsigned int const &>(_iobuf * &&,wchar_t const * &&,wchar_t const * const &,wchar_t const * const &,unsigned int const &)
FUNC 258b3 b1 0 common_assert_to_stderr_direct
FUNC 25964 6 4 get_assert_format
FUNC 2596a 25 0 _vfwprintf_l
FUNC 2598f 2f 0 _vswprintf_c_l
FUNC 259be 48 0 _wassert
FUNC 25a06 1b 0 fwprintf
FUNC 25a21 1e 0 swprintf
FUNC 25a3f 31 0 __crt_state_management::dual_state_global<void (*)(wchar_t const *,wchar_t const *,wchar_t const *,unsigned int,unsigned int)>::initialize(void (*const)(wchar_t const *,wchar_t const *,wchar_t const *,unsigned int,unsigned int))
FUNC 25a70 13b 0 __acrt_call_reportfault
FUNC 25bab 14 0 __acrt_initialize_invalid_parameter_handler
FUNC 25bbf 7b 0 _invalid_parameter
FUNC 25c3a 10 0 _invalid_parameter_noinfo
FUNC 25c4a 1d 0 _invalid_parameter_noinfo_noreturn
FUNC 25c67 33 14 _invoke_watson
FUNC 25c9a 83 0 _LocaleUpdate::_LocaleUpdate(__crt_locale_pointers * const)
FUNC 25d1d 39 0 _isleadbyte_l
FUNC 25d56 16 0 iswalpha
FUNC 25d6c 13 0 iswpunct
FUNC 25d7f 13 0 iswspace
FUNC 25d92 80 0 common_getenv<char>
FUNC 25e12 70 0 common_getenv_nolock<char>
FUNC 25e82 b 0 getenv
FUNC 25e8d b 0 realloc
FUNC 25ea0 124 0 strncpy
FUNC 25fd0 78 0 strncmp
FUNC 26048 51 0 __crt_seh_guarded_call<int>::operator()<<lambda_ab9923ffb5d694ec0d78876dd103e44f>,<lambda_481dd5778c961fbcd3b60b650e9b9dc4> &,<lambda_7923d86c9e3f319b415918ec4b39749c> >(<lambda_ab9923ffb5d694ec0d78876dd103e44f> &&,<lambda_481dd5778c961fbcd3b60b650e9b9dc4> &,<lambda_7923d86c9e3f319b415918ec4b39749c> &&)
FUNC 26099 28 0 __acrt_lock_stream_and_call<<lambda_481dd5778c961fbcd3b60b650e9b9dc4> >(_iobuf * const,<lambda_481dd5778c961fbcd3b60b650e9b9dc4> &&)
FUNC 260c1 17c 0 common_vsprintf<__crt_stdio_output::standard_base,char>
FUNC 2623d 185 0 common_vsprintf<__crt_stdio_output::standard_base,wchar_t>
FUNC 263c2 18 0 __crt_stdio_output::formatting_buffer::count<char>()
FUNC 263da 86 0 __crt_stdio_output::formatting_buffer::ensure_buffer_is_big_enough<char>(unsigned int)
FUNC 26460 40 0 __crt_stdio_output::is_wide_character_specifier<char>(unsigned __int64,char,__crt_stdio_output::length_modifier)
FUNC 264a0 4f 0 __crt_stdio_output::is_wide_character_specifier<wchar_t>(unsigned __int64,wchar_t,__crt_stdio_output::length_modifier)
FUNC 264ef 1e 0 __crt_stdio_output::formatting_buffer::scratch_data<char>()
FUNC 2650d 75 0 __crt_stdio_output::output_processor<char,__crt_stdio_output::string_output_adapter<char>,__crt_stdio_output::standard_base<char,__crt_stdio_output::string_output_adapter<char> > >::type_case_integer_parse_into_buffer<unsigned int>(unsigned int,unsigned int,bool)
FUNC 26582 88 0 __crt_stdio_output::output_processor<wchar_t,__crt_stdio_output::string_output_adapter<wchar_t>,__crt_stdio_output::standard_base<wchar_t,__crt_stdio_output::string_output_adapter<wchar_t> > >::type_case_integer_parse_into_buffer<unsigned __int64>(unsigned __int64,unsigned int,bool)
FUNC 2660a 31 0 __crt_stdio_output::write_multiple_characters<__crt_stdio_output::stream_output_adapter<wchar_t>,char>(__crt_stdio_output::stream_output_adapter<wchar_t> const &,char,int,int * const)
FUNC 2663b 2c 0 __crt_stdio_output::write_multiple_characters<__crt_stdio_output::string_output_adapter<char>,char>(__crt_stdio_output::string_output_adapter<char> const &,char,int,int * const)
FUNC 26667 31 0 __crt_stdio_output::write_multiple_characters<__crt_stdio_output::string_output_adapter<wchar_t>,char>(__crt_stdio_output::string_output_adapter<wchar_t> const &,char,int,int * const)
FUNC 26698 47 0 __crt_stdio_output::common_data<char>::common_data<char>()
FUNC 266df 4c 0 __crt_stdio_output::common_data<wchar_t>::common_data<wchar_t>()
FUNC 2672b 3c 0 __crt_stdio_output::output_adapter_data<char,__crt_stdio_output::string_output_adapter<char> >::output_adapter_data<char,__crt_stdio_output::string_output_adapter<char> >(__crt_stdio_output::string_output_adapter<char> const &,unsigned __int64,char const * const,__crt_locale_pointers * const,char * const)
FUNC 26767 3c 0 __crt_stdio_output::output_adapter_data<wchar_t,__crt_stdio_output::stream_output_adapter<wchar_t> >::output_adapter_data<wchar_t,__crt_stdio_output::stream_output_adapter<wchar_t> >(__crt_stdio_output::stream_output_adapter<wchar_t> const &,unsigned __int64,wchar_t const * const,__crt_locale_pointers * const,char * const)
FUNC 267a3 35 0 __crt_stdio_output::output_processor<char,__crt_stdio_output::string_output_adapter<char>,__crt_stdio_output::standard_base<char,__crt_stdio_output::string_output_adapter<char> > >::output_processor<char,__crt_stdio_output::string_output_adapter<char>,__crt_stdio_output::standard_base<char,__crt_stdio_output::string_output_adapter<char> > >(__crt_stdio_output::string_output_adapter<char> const &,unsigned __int64,char const * const,__crt_locale_pointers * const,char * const)
FUNC 267d8 35 0 __crt_stdio_output::output_processor<wchar_t,__crt_stdio_output::string_output_adapter<wchar_t>,__crt_stdio_output::standard_base<wchar_t,__crt_stdio_output::string_output_adapter<wchar_t> > >::output_processor<wchar_t,__crt_stdio_output::string_output_adapter<wchar_t>,__crt_stdio_output::standard_base<wchar_t,__crt_stdio_output::string_output_adapter<wchar_t> > >(__crt_stdio_output::string_output_adapter<wchar_t> const &,unsigned __int64,wchar_t const * const,__crt_locale_pointers * const,char * const)
FUNC 2680d 1a 0 __crt_stdio_output::formatting_buffer::~formatting_buffer()
FUNC 26827 24 0 __crt_unique_heap_ptr<char,__crt_internal_free_policy>::operator=(__crt_unique_heap_ptr<char,__crt_internal_free_policy> &&)
FUNC 2684b bd 0 <lambda_481dd5778c961fbcd3b60b650e9b9dc4>::operator()
FUNC 26908 57 0 __crt_stdio_output::crop_zeroes(char *,__crt_locale_pointers * const)
FUNC 2695f 32 0 __crt_stdio_output::output_processor<char,__crt_stdio_output::string_output_adapter<char>,__crt_stdio_output::standard_base<char,__crt_stdio_output::string_output_adapter<char> > >::find_next_state(char,__crt_stdio_output::state)
FUNC 26991 34 0 __crt_stdio_output::output_processor<wchar_t,__crt_stdio_output::string_output_adapter<wchar_t>,__crt_stdio_output::standard_base<wchar_t,__crt_stdio_output::string_output_adapter<wchar_t> > >::find_next_state(wchar_t,__crt_stdio_output::state)
FUNC 269c5 5c 0 __crt_stdio_output::force_decimal_point(char *,__crt_locale_pointers * const)
FUNC 26a21 5c 0 __crt_stdio_output::output_processor<char,__crt_stdio_output::string_output_adapter<char>,__crt_stdio_output::standard_base<char,__crt_stdio_output::string_output_adapter<char> > >::parse_int_from_format_string(int * const)
FUNC 26a7d 5e 0 __crt_stdio_output::output_processor<wchar_t,__crt_stdio_output::stream_output_adapter<wchar_t>,__crt_stdio_output::standard_base<wchar_t,__crt_stdio_output::stream_output_adapter<wchar_t> > >::parse_int_from_format_string(int * const)
FUNC 26adb 11c 0 __crt_stdio_output::output_processor<char,__crt_stdio_output::string_output_adapter<char>,__crt_stdio_output::standard_base<char,__crt_stdio_output::string_output_adapter<char> > >::process()
FUNC 26bf7 120 0 __crt_stdio_output::output_processor<wchar_t,__crt_stdio_output::stream_output_adapter<wchar_t>,__crt_stdio_output::standard_base<wchar_t,__crt_stdio_output::stream_output_adapter<wchar_t> > >::process()
FUNC 26d17 120 0 __crt_stdio_output::output_processor<wchar_t,__crt_stdio_output::string_output_adapter<wchar_t>,__crt_stdio_output::standard_base<wchar_t,__crt_stdio_output::string_output_adapter<wchar_t> > >::process()
FUNC 26e37 3d 0 __crt_stdio_output::output_processor<char,__crt_stdio_output::string_output_adapter<char>,__crt_stdio_output::standard_base<char,__crt_stdio_output::string_output_adapter<char> > >::state_case_flag()
FUNC 26e74 3d 0 __crt_stdio_output::output_processor<wchar_t,__crt_stdio_output::stream_output_adapter<wchar_t>,__crt_stdio_output::standard_base<wchar_t,__crt_stdio_output::stream_output_adapter<wchar_t> > >::state_case_flag()
FUNC 26eb1 1f 0 __crt_stdio_output::output_processor<char,__crt_stdio_output::string_output_adapter<char>,__crt_stdio_output::standard_base<char,__crt_stdio_output::string_output_adapter<char> > >::state_case_normal()
FUNC 26ed0 1f 0 __crt_stdio_output::output_processor<wchar_t,__crt_stdio_output::stream_output_adapter<wchar_t>,__crt_stdio_output::standard_base<wchar_t,__crt_stdio_output::stream_output_adapter<wchar_t> > >::state_case_normal()
FUNC 26eef 1f 0 __crt_stdio_output::output_processor<wchar_t,__crt_stdio_output::string_output_adapter<wchar_t>,__crt_stdio_output::standard_base<wchar_t,__crt_stdio_output::string_output_adapter<wchar_t> > >::state_case_normal()
FUNC 26f0e 2a 0 __crt_stdio_output::output_processor<char,__crt_stdio_output::string_output_adapter<char>,__crt_stdio_output::standard_base<char,__crt_stdio_output::string_output_adapter<char> > >::state_case_normal_common()
FUNC 26f38 1b 0 __crt_stdio_output::output_processor<wchar_t,__crt_stdio_output::stream_output_adapter<wchar_t>,__crt_stdio_output::standard_base<wchar_t,__crt_stdio_output::stream_output_adapter<wchar_t> > >::state_case_normal_common()
FUNC 26f53 1b 0 __crt_stdio_output::output_processor<wchar_t,__crt_stdio_output::string_output_adapter<wchar_t>,__crt_stdio_output::standard_base<wchar_t,__crt_stdio_output::string_output_adapter<wchar_t> > >::state_case_normal_common()
FUNC 26f6e 61 4 __crt_stdio_output::output_processor<char,__crt_stdio_output::string_output_adapter<char>,__crt_stdio_output::standard_base<char,__crt_stdio_output::string_output_adapter<char> > >::state_case_normal_tchar(char)
FUNC 26fcf 28 0 __crt_stdio_output::output_processor<char,__crt_stdio_output::string_output_adapter<char>,__crt_stdio_output::standard_base<char,__crt_stdio_output::string_output_adapter<char> > >::state_case_precision()
FUNC 26ff7 29 0 __crt_stdio_output::output_processor<wchar_t,__crt_stdio_output::string_output_adapter<wchar_t>,__crt_stdio_output::standard_base<wchar_t,__crt_stdio_output::string_output_adapter<wchar_t> > >::state_case_precision()
FUNC 27020 169 0 __crt_stdio_output::output_processor<char,__crt_stdio_output::string_output_adapter<char>,__crt_stdio_output::standard_base<char,__crt_stdio_output::string_output_adapter<char> > >::state_case_size()
FUNC 27189 17c 0 __crt_stdio_output::output_processor<wchar_t,__crt_stdio_output::stream_output_adapter<wchar_t>,__crt_stdio_output::standard_base<wchar_t,__crt_stdio_output::stream_output_adapter<wchar_t> > >::state_case_size()
FUNC 27305 17c 0 __crt_stdio_output::output_processor<wchar_t,__crt_stdio_output::string_output_adapter<wchar_t>,__crt_stdio_output::standard_base<wchar_t,__crt_stdio_output::string_output_adapter<wchar_t> > >::state_case_size()
FUNC 27481 22f 0 __crt_stdio_output::output_processor<char,__crt_stdio_output::string_output_adapter<char>,__crt_stdio_output::standard_base<char,__crt_stdio_output::string_output_adapter<char> > >::state_case_type()
FUNC 276b0 25d 0 __crt_stdio_output::output_processor<wchar_t,__crt_stdio_output::stream_output_adapter<wchar_t>,__crt_stdio_output::standard_base<wchar_t,__crt_stdio_output::stream_output_adapter<wchar_t> > >::state_case_type()
FUNC 2790d 25d 0 __crt_stdio_output::output_processor<wchar_t,__crt_stdio_output::string_output_adapter<wchar_t>,__crt_stdio_output::standard_base<wchar_t,__crt_stdio_output::string_output_adapter<wchar_t> > >::state_case_type()
FUNC 27b6a 2b 0 __crt_stdio_output::output_processor<char,__crt_stdio_output::string_output_adapter<char>,__crt_stdio_output::standard_base<char,__crt_stdio_output::string_output_adapter<char> > >::state_case_width()
FUNC 27b95 2c 0 __crt_stdio_output::output_processor<wchar_t,__crt_stdio_output::stream_output_adapter<wchar_t>,__crt_stdio_output::standard_base<wchar_t,__crt_stdio_output::stream_output_adapter<wchar_t> > >::state_case_width()
FUNC 27bc1 5c 0 __crt_stdio_output::to_integer_size(__crt_stdio_output::length_modifier)
FUNC 27c1d 63 0 __crt_stdio_output::output_processor<char,__crt_stdio_output::string_output_adapter<char>,__crt_stdio_output::standard_base<char,__crt_stdio_output::string_output_adapter<char> > >::type_case_Z()
FUNC 27c80 63 0 __crt_stdio_output::output_processor<wchar_t,__crt_stdio_output::string_output_adapter<wchar_t>,__crt_stdio_output::standard_base<wchar_t,__crt_stdio_output::string_output_adapter<wchar_t> > >::type_case_Z()
FUNC 27ce3 15a 0 __crt_stdio_output::output_processor<char,__crt_stdio_output::string_output_adapter<char>,__crt_stdio_output::standard_base<char,__crt_stdio_output::string_output_adapter<char> > >::type_case_a()
FUNC 27e3d 172 0 __crt_stdio_output::output_processor<wchar_t,__crt_stdio_output::stream_output_adapter<wchar_t>,__crt_stdio_output::standard_base<wchar_t,__crt_stdio_output::stream_output_adapter<wchar_t> > >::type_case_a()
FUNC 27faf 90 4 __crt_stdio_output::output_processor<char,__crt_stdio_output::string_output_adapter<char>,__crt_stdio_output::standard_base<char,__crt_stdio_output::string_output_adapter<char> > >::type_case_c_tchar(char)
FUNC 2803f 98 0 __crt_stdio_output::output_processor<wchar_t,__crt_stdio_output::stream_output_adapter<wchar_t>,__crt_stdio_output::standard_base<wchar_t,__crt_stdio_output::stream_output_adapter<wchar_t> > >::type_case_c_tchar(wchar_t)
FUNC 280d7 14a 0 __crt_stdio_output::output_processor<wchar_t,__crt_stdio_output::string_output_adapter<wchar_t>,__crt_stdio_output::standard_base<wchar_t,__crt_stdio_output::string_output_adapter<wchar_t> > >::type_case_integer(unsigned int,bool)
FUNC 28221 74 0 __crt_stdio_output::output_processor<char,__crt_stdio_output::string_output_adapter<char>,__crt_stdio_output::standard_base<char,__crt_stdio_output::string_output_adapter<char> > >::type_case_n()
FUNC 28295 1f 0 __crt_stdio_output::output_processor<wchar_t,__crt_stdio_output::string_output_adapter<wchar_t>,__crt_stdio_output::standard_base<wchar_t,__crt_stdio_output::string_output_adapter<wchar_t> > >::type_case_o()
FUNC 282b4 18 0 __crt_stdio_output::output_processor<char,__crt_stdio_output::string_output_adapter<char>,__crt_stdio_output::standard_base<char,__crt_stdio_output::string_output_adapter<char> > >::type_case_p()
FUNC 282cc 73 0 __crt_stdio_output::output_processor<char,__crt_stdio_output::string_output_adapter<char>,__crt_stdio_output::standard_base<char,__crt_stdio_output::string_output_adapter<char> > >::type_case_s()
FUNC 2833f 74 0 __crt_stdio_output::output_processor<wchar_t,__crt_stdio_output::string_output_adapter<wchar_t>,__crt_stdio_output::standard_base<wchar_t,__crt_stdio_output::string_output_adapter<wchar_t> > >::type_case_s()
FUNC 283b3 40 0 __crt_stdio_output::output_processor<wchar_t,__crt_stdio_output::stream_output_adapter<wchar_t>,__crt_stdio_output::standard_base<wchar_t,__crt_stdio_output::stream_output_adapter<wchar_t> > >::type_case_s_compute_narrow_string_length(int,wchar_t)
FUNC 283f3 1b 0 __crt_stdio_output::stream_output_adapter<wchar_t>::validate()
FUNC 2840e 40 0 __crt_stdio_output::stream_output_adapter<wchar_t>::write_character(wchar_t,int * const)
FUNC 2844e 42 0 __crt_stdio_output::string_output_adapter<char>::write_character(char,int * const)
FUNC 28490 45 0 __crt_stdio_output::string_output_adapter<wchar_t>::write_character(wchar_t,int * const)
FUNC 284d5 a7 0 __crt_stdio_output::output_processor<char,__crt_stdio_output::string_output_adapter<char>,__crt_stdio_output::standard_base<char,__crt_stdio_output::string_output_adapter<char> > >::write_stored_string_tchar(char)
FUNC 2857c 8b 0 __crt_stdio_output::output_processor<wchar_t,__crt_stdio_output::stream_output_adapter<wchar_t>,__crt_stdio_output::standard_base<wchar_t,__crt_stdio_output::stream_output_adapter<wchar_t> > >::write_stored_string_tchar(wchar_t)
FUNC 28607 8b 0 __crt_stdio_output::output_processor<wchar_t,__crt_stdio_output::string_output_adapter<wchar_t>,__crt_stdio_output::standard_base<wchar_t,__crt_stdio_output::string_output_adapter<wchar_t> > >::write_stored_string_tchar(wchar_t)
FUNC 28692 8d 0 __crt_stdio_output::stream_output_adapter<wchar_t>::write_string(wchar_t const * const,int,int * const,int * const)
FUNC 2871f 93 0 __crt_stdio_output::string_output_adapter<char>::write_string(char const * const,int,int * const,int * const)
FUNC 287b2 9a 0 __crt_stdio_output::string_output_adapter<wchar_t>::write_string(wchar_t const * const,int,int * const,int * const)
FUNC 2884c 77 0 __stdio_common_vfwprintf
FUNC 288c3 24 0 __stdio_common_vsprintf
FUNC 288e7 24 0 __stdio_common_vswprintf
FUNC 2890b 5 0 free
FUNC 28910 b 0 malloc
FUNC 2891b c8 0 __acrt_initialize_stdio
FUNC 289e3 10 0 __acrt_iob_func
FUNC 289f3 4c 0 __acrt_uninitialize_stdio
FUNC 28a3f 14 0 _lock_file
FUNC 28a53 14 0 _unlock_file
FUNC 28a67 33 0 __crt_strtox::is_overflow_condition<unsigned long>(unsigned int,unsigned long)
FUNC 28a9a 228 0 __crt_strtox::parse_integer<unsigned long,__crt_strtox::c_string_character_source<char> >(__crt_locale_pointers * const,__crt_strtox::c_string_character_source<char>,int,bool)
FUNC 28cc2 6e5 0 __crt_strtox::parse_integer<unsigned long,__crt_strtox::c_string_character_source<wchar_t> >(__crt_locale_pointers * const,__crt_strtox::c_string_character_source<wchar_t>,int,bool)
FUNC 293a7 28 0 __crt_strtox::c_string_character_source<char>::unget(char)
FUNC 293cf 2c 0 __crt_strtox::c_string_character_source<wchar_t>::unget(wchar_t)
FUNC 293fb 2a 0 _chvalidchk_l
FUNC 29425 33 0 _ischartype_l
FUNC 29458 2a 0 atoi
FUNC 29482 3b 0 _isalpha_l
FUNC 294bd 38 0 _isdigit_l
FUNC 294f5 38 0 _isspace_l
FUNC 2952d 2f 0 isalpha
FUNC 2955c 2d 0 isdigit
FUNC 29589 2d 0 isspace
FUNC 295b6 b 0 calloc
FUNC 295c1 61 0 scale_count
FUNC 29622 66 0 __acrt_initialize_clock
FUNC 29688 62 0 clock
FUNC 296ea 14 0 __acrt_initialize_new_handler
FUNC 296fe 44 0 _callnewh
FUNC 29742 52 0 _query_new_handler
FUNC 29794 5c 0 _initterm
FUNC 297f0 45 0 _initterm_e
FUNC 29835 20 0 _seh_filter_dll
FUNC 29855 173 0 _seh_filter_exe
FUNC 299c8 13 0 atexit_exception_filter
FUNC 299db 119 0 common_exit
FUNC 29af4 41 0 exit_or_terminate_process
FUNC 29b35 44 0 is_managed_app
FUNC 29b79 6a 0 try_cor_exit_process
FUNC 29be3 f 0 __acrt_initialize_thread_local_exit_callback
FUNC 29bf2 f 0 _cexit
FUNC 29c01 16 0 _exit
FUNC 29c17 6 0 _is_c_termination_complete
FUNC 29c1d 124 0 common_configure_argv<char>
FUNC 29d41 175 0 parse_command_line<char>
FUNC 29eb6 55 0 __acrt_allocate_buffer_for_argv
FUNC 29f0b b 0 _configure_narrow_argv
FUNC 29f16 2f 0 common_get_or_create_environment_nolock<char>
FUNC 29f45 59 0 common_initialize_environment_nolock<char>
FUNC 29f9e d1 0 create_environment<char>
FUNC 2a06f 2f 0 free_environment<char>
FUNC 2a09e 7f 0 initialize_environment_by_cloning_nolock<char>
FUNC 2a11d 40 0 __crt_state_management::dual_state_global<char * *>::uninitialize<void (&)(char * * &)>(void (&)(char * * &))
FUNC 2a15d 1b 0 uninitialize_environment_internal<char>
FUNC 2a178 1b 0 uninitialize_environment_internal<wchar_t>
FUNC 2a193 5 0 __dcrt_get_or_create_narrow_environment_nolock
FUNC 2a198 37 0 __dcrt_uninitialize_environments_nolock
FUNC 2a1cf 5 0 _initialize_narrow_environment
FUNC 2a1d4 51 0 __crt_seh_guarded_call<int>::operator()<<lambda_800076c951b434888f4765a74a194fcc>,<lambda_4e60a939b0d047cfe11ddc22648dfba9> &,<lambda_6dbb1268764f43b569ce7b67e331d33a> >(<lambda_800076c951b434888f4765a74a194fcc> &&,<lambda_4e60a939b0d047cfe11ddc22648dfba9> &,<lambda_6dbb1268764f43b569ce7b67e331d33a> &&)
FUNC 2a225 51 0 __crt_seh_guarded_call<int>::operator()<<lambda_995298e7d72eb4c2aab26c0585b3abe5>,<lambda_275893d493268fdec8709772e3fcec0e> &,<lambda_293819299cbf9a7022e18b56a874bb5c> >(<lambda_995298e7d72eb4c2aab26c0585b3abe5> &&,<lambda_275893d493268fdec8709772e3fcec0e> &,<lambda_293819299cbf9a7022e18b56a874bb5c> &&)
FUNC 2a276 28 0 __acrt_lock_and_call<<lambda_275893d493268fdec8709772e3fcec0e> >(__acrt_lock_id,<lambda_275893d493268fdec8709772e3fcec0e> &&)
FUNC 2a29e 28 0 __acrt_lock_and_call<<lambda_4e60a939b0d047cfe11ddc22648dfba9> >(__acrt_lock_id,<lambda_4e60a939b0d047cfe11ddc22648dfba9> &&)
FUNC 2a2c6 1f 0 __crt_fast_encode_pointer<int (*)(void)>(int (*const)(void))
FUNC 2a2e5 120 0 <lambda_275893d493268fdec8709772e3fcec0e>::operator()
FUNC 2a405 141 0 <lambda_4e60a939b0d047cfe11ddc22648dfba9>::operator()
FUNC 2a546 16 0 _crt_atexit
FUNC 2a55c 1d 0 _execute_onexit_table
FUNC 2a579 3d 0 _initialize_onexit_table
FUNC 2a5b6 24 0 _register_onexit_function
FUNC 2a5da 12 0 initialize_global_variables
FUNC 2a5ec 1a 0 initialize_c
FUNC 2a606 8 4 uninitialize_environment
FUNC 2a60e 3d 0 initialize_pointers
FUNC 2a64b 9 4 uninitialize_vcruntime
FUNC 2a654 77 4 uninitialize_allocated_memory
FUNC 2a6cb 3 0 initialize_global_state_isolation
FUNC 2a6ce 12 0 __acrt_initialize
FUNC 2a6e0 b 0 __acrt_thread_attach
FUNC 2a6eb 8 0 __acrt_thread_detach
FUNC 2a6f3 12 4 __acrt_uninitialize
FUNC 2a705 12 0 __acrt_uninitialize_critical
FUNC 2a717 3c 0 terminate
FUNC 2a753 43 0 abort
FUNC 2a796 5a 0 strcpy_s
FUNC 2a7f0 3a 0 _free_base
FUNC 2a82a 4e 0 _malloc_base
FUNC 2a878 5d 0 _calloc_base
FUNC 2a8d5 6 0 _query_app_type
FUNC 2a8db 43 0 __acrt_errno_from_os_error
FUNC 2a91e 23 0 __acrt_errno_map_os_error
FUNC 2a941 13 0 __doserrno
FUNC 2a954 13 0 _errno
FUNC 2a967 8e 0 common_xtox<unsigned long,wchar_t>
FUNC 2a9f5 5f 0 common_xtox_s<unsigned long,wchar_t>
FUNC 2aa54 35 0 _itow_s
FUNC 2aa89 3f 0 _set_error_mode
FUNC 2aac8 75 0 wcscat_s
FUNC 2ab3d 64 0 wcscpy_s
FUNC 2aba1 e9 0 common_tcsncat_s<wchar_t>
FUNC 2ac8a b 0 wcsncat_s
FUNC 2ac95 d9 0 common_show_message_box<wchar_t>
FUNC 2ad6e 22 0 message_box_wait_thread<wchar_t>
FUNC 2ad90 b 0 __acrt_show_wide_message_box
FUNC 2ad9b 66 0 __acrt_stdio_flush_nolock
FUNC 2ae01 47 0 _fflush_nolock
FUNC 2ae48 9 0 _flushall
FUNC 2ae51 d8 0 common_flush_all
FUNC 2af29 59 0 fflush
FUNC 2af82 51 0 __crt_seh_guarded_call<int>::operator()<<lambda_d92cfe8357b99225085016881b624cb0>,<lambda_b721fa326cdb32351d23dfa67958c160> &,<lambda_42d75b0848218ec137fa420c8ba9fdf9> >(<lambda_d92cfe8357b99225085016881b624cb0> &&,<lambda_b721fa326cdb32351d23dfa67958c160> &,<lambda_42d75b0848218ec137fa420c8ba9fdf9> &&)
FUNC 2afd3 28 0 __acrt_lock_stream_and_call<<lambda_b721fa326cdb32351d23dfa67958c160> >(_iobuf * const,<lambda_b721fa326cdb32351d23dfa67958c160> &&)
FUNC 2affb 9a 0 <lambda_b721fa326cdb32351d23dfa67958c160>::operator()
FUNC 2b095 33 0 set_buffer
FUNC 2b0c8 76 0 setvbuf
FUNC 2b13e 5a 0 __crt_seh_guarded_call<void (*)(int)>::operator()<<lambda_a048d3beccc847880fc8490e18b82769>,<lambda_ec61778202f4f5fc7e7711acc23c3bca> &,<lambda_f7496a158712204296dd6628a163878e> >(<lambda_a048d3beccc847880fc8490e18b82769> &&,<lambda_ec61778202f4f5fc7e7711acc23c3bca> &,<lambda_f7496a158712204296dd6628a163878e> &&)
FUNC 2b198 28 0 __acrt_lock_and_call<<lambda_ec61778202f4f5fc7e7711acc23c3bca> >(__acrt_lock_id,<lambda_ec61778202f4f5fc7e7711acc23c3bca> &&)
FUNC 2b1c0 42 0 get_global_action_nolock
FUNC 2b202 28 0 siglookup
FUNC 2b22a 17 0 __acrt_get_sigabrt_handler
FUNC 2b241 3b 0 __acrt_initialize_signal_handlers
FUNC 2b27c 9 0 __fpecode
FUNC 2b285 208 0 raise
FUNC 2b48d 50 0 __crt_seh_guarded_call<void>::operator()<<lambda_3518db117f0e7cdb002338c5d3c47b6c>,<lambda_b2ea41f6bbb362cd97d94c6828d90b61> &,<lambda_abdedf541bb04549bc734292b4a045d4> >(<lambda_3518db117f0e7cdb002338c5d3c47b6c> &&,<lambda_b2ea41f6bbb362cd97d94c6828d90b61> &,<lambda_abdedf541bb04549bc734292b4a045d4> &&)
FUNC 2b4dd 61 0 __crt_seh_guarded_call<void>::operator()<<lambda_51b6e8b1eb166f2a3faf91f424b38130>,<lambda_6250bd4b2a391816dd638c3bf72b0bcb> &,<lambda_0b5a4a3e68152e1d9b943535f5f47bed> >(<lambda_51b6e8b1eb166f2a3faf91f424b38130> &&,<lambda_6250bd4b2a391816dd638c3bf72b0bcb> &,<lambda_0b5a4a3e68152e1d9b943535f5f47bed> &&)
FUNC 2b53e 4b 0 __crt_seh_guarded_call<void>::operator()<<lambda_5b71d36f03204c0beab531769a5b5694>,<lambda_be2b3da3f62db62e9dad5dc70221a656> &,<lambda_8f9ce462984622f9bf76b59e2aaaf805> >(<lambda_5b71d36f03204c0beab531769a5b5694> &&,<lambda_be2b3da3f62db62e9dad5dc70221a656> &,<lambda_8f9ce462984622f9bf76b59e2aaaf805> &&)
FUNC 2b589 48 0 __crt_seh_guarded_call<void>::operator()<<lambda_9df27f884b057bc3edfc946cb5b7cf47>,<lambda_e69574bed617af4e071282c136b37893> &,<lambda_cc0d902bcbbeb830f749456577db4721> >(<lambda_9df27f884b057bc3edfc946cb5b7cf47> &&,<lambda_e69574bed617af4e071282c136b37893> &,<lambda_cc0d902bcbbeb830f749456577db4721> &&)
FUNC 2b5d1 28 0 __acrt_lock_and_call<<lambda_6250bd4b2a391816dd638c3bf72b0bcb> >(__acrt_lock_id,<lambda_6250bd4b2a391816dd638c3bf72b0bcb> &&)
FUNC 2b5f9 28 0 __acrt_lock_and_call<<lambda_b2ea41f6bbb362cd97d94c6828d90b61> >(__acrt_lock_id,<lambda_b2ea41f6bbb362cd97d94c6828d90b61> &&)
FUNC 2b621 28 0 __acrt_lock_and_call<<lambda_be2b3da3f62db62e9dad5dc70221a656> >(__acrt_lock_id,<lambda_be2b3da3f62db62e9dad5dc70221a656> &&)
FUNC 2b649 28 0 __acrt_lock_and_call<<lambda_e69574bed617af4e071282c136b37893> >(__acrt_lock_id,<lambda_e69574bed617af4e071282c136b37893> &&)
FUNC 2b671 79 0 construct_ptd
FUNC 2b6ea 21 0 destroy_fls
FUNC 2b70b a9 0 destroy_ptd
FUNC 2b7b4 4b 0 replace_current_thread_locale_nolock
FUNC 2b7ff 2c 0 __acrt_freeptd
FUNC 2b82b 84 0 __acrt_getptd
FUNC 2b8af 85 0 __acrt_getptd_noexit
FUNC 2b934 2c 0 __acrt_initialize_ptd
FUNC 2b960 1a 4 __acrt_uninitialize_ptd
FUNC 2b97a 5f 0 iswctype
FUNC 2b9d9 2d 0 __acrt_update_locale_info
FUNC 2ba06 2d 0 __acrt_update_multibyte_info
FUNC 2ba33 b 0 __acrt_set_locale_changed
FUNC 2ba3e 52 0 __acrt_uninitialize_locale
FUNC 2ba90 127 8 strnlen
FUNC 2bbb7 1b7 8 wcsnlen
FUNC 2bd6e 29 0 _strnicoll
FUNC 2bd97 ca 0 _strnicoll_l
FUNC 2be61 41 0 __acrt_initialize_locks
FUNC 2bea2 17 0 __acrt_lock
FUNC 2beb9 31 4 __acrt_uninitialize_locks
FUNC 2beea 17 0 __acrt_unlock
FUNC 2bf01 14a 0 common_tox_l<&internal_isupper_l,&internal_map_lower>
FUNC 2c04b 1d 0 internal_isupper_l
FUNC 2c068 1a 0 _tolower_l
FUNC 2c082 30 0 tolower
FUNC 2c0b2 69 0 _realloc_base
FUNC 2c11b 1b 0 __crt_strtox::make_c_string_character_source<char,char * *>(char const * const,char * * const)
FUNC 2c136 2c 0 strtol
FUNC 2c162 2c 0 wcstol
FUNC 2c18e fa 0 _mbtowc_l
FUNC 2c288 1a 0 mbtowc
FUNC 2c2a2 121 0 _wctomb_s_l
FUNC 2c3c3 1d 0 wctomb_s
FUNC 2c3e0 6c 0 __acrt_fp_classify(double const &)
FUNC 2c44c 1e 0 __acrt_fp_is_negative(double const &)
FUNC 2c46a 303 0 fp_format_a
FUNC 2c76d 9b 0 fp_format_e
FUNC 2c808 14b 0 fp_format_e_internal
FUNC 2c953 8d 0 fp_format_f
FUNC 2c9e0 d7 0 fp_format_f_internal
FUNC 2cab7 c8 0 fp_format_g
FUNC 2cb7f f8 0 fp_format_nan_or_infinity
FUNC 2cc77 34 0 shift_bytes
FUNC 2ccab 14a 0 __acrt_fp_format
FUNC 2cdf5 32 0 fputwc_binary_nolock
FUNC 2ce27 126 0 _fputwc_nolock
FUNC 2cf4d 26 0 _fileno
FUNC 2cf73 29 0 _fputc_nolock
FUNC 2cf9c 15 0 _get_printf_count_output
FUNC 2cfb4 b5 0 __acrt_stdio_begin_temporary_buffering_nolock
FUNC 2d069 39 0 __acrt_stdio_end_temporary_buffering_nolock
FUNC 2d0a2 b6 0 initialize_inherited_file_handles_nolock
FUNC 2d158 b6 0 initialize_stdio_handles_nolock
FUNC 2d20e 56 0 __acrt_initialize_lowio
FUNC 2d264 2c 4 __acrt_uninitialize_lowio
FUNC 2d290 1a 0 try_get_CompareStringEx
FUNC 2d2aa 1a 0 try_get_MessageBoxA
FUNC 2d2c4 1a 0 try_get_MessageBoxW
FUNC 2d2de 9c 0 try_get_function
FUNC 2d37a 7b 0 try_get_module
FUNC 2d3f5 74 24 __acrt_CompareStringEx
FUNC 2d469 56 4 __acrt_FlsAlloc
FUNC 2d4bf 56 4 __acrt_FlsFree
FUNC 2d515 56 4 __acrt_FlsGetValue
FUNC 2d56b 59 8 __acrt_FlsSetValue
FUNC 2d5c4 62 c __acrt_InitializeCriticalSectionEx
FUNC 2d626 88 24 __acrt_LCMapStringEx
FUNC 2d6ae 5c 8 __acrt_LocaleNameToLCID
FUNC 2d70a 49 10 __acrt_MessageBoxW
FUNC 2d753 19 0 __acrt_can_show_message_box
FUNC 2d76c 7f 0 __acrt_get_parent_window
FUNC 2d7eb 26 0 __acrt_initialize_winapi_thunks
FUNC 2d811 a6 0 __acrt_is_interactive
FUNC 2d8b7 87 0 __acrt_is_packaged_app
FUNC 2d93e 36 0 __acrt_uninitialize_winapi_thunks
FUNC 2d974 a0 0 _fcloseall
FUNC 2da14 3e 0 __acrt_stdio_free_buffer_nolock
FUNC 2da52 26 0 __pctype_func
FUNC 2da78 d2 0 _isctype_l
FUNC 2db4a 18 0 <lambda_62bb7ecb46d0a77b591a051c43eb5ad1>::<helper_func_cdecl>
FUNC 2db62 190 0 common_expand_argv_wildcards<char>
FUNC 2dcf2 96 0 copy_and_add_argument_to_buffer<char>
FUNC 2dd88 184 0 expand_argument_wildcards<char>
FUNC 2df0c 25 0 `anonymous namespace'::argument_list<char>::~argument_list<char>()
FUNC 2df31 35 0 `anonymous namespace'::argument_list<char>::append(char * const)
FUNC 2df66 87 0 `anonymous namespace'::argument_list<char>::expand_if_necessary()
FUNC 2dfed b 0 __acrt_expand_narrow_argv_wildcards
FUNC 2dff8 43 0 __crt_seh_guarded_call<void>::operator()<<lambda_978dc153c237d78434369da87b74ff60>,<lambda_ad1ced32f4ac17aa236e5ef05d6b3b7c> &,<lambda_4a8533e2866a575feecb8298ce776b0d> >(<lambda_978dc153c237d78434369da87b74ff60> &&,<lambda_ad1ced32f4ac17aa236e5ef05d6b3b7c> &,<lambda_4a8533e2866a575feecb8298ce776b0d> &&)
FUNC 2e03b 28 0 __acrt_lock_and_call<<lambda_ad1ced32f4ac17aa236e5ef05d6b3b7c> >(__acrt_lock_id,<lambda_ad1ced32f4ac17aa236e5ef05d6b3b7c> &&)
FUNC 2e063 c4 0 <lambda_ad1ced32f4ac17aa236e5ef05d6b3b7c>::operator()
FUNC 2e127 3e 0 CPtoLocaleName
FUNC 2e165 73 0 getSystemCP
FUNC 2e1d8 65 0 setSBCS
FUNC 2e23d 194 0 setSBUpLow
FUNC 2e3d1 101 0 setmbcp_internal
FUNC 2e4d2 1e 0 __acrt_initialize_multibyte
FUNC 2e4f0 a2 0 __acrt_update_thread_multibyte_data
FUNC 2e592 1f1 0 _setmbcp_nolock
FUNC 2e783 81 0 memcpy_s
FUNC 2e804 59 0 x_ismbbtype_l
FUNC 2e85d 18 0 _ismbblead
FUNC 2e875 19 0 __acrt_initialize_command_line
FUNC 2e88e 37 0 find_end_of_double_null_terminated_sequence
FUNC 2e8c5 83 0 __dcrt_get_narrow_environment_from_os
FUNC 2e948 23b 0 common_set_variable_in_environment_nolock<char>
FUNC 2eb83 b1 0 copy_environment<char>
FUNC 2ec34 54 0 find_in_environment_nolock<char>
FUNC 2ec88 b 0 __dcrt_set_variable_in_narrow_environment_nolock
FUNC 2ec93 b 0 _recalloc
FUNC 2ec9e 6d 0 _recalloc_base
FUNC 2ed0b 11 0 __acrt_initialize_heap
FUNC 2ed1c a 4 __acrt_uninitialize_heap
FUNC 2ed26 83 0 __acrt_execute_initializers
FUNC 2eda9 4d 0 __acrt_execute_uninitializers
FUNC 2edf6 19 0 __acrt_has_user_matherr
FUNC 2ee0f 14 0 __acrt_initialize_user_matherr
FUNC 2ee23 49 0 __acrt_invoke_user_matherr
FUNC 2ee6c 6 0 _query_new_mode
FUNC 2ee72 98 0 __crt_seh_guarded_call<int>::operator()<<lambda_61cee617f5178ae960314fd4d05640a0>,<lambda_6978c1fb23f02e42e1d9e99668cc68aa> &,<lambda_9cd88cf8ad10232537feb2133f08c833> >(<lambda_61cee617f5178ae960314fd4d05640a0> &&,<lambda_6978c1fb23f02e42e1d9e99668cc68aa> &,<lambda_9cd88cf8ad10232537feb2133f08c833> &&)
FUNC 2ef0a 28 0 __acrt_lowio_lock_fh_and_call<<lambda_6978c1fb23f02e42e1d9e99668cc68aa> >(int,<lambda_6978c1fb23f02e42e1d9e99668cc68aa> &&)
FUNC 2ef32 6f 0 _commit
FUNC 2efa1 1b3 0 write_double_translated_ansi_nolock
FUNC 2f154 6d 0 write_double_translated_unicode_nolock
FUNC 2f1c1 76 0 write_requires_double_translation_nolock
FUNC 2f237 df 0 write_text_ansi_nolock
FUNC 2f316 ee 0 write_text_utf16le_nolock
FUNC 2f404 12d 0 write_text_utf8_nolock
FUNC 2f531 eb 0 _write
FUNC 2f61c 20c 0 _write_nolock
FUNC 2f828 7d 0 __acrt_add_locale_ref
FUNC 2f8a5 14a 0 __acrt_free_locale
FUNC 2f9ef 29 0 __acrt_locale_add_lc_time_reference
FUNC 2fa18 30 0 __acrt_locale_free_lc_time_if_unreferenced
FUNC 2fa48 29 0 __acrt_locale_release_lc_time_reference
FUNC 2fa71 81 0 __acrt_release_locale_ref
FUNC 2faf2 77 0 __acrt_update_thread_locale_data
FUNC 2fb69 50 0 _updatetlocinfoEx_nolock
FUNC 2fbb9 fe 0 __acrt_locale_free_monetary
FUNC 2fcb7 69 0 __acrt_locale_free_numeric
FUNC 2fd20 3c 0 free_crt_array_internal
FUNC 2fd5c e4 0 __acrt_locale_free_time
FUNC 2fe40 11d 0 __acrt_GetStringTypeA
FUNC 2ff5d 20 0 _freea_crt
FUNC 2ff7d 6c 0 _strnicmp
FUNC 2ffe9 b7 0 _strnicmp_l
FUNC 300a0 2a8 0 InternalCompareStringA
FUNC 30348 48 0 __acrt_CompareStringA
FUNC 30390 21d 0 __acrt_LCMapStringA_stat
FUNC 305ad 4b 0 __acrt_LCMapStringA
FUNC 305f8 bc 0 __acrt_fp_strflt_to_string
FUNC 306b4 2a 0 `anonymous namespace'::scoped_fp_state_reset::scoped_fp_state_reset()
FUNC 306e0 4ae 0 __crt_strtox::divide(__crt_strtox::big_integer &,__crt_strtox::big_integer const &)
FUNC 30b8e 139c 0 __acrt_fltout
FUNC 31f2a 111 0 common_flush_and_write_nolock<char>
FUNC 3203b 115 0 common_flush_and_write_nolock<wchar_t>
FUNC 32150 cc 0 write_buffer_nolock<char>
FUNC 3221c d4 0 write_buffer_nolock<wchar_t>
FUNC 322f0 b 0 __acrt_stdio_flush_and_write_narrow_nolock
FUNC 322fb b 0 __acrt_stdio_flush_and_write_wide_nolock
FUNC 32306 56 0 _isatty
FUNC 3235c 7a 0 __acrt_lowio_create_handle_array
FUNC 323d6 35 0 __acrt_lowio_destroy_handle_array
FUNC 3240b 98 0 __acrt_lowio_ensure_fh_exists
FUNC 324a3 23 0 __acrt_lowio_lock_fh
FUNC 324c6 23 0 __acrt_lowio_unlock_fh
FUNC 324e9 91 0 _free_osfhnd
FUNC 3257a 6a 0 _get_osfhandle
FUNC 325e4 bc 0 GetTableIndexFromLocaleName
FUNC 326a0 2c 0 __acrt_DownlevelLocaleNameToLCID
FUNC 326cc 76 0 _fclose_nolock
FUNC 32742 80 0 fclose
FUNC 327d0 96 0 shortsort
FUNC 32870 39 0 swap
FUNC 328b0 39a 0 qsort
FUNC 32c4a b1 0 common_tcsncpy_s<char>
FUNC 32cfb b 0 strncpy_s
FUNC 32d10 40 0 strpbrk
FUNC 32d50 17 0 _mbsdec
FUNC 32d67 8d 0 _mbsdec_l
FUNC 32df4 f 0 initialize_multibyte
FUNC 32e03 33 0 _msize
FUNC 32e36 105 0 common_lseek<__int64>
FUNC 32f3b 7e 0 common_lseek_nolock<__int64>
FUNC 32fb9 1b 0 _lseeki64
FUNC 32fd4 1b 0 _lseeki64_nolock
FUNC 32fef 45 0 _putwch_nolock
FUNC 33040 61 0 __ascii_strnicmp
FUNC 330a1 1c 0 __strncnt
FUNC 330bd 1d 0 fegetenv
FUNC 330da 49 0 fesetenv
FUNC 33123 4f 0 feholdexcept
FUNC 33180 3f 0 log10
FUNC 331c0 3b 0 _CIlog10
FUNC 331fb d5 0 _CIlog10_default
PUBLIC 3320f 0 _log10_default
FUNC 332d0 40 0 ceil
FUNC 33310 dd 0 _ceil_pentium4
FUNC 333ed 5d 0 __acrt_stdio_allocate_buffer_nolock
FUNC 3344a 82 0 __crt_seh_guarded_call<int>::operator()<<lambda_123407a5e2ac06da108355a851863b7a>,<lambda_2fe9b910cf3cbf4a0ab98a02ba45b3ec> &,<lambda_ae55bdf541ad94d75914d381c370e64d> >(<lambda_123407a5e2ac06da108355a851863b7a> &&,<lambda_2fe9b910cf3cbf4a0ab98a02ba45b3ec> &,<lambda_ae55bdf541ad94d75914d381c370e64d> &&)
FUNC 334cc 28 0 __acrt_lowio_lock_fh_and_call<<lambda_2fe9b910cf3cbf4a0ab98a02ba45b3ec> >(int,<lambda_2fe9b910cf3cbf4a0ab98a02ba45b3ec> &&)
FUNC 334f4 7f 0 _close
FUNC 33573 9c 0 _close_nolock
FUNC 3360f 3b 0 __acrt_stdio_free_stream(__crt_stdio_stream)
FUNC 3364a 1f 0 __dcrt_lowio_initialize_console_output
FUNC 33669 17 0 __dcrt_terminate_console_output
FUNC 33680 7d 0 __get_abstract_control_sse2
FUNC 336fd 73 0 __get_abstract_control_x87
FUNC 33770 71 0 __get_machine_control
FUNC 337e1 80 0 __get_machine_control_sse2
FUNC 33861 61 0 __get_machine_status_sse2
FUNC 338c2 61 0 __get_machine_status_x87
FUNC 33923 43 0 _getfpcontrolword
FUNC 33966 a8 0 _getfpstatusword
FUNC 33a0e 80 0 _setfpcontrolword
FUNC 33a8e 80 0 _setfpstatusword
FUNC 33b0e de 0 _clearfp
FUNC 33bec f 0 __acrt_initialize_sse2
FUNC 33c00 284 0 _CIlog10_pentium4
PUBLIC 33c18 0 _log10_pentium4
PUBLIC 33ea1 0 _fFEXP
PUBLIC 33ef8 0 _rtinfpopse
PUBLIC 33efa 0 _rtinfnpopse
PUBLIC 33f0a 0 _fFLN
PUBLIC 33fbf 0 _rtinfpop
PUBLIC 33fc1 0 _rtinfnpop
PUBLIC 33fde 0 _ffexpm1
FUNC 34090 67 0 _trandisp1
FUNC 340f7 8c 0 _trandisp2
PUBLIC 34183 0 _rttospopde
PUBLIC 34188 0 _rttospop
PUBLIC 3418a 0 _rtnospop
PUBLIC 3418c 0 _rttosnpop
PUBLIC 3418d 0 _rtnospopde
PUBLIC 34194 0 _rtzeropop
PUBLIC 34196 0 _rtzeronpop
PUBLIC 3419b 0 _rtzerospop
PUBLIC 341a8 0 _rtonepop
PUBLIC 341aa 0 _rtonenpop
PUBLIC 341af 0 _tosnan1
PUBLIC 341da 0 _nosnan2
PUBLIC 341dc 0 _tosnan2
PUBLIC 34204 0 _nan2
PUBLIC 34243 0 _rtindfpop
PUBLIC 34245 0 _rtindfnpop
PUBLIC 34256 0 _rttosnpopde
PUBLIC 34260 0 _rtatan2inf
PUBLIC 3427d 0 _rtchsifneg
FUNC 34290 15 0 _twoToTOS
FUNC 342a5 17 0 _load_CW
FUNC 342bc 19 0 _convertTOStoQNaN
FUNC 342d5 43 0 _fload_withFB
FUNC 34318 16 0 _checkTOS_withFB
FUNC 3432e d 0 _fast_exit
FUNC 3433b 2a 0 _math_exit
FUNC 34365 14 0 _check_overflow_exit
FUNC 34379 a3 0 _check_range_exit
FUNC 34420 17 0 _startTwoArgErrorHandling
FUNC 34437 3c 0 _startOneArgErrorHandling
FUNC 34473 218 0 __libm_error_support
FUNC 3468b b9 0 _ceil_default
FUNC 34744 13 0 _clrfp
FUNC 34757 2c 0 _ctrlfp
FUNC 34783 5b 0 _set_statfp
FUNC 347de 12 0 _statfp
FUNC 347f0 6a 0 _d_inttype
FUNC 3485a 12b 0 _powhlp
FUNC 34985 10b 0 _87except
FUNC 34a90 16 0 _frnd
FUNC 34aa6 34 0 _errcode
FUNC 34ada ce 0 _except1
FUNC 34ba8 1e0 0 _handle_exc
FUNC 34d88 23 0 _raise_exc
FUNC 34dab 2f1 0 _raise_exc_ex
FUNC 3509c 2f 0 _set_errno_from_matherr
FUNC 350cb a2 0 _umatherr
FUNC 3516d d4 0 _decomp
FUNC 35241 2f 0 _set_exp
FUNC 35270 5e 0 _sptype
FUNC 352ce a4 0 _fpclass
PUBLIC 35372 4 IsProcessorFeaturePresent
PUBLIC 35378 10 RtlUnwind
FUNC 35380 43 0 _FindPESection
FUNC 353d0 ba 0 _IsNonwritableInCurrentImage
FUNC 35490 31 0 _ValidateImageBase
FUNC 354d0 95 0 _aulldvrm
FUNC 35570 34 0 _allmul
FUNC 355b0 aa 0 _alldiv
FUNC 35660 df 0 _alldvrm
FUNC 35740 49 0 _SEH_prolog4_GS
FUNC 35789 11 0 _SEH_epilog4_GS
FUNC 357a0 1f 0 _aullshr
FUNC 357c0 2d 0 _chkstk
FUNC 357f0 2c 0 _alloca_probe_16
PUBLIC 35806 0 _alloca_probe_8
FUNC 35820 1f 0 _allshl
FUNC 35840 9 0 _ftol2_sse
FUNC 35849 13 0 _ftol2_pentium4
FUNC 3585c 1a 0 _ftol2_sse_excpt
FUNC 35880 75 0 _ftol2
FUNC 35900 574 0 memcpy
FUNC 35e80 137 0 strrchr
STACK WIN 4 1000 bc 9 0 4 8 10 0 1 $T0 .raSearch = $eip $T0 ^ = $esp $T0 4 + =  $20 $T0 20 - ^ =  $23 $T0 24 - ^ = 
STACK WIN 4 10c0 153 18 0 8 c 3c 0 1 $T1 .raSearch = $T0  $T1 4 - 8 @ = $ebp $T1 4 - ^ = $eip $T1 ^ = $esp $T1 4 + = $20 $T0 64 - ^ =  $23 $T0 68 - ^ =  $24 $T0 72 - ^ = 
STACK WIN 4 1220 72 d 0 0 0 0 0 1 $T0 .raSearch = $eip $T0 ^ = $esp $T0 4 + = 
STACK WIN 4 1224 6a 9 0 0 4 18 0 1 $T0 .raSearch = $eip $T0 ^ = $esp $T0 4 + =  $23 $T0 28 - ^ = 
STACK WIN 4 1225 68 8 0 0 8 18 0 1 $T0 .raSearch = $eip $T0 ^ = $esp $T0 4 + =  $23 $T0 28 - ^ =  $24 $T0 32 - ^ = 
STACK WIN 4 12a0 9c 3 0 4 0 0 0 1 $T0 .raSearch = $eip $T0 ^ = $esp $T0 4 + = 
STACK WIN 4 12a1 98 2 0 4 4 0 0 1 $T0 .raSearch = $eip $T0 ^ = $esp $T0 4 + =  $23 $T0 4 - ^ = 
STACK WIN 4 12a4 94 0 0 4 8 0 0 1 $T0 .raSearch = $eip $T0 ^ = $esp $T0 4 + =  $23 $T0 4 - ^ =  $24 $T0 8 - ^ = 
STACK WIN 4 1340 2e 3 0 0 0 0 0 1 $T0 .raSearch = $eip $T0 ^ = $esp $T0 4 + = 
STACK WIN 4 1341 2c 2 0 0 4 0 0 1 $T0 .raSearch = $eip $T0 ^ = $esp $T0 4 + =  $23 $T0 4 - ^ = 
STACK WIN 4 1370 7c 3 0 0 0 0 0 1 $T0 .raSearch = $eip $T0 ^ = $esp $T0 4 + = 
STACK WIN 4 1371 7a 2 0 0 4 0 0 1 $T0 .raSearch = $eip $T0 ^ = $esp $T0 4 + =  $23 $T0 4 - ^ = 
STACK WIN 4 13f0 6c 5 0 4 0 0 0 1 $T0 .raSearch = $eip $T0 ^ = $esp $T0 4 + = 
STACK WIN 4 13f5 66 0 0 4 4 0 0 1 $T0 .raSearch = $eip $T0 ^ = $esp $T0 4 + =  $23 $T0 4 - ^ = 
STACK WIN 4 1460 73 3 0 4 0 0 0 1 $T0 .raSearch = $eip $T0 ^ = $esp $T0 4 + = 
STACK WIN 4 1461 6f 2 0 4 4 0 0 1 $T0 .raSearch = $eip $T0 ^ = $esp $T0 4 + =  $23 $T0 4 - ^ = 
STACK WIN 4 14e0 8c 5 0 4 0 0 0 1 $T0 .raSearch = $eip $T0 ^ = $esp $T0 4 + = 
STACK WIN 4 14e4 59 1 0 4 4 c 0 1 $T0 .raSearch = $eip $T0 ^ = $esp $T0 4 + =  $23 $T0 16 - ^ = 
STACK WIN 4 14e5 57 0 0 4 8 c 0 1 $T0 .raSearch = $eip $T0 ^ = $esp $T0 4 + =  $23 $T0 16 - ^ =  $24 $T0 20 - ^ = 
STACK WIN 4 1570 218 1a 0 4 c 3c 0 1 $T1 .raSearch = $T0  $T1 4 - 8 @ = $ebp $T1 4 - ^ = $eip $T1 ^ = $esp $T1 4 + = $20 $T0 64 - ^ =  $23 $T0 68 - ^ =  $24 $T0 72 - ^ = 
STACK WIN 4 1790 12d 16 0 4 8 38 0 1 $T1 .raSearch = $T0  $T1 4 - 8 @ = $ebp $T1 4 - ^ = $eip $T1 ^ = $esp $T1 4 + = $20 $T0 60 - ^ =  $23 $T0 64 - ^ = 
STACK WIN 4 18c0 2ff d 0 4 10 74 0 1 $T0 .raSearch = $eip $T0 ^ = $esp $T0 4 + =  $20 $T0 120 - ^ =  $22 $T0 124 - ^ =  $23 $T0 128 - ^ =  $24 $T0 132 - ^ = 
STACK WIN 4 1bc0 101 16 0 4 8 30 0 1 $T1 .raSearch = $T0  $T1 4 - 8 @ = $ebp $T1 4 - ^ = $eip $T1 ^ = $esp $T1 4 + = $23 $T0 52 - ^ =  $24 $T0 56 - ^ = 
STACK WIN 4 1cd0 101 16 0 4 8 30 0 1 $T1 .raSearch = $T0  $T1 4 - 8 @ = $ebp $T1 4 - ^ = $eip $T1 ^ = $esp $T1 4 + = $23 $T0 52 - ^ =  $24 $T0 56 - ^ = 
STACK WIN 4 1de0 24e 1d 0 4 c 5c 0 1 $T1 .raSearch = $T0  $T1 4 - 8 @ = $ebp $T1 4 - ^ = $eip $T1 ^ = $esp $T1 4 + = $20 $T0 96 - ^ =  $23 $T0 100 - ^ =  $24 $T0 104 - ^ = 
STACK WIN 4 2030 22f 1d 0 4 c 44 0 1 $T1 .raSearch = $T0  $T1 4 - 8 @ = $ebp $T1 4 - ^ = $eip $T1 ^ = $esp $T1 4 + = $20 $T0 72 - ^ =  $23 $T0 76 - ^ =  $24 $T0 80 - ^ = 
STACK WIN 4 2260 71 3 0 0 0 0 0 1 $T0 .raSearch = $eip $T0 ^ = $esp $T0 4 + = 
STACK WIN 4 2261 6f 2 0 0 4 0 0 1 $T0 .raSearch = $eip $T0 ^ = $esp $T0 4 + =  $23 $T0 4 - ^ = 
STACK WIN 4 22e0 1a2 4 0 4 4 c 0 1 $T0 .raSearch = $eip $T0 ^ = $esp $T0 4 + =  $23 $T0 16 - ^ = 
STACK WIN 4 2490 20 3 0 4 0 0 0 1 $T0 .raSearch = $eip $T0 ^ = $esp $T0 4 + = 
STACK WIN 4 2491 1c 2 0 4 4 0 0 1 $T0 .raSearch = $eip $T0 ^ = $esp $T0 4 + =  $23 $T0 4 - ^ = 
STACK WIN 4 24b0 b 0 0 8 0 0 0 1 $T0 .raSearch = $eip $T0 ^ = $esp $T0 4 + = 
STACK WIN 4 24c0 d 0 0 0 0 0 0 1 $T0 .raSearch = $eip $T0 ^ = $esp $T0 4 + = 
STACK WIN 4 24d0 5c 8 0 4 0 0 0 1 $T0 .raSearch = $eip $T0 ^ = $esp $T0 4 + = 
STACK WIN 4 24d1 4d 7 0 4 4 0 0 1 $T0 .raSearch = $eip $T0 ^ = $esp $T0 4 + =  $23 $T0 4 - ^ = 
STACK WIN 4 24d6 47 2 0 4 8 0 0 1 $T0 .raSearch = $eip $T0 ^ = $esp $T0 4 + =  $23 $T0 4 - ^ =  $24 $T0 8 - ^ = 
STACK WIN 4 2530 4f 4 0 0 0 0 0 1 $T0 .raSearch = $eip $T0 ^ = $esp $T0 4 + = 
STACK WIN 4 2532 4b 2 0 0 4 4 0 1 $T0 .raSearch = $eip $T0 ^ = $esp $T0 4 + =  $24 $T0 8 - ^ = 
STACK WIN 4 2580 f1 8 0 8 0 0 0 1 $T0 .raSearch = $eip $T0 ^ = $esp $T0 4 + = 
STACK WIN 4 2581 e2 7 0 8 4 0 0 1 $T0 .raSearch = $eip $T0 ^ = $esp $T0 4 + =  $20 $T0 4 - ^ = 
STACK WIN 4 2586 dc 2 0 8 8 0 0 1 $T0 .raSearch = $eip $T0 ^ = $esp $T0 4 + =  $20 $T0 4 - ^ =  $23 $T0 8 - ^ = 
STACK WIN 4 25e4 7b 0 0 8 c 0 0 1 $T0 .raSearch = $eip $T0 ^ = $esp $T0 4 + =  $20 $T0 4 - ^ =  $23 $T0 8 - ^ =  $24 $T0 12 - ^ = 
STACK WIN 4 2666 b 0 0 8 8 0 0 1 $T0 .raSearch = $eip $T0 ^ = $esp $T0 4 + =  $20 $T0 4 - ^ =  $23 $T0 8 - ^ =  $24 $T0 12 - ^ = 
STACK WIN 4 2680 103 10 0 c 0 0 0 1 $T0 .raSearch = $eip $T0 ^ = $esp $T0 4 + = 
STACK WIN 4 2681 e0 f 0 c 4 0 0 1 $T0 .raSearch = $eip $T0 ^ = $esp $T0 4 + =  $20 $T0 4 - ^ = 
STACK WIN 4 2686 da a 0 c 8 0 0 1 $T0 .raSearch = $eip $T0 ^ = $esp $T0 4 + =  $20 $T0 4 - ^ =  $22 $T0 8 - ^ = 
STACK WIN 4 268b d4 5 0 c c 0 0 1 $T0 .raSearch = $eip $T0 ^ = $esp $T0 4 + =  $20 $T0 4 - ^ =  $22 $T0 8 - ^ =  $23 $T0 12 - ^ = 
STACK WIN 4 269b c1 0 0 c 10 0 0 1 $T0 .raSearch = $eip $T0 ^ = $esp $T0 4 + =  $20 $T0 4 - ^ =  $22 $T0 8 - ^ =  $23 $T0 12 - ^ =  $24 $T0 16 - ^ = 
STACK WIN 4 2790 5a 0 0 8 0 0 0 1 $T0 .raSearch = $eip $T0 ^ = $esp $T0 4 + = 
STACK WIN 4 27f0 57 0 0 8 0 0 0 1 $T0 .raSearch = $eip $T0 ^ = $esp $T0 4 + = 
STACK WIN 4 2850 56 0 0 8 0 0 0 1 $T0 .raSearch = $eip $T0 ^ = $esp $T0 4 + = 
STACK WIN 4 28b0 56 0 0 4 0 0 0 1 $T0 .raSearch = $eip $T0 ^ = $esp $T0 4 + = 
STACK WIN 4 2910 46 0 0 8 0 0 0 1 $T0 .raSearch = $eip $T0 ^ = $esp $T0 4 + = 
STACK WIN 4 2960 72 7 0 8 0 0 0 1 $T0 .raSearch = $eip $T0 ^ = $esp $T0 4 + = 
STACK WIN 4 2965 6a 2 0 8 4 0 0 1 $T0 .raSearch = $eip $T0 ^ = $esp $T0 4 + =  $23 $T0 4 - ^ = 
STACK WIN 4 2968 64 0 0 8 8 0 0 1 $T0 .raSearch = $eip $T0 ^ = $esp $T0 4 + =  $23 $T0 4 - ^ =  $24 $T0 8 - ^ = 
STACK WIN 4 29e0 ed b 0 8 0 0 0 1 $T0 .raSearch = $eip $T0 ^ = $esp $T0 4 + = 
STACK WIN 4 29e5 df 6 0 8 4 0 0 1 $T0 .raSearch = $eip $T0 ^ = $esp $T0 4 + =  $20 $T0 4 - ^ = 
STACK WIN 4 29e6 dd 5 0 8 8 0 0 1 $T0 .raSearch = $eip $T0 ^ = $esp $T0 4 + =  $20 $T0 4 - ^ =  $23 $T0 8 - ^ = 
STACK WIN 4 29e7 db 4 0 8 c 0 0 1 $T0 .raSearch = $eip $T0 ^ = $esp $T0 4 + =  $20 $T0 4 - ^ =  $23 $T0 8 - ^ =  $24 $T0 12 - ^ = 
STACK WIN 4 2a5b 66 0 0 8 10 0 0 1 $T0 .raSearch = $eip $T0 ^ = $esp $T0 4 + =  $20 $T0 4 - ^ =  $23 $T0 8 - ^ =  $24 $T0 12 - ^ =  $22 $T0 16 - ^ = 
STACK WIN 4 2ad0 48 0 0 4 0 0 0 1 $T0 .raSearch = $eip $T0 ^ = $esp $T0 4 + = 
STACK WIN 4 2b20 6d 0 0 4 0 0 0 1 $T0 .raSearch = $eip $T0 ^ = $esp $T0 4 + = 
STACK WIN 4 2b90 8d 9 0 4 8 14 0 1 $T0 .raSearch = $eip $T0 ^ = $esp $T0 4 + =  $20 $T0 24 - ^ =  $23 $T0 28 - ^ = 
STACK WIN 4 2c20 4b 3 0 8 0 0 0 1 $T0 .raSearch = $eip $T0 ^ = $esp $T0 4 + = 
STACK WIN 4 2c21 49 2 0 8 4 0 0 1 $T0 .raSearch = $eip $T0 ^ = $esp $T0 4 + =  $24 $T0 4 - ^ = 
STACK WIN 4 2c28 41 0 0 8 8 0 0 1 $T0 .raSearch = $eip $T0 ^ = $esp $T0 4 + =  $24 $T0 4 - ^ =  $23 $T0 8 - ^ = 
STACK WIN 4 2c70 21 8 0 4 0 0 0 1 $T0 .raSearch = $eip $T0 ^ = $esp $T0 4 + = 
STACK WIN 4 2c76 18 2 0 4 4 0 0 1 $T0 .raSearch = $eip $T0 ^ = $esp $T0 4 + =  $23 $T0 4 - ^ = 
STACK WIN 4 2ca0 54 3 0 4 0 0 0 1 $T0 .raSearch = $eip $T0 ^ = $esp $T0 4 + = 
STACK WIN 4 2ca1 50 2 0 4 4 0 0 1 $T0 .raSearch = $eip $T0 ^ = $esp $T0 4 + =  $23 $T0 4 - ^ = 
STACK WIN 4 2ca4 4a 0 0 4 8 0 0 1 $T0 .raSearch = $eip $T0 ^ = $esp $T0 4 + =  $23 $T0 4 - ^ =  $24 $T0 8 - ^ = 
STACK WIN 4 2d00 2b 4 0 4 0 0 0 1 $T0 .raSearch = $eip $T0 ^ = $esp $T0 4 + = 
STACK WIN 4 2d01 27 3 0 4 4 0 0 1 $T0 .raSearch = $eip $T0 ^ = $esp $T0 4 + =  $23 $T0 4 - ^ = 
STACK WIN 4 2d02 23 2 0 4 8 0 0 1 $T0 .raSearch = $eip $T0 ^ = $esp $T0 4 + =  $23 $T0 4 - ^ =  $24 $T0 8 - ^ = 
STACK WIN 4 2d30 47 4 0 8 0 0 0 1 $T0 .raSearch = $eip $T0 ^ = $esp $T0 4 + = 
STACK WIN 4 2d31 43 3 0 8 4 0 0 1 $T0 .raSearch = $eip $T0 ^ = $esp $T0 4 + =  $23 $T0 4 - ^ = 
STACK WIN 4 2d32 41 2 0 8 8 0 0 1 $T0 .raSearch = $eip $T0 ^ = $esp $T0 4 + =  $23 $T0 4 - ^ =  $24 $T0 8 - ^ = 
STACK WIN 4 2d80 1b 0 0 8 0 0 0 1 $T0 .raSearch = $eip $T0 ^ = $esp $T0 4 + = 
STACK WIN 4 2da0 29 0 0 4 0 0 0 1 $T0 .raSearch = $eip $T0 ^ = $esp $T0 4 + = 
STACK WIN 4 2dd0 1d0 d 0 c 10 28 0 1 $T0 .raSearch = $eip $T0 ^ = $esp $T0 4 + =  $20 $T0 44 - ^ =  $22 $T0 48 - ^ =  $23 $T0 52 - ^ =  $24 $T0 56 - ^ = 
STACK WIN 4 2fa0 1f 0 0 4 0 0 0 1 $T0 .raSearch = $eip $T0 ^ = $esp $T0 4 + = 
STACK WIN 4 2fc0 26 0 0 4 0 0 0 1 $T0 .raSearch = $eip $T0 ^ = $esp $T0 4 + = 
STACK WIN 4 2ff0 127 1d 0 8 c 24 0 1 $T1 .raSearch = $T0  $T1 4 - 8 @ = $ebp $T1 4 - ^ = $eip $T1 ^ = $esp $T1 4 + = $20 $T0 40 - ^ =  $23 $T0 44 - ^ =  $24 $T0 48 - ^ = 
STACK WIN 4 3120 103 5 0 4 0 0 0 1 $T0 .raSearch = $eip $T0 ^ = $esp $T0 4 + = 
STACK WIN 4 3121 ea 4 0 4 4 0 0 1 $T0 .raSearch = $eip $T0 ^ = $esp $T0 4 + =  $20 $T0 4 - ^ = 
STACK WIN 4 3122 e8 3 0 4 8 0 0 1 $T0 .raSearch = $eip $T0 ^ = $esp $T0 4 + =  $20 $T0 4 - ^ =  $22 $T0 8 - ^ = 
STACK WIN 4 3123 e6 2 0 4 c 0 0 1 $T0 .raSearch = $eip $T0 ^ = $esp $T0 4 + =  $20 $T0 4 - ^ =  $22 $T0 8 - ^ =  $23 $T0 12 - ^ = 
STACK WIN 4 3126 e2 0 0 4 10 0 0 1 $T0 .raSearch = $eip $T0 ^ = $esp $T0 4 + =  $20 $T0 4 - ^ =  $22 $T0 8 - ^ =  $23 $T0 12 - ^ =  $24 $T0 16 - ^ = 
STACK WIN 4 3230 b9 9 0 4 0 0 0 1 $T0 .raSearch = $eip $T0 ^ = $esp $T0 4 + = 
STACK WIN 4 3231 b5 8 0 4 4 0 0 1 $T0 .raSearch = $eip $T0 ^ = $esp $T0 4 + =  $20 $T0 4 - ^ = 
STACK WIN 4 3232 b3 7 0 4 8 0 0 1 $T0 .raSearch = $eip $T0 ^ = $esp $T0 4 + =  $20 $T0 4 - ^ =  $23 $T0 8 - ^ = 
STACK WIN 4 3237 ad 2 0 4 c 0 0 1 $T0 .raSearch = $eip $T0 ^ = $esp $T0 4 + =  $20 $T0 4 - ^ =  $23 $T0 8 - ^ =  $24 $T0 12 - ^ = 
STACK WIN 4 32f0 41 0 0 4 0 0 0 1 $T0 .raSearch = $eip $T0 ^ = $esp $T0 4 + = 
STACK WIN 4 3340 4c 3 0 4 0 0 0 1 $T0 .raSearch = $eip $T0 ^ = $esp $T0 4 + = 
STACK WIN 4 3341 48 2 0 4 4 0 0 1 $T0 .raSearch = $eip $T0 ^ = $esp $T0 4 + =  $23 $T0 4 - ^ = 
STACK WIN 4 3390 89 3 0 4 0 0 0 1 $T0 .raSearch = $eip $T0 ^ = $esp $T0 4 + = 
STACK WIN 4 3391 7a 2 0 4 4 0 0 1 $T0 .raSearch = $eip $T0 ^ = $esp $T0 4 + =  $20 $T0 4 - ^ = 
STACK WIN 4 3399 71 0 0 4 8 0 0 1 $T0 .raSearch = $eip $T0 ^ = $esp $T0 4 + =  $20 $T0 4 - ^ =  $23 $T0 8 - ^ = 
STACK WIN 4 33be 4b 0 0 4 c 0 0 1 $T0 .raSearch = $eip $T0 ^ = $esp $T0 4 + =  $20 $T0 4 - ^ =  $23 $T0 8 - ^ =  $22 $T0 12 - ^ = 
STACK WIN 4 33c7 41 0 0 4 10 0 0 1 $T0 .raSearch = $eip $T0 ^ = $esp $T0 4 + =  $20 $T0 4 - ^ =  $23 $T0 8 - ^ =  $22 $T0 12 - ^ =  $24 $T0 16 - ^ = 
STACK WIN 4 3420 ef 9 0 4 10 4 0 1 $T0 .raSearch = $eip $T0 ^ = $esp $T0 4 + =  $20 $T0 8 - ^ =  $22 $T0 12 - ^ =  $23 $T0 16 - ^ =  $24 $T0 20 - ^ = 
STACK WIN 4 3510 63 3 0 0 0 0 0 1 $T0 .raSearch = $eip $T0 ^ = $esp $T0 4 + = 
STACK WIN 4 3511 4c 2 0 0 4 0 0 1 $T0 .raSearch = $eip $T0 ^ = $esp $T0 4 + =  $23 $T0 4 - ^ = 
STACK WIN 4 3580 9d 9 0 4 0 0 0 1 $T0 .raSearch = $eip $T0 ^ = $esp $T0 4 + = 
STACK WIN 4 3581 8e 8 0 4 4 0 0 1 $T0 .raSearch = $eip $T0 ^ = $esp $T0 4 + =  $20 $T0 4 - ^ = 
STACK WIN 4 3586 88 3 0 4 8 0 0 1 $T0 .raSearch = $eip $T0 ^ = $esp $T0 4 + =  $20 $T0 4 - ^ =  $23 $T0 8 - ^ = 
STACK WIN 4 3587 86 2 0 4 c 0 0 1 $T0 .raSearch = $eip $T0 ^ = $esp $T0 4 + =  $20 $T0 4 - ^ =  $23 $T0 8 - ^ =  $24 $T0 12 - ^ = 
STACK WIN 4 35d3 36 0 0 4 10 0 0 1 $T0 .raSearch = $eip $T0 ^ = $esp $T0 4 + =  $20 $T0 4 - ^ =  $23 $T0 8 - ^ =  $24 $T0 12 - ^ =  $22 $T0 16 - ^ = 
STACK WIN 4 3612 b 0 0 4 c 0 0 1 $T0 .raSearch = $eip $T0 ^ = $esp $T0 4 + =  $20 $T0 4 - ^ =  $23 $T0 8 - ^ =  $24 $T0 12 - ^ =  $22 $T0 16 - ^ = 
STACK WIN 4 3620 93 3 0 10 0 0 0 1 $T0 .raSearch = $eip $T0 ^ = $esp $T0 4 + = 
STACK WIN 4 3621 91 2 0 10 4 0 0 1 $T0 .raSearch = $eip $T0 ^ = $esp $T0 4 + =  $20 $T0 4 - ^ = 
STACK WIN 4 362c 7f 0 0 10 8 0 0 1 $T0 .raSearch = $eip $T0 ^ = $esp $T0 4 + =  $20 $T0 4 - ^ =  $23 $T0 8 - ^ = 
STACK WIN 4 362d 7d 0 0 10 c 0 0 1 $T0 .raSearch = $eip $T0 ^ = $esp $T0 4 + =  $20 $T0 4 - ^ =  $23 $T0 8 - ^ =  $24 $T0 12 - ^ = 
STACK WIN 4 36c0 111 16 0 0 10 24 0 1 $T0 .raSearch = $eip $T0 ^ = $esp $T0 4 + =  $20 $T0 40 - ^ =  $22 $T0 44 - ^ =  $23 $T0 48 - ^ =  $24 $T0 52 - ^ = 
STACK WIN 4 37e0 131 15 0 0 c 28 0 1 $T0 .raSearch = $eip $T0 ^ = $esp $T0 4 + =  $20 $T0 44 - ^ =  $23 $T0 48 - ^ =  $24 $T0 52 - ^ = 
STACK WIN 4 3920 67 3 0 0 0 0 0 1 $T0 .raSearch = $eip $T0 ^ = $esp $T0 4 + = 
STACK WIN 4 3921 65 2 0 0 4 0 0 1 $T0 .raSearch = $eip $T0 ^ = $esp $T0 4 + =  $23 $T0 4 - ^ = 
STACK WIN 4 3929 5a 0 0 0 8 0 0 1 $T0 .raSearch = $eip $T0 ^ = $esp $T0 4 + =  $23 $T0 4 - ^ =  $24 $T0 8 - ^ = 
STACK WIN 4 3990 62 3 0 4 0 0 0 1 $T0 .raSearch = $eip $T0 ^ = $esp $T0 4 + = 
STACK WIN 4 3991 5e 2 0 4 4 0 0 1 $T0 .raSearch = $eip $T0 ^ = $esp $T0 4 + =  $23 $T0 4 - ^ = 
STACK WIN 4 3a00 15d 1c 0 4 c 3c 0 1 $T1 .raSearch = $T0  $T1 4 - 8 @ = $ebp $T1 4 - ^ = $eip $T1 ^ = $esp $T1 4 + = $20 $T0 64 - ^ =  $23 $T0 68 - ^ =  $24 $T0 72 - ^ = 
STACK WIN 4 3b60 5 0 0 8 0 0 0 1 $T0 .raSearch = $eip $T0 ^ = $esp $T0 4 + = 
STACK WIN 4 3b70 174 1d 0 8 c 4c 0 1 $T1 .raSearch = $T0  $T1 4 - 8 @ = $ebp $T1 4 - ^ = $eip $T1 ^ = $esp $T1 4 + = $20 $T0 80 - ^ =  $23 $T0 84 - ^ =  $24 $T0 88 - ^ = 
STACK WIN 4 3cf0 c6 1b 0 4 8 28 0 1 $T1 .raSearch = $T0  $T1 4 - 8 @ = $ebp $T1 4 - ^ = $eip $T1 ^ = $esp $T1 4 + = $20 $T0 44 - ^ =  $23 $T0 48 - ^ = 
STACK WIN 4 3dc0 157 2a 0 c c 44 0 1 $T1 .raSearch = $T0  $T1 4 - 8 @ = $ebp $T1 4 - ^ = $eip $T1 ^ = $esp $T1 4 + = $20 $T0 72 - ^ =  $23 $T0 76 - ^ =  $24 $T0 80 - ^ = 
STACK WIN 4 3f20 67 1a 0 4 4 1c 0 1 $T1 .raSearch = $T0  $T1 4 - 8 @ = $ebp $T1 4 - ^ = $eip $T1 ^ = $esp $T1 4 + = $23 $T0 32 - ^ = 
STACK WIN 4 3f90 3 0 0 4 0 0 0 1 $T0 .raSearch = $eip $T0 ^ = $esp $T0 4 + = 
STACK WIN 4 3fa0 1dd 1f 0 8 c 64 0 1 $T1 .raSearch = $T0  $T1 4 - 8 @ = $ebp $T1 4 - ^ = $eip $T1 ^ = $esp $T1 4 + = $20 $T0 104 - ^ =  $23 $T0 108 - ^ =  $24 $T0 112 - ^ = 
STACK WIN 4 4180 68 1 0 0 0 0 0 1 $T0 .raSearch = $eip $T0 ^ = $esp $T0 4 + = 
STACK WIN 4 4181 66 0 0 0 4 0 0 1 $T0 .raSearch = $eip $T0 ^ = $esp $T0 4 + =  $23 $T0 4 - ^ = 
STACK WIN 4 41f0 38 3 0 0 0 0 0 1 $T0 .raSearch = $eip $T0 ^ = $esp $T0 4 + = 
STACK WIN 4 41f1 36 2 0 0 4 0 0 1 $T0 .raSearch = $eip $T0 ^ = $esp $T0 4 + =  $23 $T0 4 - ^ = 
STACK WIN 4 4230 f4 8 0 8 0 0 0 1 $T0 .raSearch = $eip $T0 ^ = $esp $T0 4 + = 
STACK WIN 4 4231 e5 7 0 8 4 0 0 1 $T0 .raSearch = $eip $T0 ^ = $esp $T0 4 + =  $20 $T0 4 - ^ = 
STACK WIN 4 4236 df 2 0 8 8 0 0 1 $T0 .raSearch = $eip $T0 ^ = $esp $T0 4 + =  $20 $T0 4 - ^ =  $23 $T0 8 - ^ = 
STACK WIN 4 4285 8d 0 0 8 c 0 0 1 $T0 .raSearch = $eip $T0 ^ = $esp $T0 4 + =  $20 $T0 4 - ^ =  $23 $T0 8 - ^ =  $24 $T0 12 - ^ = 
STACK WIN 4 4319 b 0 0 8 8 0 0 1 $T0 .raSearch = $eip $T0 ^ = $esp $T0 4 + =  $20 $T0 4 - ^ =  $23 $T0 8 - ^ =  $24 $T0 12 - ^ = 
STACK WIN 4 4330 69 8 0 4 0 0 0 1 $T0 .raSearch = $eip $T0 ^ = $esp $T0 4 + = 
STACK WIN 4 4331 65 7 0 4 4 0 0 1 $T0 .raSearch = $eip $T0 ^ = $esp $T0 4 + =  $23 $T0 4 - ^ = 
STACK WIN 4 4336 5c 2 0 4 8 0 0 1 $T0 .raSearch = $eip $T0 ^ = $esp $T0 4 + =  $23 $T0 4 - ^ =  $24 $T0 8 - ^ = 
STACK WIN 4 43a0 113 10 0 c 0 0 0 1 $T0 .raSearch = $eip $T0 ^ = $esp $T0 4 + = 
STACK WIN 4 43a1 f0 f 0 c 4 0 0 1 $T0 .raSearch = $eip $T0 ^ = $esp $T0 4 + =  $20 $T0 4 - ^ = 
STACK WIN 4 43a6 ea a 0 c 8 0 0 1 $T0 .raSearch = $eip $T0 ^ = $esp $T0 4 + =  $20 $T0 4 - ^ =  $22 $T0 8 - ^ = 
STACK WIN 4 43ab e4 5 0 c c 0 0 1 $T0 .raSearch = $eip $T0 ^ = $esp $T0 4 + =  $20 $T0 4 - ^ =  $22 $T0 8 - ^ =  $23 $T0 12 - ^ = 
STACK WIN 4 43bb d1 0 0 c 10 0 0 1 $T0 .raSearch = $eip $T0 ^ = $esp $T0 4 + =  $20 $T0 4 - ^ =  $22 $T0 8 - ^ =  $23 $T0 12 - ^ =  $24 $T0 16 - ^ = 
STACK WIN 4 44c0 ca b 0 8 0 0 0 1 $T0 .raSearch = $eip $T0 ^ = $esp $T0 4 + = 
STACK WIN 4 44c5 c2 6 0 8 4 0 0 1 $T0 .raSearch = $eip $T0 ^ = $esp $T0 4 + =  $20 $T0 4 - ^ = 
STACK WIN 4 44c6 c0 5 0 8 8 0 0 1 $T0 .raSearch = $eip $T0 ^ = $esp $T0 4 + =  $20 $T0 4 - ^ =  $23 $T0 8 - ^ = 
STACK WIN 4 44c7 ba 4 0 8 c 0 0 1 $T0 .raSearch = $eip $T0 ^ = $esp $T0 4 + =  $20 $T0 4 - ^ =  $23 $T0 8 - ^ =  $24 $T0 12 - ^ = 
STACK WIN 4 4502 6e 0 0 8 10 0 0 1 $T0 .raSearch = $eip $T0 ^ = $esp $T0 4 + =  $20 $T0 4 - ^ =  $23 $T0 8 - ^ =  $24 $T0 12 - ^ =  $22 $T0 16 - ^ = 
STACK WIN 4 4590 82 3 0 8 0 0 0 1 $T0 .raSearch = $eip $T0 ^ = $esp $T0 4 + = 
STACK WIN 4 4591 7e 2 0 8 4 0 0 1 $T0 .raSearch = $eip $T0 ^ = $esp $T0 4 + =  $23 $T0 4 - ^ = 
STACK WIN 4 4598 74 0 0 8 8 0 0 1 $T0 .raSearch = $eip $T0 ^ = $esp $T0 4 + =  $23 $T0 4 - ^ =  $24 $T0 8 - ^ = 
STACK WIN 4 4620 6 0 0 0 0 0 0 1 $T0 .raSearch = $eip $T0 ^ = $esp $T0 4 + = 
STACK WIN 4 4630 36 6 0 8 0 0 0 1 $T1 .raSearch = $T0  $T1 4 - 8 @ = $ebp $T1 4 - ^ = $eip $T1 ^ = $esp $T1 4 + =
STACK WIN 4 4670 184 5 0 8 0 0 0 1 $T0 .raSearch = $eip $T0 ^ = $esp $T0 4 + = 
STACK WIN 4 4671 180 4 0 8 4 0 0 1 $T0 .raSearch = $eip $T0 ^ = $esp $T0 4 + =  $20 $T0 4 - ^ = 
STACK WIN 4 4672 17e 3 0 8 8 0 0 1 $T0 .raSearch = $eip $T0 ^ = $esp $T0 4 + =  $20 $T0 4 - ^ =  $22 $T0 8 - ^ = 
STACK WIN 4 4673 17c 2 0 8 c 0 0 1 $T0 .raSearch = $eip $T0 ^ = $esp $T0 4 + =  $20 $T0 4 - ^ =  $22 $T0 8 - ^ =  $23 $T0 12 - ^ = 
STACK WIN 4 4676 176 0 0 8 10 0 0 1 $T0 .raSearch = $eip $T0 ^ = $esp $T0 4 + =  $20 $T0 4 - ^ =  $22 $T0 8 - ^ =  $23 $T0 12 - ^ =  $24 $T0 16 - ^ = 
STACK WIN 4 4800 b6 3 0 0 0 0 0 1 $T0 .raSearch = $eip $T0 ^ = $esp $T0 4 + = 
STACK WIN 4 4801 b4 2 0 0 4 0 0 1 $T0 .raSearch = $eip $T0 ^ = $esp $T0 4 + =  $23 $T0 4 - ^ = 
STACK WIN 4 4804 a9 0 0 0 8 0 0 1 $T0 .raSearch = $eip $T0 ^ = $esp $T0 4 + =  $23 $T0 4 - ^ =  $24 $T0 8 - ^ = 
STACK WIN 4 4839 4d 0 0 0 c 0 0 1 $T0 .raSearch = $eip $T0 ^ = $esp $T0 4 + =  $23 $T0 4 - ^ =  $24 $T0 8 - ^ =  $20 $T0 12 - ^ = 
STACK WIN 4 4841 26 0 0 0 10 0 0 1 $T0 .raSearch = $eip $T0 ^ = $esp $T0 4 + =  $23 $T0 4 - ^ =  $24 $T0 8 - ^ =  $20 $T0 12 - ^ =  $22 $T0 16 - ^ = 
STACK WIN 4 48c0 108 b 0 18 0 0 0 1 $T0 .raSearch = $eip $T0 ^ = $esp $T0 4 + = 
STACK WIN 4 48c5 100 6 0 18 4 0 0 1 $T0 .raSearch = $eip $T0 ^ = $esp $T0 4 + =  $20 $T0 4 - ^ = 
STACK WIN 4 48c6 fe 5 0 18 8 0 0 1 $T0 .raSearch = $eip $T0 ^ = $esp $T0 4 + =  $20 $T0 4 - ^ =  $23 $T0 8 - ^ = 
STACK WIN 4 48c7 f8 4 0 18 c 0 0 1 $T0 .raSearch = $eip $T0 ^ = $esp $T0 4 + =  $20 $T0 4 - ^ =  $23 $T0 8 - ^ =  $24 $T0 12 - ^ = 
STACK WIN 4 49d0 2e1 2f 0 10 0 0 0 1 $T0 .raSearch = $eip $T0 ^ = $esp $T0 4 + = 
STACK WIN 4 49f3 7a c 0 10 4 e4 0 1 $T0 .raSearch = $eip $T0 ^ = $esp $T0 4 + =  $20 $T0 232 - ^ = 
STACK WIN 4 49f4 78 b 0 10 8 e4 0 1 $T0 .raSearch = $eip $T0 ^ = $esp $T0 4 + =  $20 $T0 232 - ^ =  $22 $T0 236 - ^ = 
STACK WIN 4 4a11 5a 0 0 10 c e4 0 1 $T0 .raSearch = $eip $T0 ^ = $esp $T0 4 + =  $20 $T0 232 - ^ =  $22 $T0 236 - ^ =  $23 $T0 240 - ^ = 
STACK WIN 4 4a18 52 0 0 10 10 e4 0 1 $T0 .raSearch = $eip $T0 ^ = $esp $T0 4 + =  $20 $T0 232 - ^ =  $22 $T0 236 - ^ =  $23 $T0 240 - ^ =  $24 $T0 244 - ^ = 
STACK WIN 4 4cc0 144 1f 0 4 0 0 0 1 $T0 .raSearch = $eip $T0 ^ = $esp $T0 4 + = 
STACK WIN 4 4cd5 11f a 0 4 4 d0 0 1 $T0 .raSearch = $eip $T0 ^ = $esp $T0 4 + =  $23 $T0 212 - ^ = 
STACK WIN 4 4cdd 116 2 0 4 8 d0 0 1 $T0 .raSearch = $eip $T0 ^ = $esp $T0 4 + =  $23 $T0 212 - ^ =  $24 $T0 216 - ^ = 
STACK WIN 4 4cee de 0 0 4 c d0 0 1 $T0 .raSearch = $eip $T0 ^ = $esp $T0 4 + =  $23 $T0 212 - ^ =  $24 $T0 216 - ^ =  $20 $T0 220 - ^ = 
STACK WIN 4 4cef dc 0 0 4 10 d0 0 1 $T0 .raSearch = $eip $T0 ^ = $esp $T0 4 + =  $23 $T0 212 - ^ =  $24 $T0 216 - ^ =  $20 $T0 220 - ^ =  $22 $T0 224 - ^ = 
STACK WIN 4 4e10 100 3 0 c 0 0 0 1 $T0 .raSearch = $eip $T0 ^ = $esp $T0 4 + = 
STACK WIN 4 4e11 fc 2 0 c 4 0 0 1 $T0 .raSearch = $eip $T0 ^ = $esp $T0 4 + =  $24 $T0 4 - ^ = 
STACK WIN 4 4e1e bf 0 0 c 8 0 0 1 $T0 .raSearch = $eip $T0 ^ = $esp $T0 4 + =  $24 $T0 4 - ^ =  $22 $T0 8 - ^ = 
STACK WIN 4 4e2a b2 0 0 c c 0 0 1 $T0 .raSearch = $eip $T0 ^ = $esp $T0 4 + =  $24 $T0 4 - ^ =  $22 $T0 8 - ^ =  $23 $T0 12 - ^ = 
STACK WIN 4 4e37 7b 0 0 c 10 0 0 1 $T0 .raSearch = $eip $T0 ^ = $esp $T0 4 + =  $24 $T0 4 - ^ =  $22 $T0 8 - ^ =  $23 $T0 12 - ^ =  $20 $T0 16 - ^ = 
STACK WIN 4 4f10 ee f 0 1c 10 0 0 1 $T0 .raSearch = $eip $T0 ^ = $esp $T0 4 + =  $20 $T0 4 - ^ =  $22 $T0 8 - ^ =  $23 $T0 12 - ^ =  $24 $T0 16 - ^ = 
STACK WIN 4 5000 3e 3 0 4 0 0 0 1 $T0 .raSearch = $eip $T0 ^ = $esp $T0 4 + = 
STACK WIN 4 5003 38 0 0 4 4 0 0 1 $T0 .raSearch = $eip $T0 ^ = $esp $T0 4 + =  $23 $T0 4 - ^ = 
STACK WIN 4 5040 8d 7 0 c 0 0 0 1 $T0 .raSearch = $eip $T0 ^ = $esp $T0 4 + = 
STACK WIN 4 5041 89 6 0 c 4 0 0 1 $T0 .raSearch = $eip $T0 ^ = $esp $T0 4 + =  $20 $T0 4 - ^ = 
STACK WIN 4 5042 87 5 0 c 8 0 0 1 $T0 .raSearch = $eip $T0 ^ = $esp $T0 4 + =  $20 $T0 4 - ^ =  $23 $T0 8 - ^ = 
STACK WIN 4 5047 81 0 0 c c 0 0 1 $T0 .raSearch = $eip $T0 ^ = $esp $T0 4 + =  $20 $T0 4 - ^ =  $23 $T0 8 - ^ =  $24 $T0 12 - ^ = 
STACK WIN 4 50d0 9e8 25 0 c c 4bc 0 1 $T1 .raSearch = $T0  $T1 4 - 8 @ = $ebp $T1 4 - ^ = $eip $T1 ^ = $esp $T1 4 + = $20 $T0 1216 - ^ =  $23 $T0 1220 - ^ =  $24 $T0 1224 - ^ = 
STACK WIN 4 5ac0 4ed 3d 0 c 10 128 0 1 $T0 .raSearch = $eip $T0 ^ = $esp $T0 4 + =  $20 $T0 300 - ^ =  $22 $T0 304 - ^ =  $23 $T0 308 - ^ =  $24 $T0 312 - ^ = 
STACK WIN 4 5fb0 107c 30 0 8 10 594 0 1 $T0 .raSearch = $eip $T0 ^ = $esp $T0 4 + =  $20 $T0 1432 - ^ =  $22 $T0 1436 - ^ =  $23 $T0 1440 - ^ =  $24 $T0 1444 - ^ = 
STACK WIN 4 7030 40c 23 0 c 10 6028 0 1 $T0 .raSearch = $eip $T0 ^ = $esp $T0 4 + =  $20 $T0 24620 - ^ =  $22 $T0 24624 - ^ =  $23 $T0 24628 - ^ =  $24 $T0 24632 - ^ = 
STACK WIN 4 7440 3a d 0 8 8 4 0 1 $T0 .raSearch = $eip $T0 ^ = $esp $T0 4 + =  $23 $T0 8 - ^ =  $24 $T0 12 - ^ = 
STACK WIN 4 7480 d7 1f 0 4 0 0 0 1 $T0 .raSearch = $eip $T0 ^ = $esp $T0 4 + = 
STACK WIN 4 7495 b2 a 0 4 4 cc 0 1 $T0 .raSearch = $eip $T0 ^ = $esp $T0 4 + =  $23 $T0 208 - ^ = 
STACK WIN 4 749d a9 2 0 4 8 cc 0 1 $T0 .raSearch = $eip $T0 ^ = $esp $T0 4 + =  $23 $T0 208 - ^ =  $24 $T0 212 - ^ = 
STACK WIN 4 74c1 7d 0 0 4 c cc 0 1 $T0 .raSearch = $eip $T0 ^ = $esp $T0 4 + =  $23 $T0 208 - ^ =  $24 $T0 212 - ^ =  $20 $T0 216 - ^ = 
STACK WIN 4 74c2 7b 0 0 4 10 cc 0 1 $T0 .raSearch = $eip $T0 ^ = $esp $T0 4 + =  $23 $T0 208 - ^ =  $24 $T0 212 - ^ =  $20 $T0 216 - ^ =  $22 $T0 220 - ^ = 
STACK WIN 4 7560 b0 7 0 c 0 0 0 1 $T0 .raSearch = $eip $T0 ^ = $esp $T0 4 + = 
STACK WIN 4 7565 a8 2 0 c 4 0 0 1 $T0 .raSearch = $eip $T0 ^ = $esp $T0 4 + =  $23 $T0 4 - ^ = 
STACK WIN 4 7568 a2 0 0 c 8 0 0 1 $T0 .raSearch = $eip $T0 ^ = $esp $T0 4 + =  $23 $T0 4 - ^ =  $24 $T0 8 - ^ = 
STACK WIN 4 759a 61 0 0 c c 0 0 1 $T0 .raSearch = $eip $T0 ^ = $esp $T0 4 + =  $23 $T0 4 - ^ =  $24 $T0 8 - ^ =  $20 $T0 12 - ^ = 
STACK WIN 4 7610 b0 7 0 c 0 0 0 1 $T0 .raSearch = $eip $T0 ^ = $esp $T0 4 + = 
STACK WIN 4 7615 a8 2 0 c 4 0 0 1 $T0 .raSearch = $eip $T0 ^ = $esp $T0 4 + =  $23 $T0 4 - ^ = 
STACK WIN 4 7618 a2 0 0 c 8 0 0 1 $T0 .raSearch = $eip $T0 ^ = $esp $T0 4 + =  $23 $T0 4 - ^ =  $24 $T0 8 - ^ = 
STACK WIN 4 764a 61 0 0 c c 0 0 1 $T0 .raSearch = $eip $T0 ^ = $esp $T0 4 + =  $23 $T0 4 - ^ =  $24 $T0 8 - ^ =  $20 $T0 12 - ^ = 
STACK WIN 4 76c0 63 1 0 4 0 0 0 1 $T0 .raSearch = $eip $T0 ^ = $esp $T0 4 + = 
STACK WIN 4 76c1 5f 0 0 4 4 0 0 1 $T0 .raSearch = $eip $T0 ^ = $esp $T0 4 + =  $23 $T0 4 - ^ = 
STACK WIN 4 76c9 4e 0 0 4 8 0 0 1 $T0 .raSearch = $eip $T0 ^ = $esp $T0 4 + =  $23 $T0 4 - ^ =  $24 $T0 8 - ^ = 
STACK WIN 4 7730 3b 1 0 8 0 0 0 1 $T0 .raSearch = $eip $T0 ^ = $esp $T0 4 + = 
STACK WIN 4 7731 37 0 0 8 4 0 0 1 $T0 .raSearch = $eip $T0 ^ = $esp $T0 4 + =  $23 $T0 4 - ^ = 
STACK WIN 4 773a 2d 0 0 8 8 0 0 1 $T0 .raSearch = $eip $T0 ^ = $esp $T0 4 + =  $23 $T0 4 - ^ =  $24 $T0 8 - ^ = 
STACK WIN 4 7770 754 22 0 8 10 22ec 0 1 $T0 .raSearch = $eip $T0 ^ = $esp $T0 4 + =  $20 $T0 8944 - ^ =  $22 $T0 8948 - ^ =  $23 $T0 8952 - ^ =  $24 $T0 8956 - ^ = 
STACK WIN 4 7ed0 1f4 3d 0 10 10 212c 0 1 $T0 .raSearch = $eip $T0 ^ = $esp $T0 4 + =  $20 $T0 8496 - ^ =  $22 $T0 8500 - ^ =  $23 $T0 8504 - ^ =  $24 $T0 8508 - ^ = 
STACK WIN 4 80d0 48 e 0 c c 4 0 1 $T0 .raSearch = $eip $T0 ^ = $esp $T0 4 + =  $20 $T0 8 - ^ =  $23 $T0 12 - ^ =  $24 $T0 16 - ^ = 
STACK WIN 4 8120 86 6 0 c 0 0 0 1 $T0 .raSearch = $eip $T0 ^ = $esp $T0 4 + = 
STACK WIN 4 8125 7e 1 0 c 4 0 0 1 $T0 .raSearch = $eip $T0 ^ = $esp $T0 4 + =  $23 $T0 4 - ^ = 
STACK WIN 4 8126 7a 0 0 c 8 0 0 1 $T0 .raSearch = $eip $T0 ^ = $esp $T0 4 + =  $23 $T0 4 - ^ =  $24 $T0 8 - ^ = 
STACK WIN 4 813e 61 0 0 c c 0 0 1 $T0 .raSearch = $eip $T0 ^ = $esp $T0 4 + =  $23 $T0 4 - ^ =  $24 $T0 8 - ^ =  $20 $T0 12 - ^ = 
STACK WIN 4 81b0 45 6 0 8 0 0 0 1 $T0 .raSearch = $eip $T0 ^ = $esp $T0 4 + = 
STACK WIN 4 81b1 41 5 0 8 4 0 0 1 $T0 .raSearch = $eip $T0 ^ = $esp $T0 4 + =  $23 $T0 4 - ^ = 
STACK WIN 4 81b6 39 0 0 8 8 0 0 1 $T0 .raSearch = $eip $T0 ^ = $esp $T0 4 + =  $23 $T0 4 - ^ =  $24 $T0 8 - ^ = 
STACK WIN 4 8200 9e 14 0 c 0 104 0 1 $T0 .raSearch = $eip $T0 ^ = $esp $T0 4 + = 
STACK WIN 4 82a0 e6 2 0 c 0 0 0 1 $T0 .raSearch = $eip $T0 ^ = $esp $T0 4 + = 
STACK WIN 4 82a1 e2 1 0 c 4 0 0 1 $T0 .raSearch = $eip $T0 ^ = $esp $T0 4 + =  $23 $T0 4 - ^ = 
STACK WIN 4 82a2 e0 0 0 c 8 0 0 1 $T0 .raSearch = $eip $T0 ^ = $esp $T0 4 + =  $23 $T0 4 - ^ =  $24 $T0 8 - ^ = 
STACK WIN 4 82e5 9c 0 0 c c 0 0 1 $T0 .raSearch = $eip $T0 ^ = $esp $T0 4 + =  $23 $T0 4 - ^ =  $24 $T0 8 - ^ =  $22 $T0 20 - ^ = 
STACK WIN 4 8300 80 0 0 c 10 0 0 1 $T0 .raSearch = $eip $T0 ^ = $esp $T0 4 + =  $23 $T0 4 - ^ =  $24 $T0 8 - ^ =  $22 $T0 20 - ^ =  $20 $T0 16 - ^ = 
STACK WIN 4 8390 348 26 0 8 10 214 0 1 $T0 .raSearch = $eip $T0 ^ = $esp $T0 4 + =  $20 $T0 536 - ^ =  $22 $T0 540 - ^ =  $23 $T0 544 - ^ =  $24 $T0 548 - ^ = 
STACK WIN 4 86e0 1 0 0 8 0 0 0 1 $T0 .raSearch = $eip $T0 ^ = $esp $T0 4 + = 
STACK WIN 4 86f0 9a 4 0 8 0 0 0 1 $T0 .raSearch = $eip $T0 ^ = $esp $T0 4 + = 
STACK WIN 4 86f1 98 3 0 8 4 0 0 1 $T0 .raSearch = $eip $T0 ^ = $esp $T0 4 + =  $20 $T0 4 - ^ = 
STACK WIN 4 86f2 93 2 0 8 8 0 0 1 $T0 .raSearch = $eip $T0 ^ = $esp $T0 4 + =  $20 $T0 4 - ^ =  $22 $T0 8 - ^ = 
STACK WIN 4 86f5 8f 0 0 8 c 0 0 1 $T0 .raSearch = $eip $T0 ^ = $esp $T0 4 + =  $20 $T0 4 - ^ =  $22 $T0 8 - ^ =  $23 $T0 12 - ^ = 
STACK WIN 4 86fc 87 0 0 8 10 0 0 1 $T0 .raSearch = $eip $T0 ^ = $esp $T0 4 + =  $20 $T0 4 - ^ =  $22 $T0 8 - ^ =  $23 $T0 12 - ^ =  $24 $T0 16 - ^ = 
STACK WIN 4 8790 235 10 0 4 0 0 0 1 $T0 .raSearch = $eip $T0 ^ = $esp $T0 4 + = 
STACK WIN 4 8792 125 e 0 4 4 4 0 1 $T0 .raSearch = $eip $T0 ^ = $esp $T0 4 + =  $20 $T0 8 - ^ = 
STACK WIN 4 879e 118 2 0 4 8 4 0 1 $T0 .raSearch = $eip $T0 ^ = $esp $T0 4 + =  $20 $T0 8 - ^ =  $22 $T0 12 - ^ = 
STACK WIN 4 87a1 114 0 0 4 c 4 0 1 $T0 .raSearch = $eip $T0 ^ = $esp $T0 4 + =  $20 $T0 8 - ^ =  $22 $T0 12 - ^ =  $23 $T0 16 - ^ = 
STACK WIN 4 87aa 10a 0 0 4 10 4 0 1 $T0 .raSearch = $eip $T0 ^ = $esp $T0 4 + =  $20 $T0 8 - ^ =  $22 $T0 12 - ^ =  $23 $T0 16 - ^ =  $24 $T0 20 - ^ = 
STACK WIN 4 89d0 6d 6 0 4 0 0 0 1 $T0 .raSearch = $eip $T0 ^ = $esp $T0 4 + = 
STACK WIN 4 89d1 6b 5 0 4 4 0 0 1 $T0 .raSearch = $eip $T0 ^ = $esp $T0 4 + =  $22 $T0 4 - ^ = 
STACK WIN 4 89d2 69 4 0 4 8 0 0 1 $T0 .raSearch = $eip $T0 ^ = $esp $T0 4 + =  $22 $T0 4 - ^ =  $24 $T0 8 - ^ = 
STACK WIN 4 89df 5b 0 0 4 c 0 0 1 $T0 .raSearch = $eip $T0 ^ = $esp $T0 4 + =  $22 $T0 4 - ^ =  $24 $T0 8 - ^ =  $20 $T0 12 - ^ = 
STACK WIN 4 89e0 59 0 0 4 10 0 0 1 $T0 .raSearch = $eip $T0 ^ = $esp $T0 4 + =  $22 $T0 4 - ^ =  $24 $T0 8 - ^ =  $20 $T0 12 - ^ =  $23 $T0 16 - ^ = 
STACK WIN 4 8a40 48 f 0 4 0 0 0 1 $T0 .raSearch = $eip $T0 ^ = $esp $T0 4 + = 
STACK WIN 4 8a41 46 e 0 4 4 0 0 1 $T0 .raSearch = $eip $T0 ^ = $esp $T0 4 + =  $20 $T0 4 - ^ = 
STACK WIN 4 8a42 3f d 0 4 8 0 0 1 $T0 .raSearch = $eip $T0 ^ = $esp $T0 4 + =  $20 $T0 4 - ^ =  $22 $T0 8 - ^ = 
STACK WIN 4 8a43 3d c 0 4 c 0 0 1 $T0 .raSearch = $eip $T0 ^ = $esp $T0 4 + =  $20 $T0 4 - ^ =  $22 $T0 8 - ^ =  $23 $T0 12 - ^ = 
STACK WIN 4 8a4b 34 4 0 4 10 0 0 1 $T0 .raSearch = $eip $T0 ^ = $esp $T0 4 + =  $20 $T0 4 - ^ =  $22 $T0 8 - ^ =  $23 $T0 12 - ^ =  $24 $T0 16 - ^ = 
STACK WIN 4 8a90 52 3 0 0 0 0 0 1 $T0 .raSearch = $eip $T0 ^ = $esp $T0 4 + = 
STACK WIN 4 8a91 50 2 0 0 4 0 0 1 $T0 .raSearch = $eip $T0 ^ = $esp $T0 4 + =  $24 $T0 4 - ^ = 
STACK WIN 4 8aaa 32 0 0 0 8 0 0 1 $T0 .raSearch = $eip $T0 ^ = $esp $T0 4 + =  $24 $T0 4 - ^ =  $20 $T0 8 - ^ = 
STACK WIN 4 8aab 30 0 0 0 c 0 0 1 $T0 .raSearch = $eip $T0 ^ = $esp $T0 4 + =  $24 $T0 4 - ^ =  $20 $T0 8 - ^ =  $23 $T0 12 - ^ = 
STACK WIN 4 8af0 56 3 0 4 0 0 0 1 $T0 .raSearch = $eip $T0 ^ = $esp $T0 4 + = 
STACK WIN 4 8af1 54 2 0 4 4 0 0 1 $T0 .raSearch = $eip $T0 ^ = $esp $T0 4 + =  $24 $T0 4 - ^ = 
STACK WIN 4 8afc 42 0 0 4 8 0 0 1 $T0 .raSearch = $eip $T0 ^ = $esp $T0 4 + =  $24 $T0 4 - ^ =  $23 $T0 8 - ^ = 
STACK WIN 4 8b0d 12 0 0 4 c 0 0 1 $T0 .raSearch = $eip $T0 ^ = $esp $T0 4 + =  $24 $T0 4 - ^ =  $23 $T0 8 - ^ =  $20 $T0 12 - ^ = 
STACK WIN 4 8b50 18f 8 0 4 0 0 0 1 $T0 .raSearch = $eip $T0 ^ = $esp $T0 4 + = 
STACK WIN 4 8b54 187 4 0 4 4 10 0 1 $T0 .raSearch = $eip $T0 ^ = $esp $T0 4 + =  $20 $T0 20 - ^ = 
STACK WIN 4 8b55 185 3 0 4 8 10 0 1 $T0 .raSearch = $eip $T0 ^ = $esp $T0 4 + =  $20 $T0 20 - ^ =  $22 $T0 24 - ^ = 
STACK WIN 4 8b56 183 2 0 4 c 10 0 1 $T0 .raSearch = $eip $T0 ^ = $esp $T0 4 + =  $20 $T0 20 - ^ =  $22 $T0 24 - ^ =  $23 $T0 28 - ^ = 
STACK WIN 4 8b7a 15e 0 0 4 10 10 0 1 $T0 .raSearch = $eip $T0 ^ = $esp $T0 4 + =  $20 $T0 20 - ^ =  $22 $T0 24 - ^ =  $23 $T0 28 - ^ =  $24 $T0 32 - ^ = 
STACK WIN 4 8ce0 139 13 0 0 0 0 0 1 $T0 .raSearch = $eip $T0 ^ = $esp $T0 4 + = 
STACK WIN 4 8ce4 131 f 0 0 4 c 0 1 $T0 .raSearch = $eip $T0 ^ = $esp $T0 4 + =  $20 $T0 16 - ^ = 
STACK WIN 4 8ce5 12f e 0 0 8 c 0 1 $T0 .raSearch = $eip $T0 ^ = $esp $T0 4 + =  $20 $T0 16 - ^ =  $22 $T0 20 - ^ = 
STACK WIN 4 8ce6 12d d 0 0 c c 0 1 $T0 .raSearch = $eip $T0 ^ = $esp $T0 4 + =  $20 $T0 16 - ^ =  $22 $T0 20 - ^ =  $23 $T0 24 - ^ = 
STACK WIN 4 8ce7 12b c 0 0 10 c 0 1 $T0 .raSearch = $eip $T0 ^ = $esp $T0 4 + =  $20 $T0 16 - ^ =  $22 $T0 20 - ^ =  $23 $T0 24 - ^ =  $24 $T0 28 - ^ = 
STACK WIN 4 8e20 1fe c 0 0 0 0 0 1 $T0 .raSearch = $eip $T0 ^ = $esp $T0 4 + = 
STACK WIN 4 8e24 1f6 8 0 0 4 18 0 1 $T0 .raSearch = $eip $T0 ^ = $esp $T0 4 + =  $24 $T0 28 - ^ = 
STACK WIN 4 8e45 1d2 0 0 0 8 18 0 1 $T0 .raSearch = $eip $T0 ^ = $esp $T0 4 + =  $24 $T0 28 - ^ =  $20 $T0 40 - ^ = 
STACK WIN 4 8e46 1d0 0 0 0 c 18 0 1 $T0 .raSearch = $eip $T0 ^ = $esp $T0 4 + =  $24 $T0 28 - ^ =  $20 $T0 40 - ^ =  $22 $T0 44 - ^ = 
STACK WIN 4 8e47 1ce 0 0 0 10 18 0 1 $T0 .raSearch = $eip $T0 ^ = $esp $T0 4 + =  $24 $T0 28 - ^ =  $20 $T0 40 - ^ =  $22 $T0 44 - ^ =  $23 $T0 48 - ^ = 
STACK WIN 4 9020 af 6 0 0 0 0 0 1 $T0 .raSearch = $eip $T0 ^ = $esp $T0 4 + = 
STACK WIN 4 9022 ab 4 0 0 4 4 0 1 $T0 .raSearch = $eip $T0 ^ = $esp $T0 4 + =  $20 $T0 8 - ^ = 
STACK WIN 4 9023 a9 3 0 0 8 4 0 1 $T0 .raSearch = $eip $T0 ^ = $esp $T0 4 + =  $20 $T0 8 - ^ =  $22 $T0 12 - ^ = 
STACK WIN 4 9024 a7 2 0 0 c 4 0 1 $T0 .raSearch = $eip $T0 ^ = $esp $T0 4 + =  $20 $T0 8 - ^ =  $22 $T0 12 - ^ =  $23 $T0 16 - ^ = 
STACK WIN 4 902d 9d 0 0 0 10 4 0 1 $T0 .raSearch = $eip $T0 ^ = $esp $T0 4 + =  $20 $T0 8 - ^ =  $22 $T0 12 - ^ =  $23 $T0 16 - ^ =  $24 $T0 20 - ^ = 
STACK WIN 4 90d0 2f1 e 0 0 0 0 0 1 $T0 .raSearch = $eip $T0 ^ = $esp $T0 4 + = 
STACK WIN 4 90d4 293 a 0 0 4 10 0 1 $T0 .raSearch = $eip $T0 ^ = $esp $T0 4 + =  $20 $T0 20 - ^ = 
STACK WIN 4 90d5 28c 9 0 0 8 10 0 1 $T0 .raSearch = $eip $T0 ^ = $esp $T0 4 + =  $20 $T0 20 - ^ =  $22 $T0 24 - ^ = 
STACK WIN 4 90d6 28a 8 0 0 c 10 0 1 $T0 .raSearch = $eip $T0 ^ = $esp $T0 4 + =  $20 $T0 20 - ^ =  $22 $T0 24 - ^ =  $23 $T0 28 - ^ = 
STACK WIN 4 90f5 25e 0 0 0 10 10 0 1 $T0 .raSearch = $eip $T0 ^ = $esp $T0 4 + =  $20 $T0 20 - ^ =  $22 $T0 24 - ^ =  $23 $T0 28 - ^ =  $24 $T0 32 - ^ = 
STACK WIN 4 93d0 88 3 0 0 0 0 0 1 $T0 .raSearch = $eip $T0 ^ = $esp $T0 4 + = 
STACK WIN 4 93d1 86 2 0 0 4 0 0 1 $T0 .raSearch = $eip $T0 ^ = $esp $T0 4 + =  $23 $T0 4 - ^ = 
STACK WIN 4 93dd 75 0 0 0 8 0 0 1 $T0 .raSearch = $eip $T0 ^ = $esp $T0 4 + =  $23 $T0 4 - ^ =  $24 $T0 8 - ^ = 
STACK WIN 4 9460 123 14 0 4 0 0 0 1 $T0 .raSearch = $eip $T0 ^ = $esp $T0 4 + = 
STACK WIN 4 9464 11b 10 0 4 4 10 0 1 $T0 .raSearch = $eip $T0 ^ = $esp $T0 4 + =  $20 $T0 20 - ^ = 
STACK WIN 4 9465 119 f 0 4 8 10 0 1 $T0 .raSearch = $eip $T0 ^ = $esp $T0 4 + =  $20 $T0 20 - ^ =  $22 $T0 24 - ^ = 
STACK WIN 4 9466 117 e 0 4 c 10 0 1 $T0 .raSearch = $eip $T0 ^ = $esp $T0 4 + =  $20 $T0 20 - ^ =  $22 $T0 24 - ^ =  $23 $T0 28 - ^ = 
STACK WIN 4 948b ef 0 0 4 10 10 0 1 $T0 .raSearch = $eip $T0 ^ = $esp $T0 4 + =  $20 $T0 20 - ^ =  $22 $T0 24 - ^ =  $23 $T0 28 - ^ =  $24 $T0 40 - ^ = 
STACK WIN 4 9590 2a 3 0 0 0 0 0 1 $T0 .raSearch = $eip $T0 ^ = $esp $T0 4 + = 
STACK WIN 4 9593 26 0 0 0 4 0 0 1 $T0 .raSearch = $eip $T0 ^ = $esp $T0 4 + =  $23 $T0 4 - ^ = 
STACK WIN 4 95c0 a5 17 0 0 0 0 0 1 $T0 .raSearch = $eip $T0 ^ = $esp $T0 4 + = 
STACK WIN 4 95d5 82 2 0 0 4 cc 0 1 $T0 .raSearch = $eip $T0 ^ = $esp $T0 4 + =  $20 $T0 208 - ^ = 
STACK WIN 4 95dd 79 0 0 0 8 cc 0 1 $T0 .raSearch = $eip $T0 ^ = $esp $T0 4 + =  $20 $T0 208 - ^ =  $24 $T0 212 - ^ = 
STACK WIN 4 960c 49 0 0 0 c cc 0 1 $T0 .raSearch = $eip $T0 ^ = $esp $T0 4 + =  $20 $T0 208 - ^ =  $24 $T0 212 - ^ =  $23 $T0 216 - ^ = 
STACK WIN 4 9670 a9 b 0 0 0 0 0 1 $T0 .raSearch = $eip $T0 ^ = $esp $T0 4 + = 
STACK WIN 4 9672 a5 9 0 0 4 4 0 1 $T0 .raSearch = $eip $T0 ^ = $esp $T0 4 + =  $20 $T0 8 - ^ = 
STACK WIN 4 9679 9d 2 0 0 8 4 0 1 $T0 .raSearch = $eip $T0 ^ = $esp $T0 4 + =  $20 $T0 8 - ^ =  $22 $T0 12 - ^ = 
STACK WIN 4 9687 78 0 0 0 c 4 0 1 $T0 .raSearch = $eip $T0 ^ = $esp $T0 4 + =  $20 $T0 8 - ^ =  $22 $T0 12 - ^ =  $24 $T0 16 - ^ = 
STACK WIN 4 9692 65 0 0 0 10 4 0 1 $T0 .raSearch = $eip $T0 ^ = $esp $T0 4 + =  $20 $T0 8 - ^ =  $22 $T0 12 - ^ =  $24 $T0 16 - ^ =  $23 $T0 20 - ^ = 
STACK WIN 4 9720 4b 4 0 0 0 0 0 1 $T0 .raSearch = $eip $T0 ^ = $esp $T0 4 + = 
STACK WIN 4 9721 49 3 0 0 4 0 0 1 $T0 .raSearch = $eip $T0 ^ = $esp $T0 4 + =  $20 $T0 4 - ^ = 
STACK WIN 4 9722 47 2 0 0 8 0 0 1 $T0 .raSearch = $eip $T0 ^ = $esp $T0 4 + =  $20 $T0 4 - ^ =  $24 $T0 8 - ^ = 
STACK WIN 4 9734 34 0 0 0 c 0 0 1 $T0 .raSearch = $eip $T0 ^ = $esp $T0 4 + =  $20 $T0 4 - ^ =  $24 $T0 8 - ^ =  $23 $T0 12 - ^ = 
STACK WIN 4 9770 1d 0 0 0 0 0 0 1 $T0 .raSearch = $eip $T0 ^ = $esp $T0 4 + = 
STACK WIN 4 9776 16 0 0 0 4 0 0 1 $T0 .raSearch = $eip $T0 ^ = $esp $T0 4 + =  $23 $T0 4 - ^ = 
STACK WIN 4 9790 bd 8 0 4 0 0 0 1 $T0 .raSearch = $eip $T0 ^ = $esp $T0 4 + = 
STACK WIN 4 9791 bb 7 0 4 4 0 0 1 $T0 .raSearch = $eip $T0 ^ = $esp $T0 4 + =  $20 $T0 4 - ^ = 
STACK WIN 4 9796 b5 2 0 4 8 0 0 1 $T0 .raSearch = $eip $T0 ^ = $esp $T0 4 + =  $20 $T0 4 - ^ =  $22 $T0 8 - ^ = 
STACK WIN 4 97a1 a9 0 0 4 c 0 0 1 $T0 .raSearch = $eip $T0 ^ = $esp $T0 4 + =  $20 $T0 4 - ^ =  $22 $T0 8 - ^ =  $23 $T0 12 - ^ = 
STACK WIN 4 97ab 9e 0 0 4 10 0 0 1 $T0 .raSearch = $eip $T0 ^ = $esp $T0 4 + =  $20 $T0 4 - ^ =  $22 $T0 8 - ^ =  $23 $T0 12 - ^ =  $24 $T0 16 - ^ = 
STACK WIN 4 9850 bd 8 0 4 0 0 0 1 $T0 .raSearch = $eip $T0 ^ = $esp $T0 4 + = 
STACK WIN 4 9851 bb 7 0 4 4 0 0 1 $T0 .raSearch = $eip $T0 ^ = $esp $T0 4 + =  $20 $T0 4 - ^ = 
STACK WIN 4 9856 b5 2 0 4 8 0 0 1 $T0 .raSearch = $eip $T0 ^ = $esp $T0 4 + =  $20 $T0 4 - ^ =  $22 $T0 8 - ^ = 
STACK WIN 4 9861 a9 0 0 4 c 0 0 1 $T0 .raSearch = $eip $T0 ^ = $esp $T0 4 + =  $20 $T0 4 - ^ =  $22 $T0 8 - ^ =  $23 $T0 12 - ^ = 
STACK WIN 4 986b 9e 0 0 4 10 0 0 1 $T0 .raSearch = $eip $T0 ^ = $esp $T0 4 + =  $20 $T0 4 - ^ =  $22 $T0 8 - ^ =  $23 $T0 12 - ^ =  $24 $T0 16 - ^ = 
STACK WIN 4 9910 f4 3 0 0 0 0 0 1 $T0 .raSearch = $eip $T0 ^ = $esp $T0 4 + = 
STACK WIN 4 9911 f2 2 0 0 4 0 0 1 $T0 .raSearch = $eip $T0 ^ = $esp $T0 4 + =  $22 $T0 4 - ^ = 
STACK WIN 4 9916 ec 0 0 0 8 0 0 1 $T0 .raSearch = $eip $T0 ^ = $esp $T0 4 + =  $22 $T0 4 - ^ =  $23 $T0 8 - ^ = 
STACK WIN 4 9917 ea 0 0 0 c 0 0 1 $T0 .raSearch = $eip $T0 ^ = $esp $T0 4 + =  $22 $T0 4 - ^ =  $23 $T0 8 - ^ =  $24 $T0 12 - ^ = 
STACK WIN 4 992a a8 0 0 0 10 0 0 1 $T0 .raSearch = $eip $T0 ^ = $esp $T0 4 + =  $22 $T0 4 - ^ =  $23 $T0 8 - ^ =  $24 $T0 12 - ^ =  $20 $T0 16 - ^ = 
STACK WIN 4 9a10 61 4 0 0 0 0 0 1 $T0 .raSearch = $eip $T0 ^ = $esp $T0 4 + = 
STACK WIN 4 9a11 5f 3 0 0 4 0 0 1 $T0 .raSearch = $eip $T0 ^ = $esp $T0 4 + =  $23 $T0 4 - ^ = 
STACK WIN 4 9a12 5d 2 0 0 8 0 0 1 $T0 .raSearch = $eip $T0 ^ = $esp $T0 4 + =  $23 $T0 4 - ^ =  $24 $T0 8 - ^ = 
STACK WIN 4 9a80 a0 0 0 0 0 0 0 1 $T0 .raSearch = $eip $T0 ^ = $esp $T0 4 + = 
STACK WIN 4 9a93 8c 0 0 0 4 0 0 1 $T0 .raSearch = $eip $T0 ^ = $esp $T0 4 + =  $23 $T0 4 - ^ = 
STACK WIN 4 9b20 d3 15 0 4 0 0 0 1 $T0 .raSearch = $eip $T0 ^ = $esp $T0 4 + = 
STACK WIN 4 9b24 cb 11 0 4 4 8 0 1 $T0 .raSearch = $eip $T0 ^ = $esp $T0 4 + =  $20 $T0 12 - ^ = 
STACK WIN 4 9b25 c7 10 0 4 8 8 0 1 $T0 .raSearch = $eip $T0 ^ = $esp $T0 4 + =  $20 $T0 12 - ^ =  $22 $T0 16 - ^ = 
STACK WIN 4 9b2c bf 9 0 4 c 8 0 1 $T0 .raSearch = $eip $T0 ^ = $esp $T0 4 + =  $20 $T0 12 - ^ =  $22 $T0 16 - ^ =  $23 $T0 20 - ^ = 
STACK WIN 4 9b33 b7 2 0 4 10 8 0 1 $T0 .raSearch = $eip $T0 ^ = $esp $T0 4 + =  $20 $T0 12 - ^ =  $22 $T0 16 - ^ =  $23 $T0 20 - ^ =  $24 $T0 24 - ^ = 
STACK WIN 4 9c00 1a2 17 0 4 0 0 0 1 $T0 .raSearch = $eip $T0 ^ = $esp $T0 4 + = 
STACK WIN 4 9c04 19a 13 0 4 4 c 0 1 $T0 .raSearch = $eip $T0 ^ = $esp $T0 4 + =  $20 $T0 16 - ^ = 
STACK WIN 4 9c11 18a 6 0 4 8 c 0 1 $T0 .raSearch = $eip $T0 ^ = $esp $T0 4 + =  $20 $T0 16 - ^ =  $24 $T0 20 - ^ = 
STACK WIN 4 9c2a 170 0 0 4 c c 0 1 $T0 .raSearch = $eip $T0 ^ = $esp $T0 4 + =  $20 $T0 16 - ^ =  $24 $T0 20 - ^ =  $22 $T0 24 - ^ = 
STACK WIN 4 9c2d 16c 0 0 4 10 c 0 1 $T0 .raSearch = $eip $T0 ^ = $esp $T0 4 + =  $20 $T0 16 - ^ =  $24 $T0 20 - ^ =  $22 $T0 24 - ^ =  $23 $T0 28 - ^ = 
STACK WIN 4 9db0 d6 26 0 4 0 0 0 1 $T0 .raSearch = $eip $T0 ^ = $esp $T0 4 + = 
STACK WIN 4 9dc5 b3 11 0 4 4 1a4 0 1 $T0 .raSearch = $eip $T0 ^ = $esp $T0 4 + =  $20 $T0 424 - ^ = 
STACK WIN 4 9dcc ab a 0 4 8 1a4 0 1 $T0 .raSearch = $eip $T0 ^ = $esp $T0 4 + =  $20 $T0 424 - ^ =  $22 $T0 428 - ^ = 
STACK WIN 4 9dfb 56 0 0 4 c 1a4 0 1 $T0 .raSearch = $eip $T0 ^ = $esp $T0 4 + =  $20 $T0 424 - ^ =  $22 $T0 428 - ^ =  $23 $T0 436 - ^ = 
STACK WIN 4 9e00 50 0 0 4 10 1a4 0 1 $T0 .raSearch = $eip $T0 ^ = $esp $T0 4 + =  $20 $T0 424 - ^ =  $22 $T0 428 - ^ =  $23 $T0 436 - ^ =  $24 $T0 440 - ^ = 
STACK WIN 4 9e90 33 5 0 0 0 0 0 1 $T0 .raSearch = $eip $T0 ^ = $esp $T0 4 + = 
STACK WIN 4 9e91 31 4 0 0 4 0 0 1 $T0 .raSearch = $eip $T0 ^ = $esp $T0 4 + =  $20 $T0 4 - ^ = 
STACK WIN 4 9e92 2f 3 0 0 8 0 0 1 $T0 .raSearch = $eip $T0 ^ = $esp $T0 4 + =  $20 $T0 4 - ^ =  $23 $T0 8 - ^ = 
STACK WIN 4 9e93 2d 2 0 0 c 0 0 1 $T0 .raSearch = $eip $T0 ^ = $esp $T0 4 + =  $20 $T0 4 - ^ =  $23 $T0 8 - ^ =  $24 $T0 12 - ^ = 
STACK WIN 4 9ed0 13b 11 0 4 0 0 0 1 $T0 .raSearch = $eip $T0 ^ = $esp $T0 4 + = 
STACK WIN 4 9ed8 12f 9 0 4 4 c 0 1 $T0 .raSearch = $eip $T0 ^ = $esp $T0 4 + =  $20 $T0 16 - ^ = 
STACK WIN 4 9edf 122 2 0 4 8 c 0 1 $T0 .raSearch = $eip $T0 ^ = $esp $T0 4 + =  $20 $T0 16 - ^ =  $22 $T0 20 - ^ = 
STACK WIN 4 9f04 fc 0 0 4 c c 0 1 $T0 .raSearch = $eip $T0 ^ = $esp $T0 4 + =  $20 $T0 16 - ^ =  $22 $T0 20 - ^ =  $23 $T0 24 - ^ = 
STACK WIN 4 9f05 fa 0 0 4 10 c 0 1 $T0 .raSearch = $eip $T0 ^ = $esp $T0 4 + =  $20 $T0 16 - ^ =  $22 $T0 20 - ^ =  $23 $T0 24 - ^ =  $24 $T0 28 - ^ = 
STACK WIN 4 a010 29 0 0 0 0 0 0 1 $T0 .raSearch = $eip $T0 ^ = $esp $T0 4 + = 
STACK WIN 4 a040 41 f 0 10 0 0 0 1 $T0 .raSearch = $eip $T0 ^ = $esp $T0 4 + = 
STACK WIN 4 a047 37 8 0 10 4 0 0 1 $T0 .raSearch = $eip $T0 ^ = $esp $T0 4 + =  $23 $T0 4 - ^ = 
STACK WIN 4 a04f 28 0 0 10 8 0 0 1 $T0 .raSearch = $eip $T0 ^ = $esp $T0 4 + =  $23 $T0 4 - ^ =  $24 $T0 8 - ^ = 
STACK WIN 4 a090 ae c 0 8 c 4 0 1 $T1 .raSearch = $T0  $T1 4 - 8 @ = $ebp $T1 4 - ^ = $eip $T1 ^ = $esp $T1 4 + = $20 $T0 8 - ^ =  $23 $T0 12 - ^ =  $24 $T0 16 - ^ = 
STACK WIN 4 a140 a0 0 0 c 0 0 0 1 $T0 .raSearch = $eip $T0 ^ = $esp $T0 4 + = 
STACK WIN 4 a1e0 d1 3 0 8 0 0 0 1 $T0 .raSearch = $eip $T0 ^ = $esp $T0 4 + = 
STACK WIN 4 a226 5e 0 0 8 4 4 0 1 $T0 .raSearch = $eip $T0 ^ = $esp $T0 4 + =  $20 $T0 8 - ^ = 
STACK WIN 4 a227 5c 0 0 8 8 4 0 1 $T0 .raSearch = $eip $T0 ^ = $esp $T0 4 + =  $20 $T0 8 - ^ =  $22 $T0 12 - ^ = 
STACK WIN 4 a22c 56 0 0 8 c 4 0 1 $T0 .raSearch = $eip $T0 ^ = $esp $T0 4 + =  $20 $T0 8 - ^ =  $22 $T0 12 - ^ =  $23 $T0 16 - ^ = 
STACK WIN 4 a22d 54 0 0 8 10 4 0 1 $T0 .raSearch = $eip $T0 ^ = $esp $T0 4 + =  $20 $T0 8 - ^ =  $22 $T0 12 - ^ =  $23 $T0 16 - ^ =  $24 $T0 20 - ^ = 
STACK WIN 4 a2c0 e6 5 0 8 0 0 0 1 $T0 .raSearch = $eip $T0 ^ = $esp $T0 4 + = 
STACK WIN 4 a2c1 e2 4 0 8 4 0 0 1 $T0 .raSearch = $eip $T0 ^ = $esp $T0 4 + =  $20 $T0 4 - ^ = 
STACK WIN 4 a2c2 e0 3 0 8 8 0 0 1 $T0 .raSearch = $eip $T0 ^ = $esp $T0 4 + =  $20 $T0 4 - ^ =  $23 $T0 8 - ^ = 
STACK WIN 4 a2c3 de 2 0 8 c 0 0 1 $T0 .raSearch = $eip $T0 ^ = $esp $T0 4 + =  $20 $T0 4 - ^ =  $23 $T0 8 - ^ =  $24 $T0 12 - ^ = 
STACK WIN 4 a330 6a 0 0 8 10 0 0 1 $T0 .raSearch = $eip $T0 ^ = $esp $T0 4 + =  $20 $T0 4 - ^ =  $23 $T0 8 - ^ =  $24 $T0 12 - ^ =  $22 $T0 16 - ^ = 
STACK WIN 4 a3b0 f0 e 0 8 10 1c 0 1 $T0 .raSearch = $eip $T0 ^ = $esp $T0 4 + =  $20 $T0 32 - ^ =  $22 $T0 36 - ^ =  $23 $T0 40 - ^ =  $24 $T0 44 - ^ = 
STACK WIN 4 a4a0 92 8 0 4 4 1c 0 1 $T0 .raSearch = $eip $T0 ^ = $esp $T0 4 + =  $23 $T0 32 - ^ = 
STACK WIN 4 a540 12f e 0 c 10 18 0 1 $T0 .raSearch = $eip $T0 ^ = $esp $T0 4 + =  $20 $T0 28 - ^ =  $22 $T0 32 - ^ =  $23 $T0 36 - ^ =  $24 $T0 40 - ^ = 
STACK WIN 4 a670 10d 15 0 8 10 24 0 1 $T0 .raSearch = $eip $T0 ^ = $esp $T0 4 + =  $20 $T0 40 - ^ =  $22 $T0 44 - ^ =  $23 $T0 48 - ^ =  $24 $T0 52 - ^ = 
STACK WIN 4 a780 165 5 0 c 10 18 0 1 $T0 .raSearch = $eip $T0 ^ = $esp $T0 4 + =  $20 $T0 28 - ^ =  $22 $T0 32 - ^ =  $23 $T0 36 - ^ =  $24 $T0 40 - ^ = 
STACK WIN 4 a8f0 f4 4 0 c 4 3c 0 1 $T0 .raSearch = $eip $T0 ^ = $esp $T0 4 + =  $23 $T0 64 - ^ = 
STACK WIN 4 a9f0 c8 3 0 14 0 0 0 1 $T0 .raSearch = $eip $T0 ^ = $esp $T0 4 + = 
STACK WIN 4 a9f1 c4 2 0 14 4 0 0 1 $T0 .raSearch = $eip $T0 ^ = $esp $T0 4 + =  $23 $T0 4 - ^ = 
STACK WIN 4 a9f6 be 0 0 14 8 0 0 1 $T0 .raSearch = $eip $T0 ^ = $esp $T0 4 + =  $23 $T0 4 - ^ =  $24 $T0 8 - ^ = 
STACK WIN 4 aac0 68 0 0 8 0 0 0 1 $T0 .raSearch = $eip $T0 ^ = $esp $T0 4 + = 
STACK WIN 4 aad1 4c 0 0 8 4 0 0 1 $T0 .raSearch = $eip $T0 ^ = $esp $T0 4 + =  $24 $T0 4 - ^ = 
STACK WIN 4 aad8 24 0 0 8 8 0 0 1 $T0 .raSearch = $eip $T0 ^ = $esp $T0 4 + =  $24 $T0 4 - ^ =  $23 $T0 8 - ^ = 
STACK WIN 4 ab30 80 5 0 8 0 0 0 1 $T0 .raSearch = $eip $T0 ^ = $esp $T0 4 + = 
STACK WIN 4 ab34 79 1 0 8 4 0 0 1 $T0 .raSearch = $eip $T0 ^ = $esp $T0 4 + =  $20 $T0 4 - ^ = 
STACK WIN 4 ab35 75 0 0 8 8 0 0 1 $T0 .raSearch = $eip $T0 ^ = $esp $T0 4 + =  $20 $T0 4 - ^ =  $23 $T0 8 - ^ = 
STACK WIN 4 ab60 42 0 0 8 c 0 0 1 $T0 .raSearch = $eip $T0 ^ = $esp $T0 4 + =  $20 $T0 4 - ^ =  $23 $T0 8 - ^ =  $24 $T0 12 - ^ = 
STACK WIN 4 abb0 f2 5 0 4 0 0 0 1 $T0 .raSearch = $eip $T0 ^ = $esp $T0 4 + = 
STACK WIN 4 abb1 d9 4 0 4 4 0 0 1 $T0 .raSearch = $eip $T0 ^ = $esp $T0 4 + =  $20 $T0 4 - ^ = 
STACK WIN 4 abb2 d7 3 0 4 8 0 0 1 $T0 .raSearch = $eip $T0 ^ = $esp $T0 4 + =  $20 $T0 4 - ^ =  $22 $T0 8 - ^ = 
STACK WIN 4 abb3 d5 2 0 4 c 0 0 1 $T0 .raSearch = $eip $T0 ^ = $esp $T0 4 + =  $20 $T0 4 - ^ =  $22 $T0 8 - ^ =  $23 $T0 12 - ^ = 
STACK WIN 4 abb6 d1 0 0 4 10 0 0 1 $T0 .raSearch = $eip $T0 ^ = $esp $T0 4 + =  $20 $T0 4 - ^ =  $22 $T0 8 - ^ =  $23 $T0 12 - ^ =  $24 $T0 16 - ^ = 
STACK WIN 4 acb0 13a a 0 4 10 0 0 1 $T0 .raSearch = $eip $T0 ^ = $esp $T0 4 + =  $20 $T0 4 - ^ =  $22 $T0 8 - ^ =  $23 $T0 12 - ^ =  $24 $T0 16 - ^ = 
STACK WIN 4 adf0 58 0 0 8 0 0 0 1 $T0 .raSearch = $eip $T0 ^ = $esp $T0 4 + = 
STACK WIN 4 ae50 57 0 0 4 0 0 0 1 $T0 .raSearch = $eip $T0 ^ = $esp $T0 4 + = 
STACK WIN 4 aeb0 bc a 0 4 10 0 0 1 $T0 .raSearch = $eip $T0 ^ = $esp $T0 4 + =  $20 $T0 4 - ^ =  $22 $T0 8 - ^ =  $23 $T0 12 - ^ =  $24 $T0 16 - ^ = 
STACK WIN 4 af70 82 6 0 0 0 0 0 1 $T0 .raSearch = $eip $T0 ^ = $esp $T0 4 + = 
STACK WIN 4 af71 80 5 0 0 4 0 0 1 $T0 .raSearch = $eip $T0 ^ = $esp $T0 4 + =  $20 $T0 4 - ^ = 
STACK WIN 4 af75 79 1 0 0 8 0 0 1 $T0 .raSearch = $eip $T0 ^ = $esp $T0 4 + =  $20 $T0 4 - ^ =  $23 $T0 8 - ^ = 
STACK WIN 4 af76 77 0 0 0 c 0 0 1 $T0 .raSearch = $eip $T0 ^ = $esp $T0 4 + =  $20 $T0 4 - ^ =  $23 $T0 8 - ^ =  $24 $T0 12 - ^ = 
STACK WIN 4 b000 14c 3 0 4 0 0 0 1 $T0 .raSearch = $eip $T0 ^ = $esp $T0 4 + = 
STACK WIN 4 b001 148 2 0 4 4 0 0 1 $T0 .raSearch = $eip $T0 ^ = $esp $T0 4 + =  $23 $T0 4 - ^ = 
STACK WIN 4 b150 295 6 0 0 0 0 0 1 $T0 .raSearch = $eip $T0 ^ = $esp $T0 4 + = 
STACK WIN 4 b154 28d 2 0 0 4 c 0 1 $T0 .raSearch = $eip $T0 ^ = $esp $T0 4 + =  $20 $T0 16 - ^ = 
STACK WIN 4 b157 289 0 0 0 8 c 0 1 $T0 .raSearch = $eip $T0 ^ = $esp $T0 4 + =  $20 $T0 16 - ^ =  $23 $T0 20 - ^ = 
STACK WIN 4 b158 287 0 0 0 c c 0 1 $T0 .raSearch = $eip $T0 ^ = $esp $T0 4 + =  $20 $T0 16 - ^ =  $23 $T0 20 - ^ =  $24 $T0 24 - ^ = 
STACK WIN 4 b17a 8e 0 0 0 10 c 0 1 $T0 .raSearch = $eip $T0 ^ = $esp $T0 4 + =  $20 $T0 16 - ^ =  $23 $T0 20 - ^ =  $24 $T0 24 - ^ =  $22 $T0 28 - ^ = 
STACK WIN 4 b3f0 68 2 0 0 0 0 0 1 $T0 .raSearch = $eip $T0 ^ = $esp $T0 4 + = 
STACK WIN 4 b3f2 64 0 0 0 4 4 0 1 $T0 .raSearch = $eip $T0 ^ = $esp $T0 4 + =  $24 $T0 8 - ^ = 
STACK WIN 4 b402 32 0 0 0 8 4 0 1 $T0 .raSearch = $eip $T0 ^ = $esp $T0 4 + =  $24 $T0 8 - ^ =  $23 $T0 12 - ^ = 
STACK WIN 4 b460 10c 28 0 4 c b4 0 1 $T1 .raSearch = $T0  $T1 4 - 8 @ = $ebp $T1 4 - ^ = $eip $T1 ^ = $esp $T1 4 + = $20 $T0 184 - ^ =  $23 $T0 188 - ^ =  $24 $T0 192 - ^ = 
STACK WIN 4 b570 fd c 0 1c 10 10 0 1 $T0 .raSearch = $eip $T0 ^ = $esp $T0 4 + =  $20 $T0 20 - ^ =  $22 $T0 24 - ^ =  $23 $T0 28 - ^ =  $24 $T0 32 - ^ = 
STACK WIN 4 b670 139 24 0 1c c 3000c 0 1 $T1 .raSearch = $T0  $T1 4 - 8 @ = $ebp $T1 4 - ^ = $eip $T1 ^ = $esp $T1 4 + = $20 $T0 196624 - ^ =  $23 $T0 196628 - ^ =  $24 $T0 196632 - ^ = 
STACK WIN 4 b7b0 8e 24 0 c 0 0 0 1 $T0 .raSearch = $eip $T0 ^ = $esp $T0 4 + = 
STACK WIN 4 b7c9 65 b 0 c 4 20004 0 1 $T0 .raSearch = $eip $T0 ^ = $esp $T0 4 + =  $20 $T0 131080 - ^ = 
STACK WIN 4 b7d1 5c 3 0 c 8 20004 0 1 $T0 .raSearch = $eip $T0 ^ = $esp $T0 4 + =  $20 $T0 131080 - ^ =  $23 $T0 131084 - ^ = 
STACK WIN 4 b7d2 5a 2 0 c c 20004 0 1 $T0 .raSearch = $eip $T0 ^ = $esp $T0 4 + =  $20 $T0 131080 - ^ =  $23 $T0 131084 - ^ =  $24 $T0 131088 - ^ = 
STACK WIN 4 b840 6f d 0 4 0 0 0 1 $T0 .raSearch = $eip $T0 ^ = $esp $T0 4 + = 
STACK WIN 4 b84b 5e 2 0 4 4 8 0 1 $T0 .raSearch = $eip $T0 ^ = $esp $T0 4 + =  $23 $T0 12 - ^ = 
STACK WIN 4 b8b0 e3 d 0 4 0 0 0 1 $T0 .raSearch = $eip $T0 ^ = $esp $T0 4 + = 
STACK WIN 4 b8b2 dd b 0 4 4 4 0 1 $T0 .raSearch = $eip $T0 ^ = $esp $T0 4 + =  $20 $T0 8 - ^ = 
STACK WIN 4 b8b3 d6 a 0 4 8 4 0 1 $T0 .raSearch = $eip $T0 ^ = $esp $T0 4 + =  $20 $T0 8 - ^ =  $23 $T0 12 - ^ = 
STACK WIN 4 b8d2 b6 0 0 4 c 4 0 1 $T0 .raSearch = $eip $T0 ^ = $esp $T0 4 + =  $20 $T0 8 - ^ =  $23 $T0 12 - ^ =  $22 $T0 16 - ^ = 
STACK WIN 4 b8d3 b4 0 0 4 10 4 0 1 $T0 .raSearch = $eip $T0 ^ = $esp $T0 4 + =  $20 $T0 8 - ^ =  $23 $T0 12 - ^ =  $22 $T0 16 - ^ =  $24 $T0 20 - ^ = 
STACK WIN 4 b9a0 28e 20 0 8 10 e4 0 1 $T0 .raSearch = $eip $T0 ^ = $esp $T0 4 + =  $20 $T0 232 - ^ =  $22 $T0 236 - ^ =  $23 $T0 240 - ^ =  $24 $T0 244 - ^ = 
STACK WIN 4 bc30 23c 21 0 c 0 0 0 1 $T0 .raSearch = $eip $T0 ^ = $esp $T0 4 + = 
STACK WIN 4 bc49 213 8 0 c 4 10008 0 1 $T0 .raSearch = $eip $T0 ^ = $esp $T0 4 + =  $20 $T0 65548 - ^ = 
STACK WIN 4 bc51 20a 0 0 c 8 10008 0 1 $T0 .raSearch = $eip $T0 ^ = $esp $T0 4 + =  $20 $T0 65548 - ^ =  $23 $T0 65552 - ^ = 
STACK WIN 4 bc73 1e0 0 0 c c 10008 0 1 $T0 .raSearch = $eip $T0 ^ = $esp $T0 4 + =  $20 $T0 65548 - ^ =  $23 $T0 65552 - ^ =  $22 $T0 65556 - ^ = 
STACK WIN 4 bc74 1de 0 0 c 10 10008 0 1 $T0 .raSearch = $eip $T0 ^ = $esp $T0 4 + =  $20 $T0 65548 - ^ =  $23 $T0 65552 - ^ =  $22 $T0 65556 - ^ =  $24 $T0 65560 - ^ = 
STACK WIN 4 be70 99 c 0 4 0 0 0 1 $T0 .raSearch = $eip $T0 ^ = $esp $T0 4 + = 
STACK WIN 4 be7c 89 0 0 4 4 4 0 1 $T0 .raSearch = $eip $T0 ^ = $esp $T0 4 + =  $23 $T0 8 - ^ = 
STACK WIN 4 bf10 ec e 0 4 0 0 0 1 $T0 .raSearch = $eip $T0 ^ = $esp $T0 4 + = 
STACK WIN 4 bf28 4b 0 0 4 4 10 0 1 $T0 .raSearch = $eip $T0 ^ = $esp $T0 4 + =  $23 $T0 20 - ^ = 
STACK WIN 4 c000 443 17 0 8 0 0 0 1 $T0 .raSearch = $eip $T0 ^ = $esp $T0 4 + = 
STACK WIN 4 c015 41e 2 0 8 4 e4 0 1 $T0 .raSearch = $eip $T0 ^ = $esp $T0 4 + =  $20 $T0 232 - ^ = 
STACK WIN 4 c018 41a 0 0 8 8 e4 0 1 $T0 .raSearch = $eip $T0 ^ = $esp $T0 4 + =  $20 $T0 232 - ^ =  $22 $T0 236 - ^ = 
STACK WIN 4 c019 418 0 0 8 c e4 0 1 $T0 .raSearch = $eip $T0 ^ = $esp $T0 4 + =  $20 $T0 232 - ^ =  $22 $T0 236 - ^ =  $23 $T0 240 - ^ = 
STACK WIN 4 c021 40f 0 0 8 10 e4 0 1 $T0 .raSearch = $eip $T0 ^ = $esp $T0 4 + =  $20 $T0 232 - ^ =  $22 $T0 236 - ^ =  $23 $T0 240 - ^ =  $24 $T0 244 - ^ = 
STACK WIN 4 c450 38e a 0 8 0 0 0 1 $T0 .raSearch = $eip $T0 ^ = $esp $T0 4 + = 
STACK WIN 4 c454 384 6 0 8 4 c 0 1 $T0 .raSearch = $eip $T0 ^ = $esp $T0 4 + =  $20 $T0 16 - ^ = 
STACK WIN 4 c47b 357 0 0 8 8 c 0 1 $T0 .raSearch = $eip $T0 ^ = $esp $T0 4 + =  $20 $T0 16 - ^ =  $22 $T0 20 - ^ = 
STACK WIN 4 c47c 355 0 0 8 c c 0 1 $T0 .raSearch = $eip $T0 ^ = $esp $T0 4 + =  $20 $T0 16 - ^ =  $22 $T0 20 - ^ =  $23 $T0 24 - ^ = 
STACK WIN 4 c47d 353 0 0 8 10 c 0 1 $T0 .raSearch = $eip $T0 ^ = $esp $T0 4 + =  $20 $T0 16 - ^ =  $22 $T0 20 - ^ =  $23 $T0 24 - ^ =  $24 $T0 28 - ^ = 
STACK WIN 4 c7e0 a5 21 0 0 4 1004c 0 1 $T1 .raSearch = $T0  $T1 4 - 8 @ = $ebp $T1 4 - ^ = $eip $T1 ^ = $esp $T1 4 + = $23 $T0 65616 - ^ = 
STACK WIN 4 c890 206 1f 0 c 10 38 0 1 $T0 .raSearch = $eip $T0 ^ = $esp $T0 4 + =  $20 $T0 60 - ^ =  $22 $T0 64 - ^ =  $23 $T0 68 - ^ =  $24 $T0 72 - ^ = 
STACK WIN 4 caa0 32f 8 0 8 0 0 0 1 $T0 .raSearch = $eip $T0 ^ = $esp $T0 4 + = 
STACK WIN 4 caa2 329 6 0 8 4 4 0 1 $T0 .raSearch = $eip $T0 ^ = $esp $T0 4 + =  $20 $T0 8 - ^ = 
STACK WIN 4 cac7 2fe 0 0 8 8 4 0 1 $T0 .raSearch = $eip $T0 ^ = $esp $T0 4 + =  $20 $T0 8 - ^ =  $22 $T0 12 - ^ = 
STACK WIN 4 cac8 2fc 0 0 8 c 4 0 1 $T0 .raSearch = $eip $T0 ^ = $esp $T0 4 + =  $20 $T0 8 - ^ =  $22 $T0 12 - ^ =  $23 $T0 16 - ^ = 
STACK WIN 4 cac9 2fa 0 0 8 10 4 0 1 $T0 .raSearch = $eip $T0 ^ = $esp $T0 4 + =  $20 $T0 8 - ^ =  $22 $T0 12 - ^ =  $23 $T0 16 - ^ =  $24 $T0 20 - ^ = 
STACK WIN 4 cdd0 5f 3 0 4 0 0 0 1 $T0 .raSearch = $eip $T0 ^ = $esp $T0 4 + = 
STACK WIN 4 cdd1 5b 2 0 4 4 0 0 1 $T0 .raSearch = $eip $T0 ^ = $esp $T0 4 + =  $23 $T0 4 - ^ = 
STACK WIN 4 cdd4 57 0 0 4 8 0 0 1 $T0 .raSearch = $eip $T0 ^ = $esp $T0 4 + =  $23 $T0 4 - ^ =  $24 $T0 8 - ^ = 
STACK WIN 4 ce30 5e d 0 8 0 0 0 1 $T0 .raSearch = $eip $T0 ^ = $esp $T0 4 + = 
STACK WIN 4 ce31 5a c 0 8 4 0 0 1 $T0 .raSearch = $eip $T0 ^ = $esp $T0 4 + =  $20 $T0 4 - ^ = 
STACK WIN 4 ce34 54 9 0 8 8 0 0 1 $T0 .raSearch = $eip $T0 ^ = $esp $T0 4 + =  $20 $T0 4 - ^ =  $22 $T0 8 - ^ = 
STACK WIN 4 ce39 4e 4 0 8 c 0 0 1 $T0 .raSearch = $eip $T0 ^ = $esp $T0 4 + =  $20 $T0 4 - ^ =  $22 $T0 8 - ^ =  $23 $T0 12 - ^ = 
STACK WIN 4 ce3d 49 0 0 8 10 0 0 1 $T0 .raSearch = $eip $T0 ^ = $esp $T0 4 + =  $20 $T0 4 - ^ =  $22 $T0 8 - ^ =  $23 $T0 12 - ^ =  $24 $T0 16 - ^ = 
STACK WIN 4 ce90 2a4 c 0 8 0 0 0 1 $T0 .raSearch = $eip $T0 ^ = $esp $T0 4 + = 
STACK WIN 4 ce94 263 8 0 8 4 c 0 1 $T0 .raSearch = $eip $T0 ^ = $esp $T0 4 + =  $20 $T0 16 - ^ = 
STACK WIN 4 ce99 25b 3 0 8 8 c 0 1 $T0 .raSearch = $eip $T0 ^ = $esp $T0 4 + =  $20 $T0 16 - ^ =  $22 $T0 20 - ^ = 
STACK WIN 4 ce9a 259 2 0 8 c c 0 1 $T0 .raSearch = $eip $T0 ^ = $esp $T0 4 + =  $20 $T0 16 - ^ =  $22 $T0 20 - ^ =  $23 $T0 24 - ^ = 
STACK WIN 4 cea1 251 0 0 8 10 c 0 1 $T0 .raSearch = $eip $T0 ^ = $esp $T0 4 + =  $20 $T0 16 - ^ =  $22 $T0 20 - ^ =  $23 $T0 24 - ^ =  $24 $T0 28 - ^ = 
STACK WIN 4 d140 63 9 0 4 0 0 0 1 $T0 .raSearch = $eip $T0 ^ = $esp $T0 4 + = 
STACK WIN 4 d141 5f 8 0 4 4 0 0 1 $T0 .raSearch = $eip $T0 ^ = $esp $T0 4 + =  $20 $T0 4 - ^ = 
STACK WIN 4 d146 59 3 0 4 8 0 0 1 $T0 .raSearch = $eip $T0 ^ = $esp $T0 4 + =  $20 $T0 4 - ^ =  $22 $T0 8 - ^ = 
STACK WIN 4 d147 57 2 0 4 c 0 0 1 $T0 .raSearch = $eip $T0 ^ = $esp $T0 4 + =  $20 $T0 4 - ^ =  $22 $T0 8 - ^ =  $24 $T0 12 - ^ = 
STACK WIN 4 d152 4b 0 0 4 10 0 0 1 $T0 .raSearch = $eip $T0 ^ = $esp $T0 4 + =  $20 $T0 4 - ^ =  $22 $T0 8 - ^ =  $24 $T0 12 - ^ =  $23 $T0 16 - ^ = 
STACK WIN 4 d1b0 39 0 0 8 0 0 0 1 $T0 .raSearch = $eip $T0 ^ = $esp $T0 4 + = 
STACK WIN 4 d1c5 21 0 0 8 4 0 0 1 $T0 .raSearch = $eip $T0 ^ = $esp $T0 4 + =  $23 $T0 4 - ^ = 
STACK WIN 4 d1f0 5f 3 0 4 0 0 0 1 $T0 .raSearch = $eip $T0 ^ = $esp $T0 4 + = 
STACK WIN 4 d1f1 50 2 0 4 4 0 0 1 $T0 .raSearch = $eip $T0 ^ = $esp $T0 4 + =  $23 $T0 4 - ^ = 
STACK WIN 4 d1f4 4c 0 0 4 8 0 0 1 $T0 .raSearch = $eip $T0 ^ = $esp $T0 4 + =  $23 $T0 4 - ^ =  $24 $T0 8 - ^ = 
STACK WIN 4 d20b 34 0 0 4 c 0 0 1 $T0 .raSearch = $eip $T0 ^ = $esp $T0 4 + =  $23 $T0 4 - ^ =  $24 $T0 8 - ^ =  $20 $T0 12 - ^ = 
STACK WIN 4 d250 53 5 0 4 0 0 0 1 $T0 .raSearch = $eip $T0 ^ = $esp $T0 4 + = 
STACK WIN 4 d255 4b 0 0 4 4 0 0 1 $T0 .raSearch = $eip $T0 ^ = $esp $T0 4 + =  $23 $T0 4 - ^ = 
STACK WIN 4 d2b0 4f 5 0 4 0 0 0 1 $T0 .raSearch = $eip $T0 ^ = $esp $T0 4 + = 
STACK WIN 4 d2b5 47 0 0 4 4 0 0 1 $T0 .raSearch = $eip $T0 ^ = $esp $T0 4 + =  $23 $T0 4 - ^ = 
STACK WIN 4 d300 83 10 0 8 0 0 0 1 $T0 .raSearch = $eip $T0 ^ = $esp $T0 4 + = 
STACK WIN 4 d301 81 f 0 8 4 0 0 1 $T0 .raSearch = $eip $T0 ^ = $esp $T0 4 + =  $20 $T0 4 - ^ = 
STACK WIN 4 d308 79 8 0 8 8 0 0 1 $T0 .raSearch = $eip $T0 ^ = $esp $T0 4 + =  $20 $T0 4 - ^ =  $23 $T0 8 - ^ = 
STACK WIN 4 d30e 72 2 0 8 c 0 0 1 $T0 .raSearch = $eip $T0 ^ = $esp $T0 4 + =  $20 $T0 4 - ^ =  $23 $T0 8 - ^ =  $24 $T0 12 - ^ = 
STACK WIN 4 d390 4f 2 0 0 0 0 0 1 $T0 .raSearch = $eip $T0 ^ = $esp $T0 4 + = 
STACK WIN 4 d3e0 7c d 0 c 0 0 0 1 $T0 .raSearch = $eip $T0 ^ = $esp $T0 4 + = 
STACK WIN 4 d3e6 72 7 0 c 4 4 0 1 $T0 .raSearch = $eip $T0 ^ = $esp $T0 4 + =  $23 $T0 8 - ^ = 
STACK WIN 4 d3eb 6a 2 0 c 8 4 0 1 $T0 .raSearch = $eip $T0 ^ = $esp $T0 4 + =  $23 $T0 8 - ^ =  $24 $T0 12 - ^ = 
STACK WIN 4 d460 57 0 0 8 0 0 0 1 $T0 .raSearch = $eip $T0 ^ = $esp $T0 4 + = 
STACK WIN 4 d4c0 9d 9 0 4 0 0 0 1 $T0 .raSearch = $eip $T0 ^ = $esp $T0 4 + = 
STACK WIN 4 d4c1 8e 8 0 4 4 0 0 1 $T0 .raSearch = $eip $T0 ^ = $esp $T0 4 + =  $20 $T0 4 - ^ = 
STACK WIN 4 d4c6 88 3 0 4 8 0 0 1 $T0 .raSearch = $eip $T0 ^ = $esp $T0 4 + =  $20 $T0 4 - ^ =  $23 $T0 8 - ^ = 
STACK WIN 4 d4c7 86 2 0 4 c 0 0 1 $T0 .raSearch = $eip $T0 ^ = $esp $T0 4 + =  $20 $T0 4 - ^ =  $23 $T0 8 - ^ =  $24 $T0 12 - ^ = 
STACK WIN 4 d513 36 0 0 4 10 0 0 1 $T0 .raSearch = $eip $T0 ^ = $esp $T0 4 + =  $20 $T0 4 - ^ =  $23 $T0 8 - ^ =  $24 $T0 12 - ^ =  $22 $T0 16 - ^ = 
STACK WIN 4 d552 b 0 0 4 c 0 0 1 $T0 .raSearch = $eip $T0 ^ = $esp $T0 4 + =  $20 $T0 4 - ^ =  $23 $T0 8 - ^ =  $24 $T0 12 - ^ =  $22 $T0 16 - ^ = 
STACK WIN 4 d560 5e d 0 c 0 0 0 1 $T0 .raSearch = $eip $T0 ^ = $esp $T0 4 + = 
STACK WIN 4 d566 54 7 0 c 4 4 0 1 $T0 .raSearch = $eip $T0 ^ = $esp $T0 4 + =  $23 $T0 8 - ^ = 
STACK WIN 4 d56b 4c 2 0 c 8 4 0 1 $T0 .raSearch = $eip $T0 ^ = $esp $T0 4 + =  $23 $T0 8 - ^ =  $24 $T0 12 - ^ = 
STACK WIN 4 d5c0 403 c 0 8 0 0 0 1 $T0 .raSearch = $eip $T0 ^ = $esp $T0 4 + = 
STACK WIN 4 d5c4 2d2 8 0 8 4 8 0 1 $T0 .raSearch = $eip $T0 ^ = $esp $T0 4 + =  $20 $T0 12 - ^ = 
STACK WIN 4 d5c9 2ca 3 0 8 8 8 0 1 $T0 .raSearch = $eip $T0 ^ = $esp $T0 4 + =  $20 $T0 12 - ^ =  $22 $T0 16 - ^ = 
STACK WIN 4 d5ca 2c8 2 0 8 c 8 0 1 $T0 .raSearch = $eip $T0 ^ = $esp $T0 4 + =  $20 $T0 12 - ^ =  $22 $T0 16 - ^ =  $23 $T0 20 - ^ = 
STACK WIN 4 d5d1 2c0 0 0 8 10 8 0 1 $T0 .raSearch = $eip $T0 ^ = $esp $T0 4 + =  $20 $T0 12 - ^ =  $22 $T0 16 - ^ =  $23 $T0 20 - ^ =  $24 $T0 24 - ^ = 
STACK WIN 4 d9d0 48 5 0 0 0 0 0 1 $T0 .raSearch = $eip $T0 ^ = $esp $T0 4 + = 
STACK WIN 4 d9d1 46 4 0 0 4 0 0 1 $T0 .raSearch = $eip $T0 ^ = $esp $T0 4 + =  $20 $T0 4 - ^ = 
STACK WIN 4 d9d2 44 3 0 0 8 0 0 1 $T0 .raSearch = $eip $T0 ^ = $esp $T0 4 + =  $20 $T0 4 - ^ =  $23 $T0 8 - ^ = 
STACK WIN 4 d9d3 42 2 0 0 c 0 0 1 $T0 .raSearch = $eip $T0 ^ = $esp $T0 4 + =  $20 $T0 4 - ^ =  $23 $T0 8 - ^ =  $24 $T0 12 - ^ = 
STACK WIN 4 da20 34 9 0 4 0 0 0 1 $T0 .raSearch = $eip $T0 ^ = $esp $T0 4 + = 
STACK WIN 4 da21 30 8 0 4 4 0 0 1 $T0 .raSearch = $eip $T0 ^ = $esp $T0 4 + =  $20 $T0 4 - ^ = 
STACK WIN 4 da22 2e 7 0 4 8 0 0 1 $T0 .raSearch = $eip $T0 ^ = $esp $T0 4 + =  $20 $T0 4 - ^ =  $23 $T0 8 - ^ = 
STACK WIN 4 da23 2c 6 0 4 c 0 0 1 $T0 .raSearch = $eip $T0 ^ = $esp $T0 4 + =  $20 $T0 4 - ^ =  $23 $T0 8 - ^ =  $24 $T0 12 - ^ = 
STACK WIN 4 da60 5a 4 0 4 0 0 0 1 $T0 .raSearch = $eip $T0 ^ = $esp $T0 4 + = 
STACK WIN 4 da61 56 3 0 4 4 0 0 1 $T0 .raSearch = $eip $T0 ^ = $esp $T0 4 + =  $20 $T0 4 - ^ = 
STACK WIN 4 da64 50 0 0 4 8 0 0 1 $T0 .raSearch = $eip $T0 ^ = $esp $T0 4 + =  $20 $T0 4 - ^ =  $23 $T0 8 - ^ = 
STACK WIN 4 da6e 45 0 0 4 c 0 0 1 $T0 .raSearch = $eip $T0 ^ = $esp $T0 4 + =  $20 $T0 4 - ^ =  $23 $T0 8 - ^ =  $22 $T0 12 - ^ = 
STACK WIN 4 da6f 43 0 0 4 10 0 0 1 $T0 .raSearch = $eip $T0 ^ = $esp $T0 4 + =  $20 $T0 4 - ^ =  $23 $T0 8 - ^ =  $22 $T0 12 - ^ =  $24 $T0 16 - ^ = 
STACK WIN 4 dac0 7f a 0 8 0 0 0 1 $T0 .raSearch = $eip $T0 ^ = $esp $T0 4 + = 
STACK WIN 4 dac2 6d 8 0 8 4 4 0 1 $T0 .raSearch = $eip $T0 ^ = $esp $T0 4 + =  $20 $T0 8 - ^ = 
STACK WIN 4 dac3 6b 7 0 8 8 4 0 1 $T0 .raSearch = $eip $T0 ^ = $esp $T0 4 + =  $20 $T0 8 - ^ =  $23 $T0 12 - ^ = 
STACK WIN 4 dac4 69 6 0 8 c 4 0 1 $T0 .raSearch = $eip $T0 ^ = $esp $T0 4 + =  $20 $T0 8 - ^ =  $23 $T0 12 - ^ =  $24 $T0 16 - ^ = 
STACK WIN 4 db40 d2 8 0 8 10 0 0 1 $T0 .raSearch = $eip $T0 ^ = $esp $T0 4 + =  $20 $T0 4 - ^ =  $22 $T0 8 - ^ =  $23 $T0 12 - ^ =  $24 $T0 16 - ^ = 
STACK WIN 4 dc20 80 7 0 14 c 0 0 1 $T0 .raSearch = $eip $T0 ^ = $esp $T0 4 + =  $20 $T0 4 - ^ =  $23 $T0 8 - ^ =  $24 $T0 12 - ^ = 
STACK WIN 4 dca0 1ab 6 0 10 0 0 0 1 $T0 .raSearch = $eip $T0 ^ = $esp $T0 4 + = 
STACK WIN 4 dca4 19f 2 0 10 4 8 0 1 $T0 .raSearch = $eip $T0 ^ = $esp $T0 4 + =  $20 $T0 12 - ^ = 
STACK WIN 4 dca7 195 0 0 10 8 8 0 1 $T0 .raSearch = $eip $T0 ^ = $esp $T0 4 + =  $20 $T0 12 - ^ =  $23 $T0 16 - ^ = 
STACK WIN 4 dcd1 16a 0 0 10 c 8 0 1 $T0 .raSearch = $eip $T0 ^ = $esp $T0 4 + =  $20 $T0 12 - ^ =  $23 $T0 16 - ^ =  $22 $T0 20 - ^ = 
STACK WIN 4 dcd6 164 0 0 10 10 8 0 1 $T0 .raSearch = $eip $T0 ^ = $esp $T0 4 + =  $20 $T0 12 - ^ =  $23 $T0 16 - ^ =  $22 $T0 20 - ^ =  $24 $T0 24 - ^ = 
STACK WIN 4 de50 1ab 6 0 10 0 0 0 1 $T0 .raSearch = $eip $T0 ^ = $esp $T0 4 + = 
STACK WIN 4 de54 19f 2 0 10 4 8 0 1 $T0 .raSearch = $eip $T0 ^ = $esp $T0 4 + =  $20 $T0 12 - ^ = 
STACK WIN 4 de57 195 0 0 10 8 8 0 1 $T0 .raSearch = $eip $T0 ^ = $esp $T0 4 + =  $20 $T0 12 - ^ =  $23 $T0 16 - ^ = 
STACK WIN 4 de81 16a 0 0 10 c 8 0 1 $T0 .raSearch = $eip $T0 ^ = $esp $T0 4 + =  $20 $T0 12 - ^ =  $23 $T0 16 - ^ =  $22 $T0 20 - ^ = 
STACK WIN 4 de86 164 0 0 10 10 8 0 1 $T0 .raSearch = $eip $T0 ^ = $esp $T0 4 + =  $20 $T0 12 - ^ =  $23 $T0 16 - ^ =  $22 $T0 20 - ^ =  $24 $T0 24 - ^ = 
STACK WIN 4 e000 41 2 0 4 0 0 0 1 $T0 .raSearch = $eip $T0 ^ = $esp $T0 4 + = 
STACK WIN 4 e001 3d 1 0 4 4 0 0 1 $T0 .raSearch = $eip $T0 ^ = $esp $T0 4 + =  $23 $T0 4 - ^ = 
STACK WIN 4 e002 3b 0 0 4 8 0 0 1 $T0 .raSearch = $eip $T0 ^ = $esp $T0 4 + =  $23 $T0 4 - ^ =  $24 $T0 8 - ^ = 
STACK WIN 4 e050 5e 2 0 0 0 0 0 1 $T0 .raSearch = $eip $T0 ^ = $esp $T0 4 + = 
STACK WIN 4 e0b0 23e 4 0 14 0 0 0 1 $T0 .raSearch = $eip $T0 ^ = $esp $T0 4 + = 
STACK WIN 4 e0b1 221 3 0 14 4 0 0 1 $T0 .raSearch = $eip $T0 ^ = $esp $T0 4 + =  $23 $T0 4 - ^ = 
STACK WIN 4 e0b2 21f 2 0 14 8 0 0 1 $T0 .raSearch = $eip $T0 ^ = $esp $T0 4 + =  $23 $T0 4 - ^ =  $24 $T0 8 - ^ = 
STACK WIN 4 e0f4 1dc 0 0 14 c 0 0 1 $T0 .raSearch = $eip $T0 ^ = $esp $T0 4 + =  $23 $T0 4 - ^ =  $24 $T0 8 - ^ =  $20 $T0 12 - ^ = 
STACK WIN 4 e2f0 111 18 0 10 0 0 0 1 $T0 .raSearch = $eip $T0 ^ = $esp $T0 4 + = 
STACK WIN 4 e2f4 107 14 0 10 4 c 0 1 $T0 .raSearch = $eip $T0 ^ = $esp $T0 4 + =  $20 $T0 16 - ^ = 
STACK WIN 4 e2f5 101 13 0 10 8 c 0 1 $T0 .raSearch = $eip $T0 ^ = $esp $T0 4 + =  $20 $T0 16 - ^ =  $22 $T0 20 - ^ = 
STACK WIN 4 e2fa fb e 0 10 c c 0 1 $T0 .raSearch = $eip $T0 ^ = $esp $T0 4 + =  $20 $T0 16 - ^ =  $22 $T0 20 - ^ =  $23 $T0 24 - ^ = 
STACK WIN 4 e2fb f7 d 0 10 10 c 0 1 $T0 .raSearch = $eip $T0 ^ = $esp $T0 4 + =  $20 $T0 16 - ^ =  $22 $T0 20 - ^ =  $23 $T0 24 - ^ =  $24 $T0 28 - ^ = 
STACK WIN 4 e410 1d3 3 0 14 0 0 0 1 $T0 .raSearch = $eip $T0 ^ = $esp $T0 4 + = 
STACK WIN 4 e411 1b8 2 0 14 4 0 0 1 $T0 .raSearch = $eip $T0 ^ = $esp $T0 4 + =  $24 $T0 4 - ^ = 
STACK WIN 4 e422 1a6 0 0 14 8 0 0 1 $T0 .raSearch = $eip $T0 ^ = $esp $T0 4 + =  $24 $T0 4 - ^ =  $20 $T0 8 - ^ = 
STACK WIN 4 e42f 18b 0 0 14 c 0 0 1 $T0 .raSearch = $eip $T0 ^ = $esp $T0 4 + =  $24 $T0 4 - ^ =  $20 $T0 8 - ^ =  $23 $T0 12 - ^ = 
STACK WIN 4 e5f0 c5 13 0 10 0 0 0 1 $T0 .raSearch = $eip $T0 ^ = $esp $T0 4 + = 
STACK WIN 4 e5f4 bb f 0 10 4 8 0 1 $T0 .raSearch = $eip $T0 ^ = $esp $T0 4 + =  $20 $T0 12 - ^ = 
STACK WIN 4 e5fb af 8 0 10 8 8 0 1 $T0 .raSearch = $eip $T0 ^ = $esp $T0 4 + =  $20 $T0 12 - ^ =  $22 $T0 16 - ^ = 
STACK WIN 4 e5fe ab 5 0 10 c 8 0 1 $T0 .raSearch = $eip $T0 ^ = $esp $T0 4 + =  $20 $T0 12 - ^ =  $22 $T0 16 - ^ =  $23 $T0 20 - ^ = 
STACK WIN 4 e5ff a7 4 0 10 10 8 0 1 $T0 .raSearch = $eip $T0 ^ = $esp $T0 4 + =  $20 $T0 12 - ^ =  $22 $T0 16 - ^ =  $23 $T0 20 - ^ =  $24 $T0 24 - ^ = 
STACK WIN 4 e6c0 49 3 0 0 0 0 0 1 $T0 .raSearch = $eip $T0 ^ = $esp $T0 4 + = 
STACK WIN 4 e6c1 47 2 0 0 4 0 0 1 $T0 .raSearch = $eip $T0 ^ = $esp $T0 4 + =  $23 $T0 4 - ^ = 
STACK WIN 4 e6c4 43 0 0 0 8 0 0 1 $T0 .raSearch = $eip $T0 ^ = $esp $T0 4 + =  $23 $T0 4 - ^ =  $24 $T0 8 - ^ = 
STACK WIN 4 e710 68 5 0 4 0 0 0 1 $T0 .raSearch = $eip $T0 ^ = $esp $T0 4 + = 
STACK WIN 4 e711 64 4 0 4 4 0 0 1 $T0 .raSearch = $eip $T0 ^ = $esp $T0 4 + =  $20 $T0 4 - ^ = 
STACK WIN 4 e715 5f 0 0 4 8 0 0 1 $T0 .raSearch = $eip $T0 ^ = $esp $T0 4 + =  $20 $T0 4 - ^ =  $23 $T0 8 - ^ = 
STACK WIN 4 e71d 54 0 0 4 c 0 0 1 $T0 .raSearch = $eip $T0 ^ = $esp $T0 4 + =  $20 $T0 4 - ^ =  $23 $T0 8 - ^ =  $22 $T0 12 - ^ = 
STACK WIN 4 e720 50 0 0 4 10 0 0 1 $T0 .raSearch = $eip $T0 ^ = $esp $T0 4 + =  $20 $T0 4 - ^ =  $23 $T0 8 - ^ =  $22 $T0 12 - ^ =  $24 $T0 16 - ^ = 
STACK WIN 4 e780 e4 3 0 8 0 0 0 1 $T0 .raSearch = $eip $T0 ^ = $esp $T0 4 + = 
STACK WIN 4 e781 e0 2 0 8 4 0 0 1 $T0 .raSearch = $eip $T0 ^ = $esp $T0 4 + =  $20 $T0 4 - ^ = 
STACK WIN 4 e784 d7 0 0 8 8 0 0 1 $T0 .raSearch = $eip $T0 ^ = $esp $T0 4 + =  $20 $T0 4 - ^ =  $22 $T0 8 - ^ = 
STACK WIN 4 e785 d5 0 0 8 c 0 0 1 $T0 .raSearch = $eip $T0 ^ = $esp $T0 4 + =  $20 $T0 4 - ^ =  $22 $T0 8 - ^ =  $24 $T0 12 - ^ = 
STACK WIN 4 e7aa a7 0 0 8 10 0 0 1 $T0 .raSearch = $eip $T0 ^ = $esp $T0 4 + =  $20 $T0 4 - ^ =  $22 $T0 8 - ^ =  $24 $T0 12 - ^ =  $23 $T0 16 - ^ = 
STACK WIN 4 e870 130 10 0 8 0 0 0 1 $T0 .raSearch = $eip $T0 ^ = $esp $T0 4 + = 
STACK WIN 4 e874 126 c 0 8 4 c 0 1 $T0 .raSearch = $eip $T0 ^ = $esp $T0 4 + =  $20 $T0 16 - ^ = 
STACK WIN 4 e875 124 b 0 8 8 c 0 1 $T0 .raSearch = $eip $T0 ^ = $esp $T0 4 + =  $20 $T0 16 - ^ =  $22 $T0 20 - ^ = 
STACK WIN 4 e87c 11c 4 0 8 c c 0 1 $T0 .raSearch = $eip $T0 ^ = $esp $T0 4 + =  $20 $T0 16 - ^ =  $22 $T0 20 - ^ =  $23 $T0 24 - ^ = 
STACK WIN 4 e883 114 0 0 8 10 c 0 1 $T0 .raSearch = $eip $T0 ^ = $esp $T0 4 + =  $20 $T0 16 - ^ =  $22 $T0 20 - ^ =  $23 $T0 24 - ^ =  $24 $T0 28 - ^ = 
STACK WIN 4 e9a0 1f 0 0 0 0 0 0 1 $T0 .raSearch = $eip $T0 ^ = $esp $T0 4 + = 
STACK WIN 4 e9c0 3b 0 0 0 0 0 0 1 $T0 .raSearch = $eip $T0 ^ = $esp $T0 4 + = 
STACK WIN 4 ea00 22f 26 0 10 0 0 0 1 $T0 .raSearch = $eip $T0 ^ = $esp $T0 4 + = 
STACK WIN 4 ea1c 203 a 0 10 4 cc 0 1 $T0 .raSearch = $eip $T0 ^ = $esp $T0 4 + =  $22 $T0 208 - ^ = 
STACK WIN 4 ea24 1fa 2 0 10 8 cc 0 1 $T0 .raSearch = $eip $T0 ^ = $esp $T0 4 + =  $22 $T0 208 - ^ =  $23 $T0 212 - ^ = 
STACK WIN 4 ea2e 1ef 0 0 10 c cc 0 1 $T0 .raSearch = $eip $T0 ^ = $esp $T0 4 + =  $22 $T0 208 - ^ =  $23 $T0 212 - ^ =  $24 $T0 216 - ^ = 
STACK WIN 4 eb8a 2d 0 0 10 10 cc 0 1 $T0 .raSearch = $eip $T0 ^ = $esp $T0 4 + =  $22 $T0 208 - ^ =  $23 $T0 212 - ^ =  $24 $T0 216 - ^ =  $20 $T0 220 - ^ = 
STACK WIN 4 ec30 7b 3 0 0 0 0 0 1 $T0 .raSearch = $eip $T0 ^ = $esp $T0 4 + = 
STACK WIN 4 ec31 79 2 0 0 4 0 0 1 $T0 .raSearch = $eip $T0 ^ = $esp $T0 4 + =  $23 $T0 4 - ^ = 
STACK WIN 4 ecb0 10c 16 0 1c 10 8 0 1 $T0 .raSearch = $eip $T0 ^ = $esp $T0 4 + =  $20 $T0 12 - ^ =  $22 $T0 16 - ^ =  $23 $T0 20 - ^ =  $24 $T0 24 - ^ = 
STACK WIN 4 edc0 5c2 36 0 10 10 45c 0 1 $T0 .raSearch = $eip $T0 ^ = $esp $T0 4 + =  $20 $T0 1120 - ^ =  $22 $T0 1124 - ^ =  $23 $T0 1128 - ^ =  $24 $T0 1132 - ^ = 
STACK WIN 4 f390 b3 2d 0 10 c 1a0 0 1 $T0 .raSearch = $eip $T0 ^ = $esp $T0 4 + =  $20 $T0 420 - ^ =  $23 $T0 424 - ^ =  $24 $T0 428 - ^ = 
STACK WIN 4 f450 27c 1b 0 2c 10 10 0 1 $T0 .raSearch = $eip $T0 ^ = $esp $T0 4 + =  $20 $T0 20 - ^ =  $22 $T0 24 - ^ =  $23 $T0 28 - ^ =  $24 $T0 32 - ^ = 
STACK WIN 4 f6d0 30d 33 0 10 10 1d4 0 1 $T0 .raSearch = $eip $T0 ^ = $esp $T0 4 + =  $20 $T0 472 - ^ =  $22 $T0 476 - ^ =  $23 $T0 480 - ^ =  $24 $T0 484 - ^ = 
STACK WIN 4 f9e0 f9 2d 0 10 10 1a4 0 1 $T0 .raSearch = $eip $T0 ^ = $esp $T0 4 + =  $20 $T0 424 - ^ =  $22 $T0 428 - ^ =  $23 $T0 432 - ^ =  $24 $T0 436 - ^ = 
STACK WIN 4 fae0 16f 37 0 14 10 278 0 1 $T0 .raSearch = $eip $T0 ^ = $esp $T0 4 + =  $20 $T0 636 - ^ =  $22 $T0 640 - ^ =  $23 $T0 644 - ^ =  $24 $T0 648 - ^ = 
STACK WIN 4 fc50 1a2 21 0 10 10 1ac 0 1 $T0 .raSearch = $eip $T0 ^ = $esp $T0 4 + =  $20 $T0 432 - ^ =  $22 $T0 436 - ^ =  $23 $T0 440 - ^ =  $24 $T0 444 - ^ = 
STACK WIN 4 fe00 289 33 0 14 10 270 0 1 $T0 .raSearch = $eip $T0 ^ = $esp $T0 4 + =  $20 $T0 628 - ^ =  $22 $T0 632 - ^ =  $23 $T0 636 - ^ =  $24 $T0 640 - ^ = 
STACK WIN 4 10090 fb 27 0 10 10 1ac 0 1 $T0 .raSearch = $eip $T0 ^ = $esp $T0 4 + =  $20 $T0 432 - ^ =  $22 $T0 436 - ^ =  $23 $T0 440 - ^ =  $24 $T0 444 - ^ = 
STACK WIN 4 10190 15e 27 0 14 10 278 0 1 $T0 .raSearch = $eip $T0 ^ = $esp $T0 4 + =  $20 $T0 636 - ^ =  $22 $T0 640 - ^ =  $23 $T0 644 - ^ =  $24 $T0 648 - ^ = 
STACK WIN 4 102f0 133 33 0 14 10 270 0 1 $T0 .raSearch = $eip $T0 ^ = $esp $T0 4 + =  $20 $T0 628 - ^ =  $22 $T0 632 - ^ =  $23 $T0 636 - ^ =  $24 $T0 640 - ^ = 
STACK WIN 4 10430 ce 2c 0 10 10 1a4 0 1 $T0 .raSearch = $eip $T0 ^ = $esp $T0 4 + =  $20 $T0 424 - ^ =  $22 $T0 428 - ^ =  $23 $T0 432 - ^ =  $24 $T0 436 - ^ = 
STACK WIN 4 10500 110 2c 0 10 10 1b4 0 1 $T0 .raSearch = $eip $T0 ^ = $esp $T0 4 + =  $20 $T0 440 - ^ =  $22 $T0 444 - ^ =  $23 $T0 448 - ^ =  $24 $T0 452 - ^ = 
STACK WIN 4 10610 15a 33 0 14 10 290 0 1 $T0 .raSearch = $eip $T0 ^ = $esp $T0 4 + =  $20 $T0 660 - ^ =  $22 $T0 664 - ^ =  $23 $T0 668 - ^ =  $24 $T0 672 - ^ = 
STACK WIN 4 10770 3cc 39 0 10 10 34c 0 1 $T0 .raSearch = $eip $T0 ^ = $esp $T0 4 + =  $20 $T0 848 - ^ =  $22 $T0 852 - ^ =  $23 $T0 856 - ^ =  $24 $T0 860 - ^ = 
STACK WIN 4 10b40 16b 2b 0 10 10 1ac 0 1 $T0 .raSearch = $eip $T0 ^ = $esp $T0 4 + =  $20 $T0 432 - ^ =  $22 $T0 436 - ^ =  $23 $T0 440 - ^ =  $24 $T0 444 - ^ = 
STACK WIN 4 10cb0 234 27 0 14 10 278 0 1 $T0 .raSearch = $eip $T0 ^ = $esp $T0 4 + =  $20 $T0 636 - ^ =  $22 $T0 640 - ^ =  $23 $T0 644 - ^ =  $24 $T0 648 - ^ = 
STACK WIN 4 10ef0 e8 27 0 10 10 1ac 0 1 $T0 .raSearch = $eip $T0 ^ = $esp $T0 4 + =  $20 $T0 432 - ^ =  $22 $T0 436 - ^ =  $23 $T0 440 - ^ =  $24 $T0 444 - ^ = 
STACK WIN 4 10fe0 15b 21 0 14 10 278 0 1 $T0 .raSearch = $eip $T0 ^ = $esp $T0 4 + =  $20 $T0 636 - ^ =  $22 $T0 640 - ^ =  $23 $T0 644 - ^ =  $24 $T0 648 - ^ = 
STACK WIN 4 11140 1a8 2a 0 10 10 1b4 0 1 $T0 .raSearch = $eip $T0 ^ = $esp $T0 4 + =  $20 $T0 440 - ^ =  $22 $T0 444 - ^ =  $23 $T0 448 - ^ =  $24 $T0 452 - ^ = 
STACK WIN 4 112f0 253 2e 0 14 10 278 0 1 $T0 .raSearch = $eip $T0 ^ = $esp $T0 4 + =  $20 $T0 636 - ^ =  $22 $T0 640 - ^ =  $23 $T0 644 - ^ =  $24 $T0 648 - ^ = 
STACK WIN 4 11550 134c 49 0 14 10 58e8 0 1 $T0 .raSearch = $eip $T0 ^ = $esp $T0 4 + =  $20 $T0 22764 - ^ =  $22 $T0 22768 - ^ =  $23 $T0 22772 - ^ =  $24 $T0 22776 - ^ = 
STACK WIN 4 128a0 4ca 10 0 14 10 8 0 1 $T0 .raSearch = $eip $T0 ^ = $esp $T0 4 + =  $20 $T0 12 - ^ =  $22 $T0 16 - ^ =  $23 $T0 20 - ^ =  $24 $T0 24 - ^ = 
STACK WIN 4 12d70 2a5 9 0 8 10 4 0 1 $T0 .raSearch = $eip $T0 ^ = $esp $T0 4 + =  $20 $T0 8 - ^ =  $22 $T0 12 - ^ =  $23 $T0 16 - ^ =  $24 $T0 20 - ^ = 
STACK WIN 4 13020 31e 3c 0 4 10 21a8 0 1 $T0 .raSearch = $eip $T0 ^ = $esp $T0 4 + =  $20 $T0 8620 - ^ =  $22 $T0 8624 - ^ =  $23 $T0 8628 - ^ =  $24 $T0 8632 - ^ = 
STACK WIN 4 13340 33f 36 0 8 10 4024 0 1 $T0 .raSearch = $eip $T0 ^ = $esp $T0 4 + =  $20 $T0 16424 - ^ =  $22 $T0 16428 - ^ =  $23 $T0 16432 - ^ =  $24 $T0 16436 - ^ = 
STACK WIN 4 13680 645 39 0 c 10 a038 0 1 $T0 .raSearch = $eip $T0 ^ = $esp $T0 4 + =  $20 $T0 41020 - ^ =  $22 $T0 41024 - ^ =  $23 $T0 41028 - ^ =  $24 $T0 41032 - ^ = 
STACK WIN 4 13cd0 318 20 0 10 0 0 0 1 $T0 .raSearch = $eip $T0 ^ = $esp $T0 4 + = 
STACK WIN 4 13ce5 2f3 b 0 10 4 1bc 0 1 $T0 .raSearch = $eip $T0 ^ = $esp $T0 4 + =  $20 $T0 448 - ^ = 
STACK WIN 4 13ce6 2f1 a 0 10 8 1bc 0 1 $T0 .raSearch = $eip $T0 ^ = $esp $T0 4 + =  $20 $T0 448 - ^ =  $22 $T0 452 - ^ = 
STACK WIN 4 13cee 2e8 2 0 10 c 1bc 0 1 $T0 .raSearch = $eip $T0 ^ = $esp $T0 4 + =  $20 $T0 448 - ^ =  $22 $T0 452 - ^ =  $23 $T0 456 - ^ = 
STACK WIN 4 13cf5 2e0 0 0 10 10 1bc 0 1 $T0 .raSearch = $eip $T0 ^ = $esp $T0 4 + =  $20 $T0 448 - ^ =  $22 $T0 452 - ^ =  $23 $T0 456 - ^ =  $24 $T0 460 - ^ = 
STACK WIN 4 13ff0 1ff 18 0 8 0 0 0 1 $T0 .raSearch = $eip $T0 ^ = $esp $T0 4 + = 
STACK WIN 4 14005 1da 3 0 8 4 194 0 1 $T0 .raSearch = $eip $T0 ^ = $esp $T0 4 + =  $20 $T0 408 - ^ = 
STACK WIN 4 14006 1d8 2 0 8 8 194 0 1 $T0 .raSearch = $eip $T0 ^ = $esp $T0 4 + =  $20 $T0 408 - ^ =  $22 $T0 412 - ^ = 
STACK WIN 4 14009 1d4 0 0 8 c 194 0 1 $T0 .raSearch = $eip $T0 ^ = $esp $T0 4 + =  $20 $T0 408 - ^ =  $22 $T0 412 - ^ =  $23 $T0 416 - ^ = 
STACK WIN 4 14011 1cb 0 0 8 10 194 0 1 $T0 .raSearch = $eip $T0 ^ = $esp $T0 4 + =  $20 $T0 408 - ^ =  $22 $T0 412 - ^ =  $23 $T0 416 - ^ =  $24 $T0 420 - ^ = 
STACK WIN 4 141f0 1f6 33 0 c 0 0 0 1 $T0 .raSearch = $eip $T0 ^ = $esp $T0 4 + = 
STACK WIN 4 1420c 1ca 17 0 c 4 26c 0 1 $T0 .raSearch = $eip $T0 ^ = $esp $T0 4 + =  $20 $T0 624 - ^ = 
STACK WIN 4 1420d 1c8 16 0 c 8 26c 0 1 $T0 .raSearch = $eip $T0 ^ = $esp $T0 4 + =  $20 $T0 624 - ^ =  $22 $T0 628 - ^ = 
STACK WIN 4 1421d 1b7 6 0 c c 26c 0 1 $T0 .raSearch = $eip $T0 ^ = $esp $T0 4 + =  $20 $T0 624 - ^ =  $22 $T0 628 - ^ =  $23 $T0 632 - ^ = 
STACK WIN 4 14224 1af 0 0 c 10 26c 0 1 $T0 .raSearch = $eip $T0 ^ = $esp $T0 4 + =  $20 $T0 624 - ^ =  $22 $T0 628 - ^ =  $23 $T0 632 - ^ =  $24 $T0 636 - ^ = 
STACK WIN 4 143f0 e4 4 0 10 0 0 0 1 $T0 .raSearch = $eip $T0 ^ = $esp $T0 4 + = 
STACK WIN 4 143f4 da 0 0 10 4 18 0 1 $T0 .raSearch = $eip $T0 ^ = $esp $T0 4 + =  $22 $T0 28 - ^ = 
STACK WIN 4 1440c c1 0 0 10 8 18 0 1 $T0 .raSearch = $eip $T0 ^ = $esp $T0 4 + =  $22 $T0 28 - ^ =  $20 $T0 32 - ^ = 
STACK WIN 4 14411 bb 0 0 10 c 18 0 1 $T0 .raSearch = $eip $T0 ^ = $esp $T0 4 + =  $22 $T0 28 - ^ =  $20 $T0 32 - ^ =  $23 $T0 36 - ^ = 
STACK WIN 4 14412 b9 0 0 10 10 18 0 1 $T0 .raSearch = $eip $T0 ^ = $esp $T0 4 + =  $22 $T0 28 - ^ =  $20 $T0 32 - ^ =  $23 $T0 36 - ^ =  $24 $T0 40 - ^ = 
STACK WIN 4 144e0 240 4d 0 14 0 0 0 1 $T0 .raSearch = $eip $T0 ^ = $esp $T0 4 + = 
STACK WIN 4 144fe 212 2f 0 14 4 1d0 0 1 $T0 .raSearch = $eip $T0 ^ = $esp $T0 4 + =  $20 $T0 468 - ^ = 
STACK WIN 4 14506 209 27 0 14 8 1d0 0 1 $T0 .raSearch = $eip $T0 ^ = $esp $T0 4 + =  $20 $T0 468 - ^ =  $22 $T0 472 - ^ = 
STACK WIN 4 14516 1f8 17 0 14 c 1d0 0 1 $T0 .raSearch = $eip $T0 ^ = $esp $T0 4 + =  $20 $T0 468 - ^ =  $22 $T0 472 - ^ =  $23 $T0 476 - ^ = 
STACK WIN 4 14529 1e4 4 0 14 10 1d0 0 1 $T0 .raSearch = $eip $T0 ^ = $esp $T0 4 + =  $20 $T0 468 - ^ =  $22 $T0 472 - ^ =  $23 $T0 476 - ^ =  $24 $T0 480 - ^ = 
STACK WIN 4 14720 7a 5 0 8 0 0 0 1 $T0 .raSearch = $eip $T0 ^ = $esp $T0 4 + = 
STACK WIN 4 14724 69 1 0 8 4 c 0 1 $T0 .raSearch = $eip $T0 ^ = $esp $T0 4 + =  $23 $T0 16 - ^ = 
STACK WIN 4 14725 67 0 0 8 8 c 0 1 $T0 .raSearch = $eip $T0 ^ = $esp $T0 4 + =  $23 $T0 16 - ^ =  $24 $T0 20 - ^ = 
STACK WIN 4 1475a 31 0 0 8 c c 0 1 $T0 .raSearch = $eip $T0 ^ = $esp $T0 4 + =  $23 $T0 16 - ^ =  $24 $T0 20 - ^ =  $20 $T0 24 - ^ = 
STACK WIN 4 147a0 2ff 4 0 c 0 0 0 1 $T0 .raSearch = $eip $T0 ^ = $esp $T0 4 + = 
STACK WIN 4 147a1 2fb 3 0 c 4 0 0 1 $T0 .raSearch = $eip $T0 ^ = $esp $T0 4 + =  $23 $T0 4 - ^ = 
STACK WIN 4 147a2 2f9 2 0 c 8 0 0 1 $T0 .raSearch = $eip $T0 ^ = $esp $T0 4 + =  $23 $T0 4 - ^ =  $24 $T0 8 - ^ = 
STACK WIN 4 14aa0 54b 6 0 0 0 0 0 1 $T0 .raSearch = $eip $T0 ^ = $esp $T0 4 + = 
STACK WIN 4 14aa2 541 4 0 0 4 4 0 1 $T0 .raSearch = $eip $T0 ^ = $esp $T0 4 + =  $20 $T0 8 - ^ = 
STACK WIN 4 14aa3 53f 3 0 0 8 4 0 1 $T0 .raSearch = $eip $T0 ^ = $esp $T0 4 + =  $20 $T0 8 - ^ =  $23 $T0 12 - ^ = 
STACK WIN 4 14aa4 52d 2 0 0 c 4 0 1 $T0 .raSearch = $eip $T0 ^ = $esp $T0 4 + =  $20 $T0 8 - ^ =  $23 $T0 12 - ^ =  $24 $T0 16 - ^ = 
STACK WIN 4 14ae0 5a 0 0 0 10 4 0 1 $T0 .raSearch = $eip $T0 ^ = $esp $T0 4 + =  $20 $T0 8 - ^ =  $23 $T0 12 - ^ =  $24 $T0 16 - ^ =  $22 $T0 20 - ^ = 
STACK WIN 4 14ff0 8a 3 0 4 0 0 0 1 $T0 .raSearch = $eip $T0 ^ = $esp $T0 4 + = 
STACK WIN 4 14ff1 86 2 0 4 4 0 0 1 $T0 .raSearch = $eip $T0 ^ = $esp $T0 4 + =  $23 $T0 4 - ^ = 
STACK WIN 4 15080 2b 7 0 4 0 0 0 1 $T0 .raSearch = $eip $T0 ^ = $esp $T0 4 + = 
STACK WIN 4 15085 23 2 0 4 4 0 0 1 $T0 .raSearch = $eip $T0 ^ = $esp $T0 4 + =  $23 $T0 4 - ^ = 
STACK WIN 4 150b0 1426 1e 0 8 0 0 0 1 $T0 .raSearch = $eip $T0 ^ = $esp $T0 4 + = 
STACK WIN 4 150c9 13fd 5 0 8 4 20ec 0 1 $T0 .raSearch = $eip $T0 ^ = $esp $T0 4 + =  $20 $T0 8432 - ^ = 
STACK WIN 4 150ca 13fb 4 0 8 8 20ec 0 1 $T0 .raSearch = $eip $T0 ^ = $esp $T0 4 + =  $20 $T0 8432 - ^ =  $22 $T0 8436 - ^ = 
STACK WIN 4 150cb 13f9 3 0 8 c 20ec 0 1 $T0 .raSearch = $eip $T0 ^ = $esp $T0 4 + =  $20 $T0 8432 - ^ =  $22 $T0 8436 - ^ =  $23 $T0 8440 - ^ = 
STACK WIN 4 150cc 13f7 2 0 8 10 20ec 0 1 $T0 .raSearch = $eip $T0 ^ = $esp $T0 4 + =  $20 $T0 8432 - ^ =  $22 $T0 8436 - ^ =  $23 $T0 8440 - ^ =  $24 $T0 8444 - ^ = 
STACK WIN 4 164e0 bf 3 0 4 0 0 0 1 $T0 .raSearch = $eip $T0 ^ = $esp $T0 4 + = 
STACK WIN 4 164e1 bb 2 0 4 4 0 0 1 $T0 .raSearch = $eip $T0 ^ = $esp $T0 4 + =  $20 $T0 4 - ^ = 
STACK WIN 4 164e2 b9 1 0 4 8 0 0 1 $T0 .raSearch = $eip $T0 ^ = $esp $T0 4 + =  $20 $T0 4 - ^ =  $23 $T0 8 - ^ = 
STACK WIN 4 164e3 b7 0 0 4 c 0 0 1 $T0 .raSearch = $eip $T0 ^ = $esp $T0 4 + =  $20 $T0 4 - ^ =  $23 $T0 8 - ^ =  $24 $T0 12 - ^ = 
STACK WIN 4 16542 52 0 0 4 10 0 0 1 $T0 .raSearch = $eip $T0 ^ = $esp $T0 4 + =  $20 $T0 4 - ^ =  $23 $T0 8 - ^ =  $24 $T0 12 - ^ =  $22 $T0 16 - ^ = 
STACK WIN 4 165a0 d6 9 0 4 0 0 0 1 $T0 .raSearch = $eip $T0 ^ = $esp $T0 4 + = 
STACK WIN 4 165a1 d2 8 0 4 4 0 0 1 $T0 .raSearch = $eip $T0 ^ = $esp $T0 4 + =  $20 $T0 4 - ^ = 
STACK WIN 4 165a2 d0 7 0 4 8 0 0 1 $T0 .raSearch = $eip $T0 ^ = $esp $T0 4 + =  $20 $T0 4 - ^ =  $23 $T0 8 - ^ = 
STACK WIN 4 165a3 ce 6 0 4 c 0 0 1 $T0 .raSearch = $eip $T0 ^ = $esp $T0 4 + =  $20 $T0 4 - ^ =  $23 $T0 8 - ^ =  $24 $T0 12 - ^ = 
STACK WIN 4 16616 55 0 0 4 10 0 0 1 $T0 .raSearch = $eip $T0 ^ = $esp $T0 4 + =  $20 $T0 4 - ^ =  $23 $T0 8 - ^ =  $24 $T0 12 - ^ =  $22 $T0 16 - ^ = 
STACK WIN 4 16680 43 4 0 0 0 0 0 1 $T0 .raSearch = $eip $T0 ^ = $esp $T0 4 + = 
STACK WIN 4 16681 41 3 0 0 4 0 0 1 $T0 .raSearch = $eip $T0 ^ = $esp $T0 4 + =  $23 $T0 4 - ^ = 
STACK WIN 4 16682 3d 2 0 0 8 0 0 1 $T0 .raSearch = $eip $T0 ^ = $esp $T0 4 + =  $23 $T0 4 - ^ =  $24 $T0 8 - ^ = 
STACK WIN 4 166d0 34 8 0 8 0 0 0 1 $T0 .raSearch = $eip $T0 ^ = $esp $T0 4 + = 
STACK WIN 4 166d1 30 7 0 8 4 0 0 1 $T0 .raSearch = $eip $T0 ^ = $esp $T0 4 + =  $23 $T0 4 - ^ = 
STACK WIN 4 166d6 2a 2 0 8 8 0 0 1 $T0 .raSearch = $eip $T0 ^ = $esp $T0 4 + =  $23 $T0 4 - ^ =  $24 $T0 8 - ^ = 
STACK WIN 4 16710 41 3 0 0 0 0 0 1 $T0 .raSearch = $eip $T0 ^ = $esp $T0 4 + = 
STACK WIN 4 16711 3f 2 0 0 4 0 0 1 $T0 .raSearch = $eip $T0 ^ = $esp $T0 4 + =  $20 $T0 4 - ^ = 
STACK WIN 4 16714 39 0 0 0 8 0 0 1 $T0 .raSearch = $eip $T0 ^ = $esp $T0 4 + =  $20 $T0 4 - ^ =  $23 $T0 8 - ^ = 
STACK WIN 4 16715 37 0 0 0 c 0 0 1 $T0 .raSearch = $eip $T0 ^ = $esp $T0 4 + =  $20 $T0 4 - ^ =  $23 $T0 8 - ^ =  $24 $T0 12 - ^ = 
STACK WIN 4 16760 34 8 0 8 0 0 0 1 $T0 .raSearch = $eip $T0 ^ = $esp $T0 4 + = 
STACK WIN 4 16761 30 7 0 8 4 0 0 1 $T0 .raSearch = $eip $T0 ^ = $esp $T0 4 + =  $23 $T0 4 - ^ = 
STACK WIN 4 16766 2a 2 0 8 8 0 0 1 $T0 .raSearch = $eip $T0 ^ = $esp $T0 4 + =  $23 $T0 4 - ^ =  $24 $T0 8 - ^ = 
STACK WIN 4 167a0 10b e 0 0 0 0 0 1 $T0 .raSearch = $eip $T0 ^ = $esp $T0 4 + = 
STACK WIN 4 167a4 103 a 0 0 4 8 0 1 $T0 .raSearch = $eip $T0 ^ = $esp $T0 4 + =  $20 $T0 12 - ^ = 
STACK WIN 4 167a5 ff 9 0 0 8 8 0 1 $T0 .raSearch = $eip $T0 ^ = $esp $T0 4 + =  $20 $T0 12 - ^ =  $22 $T0 16 - ^ = 
STACK WIN 4 167af f4 0 0 0 c 8 0 1 $T0 .raSearch = $eip $T0 ^ = $esp $T0 4 + =  $20 $T0 12 - ^ =  $22 $T0 16 - ^ =  $23 $T0 20 - ^ = 
STACK WIN 4 167b4 ee 0 0 0 10 8 0 1 $T0 .raSearch = $eip $T0 ^ = $esp $T0 4 + =  $20 $T0 12 - ^ =  $22 $T0 16 - ^ =  $23 $T0 20 - ^ =  $24 $T0 24 - ^ = 
STACK WIN 4 168b0 119 3 0 0 0 0 0 1 $T0 .raSearch = $eip $T0 ^ = $esp $T0 4 + = 
STACK WIN 4 168b4 111 0 0 0 4 8 0 1 $T0 .raSearch = $eip $T0 ^ = $esp $T0 4 + =  $20 $T0 12 - ^ = 
STACK WIN 4 168b5 10d 0 0 0 8 8 0 1 $T0 .raSearch = $eip $T0 ^ = $esp $T0 4 + =  $20 $T0 12 - ^ =  $22 $T0 16 - ^ = 
STACK WIN 4 168c1 100 0 0 0 c 8 0 1 $T0 .raSearch = $eip $T0 ^ = $esp $T0 4 + =  $20 $T0 12 - ^ =  $22 $T0 16 - ^ =  $23 $T0 20 - ^ = 
STACK WIN 4 168ca f6 0 0 0 10 8 0 1 $T0 .raSearch = $eip $T0 ^ = $esp $T0 4 + =  $20 $T0 12 - ^ =  $22 $T0 16 - ^ =  $23 $T0 20 - ^ =  $24 $T0 24 - ^ = 
STACK WIN 4 169d0 cb 9 0 8 0 0 0 1 $T0 .raSearch = $eip $T0 ^ = $esp $T0 4 + = 
STACK WIN 4 169d1 c7 8 0 8 4 0 0 1 $T0 .raSearch = $eip $T0 ^ = $esp $T0 4 + =  $22 $T0 4 - ^ = 
STACK WIN 4 169d2 c3 7 0 8 8 0 0 1 $T0 .raSearch = $eip $T0 ^ = $esp $T0 4 + =  $22 $T0 4 - ^ =  $23 $T0 8 - ^ = 
STACK WIN 4 169d3 c1 6 0 8 c 0 0 1 $T0 .raSearch = $eip $T0 ^ = $esp $T0 4 + =  $22 $T0 4 - ^ =  $23 $T0 8 - ^ =  $24 $T0 12 - ^ = 
STACK WIN 4 169e1 26 0 0 8 10 0 0 1 $T0 .raSearch = $eip $T0 ^ = $esp $T0 4 + =  $22 $T0 4 - ^ =  $23 $T0 8 - ^ =  $24 $T0 12 - ^ =  $20 $T0 16 - ^ = 
STACK WIN 4 16aa0 1c4 f 0 10 10 4 0 1 $T0 .raSearch = $eip $T0 ^ = $esp $T0 4 + =  $20 $T0 8 - ^ =  $22 $T0 12 - ^ =  $23 $T0 16 - ^ =  $24 $T0 20 - ^ = 
STACK WIN 4 16c70 b2 28 0 10 10 4 0 1 $T0 .raSearch = $eip $T0 ^ = $esp $T0 4 + =  $20 $T0 8 - ^ =  $22 $T0 12 - ^ =  $23 $T0 16 - ^ =  $24 $T0 20 - ^ = 
STACK WIN 4 16d30 17b 4a 0 10 10 2014 0 1 $T0 .raSearch = $eip $T0 ^ = $esp $T0 4 + =  $20 $T0 8216 - ^ =  $22 $T0 8220 - ^ =  $23 $T0 8224 - ^ =  $24 $T0 8228 - ^ = 
STACK WIN 4 16eb0 168 52 0 10 10 201c 0 1 $T0 .raSearch = $eip $T0 ^ = $esp $T0 4 + =  $20 $T0 8224 - ^ =  $22 $T0 8228 - ^ =  $23 $T0 8232 - ^ =  $24 $T0 8236 - ^ = 
STACK WIN 4 17020 23a 2a 0 8 10 2034 0 1 $T0 .raSearch = $eip $T0 ^ = $esp $T0 4 + =  $20 $T0 8248 - ^ =  $22 $T0 8252 - ^ =  $23 $T0 8256 - ^ =  $24 $T0 8260 - ^ = 
STACK WIN 4 17260 15b 7 0 14 0 0 0 1 $T0 .raSearch = $eip $T0 ^ = $esp $T0 4 + = 
STACK WIN 4 17264 151 3 0 14 4 8 0 1 $T0 .raSearch = $eip $T0 ^ = $esp $T0 4 + =  $20 $T0 12 - ^ = 
STACK WIN 4 17265 14a 2 0 14 8 8 0 1 $T0 .raSearch = $eip $T0 ^ = $esp $T0 4 + =  $20 $T0 12 - ^ =  $22 $T0 16 - ^ = 
STACK WIN 4 17270 13e 0 0 14 c 8 0 1 $T0 .raSearch = $eip $T0 ^ = $esp $T0 4 + =  $20 $T0 12 - ^ =  $22 $T0 16 - ^ =  $23 $T0 20 - ^ = 
STACK WIN 4 17271 13c 0 0 14 10 8 0 1 $T0 .raSearch = $eip $T0 ^ = $esp $T0 4 + =  $20 $T0 12 - ^ =  $22 $T0 16 - ^ =  $23 $T0 20 - ^ =  $24 $T0 24 - ^ = 
STACK WIN 4 173c0 13a 5 0 8 0 0 0 1 $T0 .raSearch = $eip $T0 ^ = $esp $T0 4 + = 
STACK WIN 4 173c1 136 4 0 8 4 0 0 1 $T0 .raSearch = $eip $T0 ^ = $esp $T0 4 + =  $20 $T0 4 - ^ = 
STACK WIN 4 173c2 132 3 0 8 8 0 0 1 $T0 .raSearch = $eip $T0 ^ = $esp $T0 4 + =  $20 $T0 4 - ^ =  $23 $T0 8 - ^ = 
STACK WIN 4 173c3 130 2 0 8 c 0 0 1 $T0 .raSearch = $eip $T0 ^ = $esp $T0 4 + =  $20 $T0 4 - ^ =  $23 $T0 8 - ^ =  $24 $T0 12 - ^ = 
STACK WIN 4 17500 5b1 34 0 14 0 0 0 1 $T0 .raSearch = $eip $T0 ^ = $esp $T0 4 + = 
STACK WIN 4 17525 57c f 0 14 4 37c 0 1 $T0 .raSearch = $eip $T0 ^ = $esp $T0 4 + =  $20 $T0 896 - ^ = 
STACK WIN 4 17526 57a e 0 14 8 37c 0 1 $T0 .raSearch = $eip $T0 ^ = $esp $T0 4 + =  $20 $T0 896 - ^ =  $22 $T0 900 - ^ = 
STACK WIN 4 17527 578 d 0 14 c 37c 0 1 $T0 .raSearch = $eip $T0 ^ = $esp $T0 4 + =  $20 $T0 896 - ^ =  $22 $T0 900 - ^ =  $23 $T0 904 - ^ = 
STACK WIN 4 175ab 4ec 0 0 14 10 37c 0 1 $T0 .raSearch = $eip $T0 ^ = $esp $T0 4 + =  $20 $T0 896 - ^ =  $22 $T0 900 - ^ =  $23 $T0 904 - ^ =  $24 $T0 908 - ^ = 
STACK WIN 4 17ac0 109 1e 0 8 0 0 0 1 $T0 .raSearch = $eip $T0 ^ = $esp $T0 4 + = 
STACK WIN 4 17adc dd 2 0 8 4 208 0 1 $T0 .raSearch = $eip $T0 ^ = $esp $T0 4 + =  $20 $T0 524 - ^ = 
STACK WIN 4 17b06 b2 0 0 8 8 208 0 1 $T0 .raSearch = $eip $T0 ^ = $esp $T0 4 + =  $20 $T0 524 - ^ =  $22 $T0 528 - ^ = 
STACK WIN 4 17b07 b0 0 0 8 c 208 0 1 $T0 .raSearch = $eip $T0 ^ = $esp $T0 4 + =  $20 $T0 524 - ^ =  $22 $T0 528 - ^ =  $23 $T0 532 - ^ = 
STACK WIN 4 17b08 ae 0 0 8 10 208 0 1 $T0 .raSearch = $eip $T0 ^ = $esp $T0 4 + =  $20 $T0 524 - ^ =  $22 $T0 528 - ^ =  $23 $T0 532 - ^ =  $24 $T0 536 - ^ = 
STACK WIN 4 17bd0 b6 0 0 10 0 0 0 1 $T0 .raSearch = $eip $T0 ^ = $esp $T0 4 + = 
STACK WIN 4 17be2 85 0 0 10 4 0 0 1 $T0 .raSearch = $eip $T0 ^ = $esp $T0 4 + =  $20 $T0 4 - ^ = 
STACK WIN 4 17be9 7d 0 0 10 8 0 0 1 $T0 .raSearch = $eip $T0 ^ = $esp $T0 4 + =  $20 $T0 4 - ^ =  $23 $T0 8 - ^ = 
STACK WIN 4 17bea 7b 0 0 10 c 0 0 1 $T0 .raSearch = $eip $T0 ^ = $esp $T0 4 + =  $20 $T0 4 - ^ =  $23 $T0 8 - ^ =  $24 $T0 12 - ^ = 
STACK WIN 4 17c90 23a6 1e 0 28 10 354 0 1 $T0 .raSearch = $eip $T0 ^ = $esp $T0 4 + =  $20 $T0 856 - ^ =  $22 $T0 860 - ^ =  $23 $T0 864 - ^ =  $24 $T0 868 - ^ = 
STACK WIN 4 1a040 1dce 5e 0 28 10 22f4 0 1 $T0 .raSearch = $eip $T0 ^ = $esp $T0 4 + =  $20 $T0 8952 - ^ =  $22 $T0 8956 - ^ =  $23 $T0 8960 - ^ =  $24 $T0 8964 - ^ = 
STACK WIN 4 1be10 408 9 0 28 10 4 0 1 $T0 .raSearch = $eip $T0 ^ = $esp $T0 4 + =  $20 $T0 8 - ^ =  $22 $T0 12 - ^ =  $23 $T0 16 - ^ =  $24 $T0 20 - ^ = 
STACK WIN 4 1c220 1f0 d 0 14 10 8 0 1 $T0 .raSearch = $eip $T0 ^ = $esp $T0 4 + =  $20 $T0 12 - ^ =  $22 $T0 16 - ^ =  $23 $T0 20 - ^ =  $24 $T0 24 - ^ = 
STACK WIN 4 1c410 46f 50 0 14 10 6028 0 1 $T0 .raSearch = $eip $T0 ^ = $esp $T0 4 + =  $20 $T0 24620 - ^ =  $22 $T0 24624 - ^ =  $23 $T0 24628 - ^ =  $24 $T0 24632 - ^ = 
STACK WIN 4 1c880 c09 4c 0 1c 10 2028 0 1 $T0 .raSearch = $eip $T0 ^ = $esp $T0 4 + =  $20 $T0 8236 - ^ =  $22 $T0 8240 - ^ =  $23 $T0 8244 - ^ =  $24 $T0 8248 - ^ = 
STACK WIN 4 1d490 7b 13 0 10 10 4 0 1 $T0 .raSearch = $eip $T0 ^ = $esp $T0 4 + =  $20 $T0 8 - ^ =  $22 $T0 12 - ^ =  $23 $T0 16 - ^ =  $24 $T0 20 - ^ = 
STACK WIN 4 1d510 169 3b 0 10 10 2014 0 1 $T0 .raSearch = $eip $T0 ^ = $esp $T0 4 + =  $20 $T0 8216 - ^ =  $22 $T0 8220 - ^ =  $23 $T0 8224 - ^ =  $24 $T0 8228 - ^ = 
STACK WIN 4 1d680 308 3d 0 1c 10 2030 0 1 $T0 .raSearch = $eip $T0 ^ = $esp $T0 4 + =  $20 $T0 8244 - ^ =  $22 $T0 8248 - ^ =  $23 $T0 8252 - ^ =  $24 $T0 8256 - ^ = 
STACK WIN 4 1d990 76f 50 0 24 0 0 0 1 $T0 .raSearch = $eip $T0 ^ = $esp $T0 4 + = 
STACK WIN 4 1d9ac 72e 34 0 24 4 13c 0 1 $T0 .raSearch = $eip $T0 ^ = $esp $T0 4 + =  $20 $T0 320 - ^ = 
STACK WIN 4 1d9b4 725 2c 0 24 8 13c 0 1 $T0 .raSearch = $eip $T0 ^ = $esp $T0 4 + =  $20 $T0 320 - ^ =  $22 $T0 324 - ^ = 
STACK WIN 4 1d9b5 723 2b 0 24 c 13c 0 1 $T0 .raSearch = $eip $T0 ^ = $esp $T0 4 + =  $20 $T0 320 - ^ =  $22 $T0 324 - ^ =  $23 $T0 328 - ^ = 
STACK WIN 4 1d9f5 6e2 0 0 24 10 13c 0 1 $T0 .raSearch = $eip $T0 ^ = $esp $T0 4 + =  $20 $T0 320 - ^ =  $22 $T0 324 - ^ =  $23 $T0 328 - ^ =  $24 $T0 332 - ^ = 
STACK WIN 4 1e100 97 4 0 0 0 0 0 1 $T0 .raSearch = $eip $T0 ^ = $esp $T0 4 + = 
STACK WIN 4 1e101 95 3 0 0 4 0 0 1 $T0 .raSearch = $eip $T0 ^ = $esp $T0 4 + =  $23 $T0 4 - ^ = 
STACK WIN 4 1e102 91 2 0 0 8 0 0 1 $T0 .raSearch = $eip $T0 ^ = $esp $T0 4 + =  $23 $T0 4 - ^ =  $24 $T0 8 - ^ = 
STACK WIN 4 1e15f 30 0 0 0 c 0 0 1 $T0 .raSearch = $eip $T0 ^ = $esp $T0 4 + =  $23 $T0 4 - ^ =  $24 $T0 8 - ^ =  $20 $T0 12 - ^ = 
STACK WIN 4 1e1a0 92 4 0 0 0 0 0 1 $T0 .raSearch = $eip $T0 ^ = $esp $T0 4 + = 
STACK WIN 4 1e1a1 90 3 0 0 4 0 0 1 $T0 .raSearch = $eip $T0 ^ = $esp $T0 4 + =  $23 $T0 4 - ^ = 
STACK WIN 4 1e1a2 8c 2 0 0 8 0 0 1 $T0 .raSearch = $eip $T0 ^ = $esp $T0 4 + =  $23 $T0 4 - ^ =  $24 $T0 8 - ^ = 
STACK WIN 4 1e1fa 30 0 0 0 c 0 0 1 $T0 .raSearch = $eip $T0 ^ = $esp $T0 4 + =  $23 $T0 4 - ^ =  $24 $T0 8 - ^ =  $20 $T0 12 - ^ = 
STACK WIN 4 1e240 3f 5 0 4 c 0 0 1 $T0 .raSearch = $eip $T0 ^ = $esp $T0 4 + =  $20 $T0 4 - ^ =  $23 $T0 8 - ^ =  $24 $T0 12 - ^ = 
STACK WIN 4 1e280 212 2b 0 8 0 0 0 1 $T0 .raSearch = $eip $T0 ^ = $esp $T0 4 + = 
STACK WIN 4 1e295 1ed 16 0 8 4 d8 0 1 $T0 .raSearch = $eip $T0 ^ = $esp $T0 4 + =  $20 $T0 220 - ^ = 
STACK WIN 4 1e29f 1e2 c 0 8 8 d8 0 1 $T0 .raSearch = $eip $T0 ^ = $esp $T0 4 + =  $20 $T0 220 - ^ =  $22 $T0 224 - ^ = 
STACK WIN 4 1e2a0 1e0 b 0 8 c d8 0 1 $T0 .raSearch = $eip $T0 ^ = $esp $T0 4 + =  $20 $T0 220 - ^ =  $22 $T0 224 - ^ =  $23 $T0 228 - ^ = 
STACK WIN 4 1e2a1 1de a 0 8 10 d8 0 1 $T0 .raSearch = $eip $T0 ^ = $esp $T0 4 + =  $20 $T0 220 - ^ =  $22 $T0 224 - ^ =  $23 $T0 228 - ^ =  $24 $T0 232 - ^ = 
STACK WIN 4 1e4a0 355 7 0 10 0 0 0 1 $T0 .raSearch = $eip $T0 ^ = $esp $T0 4 + = 
STACK WIN 4 1e4c6 329 0 0 10 4 c 0 1 $T0 .raSearch = $eip $T0 ^ = $esp $T0 4 + =  $20 $T0 16 - ^ = 
STACK WIN 4 1e4c7 325 0 0 10 8 c 0 1 $T0 .raSearch = $eip $T0 ^ = $esp $T0 4 + =  $20 $T0 16 - ^ =  $22 $T0 20 - ^ = 
STACK WIN 4 1e4d2 319 0 0 10 c c 0 1 $T0 .raSearch = $eip $T0 ^ = $esp $T0 4 + =  $20 $T0 16 - ^ =  $22 $T0 20 - ^ =  $23 $T0 24 - ^ = 
STACK WIN 4 1e4d3 317 0 0 10 10 c 0 1 $T0 .raSearch = $eip $T0 ^ = $esp $T0 4 + =  $20 $T0 16 - ^ =  $22 $T0 20 - ^ =  $23 $T0 24 - ^ =  $24 $T0 28 - ^ = 
STACK WIN 4 1e800 427 6 0 8 0 0 0 1 $T0 .raSearch = $eip $T0 ^ = $esp $T0 4 + = 
STACK WIN 4 1e823 400 0 0 8 4 4 0 1 $T0 .raSearch = $eip $T0 ^ = $esp $T0 4 + =  $20 $T0 8 - ^ = 
STACK WIN 4 1e828 3f5 0 0 8 8 4 0 1 $T0 .raSearch = $eip $T0 ^ = $esp $T0 4 + =  $20 $T0 8 - ^ =  $22 $T0 12 - ^ = 
STACK WIN 4 1e829 3f3 0 0 8 c 4 0 1 $T0 .raSearch = $eip $T0 ^ = $esp $T0 4 + =  $20 $T0 8 - ^ =  $22 $T0 12 - ^ =  $23 $T0 16 - ^ = 
STACK WIN 4 1e82a 3f1 0 0 8 10 4 0 1 $T0 .raSearch = $eip $T0 ^ = $esp $T0 4 + =  $20 $T0 8 - ^ =  $22 $T0 12 - ^ =  $23 $T0 16 - ^ =  $24 $T0 20 - ^ = 
STACK WIN 4 1ec30 3cc a 0 8 0 0 0 1 $T0 .raSearch = $eip $T0 ^ = $esp $T0 4 + = 
STACK WIN 4 1ec34 3af 6 0 8 4 8 0 1 $T0 .raSearch = $eip $T0 ^ = $esp $T0 4 + =  $20 $T0 12 - ^ = 
STACK WIN 4 1ec5e 37f 0 0 8 8 8 0 1 $T0 .raSearch = $eip $T0 ^ = $esp $T0 4 + =  $20 $T0 12 - ^ =  $22 $T0 16 - ^ = 
STACK WIN 4 1ec5f 37d 0 0 8 c 8 0 1 $T0 .raSearch = $eip $T0 ^ = $esp $T0 4 + =  $20 $T0 12 - ^ =  $22 $T0 16 - ^ =  $23 $T0 20 - ^ = 
STACK WIN 4 1ec60 37b 0 0 8 10 8 0 1 $T0 .raSearch = $eip $T0 ^ = $esp $T0 4 + =  $20 $T0 12 - ^ =  $22 $T0 16 - ^ =  $23 $T0 20 - ^ =  $24 $T0 24 - ^ = 
STACK WIN 4 1f000 448 a 0 8 0 0 0 1 $T0 .raSearch = $eip $T0 ^ = $esp $T0 4 + = 
STACK WIN 4 1f004 43e 6 0 8 4 20 0 1 $T0 .raSearch = $eip $T0 ^ = $esp $T0 4 + =  $20 $T0 36 - ^ = 
STACK WIN 4 1f02e 40e 0 0 8 8 20 0 1 $T0 .raSearch = $eip $T0 ^ = $esp $T0 4 + =  $20 $T0 36 - ^ =  $22 $T0 40 - ^ = 
STACK WIN 4 1f02f 40c 0 0 8 c 20 0 1 $T0 .raSearch = $eip $T0 ^ = $esp $T0 4 + =  $20 $T0 36 - ^ =  $22 $T0 40 - ^ =  $23 $T0 44 - ^ = 
STACK WIN 4 1f030 40a 0 0 8 10 20 0 1 $T0 .raSearch = $eip $T0 ^ = $esp $T0 4 + =  $20 $T0 36 - ^ =  $22 $T0 40 - ^ =  $23 $T0 44 - ^ =  $24 $T0 48 - ^ = 
STACK WIN 4 1f450 42e a 0 8 0 0 0 1 $T0 .raSearch = $eip $T0 ^ = $esp $T0 4 + = 
STACK WIN 4 1f454 424 6 0 8 4 14 0 1 $T0 .raSearch = $eip $T0 ^ = $esp $T0 4 + =  $22 $T0 24 - ^ = 
STACK WIN 4 1f47e 3f4 0 0 8 8 14 0 1 $T0 .raSearch = $eip $T0 ^ = $esp $T0 4 + =  $22 $T0 24 - ^ =  $20 $T0 28 - ^ = 
STACK WIN 4 1f47f 3f2 0 0 8 c 14 0 1 $T0 .raSearch = $eip $T0 ^ = $esp $T0 4 + =  $22 $T0 24 - ^ =  $20 $T0 28 - ^ =  $23 $T0 32 - ^ = 
STACK WIN 4 1f480 3f0 0 0 8 10 14 0 1 $T0 .raSearch = $eip $T0 ^ = $esp $T0 4 + =  $22 $T0 24 - ^ =  $20 $T0 28 - ^ =  $23 $T0 32 - ^ =  $24 $T0 36 - ^ = 
STACK WIN 4 1f880 2d0 6 0 8 0 0 0 1 $T0 .raSearch = $eip $T0 ^ = $esp $T0 4 + = 
STACK WIN 4 1f8a3 2a9 0 0 8 4 4 0 1 $T0 .raSearch = $eip $T0 ^ = $esp $T0 4 + =  $20 $T0 8 - ^ = 
STACK WIN 4 1f8a8 29e 0 0 8 8 4 0 1 $T0 .raSearch = $eip $T0 ^ = $esp $T0 4 + =  $20 $T0 8 - ^ =  $22 $T0 12 - ^ = 
STACK WIN 4 1f8a9 29c 0 0 8 c 4 0 1 $T0 .raSearch = $eip $T0 ^ = $esp $T0 4 + =  $20 $T0 8 - ^ =  $22 $T0 12 - ^ =  $23 $T0 16 - ^ = 
STACK WIN 4 1f8aa 29a 0 0 8 10 4 0 1 $T0 .raSearch = $eip $T0 ^ = $esp $T0 4 + =  $20 $T0 8 - ^ =  $22 $T0 12 - ^ =  $23 $T0 16 - ^ =  $24 $T0 20 - ^ = 
STACK WIN 4 1fb50 74 a 0 4 0 0 0 1 $T0 .raSearch = $eip $T0 ^ = $esp $T0 4 + = 
STACK WIN 4 1fb51 70 9 0 4 4 0 0 1 $T0 .raSearch = $eip $T0 ^ = $esp $T0 4 + =  $23 $T0 4 - ^ = 
STACK WIN 4 1fb5a 66 0 0 4 8 0 0 1 $T0 .raSearch = $eip $T0 ^ = $esp $T0 4 + =  $23 $T0 4 - ^ =  $24 $T0 8 - ^ = 
STACK WIN 4 1fb73 4c 0 0 4 c 0 0 1 $T0 .raSearch = $eip $T0 ^ = $esp $T0 4 + =  $23 $T0 4 - ^ =  $24 $T0 8 - ^ =  $20 $T0 12 - ^ = 
STACK WIN 4 1fbd0 940 25 0 10 0 0 0 1 $T0 .raSearch = $eip $T0 ^ = $esp $T0 4 + = 
STACK WIN 4 1fbda 907 1b 0 10 4 2c 0 1 $T0 .raSearch = $eip $T0 ^ = $esp $T0 4 + =  $20 $T0 48 - ^ = 
STACK WIN 4 1fbdb 905 1a 0 10 8 2c 0 1 $T0 .raSearch = $eip $T0 ^ = $esp $T0 4 + =  $20 $T0 48 - ^ =  $22 $T0 52 - ^ = 
STACK WIN 4 1fbdc 903 19 0 10 c 2c 0 1 $T0 .raSearch = $eip $T0 ^ = $esp $T0 4 + =  $20 $T0 48 - ^ =  $22 $T0 52 - ^ =  $23 $T0 56 - ^ = 
STACK WIN 4 1fbef 8ed 6 0 10 10 2c 0 1 $T0 .raSearch = $eip $T0 ^ = $esp $T0 4 + =  $20 $T0 48 - ^ =  $22 $T0 52 - ^ =  $23 $T0 56 - ^ =  $24 $T0 60 - ^ = 
STACK WIN 4 20510 213 a 0 14 0 0 0 1 $T0 .raSearch = $eip $T0 ^ = $esp $T0 4 + = 
STACK WIN 4 20512 1fe 8 0 14 4 4 0 1 $T0 .raSearch = $eip $T0 ^ = $esp $T0 4 + =  $20 $T0 8 - ^ = 
STACK WIN 4 20513 1fa 7 0 14 8 4 0 1 $T0 .raSearch = $eip $T0 ^ = $esp $T0 4 + =  $20 $T0 8 - ^ =  $22 $T0 12 - ^ = 
STACK WIN 4 20514 1f8 6 0 14 c 4 0 1 $T0 .raSearch = $eip $T0 ^ = $esp $T0 4 + =  $20 $T0 8 - ^ =  $22 $T0 12 - ^ =  $23 $T0 16 - ^ = 
STACK WIN 4 2051d 1ee 0 0 14 10 4 0 1 $T0 .raSearch = $eip $T0 ^ = $esp $T0 4 + =  $20 $T0 8 - ^ =  $22 $T0 12 - ^ =  $23 $T0 16 - ^ =  $24 $T0 20 - ^ = 
STACK WIN 4 20730 a9 d 0 4 0 0 0 1 $T0 .raSearch = $eip $T0 ^ = $esp $T0 4 + = 
STACK WIN 4 20731 a5 c 0 4 4 0 0 1 $T0 .raSearch = $eip $T0 ^ = $esp $T0 4 + =  $20 $T0 4 - ^ = 
STACK WIN 4 2073b 9a 2 0 4 8 0 0 1 $T0 .raSearch = $eip $T0 ^ = $esp $T0 4 + =  $20 $T0 4 - ^ =  $22 $T0 8 - ^ = 
STACK WIN 4 2073e 96 0 0 4 c 0 0 1 $T0 .raSearch = $eip $T0 ^ = $esp $T0 4 + =  $20 $T0 4 - ^ =  $22 $T0 8 - ^ =  $23 $T0 12 - ^ = 
STACK WIN 4 20772 4c 0 0 4 10 0 0 1 $T0 .raSearch = $eip $T0 ^ = $esp $T0 4 + =  $20 $T0 4 - ^ =  $22 $T0 8 - ^ =  $23 $T0 12 - ^ =  $24 $T0 16 - ^ = 
STACK WIN 4 207e0 86 3 0 0 0 0 0 1 $T0 .raSearch = $eip $T0 ^ = $esp $T0 4 + = 
STACK WIN 4 207e1 6a 2 0 0 4 0 0 1 $T0 .raSearch = $eip $T0 ^ = $esp $T0 4 + =  $23 $T0 4 - ^ = 
STACK WIN 4 20870 8f 3 0 4 0 0 0 1 $T0 .raSearch = $eip $T0 ^ = $esp $T0 4 + = 
STACK WIN 4 20871 80 2 0 4 4 0 0 1 $T0 .raSearch = $eip $T0 ^ = $esp $T0 4 + =  $20 $T0 4 - ^ = 
STACK WIN 4 20879 77 0 0 4 8 0 0 1 $T0 .raSearch = $eip $T0 ^ = $esp $T0 4 + =  $20 $T0 4 - ^ =  $22 $T0 8 - ^ = 
STACK WIN 4 2087a 75 0 0 4 c 0 0 1 $T0 .raSearch = $eip $T0 ^ = $esp $T0 4 + =  $20 $T0 4 - ^ =  $22 $T0 8 - ^ =  $23 $T0 12 - ^ = 
STACK WIN 4 2087b 73 0 0 4 10 0 0 1 $T0 .raSearch = $eip $T0 ^ = $esp $T0 4 + =  $20 $T0 4 - ^ =  $22 $T0 8 - ^ =  $23 $T0 12 - ^ =  $24 $T0 16 - ^ = 
STACK WIN 4 20900 57 5 0 4 0 0 0 1 $T0 .raSearch = $eip $T0 ^ = $esp $T0 4 + = 
STACK WIN 4 20901 48 4 0 4 4 0 0 1 $T0 .raSearch = $eip $T0 ^ = $esp $T0 4 + =  $20 $T0 4 - ^ = 
STACK WIN 4 20902 46 3 0 4 8 0 0 1 $T0 .raSearch = $eip $T0 ^ = $esp $T0 4 + =  $20 $T0 4 - ^ =  $23 $T0 8 - ^ = 
STACK WIN 4 20903 44 2 0 4 c 0 0 1 $T0 .raSearch = $eip $T0 ^ = $esp $T0 4 + =  $20 $T0 4 - ^ =  $23 $T0 8 - ^ =  $24 $T0 12 - ^ = 
STACK WIN 4 20960 11e 9 0 4 0 0 0 1 $T0 .raSearch = $eip $T0 ^ = $esp $T0 4 + = 
STACK WIN 4 20961 f6 8 0 4 4 0 0 1 $T0 .raSearch = $eip $T0 ^ = $esp $T0 4 + =  $22 $T0 4 - ^ = 
STACK WIN 4 20962 f1 7 0 4 8 0 0 1 $T0 .raSearch = $eip $T0 ^ = $esp $T0 4 + =  $22 $T0 4 - ^ =  $23 $T0 8 - ^ = 
STACK WIN 4 20963 ed 6 0 4 c 0 0 1 $T0 .raSearch = $eip $T0 ^ = $esp $T0 4 + =  $22 $T0 4 - ^ =  $23 $T0 8 - ^ =  $24 $T0 12 - ^ = 
STACK WIN 4 209bb 91 0 0 4 10 0 0 1 $T0 .raSearch = $eip $T0 ^ = $esp $T0 4 + =  $22 $T0 4 - ^ =  $23 $T0 8 - ^ =  $24 $T0 12 - ^ =  $20 $T0 16 - ^ = 
STACK WIN 4 20a5a 24 0 0 4 c 0 0 1 $T0 .raSearch = $eip $T0 ^ = $esp $T0 4 + =  $22 $T0 4 - ^ =  $23 $T0 8 - ^ =  $24 $T0 12 - ^ =  $20 $T0 16 - ^ = 
STACK WIN 4 20a80 bf 9 0 4 0 0 0 1 $T0 .raSearch = $eip $T0 ^ = $esp $T0 4 + = 
STACK WIN 4 20a81 a1 8 0 4 4 0 0 1 $T0 .raSearch = $eip $T0 ^ = $esp $T0 4 + =  $20 $T0 4 - ^ = 
STACK WIN 4 20a82 9c 7 0 4 8 0 0 1 $T0 .raSearch = $eip $T0 ^ = $esp $T0 4 + =  $20 $T0 4 - ^ =  $23 $T0 8 - ^ = 
STACK WIN 4 20a83 9a 6 0 4 c 0 0 1 $T0 .raSearch = $eip $T0 ^ = $esp $T0 4 + =  $20 $T0 4 - ^ =  $23 $T0 8 - ^ =  $24 $T0 12 - ^ = 
STACK WIN 4 20ac9 53 0 0 4 10 0 0 1 $T0 .raSearch = $eip $T0 ^ = $esp $T0 4 + =  $20 $T0 4 - ^ =  $23 $T0 8 - ^ =  $24 $T0 12 - ^ =  $22 $T0 16 - ^ = 
STACK WIN 4 20b40 677 2b 0 8 0 0 0 1 $T0 .raSearch = $eip $T0 ^ = $esp $T0 4 + = 
STACK WIN 4 20b5c 64d f 0 8 4 444 0 1 $T0 .raSearch = $eip $T0 ^ = $esp $T0 4 + =  $20 $T0 1096 - ^ = 
STACK WIN 4 20b64 644 7 0 8 8 444 0 1 $T0 .raSearch = $eip $T0 ^ = $esp $T0 4 + =  $20 $T0 1096 - ^ =  $22 $T0 1100 - ^ = 
STACK WIN 4 20b65 63c 6 0 8 c 444 0 1 $T0 .raSearch = $eip $T0 ^ = $esp $T0 4 + =  $20 $T0 1096 - ^ =  $22 $T0 1100 - ^ =  $23 $T0 1104 - ^ = 
STACK WIN 4 20bd4 5cc 0 0 8 10 444 0 1 $T0 .raSearch = $eip $T0 ^ = $esp $T0 4 + =  $20 $T0 1096 - ^ =  $22 $T0 1100 - ^ =  $23 $T0 1104 - ^ =  $24 $T0 1108 - ^ = 
STACK WIN 4 211c0 fc 19 0 8 0 0 0 1 $T0 .raSearch = $eip $T0 ^ = $esp $T0 4 + = 
STACK WIN 4 211d5 6a 4 0 8 4 10c 0 1 $T0 .raSearch = $eip $T0 ^ = $esp $T0 4 + =  $20 $T0 272 - ^ = 
STACK WIN 4 211d6 68 3 0 8 8 10c 0 1 $T0 .raSearch = $eip $T0 ^ = $esp $T0 4 + =  $20 $T0 272 - ^ =  $22 $T0 276 - ^ = 
STACK WIN 4 211d7 66 2 0 8 c 10c 0 1 $T0 .raSearch = $eip $T0 ^ = $esp $T0 4 + =  $20 $T0 272 - ^ =  $22 $T0 276 - ^ =  $23 $T0 280 - ^ = 
STACK WIN 4 211e1 5b 0 0 8 10 10c 0 1 $T0 .raSearch = $eip $T0 ^ = $esp $T0 4 + =  $20 $T0 272 - ^ =  $22 $T0 276 - ^ =  $23 $T0 280 - ^ =  $24 $T0 284 - ^ = 
STACK WIN 4 212c0 35b 4 0 4 0 0 0 1 $T0 .raSearch = $eip $T0 ^ = $esp $T0 4 + = 
STACK WIN 4 212c2 2dd 2 0 4 4 4 0 1 $T0 .raSearch = $eip $T0 ^ = $esp $T0 4 + =  $20 $T0 8 - ^ = 
STACK WIN 4 212ca 2cf 0 0 4 8 4 0 1 $T0 .raSearch = $eip $T0 ^ = $esp $T0 4 + =  $20 $T0 8 - ^ =  $22 $T0 12 - ^ = 
STACK WIN 4 212dd 2bb 0 0 4 c 4 0 1 $T0 .raSearch = $eip $T0 ^ = $esp $T0 4 + =  $20 $T0 8 - ^ =  $22 $T0 12 - ^ =  $23 $T0 16 - ^ = 
STACK WIN 4 212e5 2b2 0 0 4 10 4 0 1 $T0 .raSearch = $eip $T0 ^ = $esp $T0 4 + =  $20 $T0 8 - ^ =  $22 $T0 12 - ^ =  $23 $T0 16 - ^ =  $24 $T0 20 - ^ = 
STACK WIN 4 21620 1d0 25 0 10 10 11c 0 1 $T0 .raSearch = $eip $T0 ^ = $esp $T0 4 + =  $20 $T0 288 - ^ =  $22 $T0 292 - ^ =  $23 $T0 296 - ^ =  $24 $T0 300 - ^ = 
STACK WIN 4 217f0 e6 19 0 10 10 114 0 1 $T0 .raSearch = $eip $T0 ^ = $esp $T0 4 + =  $20 $T0 280 - ^ =  $22 $T0 284 - ^ =  $23 $T0 288 - ^ =  $24 $T0 292 - ^ = 
STACK WIN 4 218e0 dc 21 0 10 10 114 0 1 $T0 .raSearch = $eip $T0 ^ = $esp $T0 4 + =  $20 $T0 280 - ^ =  $22 $T0 284 - ^ =  $23 $T0 288 - ^ =  $24 $T0 292 - ^ = 
STACK WIN 4 219c0 2a5 1b 0 10 10 2114 0 1 $T0 .raSearch = $eip $T0 ^ = $esp $T0 4 + =  $20 $T0 8472 - ^ =  $22 $T0 8476 - ^ =  $23 $T0 8480 - ^ =  $24 $T0 8484 - ^ = 
STACK WIN 4 21c70 d9 d 0 8 0 0 0 1 $T0 .raSearch = $eip $T0 ^ = $esp $T0 4 + = 
STACK WIN 4 21c75 d1 8 0 8 4 0 0 1 $T0 .raSearch = $eip $T0 ^ = $esp $T0 4 + =  $20 $T0 4 - ^ = 
STACK WIN 4 21c7a cb 3 0 8 8 0 0 1 $T0 .raSearch = $eip $T0 ^ = $esp $T0 4 + =  $20 $T0 4 - ^ =  $22 $T0 8 - ^ = 
STACK WIN 4 21c7b c9 2 0 8 c 0 0 1 $T0 .raSearch = $eip $T0 ^ = $esp $T0 4 + =  $20 $T0 4 - ^ =  $22 $T0 8 - ^ =  $23 $T0 12 - ^ = 
STACK WIN 4 21cdb 4f 0 0 8 10 0 0 1 $T0 .raSearch = $eip $T0 ^ = $esp $T0 4 + =  $20 $T0 4 - ^ =  $22 $T0 8 - ^ =  $23 $T0 12 - ^ =  $24 $T0 16 - ^ = 
STACK WIN 4 21d50 8b 3 0 0 0 0 0 1 $T0 .raSearch = $eip $T0 ^ = $esp $T0 4 + = 
STACK WIN 4 21d51 89 2 0 0 4 0 0 1 $T0 .raSearch = $eip $T0 ^ = $esp $T0 4 + =  $23 $T0 4 - ^ = 
STACK WIN 4 21de0 126 17 0 8 0 0 0 1 $T0 .raSearch = $eip $T0 ^ = $esp $T0 4 + = 
STACK WIN 4 21df5 101 2 0 8 4 10c 0 1 $T0 .raSearch = $eip $T0 ^ = $esp $T0 4 + =  $20 $T0 272 - ^ = 
STACK WIN 4 21df8 fd 0 0 8 8 10c 0 1 $T0 .raSearch = $eip $T0 ^ = $esp $T0 4 + =  $20 $T0 272 - ^ =  $22 $T0 276 - ^ = 
STACK WIN 4 21df9 fb 0 0 8 c 10c 0 1 $T0 .raSearch = $eip $T0 ^ = $esp $T0 4 + =  $20 $T0 272 - ^ =  $22 $T0 276 - ^ =  $23 $T0 280 - ^ = 
STACK WIN 4 21e04 ef 0 0 8 10 10c 0 1 $T0 .raSearch = $eip $T0 ^ = $esp $T0 4 + =  $20 $T0 272 - ^ =  $22 $T0 276 - ^ =  $23 $T0 280 - ^ =  $24 $T0 284 - ^ = 
STACK WIN 4 21f10 42f 7 0 8 0 0 0 1 $T0 .raSearch = $eip $T0 ^ = $esp $T0 4 + = 
STACK WIN 4 21f14 3ae 3 0 8 4 c 0 1 $T0 .raSearch = $eip $T0 ^ = $esp $T0 4 + =  $20 $T0 16 - ^ = 
STACK WIN 4 21f15 3a7 2 0 8 8 c 0 1 $T0 .raSearch = $eip $T0 ^ = $esp $T0 4 + =  $20 $T0 16 - ^ =  $24 $T0 20 - ^ = 
STACK WIN 4 21f47 374 0 0 8 c c 0 1 $T0 .raSearch = $eip $T0 ^ = $esp $T0 4 + =  $20 $T0 16 - ^ =  $24 $T0 20 - ^ =  $22 $T0 24 - ^ = 
STACK WIN 4 21f4d 36d 0 0 8 10 c 0 1 $T0 .raSearch = $eip $T0 ^ = $esp $T0 4 + =  $20 $T0 16 - ^ =  $24 $T0 20 - ^ =  $22 $T0 24 - ^ =  $23 $T0 28 - ^ = 
STACK WIN 4 22340 216 22 0 28 10 114 0 1 $T0 .raSearch = $eip $T0 ^ = $esp $T0 4 + =  $20 $T0 280 - ^ =  $22 $T0 284 - ^ =  $23 $T0 288 - ^ =  $24 $T0 292 - ^ = 
STACK WIN 4 22560 14c 29 0 14 10 118 0 1 $T0 .raSearch = $eip $T0 ^ = $esp $T0 4 + =  $20 $T0 284 - ^ =  $22 $T0 288 - ^ =  $23 $T0 292 - ^ =  $24 $T0 296 - ^ = 
STACK WIN 4 226b0 2a6 2c 0 14 10 2120 0 1 $T0 .raSearch = $eip $T0 ^ = $esp $T0 4 + =  $20 $T0 8484 - ^ =  $22 $T0 8488 - ^ =  $23 $T0 8492 - ^ =  $24 $T0 8496 - ^ = 
STACK WIN 4 22960 22f d 0 14 0 0 0 1 $T0 .raSearch = $eip $T0 ^ = $esp $T0 4 + = 
STACK WIN 4 22982 207 0 0 14 4 c 0 1 $T0 .raSearch = $eip $T0 ^ = $esp $T0 4 + =  $20 $T0 16 - ^ = 
STACK WIN 4 22983 205 0 0 14 8 c 0 1 $T0 .raSearch = $eip $T0 ^ = $esp $T0 4 + =  $20 $T0 16 - ^ =  $22 $T0 20 - ^ = 
STACK WIN 4 22984 203 0 0 14 c c 0 1 $T0 .raSearch = $eip $T0 ^ = $esp $T0 4 + =  $20 $T0 16 - ^ =  $22 $T0 20 - ^ =  $23 $T0 24 - ^ = 
STACK WIN 4 2298c 1fa 0 0 14 10 c 0 1 $T0 .raSearch = $eip $T0 ^ = $esp $T0 4 + =  $20 $T0 16 - ^ =  $22 $T0 20 - ^ =  $23 $T0 24 - ^ =  $24 $T0 28 - ^ = 
STACK WIN 4 22b8f 1b 9 0 4 0 0 0 1 $T0 $ebp = $eip $T0 4 + ^ = $ebp $T0 ^ = $esp $T0 8 + = 
STACK WIN 4 22b93 13 5 0 4 4 0 0 1 $T0 $ebp = $eip $T0 4 + ^ = $ebp $T0 ^ = $esp $T0 8 + =  $23 $T0 4 - ^ = 
STACK WIN 4 22baa 18 0 0 0 0 0 0 1 $T0 .raSearch = $eip $T0 ^ = $esp $T0 4 + = 
STACK WIN 4 22bc2 2c 6 0 4 0 0 0 1 $T0 $ebp = $eip $T0 4 + ^ = $ebp $T0 ^ = $esp $T0 8 + = 
STACK WIN 4 22bc6 24 2 0 4 4 0 0 1 $T0 $ebp = $eip $T0 4 + ^ = $ebp $T0 ^ = $esp $T0 8 + =  $23 $T0 4 - ^ = 
STACK WIN 4 22bee 37 b 0 4 0 8 0 1 $T0 $ebp = $eip $T0 4 + ^ = $ebp $T0 ^ = $esp $T0 8 + = 
STACK WIN 4 22bf7 28 2 0 4 4 8 0 1 $T0 $ebp = $eip $T0 4 + ^ = $ebp $T0 ^ = $esp $T0 8 + =  $23 $T0 12 - ^ = 
STACK WIN 4 22c25 1b 9 0 4 0 0 0 1 $T0 $ebp = $eip $T0 4 + ^ = $ebp $T0 ^ = $esp $T0 8 + = 
STACK WIN 4 22c29 13 5 0 4 4 0 0 1 $T0 $ebp = $eip $T0 4 + ^ = $ebp $T0 ^ = $esp $T0 8 + =  $23 $T0 4 - ^ = 
STACK WIN 4 22c40 21 d 0 4 0 4 0 1 $T0 $ebp = $eip $T0 4 + ^ = $ebp $T0 ^ = $esp $T0 8 + = 
STACK WIN 4 22c45 16 8 0 4 4 4 0 1 $T0 $ebp = $eip $T0 4 + ^ = $ebp $T0 ^ = $esp $T0 8 + =  $23 $T0 8 - ^ = 
STACK WIN 4 22c61 1b 9 0 4 0 0 0 1 $T0 $ebp = $eip $T0 4 + ^ = $ebp $T0 ^ = $esp $T0 8 + = 
STACK WIN 4 22c65 13 5 0 4 4 0 0 1 $T0 $ebp = $eip $T0 4 + ^ = $ebp $T0 ^ = $esp $T0 8 + =  $23 $T0 4 - ^ = 
STACK WIN 4 22c7c 1b 9 0 4 0 0 0 1 $T0 $ebp = $eip $T0 4 + ^ = $ebp $T0 ^ = $esp $T0 8 + = 
STACK WIN 4 22c80 13 5 0 4 4 0 0 1 $T0 $ebp = $eip $T0 4 + ^ = $ebp $T0 ^ = $esp $T0 8 + =  $23 $T0 4 - ^ = 
STACK WIN 4 22c97 21 d 0 4 0 4 0 1 $T0 $ebp = $eip $T0 4 + ^ = $ebp $T0 ^ = $esp $T0 8 + = 
STACK WIN 4 22c9c 16 8 0 4 4 4 0 1 $T0 $ebp = $eip $T0 4 + ^ = $ebp $T0 ^ = $esp $T0 8 + =  $23 $T0 8 - ^ = 
STACK WIN 4 22cb8 11 0 0 0 0 0 0 1 $T0 .raSearch = $eip $T0 ^ = $esp $T0 4 + = 
STACK WIN 4 22cc9 2d 6 0 4 0 0 0 1 $T0 $ebp = $eip $T0 4 + ^ = $ebp $T0 ^ = $esp $T0 8 + = 
STACK WIN 4 22ccd 25 2 0 4 4 0 0 1 $T0 $ebp = $eip $T0 4 + ^ = $ebp $T0 ^ = $esp $T0 8 + =  $23 $T0 4 - ^ = 
STACK WIN 4 22cf6 1d 6 0 0 0 c 0 1 $T0 $ebp = $eip $T0 4 + ^ = $ebp $T0 ^ = $esp $T0 8 + = 
STACK WIN 4 22d13 20 6 0 4 0 c 0 1 $T0 $ebp = $eip $T0 4 + ^ = $ebp $T0 ^ = $esp $T0 8 + = 
STACK WIN 4 22d33 20 6 0 4 0 c 0 1 $T0 $ebp = $eip $T0 4 + ^ = $ebp $T0 ^ = $esp $T0 8 + = 
STACK WIN 4 22d53 d 0 0 0 0 0 0 1 $T0 .raSearch = $eip $T0 ^ = $esp $T0 4 + = 
STACK WIN 4 22d60 11 0 0 0 0 0 0 1 $T0 .raSearch = $eip $T0 ^ = $esp $T0 4 + = 
STACK WIN 4 22d71 33 3 0 4 0 0 0 1 $T0 $ebp = $eip $T0 4 + ^ = $ebp $T0 ^ = $esp $T0 8 + = 
STACK WIN 4 22da4 5 0 0 4 0 0 0 1 $T0 $ebp = $eip $T0 4 + ^ = $ebp $T0 ^ = $esp $T0 8 + = 
STACK WIN 4 22da9 e 3 0 8 0 0 0 1 $T0 $ebp = $eip $T0 4 + ^ = $ebp $T0 ^ = $esp $T0 8 + = 
STACK WIN 4 22db7 9 3 0 4 0 0 0 1 $T0 $ebp = $eip $T0 4 + ^ = $ebp $T0 ^ = $esp $T0 8 + = 
STACK WIN 4 22dc0 53 3 0 c 0 0 0 1 $T0 $ebp = $eip $T0 4 + ^ = $ebp $T0 ^ = $esp $T0 8 + = 
STACK WIN 4 22e13 112 c 0 8 10 20 0 1 $T0 $ebp = $eip $T0 4 + ^ = $ebp $T0 ^ = $esp $T0 8 + =  $20 $T0 36 - ^ =  $23 $T0 40 - ^ =  $24 $T0 44 - ^ = 
STACK WIN 4 22f18 c 0 0 8 10 20 0 1 $T0 $ebp = $T2 $esp = $T1 .raSearchStart = $eip $T1 ^ = $ebp $T0 = $esp $T1 4 + = 
STACK WIN 4 22f25 7d c 0 4 10 1c 0 1 $T0 $ebp = $eip $T0 4 + ^ = $ebp $T0 ^ = $esp $T0 8 + =  $20 $T0 32 - ^ =  $23 $T0 36 - ^ =  $24 $T0 40 - ^ = 
STACK WIN 4 22f93 e 0 0 4 10 1c 0 1 $T0 $ebp = $T2 $esp = $T1 .raSearchStart = $eip $T1 ^ = $ebp $T0 = $esp $T1 4 + = 
STACK WIN 4 22fa2 fc c 0 c 10 1c 0 1 $T0 $ebp = $eip $T0 4 + ^ = $ebp $T0 ^ = $esp $T0 8 + =  $20 $T0 32 - ^ =  $23 $T0 36 - ^ =  $24 $T0 40 - ^ = 
STACK WIN 4 23068 1f 0 0 c 10 1c 0 1 $T0 $ebp = $T2 $esp = $T1 .raSearchStart = $eip $T1 ^ = $ebp $T0 = $esp $T1 4 + = 
STACK WIN 4 2309e 2a 4 0 c 0 0 0 1 $T0 $ebp = $eip $T0 4 + ^ = $ebp $T0 ^ = $esp $T0 8 + = 
STACK WIN 4 230a2 22 0 0 c 4 0 0 1 $T0 $ebp = $eip $T0 4 + ^ = $ebp $T0 ^ = $esp $T0 8 + =  $23 $T0 4 - ^ = 
STACK WIN 4 230c8 23 3 0 c 0 0 0 1 $T0 $ebp = $eip $T0 4 + ^ = $ebp $T0 ^ = $esp $T0 8 + = 
STACK WIN 4 230eb 28 3 0 4 0 0 0 1 $T0 $ebp = $eip $T0 4 + ^ = $ebp $T0 ^ = $esp $T0 8 + = 
STACK WIN 4 23113 fb 9 0 0 0 324 0 1 $T0 $ebp = $eip $T0 4 + ^ = $ebp $T0 ^ = $esp $T0 8 + = 
STACK WIN 4 2320e c 3 0 0 0 0 0 1 $T0 $ebp = $eip $T0 4 + ^ = $ebp $T0 ^ = $esp $T0 8 + = 
STACK WIN 4 2321a d0 9 0 4 0 31c 0 1 $T0 $ebp = $eip $T0 4 + ^ = $ebp $T0 ^ = $esp $T0 8 + = 
STACK WIN 4 232ea 5 0 0 4 0 0 0 1 $T0 $ebp = $eip $T0 4 + ^ = $ebp $T0 ^ = $esp $T0 8 + = 
STACK WIN 4 232ef c0 3 0 0 0 0 0 1 $T0 .raSearch = $eip $T0 ^ = $esp $T0 4 + = 
STACK WIN 4 232f0 b6 2 0 0 4 0 0 1 $T0 .raSearch = $eip $T0 ^ = $esp $T0 4 + =  $20 $T0 4 - ^ = 
STACK WIN 4 232f1 b2 1 0 0 8 0 0 1 $T0 .raSearch = $eip $T0 ^ = $esp $T0 4 + =  $20 $T0 4 - ^ =  $23 $T0 8 - ^ = 
STACK WIN 4 232f2 b0 0 0 0 c 0 0 1 $T0 .raSearch = $eip $T0 ^ = $esp $T0 4 + =  $20 $T0 4 - ^ =  $23 $T0 8 - ^ =  $24 $T0 12 - ^ = 
STACK WIN 4 233af 1d 3 0 4 0 0 0 1 $T0 $ebp = $eip $T0 4 + ^ = $ebp $T0 ^ = $esp $T0 8 + = 
STACK WIN 4 233cc 1c 0 0 0 0 0 0 1 $T0 .raSearch = $eip $T0 ^ = $esp $T0 4 + = 
STACK WIN 4 233e8 3f 3 0 4 0 0 0 1 $T0 $ebp = $eip $T0 4 + ^ = $ebp $T0 ^ = $esp $T0 8 + = 
STACK WIN 4 23427 46 4 0 4 0 0 0 1 $T0 $ebp = $eip $T0 4 + ^ = $ebp $T0 ^ = $esp $T0 8 + = 
STACK WIN 4 2342b 3c 0 0 4 4 0 0 1 $T0 $ebp = $eip $T0 4 + ^ = $ebp $T0 ^ = $esp $T0 8 + =  $23 $T0 4 - ^ = 
STACK WIN 4 2346d c 0 0 0 0 0 0 1 $T0 .raSearch = $eip $T0 ^ = $esp $T0 4 + = 
STACK WIN 4 23479 41 0 0 0 0 0 0 1 $T0 .raSearch = $eip $T0 ^ = $esp $T0 4 + = 
STACK WIN 4 23483 22 0 0 0 4 0 0 1 $T0 .raSearch = $eip $T0 ^ = $esp $T0 4 + =  $23 $T0 4 - ^ = 
STACK WIN 4 234ba c 0 0 0 0 0 0 1 $T0 .raSearch = $eip $T0 ^ = $esp $T0 4 + = 
STACK WIN 4 234c6 65 b 0 4 0 0 0 1 $T0 $ebp = $eip $T0 4 + ^ = $ebp $T0 ^ = $esp $T0 8 + = 
STACK WIN 4 234d1 58 0 0 4 4 0 0 1 $T0 $ebp = $eip $T0 4 + ^ = $ebp $T0 ^ = $esp $T0 8 + =  $23 $T0 4 - ^ = 
STACK WIN 4 2352b 23 a 0 4 0 0 0 1 $T0 $ebp = $eip $T0 4 + ^ = $ebp $T0 ^ = $esp $T0 8 + = 
STACK WIN 4 23533 17 2 0 4 4 0 0 1 $T0 $ebp = $eip $T0 4 + ^ = $ebp $T0 ^ = $esp $T0 8 + =  $23 $T0 4 - ^ = 
STACK WIN 4 2354e 1b 9 0 4 0 0 0 1 $T0 $ebp = $eip $T0 4 + ^ = $ebp $T0 ^ = $esp $T0 8 + = 
STACK WIN 4 23552 13 5 0 4 4 0 0 1 $T0 $ebp = $eip $T0 4 + ^ = $ebp $T0 ^ = $esp $T0 8 + =  $23 $T0 4 - ^ = 
STACK WIN 4 23569 18 0 0 0 0 0 0 1 $T0 .raSearch = $eip $T0 ^ = $esp $T0 4 + = 
STACK WIN 4 23581 1d 6 0 0 0 c 0 1 $T0 $ebp = $eip $T0 4 + ^ = $ebp $T0 ^ = $esp $T0 8 + = 
STACK WIN 4 2359e 44 7 0 8 0 0 0 1 $T0 $ebp = $eip $T0 4 + ^ = $ebp $T0 ^ = $esp $T0 8 + = 
STACK WIN 4 235a5 37 0 0 8 4 0 0 1 $T0 $ebp = $eip $T0 4 + ^ = $ebp $T0 ^ = $esp $T0 8 + =  $23 $T0 4 - ^ = 
STACK WIN 4 235e2 35 0 0 0 0 0 0 1 $T0 .raSearch = $eip $T0 ^ = $esp $T0 4 + = 
STACK WIN 4 235f5 21 0 0 0 4 0 0 1 $T0 .raSearch = $eip $T0 ^ = $esp $T0 4 + =  $23 $T0 4 - ^ = 
STACK WIN 4 23617 2b 0 0 0 0 0 0 1 $T0 .raSearch = $eip $T0 ^ = $esp $T0 4 + = 
STACK WIN 4 23642 e 0 0 0 0 0 0 1 $T0 .raSearch = $eip $T0 ^ = $esp $T0 4 + = 
STACK WIN 4 23650 1f 0 0 0 0 0 0 1 $T0 .raSearch = $eip $T0 ^ = $esp $T0 4 + = 
STACK WIN 4 2366f d 0 0 0 0 0 0 1 $T0 .raSearch = $eip $T0 ^ = $esp $T0 4 + = 
STACK WIN 4 2367c 33 3 0 18 0 0 0 1 $T0 $ebp = $eip $T0 4 + ^ = $ebp $T0 ^ = $esp $T0 8 + = 
STACK WIN 4 236af 23 0 0 0 0 0 0 1 $T0 .raSearch = $eip $T0 ^ = $esp $T0 4 + = 
STACK WIN 4 236d2 d 0 0 0 0 0 0 1 $T0 .raSearch = $eip $T0 ^ = $esp $T0 4 + = 
STACK WIN 4 236df 39 3 0 4 0 0 0 1 $T0 $ebp = $eip $T0 4 + ^ = $ebp $T0 ^ = $esp $T0 8 + = 
STACK WIN 4 23718 97 7 0 4 0 c 0 1 $T0 $ebp = $eip $T0 4 + ^ = $ebp $T0 ^ = $esp $T0 8 + = 
STACK WIN 4 2371f 84 0 0 4 4 c 0 1 $T0 $ebp = $eip $T0 4 + ^ = $ebp $T0 ^ = $esp $T0 8 + =  $23 $T0 16 - ^ = 
STACK WIN 4 23767 3b 0 0 4 8 c 0 1 $T0 $ebp = $eip $T0 4 + ^ = $ebp $T0 ^ = $esp $T0 8 + =  $23 $T0 16 - ^ =  $24 $T0 20 - ^ = 
STACK WIN 4 237af 8a c 0 4 10 18 0 1 $T0 $ebp = $eip $T0 4 + ^ = $ebp $T0 ^ = $esp $T0 8 + =  $20 $T0 28 - ^ =  $23 $T0 32 - ^ =  $24 $T0 36 - ^ = 
STACK WIN 4 23814 13 0 0 4 10 18 0 1 $T0 $ebp = $T2 $esp = $T1 .raSearchStart = $eip $T1 ^ = $ebp $T0 = $esp $T1 4 + = 
STACK WIN 4 23839 1d 3 0 4 0 0 0 1 $T0 $ebp = $eip $T0 4 + ^ = $ebp $T0 ^ = $esp $T0 8 + = 
STACK WIN 4 23856 28 3 0 8 0 0 0 1 $T0 $ebp = $eip $T0 4 + ^ = $ebp $T0 ^ = $esp $T0 8 + = 
STACK WIN 4 2387e 3b 3 0 4 0 0 0 1 $T0 $ebp = $eip $T0 4 + ^ = $ebp $T0 ^ = $esp $T0 8 + = 
STACK WIN 4 238b9 15 3 0 4 0 0 0 1 $T0 $ebp = $eip $T0 4 + ^ = $ebp $T0 ^ = $esp $T0 8 + = 
STACK WIN 4 238ce 9c 15 0 0 0 14 0 1 $T0 $ebp = $eip $T0 4 + ^ = $ebp $T0 ^ = $esp $T0 8 + = 
STACK WIN 4 238e2 84 1 0 0 4 14 0 1 $T0 $ebp = $eip $T0 4 + ^ = $ebp $T0 ^ = $esp $T0 8 + =  $23 $T0 24 - ^ = 
STACK WIN 4 238e3 82 0 0 0 8 14 0 1 $T0 $ebp = $eip $T0 4 + ^ = $ebp $T0 ^ = $esp $T0 8 + =  $23 $T0 24 - ^ =  $24 $T0 28 - ^ = 
STACK WIN 4 2396a 6 0 0 c 0 0 0 1 $T0 .raSearch = $eip $T0 ^ = $esp $T0 4 + = 
STACK WIN 4 23970 c 0 0 0 0 0 0 1 $T0 .raSearch = $eip $T0 ^ = $esp $T0 4 + = 
STACK WIN 4 2397c c 0 0 0 0 0 0 1 $T0 .raSearch = $eip $T0 ^ = $esp $T0 4 + = 
STACK WIN 4 23988 6 0 0 0 0 0 0 1 $T0 .raSearch = $eip $T0 ^ = $esp $T0 4 + = 
STACK WIN 4 2398e 1d 0 0 0 0 0 0 1 $T0 .raSearch = $eip $T0 ^ = $esp $T0 4 + = 
STACK WIN 4 239ab 6 0 0 0 0 0 0 1 $T0 .raSearch = $eip $T0 ^ = $esp $T0 4 + = 
STACK WIN 4 239b1 11b b 0 4 8 324 0 1 $T0 $ebp = $eip $T0 4 + ^ = $ebp $T0 ^ = $esp $T0 8 + =  $20 $T0 808 - ^ =  $23 $T0 812 - ^ = 
STACK WIN 4 23acc 8 0 0 4 0 0 0 1 $T0 .raSearch = $eip $T0 ^ = $esp $T0 4 + = 
STACK WIN 4 23ad4 2b 2 0 0 0 0 0 1 $T0 .raSearch = $eip $T0 ^ = $esp $T0 4 + = 
STACK WIN 4 23ad5 29 1 0 0 4 0 0 1 $T0 .raSearch = $eip $T0 ^ = $esp $T0 4 + =  $20 $T0 4 - ^ = 
STACK WIN 4 23ad6 27 0 0 0 8 0 0 1 $T0 .raSearch = $eip $T0 ^ = $esp $T0 4 + =  $20 $T0 4 - ^ =  $23 $T0 8 - ^ = 
STACK WIN 4 23ae5 17 0 0 0 c 0 0 1 $T0 .raSearch = $eip $T0 ^ = $esp $T0 4 + =  $20 $T0 4 - ^ =  $23 $T0 8 - ^ =  $24 $T0 12 - ^ = 
STACK WIN 4 23aff 2b 2 0 0 0 0 0 1 $T0 .raSearch = $eip $T0 ^ = $esp $T0 4 + = 
STACK WIN 4 23b00 29 1 0 0 4 0 0 1 $T0 .raSearch = $eip $T0 ^ = $esp $T0 4 + =  $20 $T0 4 - ^ = 
STACK WIN 4 23b01 27 0 0 0 8 0 0 1 $T0 .raSearch = $eip $T0 ^ = $esp $T0 4 + =  $20 $T0 4 - ^ =  $23 $T0 8 - ^ = 
STACK WIN 4 23b10 17 0 0 0 c 0 0 1 $T0 .raSearch = $eip $T0 ^ = $esp $T0 4 + =  $20 $T0 4 - ^ =  $23 $T0 8 - ^ =  $24 $T0 12 - ^ = 
STACK WIN 4 23b2a 6 0 0 0 0 0 0 1 $T0 .raSearch = $eip $T0 ^ = $esp $T0 4 + = 
STACK WIN 4 23b8b 19a e 0 0 0 28 0 1 $T0 $ebp = $eip $T0 4 + ^ = $ebp $T0 ^ = $esp $T0 8 + = 
STACK WIN 4 23b99 188 0 0 0 4 28 0 1 $T0 $ebp = $eip $T0 4 + ^ = $ebp $T0 ^ = $esp $T0 8 + =  $20 $T0 44 - ^ = 
STACK WIN 4 23bc1 e9 0 0 0 8 28 0 1 $T0 $ebp = $eip $T0 4 + ^ = $ebp $T0 ^ = $esp $T0 8 + =  $20 $T0 44 - ^ =  $23 $T0 48 - ^ = 
STACK WIN 4 23bc2 e7 0 0 0 c 28 0 1 $T0 $ebp = $eip $T0 4 + ^ = $ebp $T0 ^ = $esp $T0 8 + =  $20 $T0 44 - ^ =  $23 $T0 48 - ^ =  $24 $T0 52 - ^ = 
STACK WIN 4 23d25 4 0 0 0 0 0 0 1 $T0 .raSearch = $eip $T0 ^ = $esp $T0 4 + = 
STACK WIN 4 23d29 c 0 0 0 0 0 0 1 $T0 .raSearch = $eip $T0 ^ = $esp $T0 4 + = 
STACK WIN 4 242b4 1f 0 0 0 0 0 0 1 $T0 .raSearch = $eip $T0 ^ = $esp $T0 4 + = 
STACK WIN 4 242d3 1b 1 0 0 4 0 0 1 $T0 .raSearch = $eip $T0 ^ = $esp $T0 4 + =  $23 $T0 4 - ^ = 
STACK WIN 4 2468b 63 4 0 8 0 0 0 1 $T0 $ebp = $eip $T0 4 + ^ = $ebp $T0 ^ = $esp $T0 8 + = 
STACK WIN 4 2468f 5d 0 0 8 4 0 0 1 $T0 $ebp = $eip $T0 4 + ^ = $ebp $T0 ^ = $esp $T0 8 + =  $24 $T0 4 - ^ = 
STACK WIN 4 246ab 33 0 0 8 8 0 0 1 $T0 $ebp = $eip $T0 4 + ^ = $ebp $T0 ^ = $esp $T0 8 + =  $24 $T0 4 - ^ =  $20 $T0 8 - ^ = 
STACK WIN 4 246ac 31 0 0 8 c 0 0 1 $T0 $ebp = $eip $T0 4 + ^ = $ebp $T0 ^ = $esp $T0 8 + =  $24 $T0 4 - ^ =  $20 $T0 8 - ^ =  $23 $T0 12 - ^ = 
STACK WIN 4 246ee 1f 4 0 4 0 0 0 1 $T0 $ebp = $eip $T0 4 + ^ = $ebp $T0 ^ = $esp $T0 8 + = 
STACK WIN 4 246f2 19 0 0 4 4 0 0 1 $T0 $ebp = $eip $T0 4 + ^ = $ebp $T0 ^ = $esp $T0 8 + =  $23 $T0 4 - ^ = 
STACK WIN 4 2470d 6e c 0 8 0 20 0 1 $T0 $ebp = $eip $T0 4 + ^ = $ebp $T0 ^ = $esp $T0 8 + = 
STACK WIN 4 24714 61 5 0 8 4 20 0 1 $T0 $ebp = $eip $T0 4 + ^ = $ebp $T0 ^ = $esp $T0 8 + =  $20 $T0 36 - ^ = 
STACK WIN 4 24718 5c 1 0 8 8 20 0 1 $T0 $ebp = $eip $T0 4 + ^ = $ebp $T0 ^ = $esp $T0 8 + =  $20 $T0 36 - ^ =  $23 $T0 40 - ^ = 
STACK WIN 4 24719 5a 0 0 8 c 20 0 1 $T0 $ebp = $eip $T0 4 + ^ = $ebp $T0 ^ = $esp $T0 8 + =  $20 $T0 36 - ^ =  $23 $T0 40 - ^ =  $24 $T0 44 - ^ = 
STACK WIN 4 24780 32 8 0 8 0 0 0 1 $T0 $ebp = $eip $T0 4 + ^ = $ebp $T0 ^ = $esp $T0 8 + = 
STACK WIN 4 24784 28 4 0 8 4 0 0 1 $T0 $ebp = $eip $T0 4 + ^ = $ebp $T0 ^ = $esp $T0 8 + =  $23 $T0 4 - ^ = 
STACK WIN 4 24788 23 0 0 8 8 0 0 1 $T0 $ebp = $eip $T0 4 + ^ = $ebp $T0 ^ = $esp $T0 8 + =  $23 $T0 4 - ^ =  $24 $T0 8 - ^ = 
STACK WIN 4 247c0 166 c 0 10 0 1c 0 1 $T0 $ebp = $eip $T0 4 + ^ = $ebp $T0 ^ = $esp $T0 8 + = 
STACK WIN 4 247c7 129 5 0 10 4 1c 0 1 $T0 $ebp = $eip $T0 4 + ^ = $ebp $T0 ^ = $esp $T0 8 + =  $20 $T0 32 - ^ = 
STACK WIN 4 247c8 127 4 0 10 8 1c 0 1 $T0 $ebp = $eip $T0 4 + ^ = $ebp $T0 ^ = $esp $T0 8 + =  $20 $T0 32 - ^ =  $23 $T0 36 - ^ = 
STACK WIN 4 247cc 122 0 0 10 c 1c 0 1 $T0 $ebp = $eip $T0 4 + ^ = $ebp $T0 ^ = $esp $T0 8 + =  $20 $T0 32 - ^ =  $23 $T0 36 - ^ =  $24 $T0 40 - ^ = 
STACK WIN 4 24926 a0 b 0 10 0 0 0 1 $T0 $ebp = $eip $T0 4 + ^ = $ebp $T0 ^ = $esp $T0 8 + = 
STACK WIN 4 2492f 95 2 0 10 4 0 0 1 $T0 $ebp = $eip $T0 4 + ^ = $ebp $T0 ^ = $esp $T0 8 + =  $20 $T0 4 - ^ = 
STACK WIN 4 24930 93 1 0 10 8 0 0 1 $T0 $ebp = $eip $T0 4 + ^ = $ebp $T0 ^ = $esp $T0 8 + =  $20 $T0 4 - ^ =  $23 $T0 8 - ^ = 
STACK WIN 4 24931 91 0 0 10 c 0 0 1 $T0 $ebp = $eip $T0 4 + ^ = $ebp $T0 ^ = $esp $T0 8 + =  $20 $T0 4 - ^ =  $23 $T0 8 - ^ =  $24 $T0 12 - ^ = 
STACK WIN 4 249c6 81 a 0 4 0 0 0 1 $T0 $ebp = $eip $T0 4 + ^ = $ebp $T0 ^ = $esp $T0 8 + = 
STACK WIN 4 249ca 7b 6 0 4 4 0 0 1 $T0 $ebp = $eip $T0 4 + ^ = $ebp $T0 ^ = $esp $T0 8 + =  $20 $T0 4 - ^ = 
STACK WIN 4 249d0 74 0 0 4 8 0 0 1 $T0 $ebp = $eip $T0 4 + ^ = $ebp $T0 ^ = $esp $T0 8 + =  $20 $T0 4 - ^ =  $24 $T0 8 - ^ = 
STACK WIN 4 249f6 4d 0 0 4 c 0 0 1 $T0 $ebp = $eip $T0 4 + ^ = $ebp $T0 ^ = $esp $T0 8 + =  $20 $T0 4 - ^ =  $24 $T0 8 - ^ =  $23 $T0 12 - ^ = 
STACK WIN 4 24a47 3a 4 0 4 0 0 0 1 $T0 $ebp = $eip $T0 4 + ^ = $ebp $T0 ^ = $esp $T0 8 + = 
STACK WIN 4 24a4b 2f 0 0 4 4 0 0 1 $T0 $ebp = $eip $T0 4 + ^ = $ebp $T0 ^ = $esp $T0 8 + =  $23 $T0 4 - ^ = 
STACK WIN 4 24a81 3a 4 0 4 0 0 0 1 $T0 $ebp = $eip $T0 4 + ^ = $ebp $T0 ^ = $esp $T0 8 + = 
STACK WIN 4 24a85 34 0 0 4 4 0 0 1 $T0 $ebp = $eip $T0 4 + ^ = $ebp $T0 ^ = $esp $T0 8 + =  $23 $T0 4 - ^ = 
STACK WIN 4 24abb 3a 4 0 4 0 0 0 1 $T0 $ebp = $eip $T0 4 + ^ = $ebp $T0 ^ = $esp $T0 8 + = 
STACK WIN 4 24abf 34 0 0 4 4 0 0 1 $T0 $ebp = $eip $T0 4 + ^ = $ebp $T0 ^ = $esp $T0 8 + =  $23 $T0 4 - ^ = 
STACK WIN 4 24af5 3d 4 0 8 0 0 0 1 $T0 $ebp = $eip $T0 4 + ^ = $ebp $T0 ^ = $esp $T0 8 + = 
STACK WIN 4 24af9 37 0 0 8 4 0 0 1 $T0 $ebp = $eip $T0 4 + ^ = $ebp $T0 ^ = $esp $T0 8 + =  $23 $T0 4 - ^ = 
STACK WIN 4 24b32 46 4 0 c 0 0 0 1 $T0 $ebp = $eip $T0 4 + ^ = $ebp $T0 ^ = $esp $T0 8 + = 
STACK WIN 4 24b36 40 0 0 c 4 0 0 1 $T0 $ebp = $eip $T0 4 + ^ = $ebp $T0 ^ = $esp $T0 8 + =  $23 $T0 4 - ^ = 
STACK WIN 4 24b78 3a b 0 0 0 0 0 1 $T0 .raSearch = $eip $T0 ^ = $esp $T0 4 + = 
STACK WIN 4 24b83 2e 0 0 0 4 0 0 1 $T0 .raSearch = $eip $T0 ^ = $esp $T0 4 + =  $23 $T0 4 - ^ = 
STACK WIN 4 24bb2 32 3 0 4 0 0 0 1 $T0 $ebp = $eip $T0 4 + ^ = $ebp $T0 ^ = $esp $T0 8 + = 
STACK WIN 4 24bbc 26 0 0 4 4 0 0 1 $T0 $ebp = $eip $T0 4 + ^ = $ebp $T0 ^ = $esp $T0 8 + =  $23 $T0 4 - ^ = 
STACK WIN 4 24be4 29 0 0 0 0 0 0 1 $T0 .raSearch = $eip $T0 ^ = $esp $T0 4 + = 
STACK WIN 4 24c0d b 0 0 0 0 0 0 1 $T0 .raSearch = $eip $T0 ^ = $esp $T0 4 + = 
STACK WIN 4 24c18 b 0 0 0 0 0 0 1 $T0 .raSearch = $eip $T0 ^ = $esp $T0 4 + = 
STACK WIN 4 24c23 1f 3 0 4 0 0 0 1 $T0 $ebp = $eip $T0 4 + ^ = $ebp $T0 ^ = $esp $T0 8 + = 
STACK WIN 4 24c42 8 0 0 0 0 0 0 1 $T0 .raSearch = $eip $T0 ^ = $esp $T0 4 + = 
STACK WIN 4 24c4a 23 3 0 4 0 0 0 1 $T0 $ebp = $eip $T0 4 + ^ = $ebp $T0 ^ = $esp $T0 8 + = 
STACK WIN 4 24c5b 10 0 0 4 4 0 0 1 $T0 $ebp = $eip $T0 4 + ^ = $ebp $T0 ^ = $esp $T0 8 + =  $23 $T0 4 - ^ = 
STACK WIN 4 24dca 1d 0 0 0 0 0 0 1 $T0 .raSearch = $eip $T0 ^ = $esp $T0 4 + = 
STACK WIN 4 24f4e 1c 3 0 4 0 0 0 1 $T0 $ebp = $eip $T0 4 + ^ = $ebp $T0 ^ = $esp $T0 8 + = 
STACK WIN 4 24f6a 36 3 0 4 0 0 0 1 $T0 $ebp = $eip $T0 4 + ^ = $ebp $T0 ^ = $esp $T0 8 + = 
STACK WIN 4 24f78 26 0 0 4 4 0 0 1 $T0 $ebp = $eip $T0 4 + ^ = $ebp $T0 ^ = $esp $T0 8 + =  $23 $T0 4 - ^ = 
STACK WIN 4 24fa0 92 0 0 0 0 0 0 1 $T0 .raSearch = $eip $T0 ^ = $esp $T0 4 + = 
STACK WIN 4 24fad 84 0 0 0 4 0 0 1 $T0 .raSearch = $eip $T0 ^ = $esp $T0 4 + =  $20 $T0 4 - ^ = 
STACK WIN 4 24fae 80 0 0 0 8 0 0 1 $T0 .raSearch = $eip $T0 ^ = $esp $T0 4 + =  $20 $T0 4 - ^ =  $24 $T0 8 - ^ = 
STACK WIN 4 24fe5 41 0 0 0 c 0 0 1 $T0 .raSearch = $eip $T0 ^ = $esp $T0 4 + =  $20 $T0 4 - ^ =  $24 $T0 8 - ^ =  $23 $T0 12 - ^ = 
STACK WIN 4 25032 33 0 0 0 0 0 0 1 $T0 .raSearch = $eip $T0 ^ = $esp $T0 4 + = 
STACK WIN 4 25065 1b 0 0 0 0 0 0 1 $T0 .raSearch = $eip $T0 ^ = $esp $T0 4 + = 
STACK WIN 4 25080 3c 2 0 0 0 0 0 1 $T0 .raSearch = $eip $T0 ^ = $esp $T0 4 + = 
STACK WIN 4 25081 3a 1 0 0 4 0 0 1 $T0 .raSearch = $eip $T0 ^ = $esp $T0 4 + =  $23 $T0 4 - ^ = 
STACK WIN 4 25082 38 0 0 0 8 0 0 1 $T0 .raSearch = $eip $T0 ^ = $esp $T0 4 + =  $23 $T0 4 - ^ =  $24 $T0 8 - ^ = 
STACK WIN 4 250bc 2f 1 0 0 0 0 0 1 $T0 .raSearch = $eip $T0 ^ = $esp $T0 4 + = 
STACK WIN 4 250bd 2d 0 0 0 4 0 0 1 $T0 .raSearch = $eip $T0 ^ = $esp $T0 4 + =  $23 $T0 4 - ^ = 
STACK WIN 4 250cb 1c 0 0 0 8 0 0 1 $T0 .raSearch = $eip $T0 ^ = $esp $T0 4 + =  $23 $T0 4 - ^ =  $24 $T0 8 - ^ = 
STACK WIN 4 25227 9c 24 0 10 0 484 0 1 $T0 $ebp = $eip $T0 4 + ^ = $ebp $T0 ^ = $esp $T0 8 + = 
STACK WIN 4 2523d 51 e 0 10 4 484 0 1 $T0 $ebp = $eip $T0 4 + ^ = $ebp $T0 ^ = $esp $T0 8 + =  $20 $T0 1160 - ^ = 
STACK WIN 4 25247 46 4 0 10 8 484 0 1 $T0 $ebp = $eip $T0 4 + ^ = $ebp $T0 ^ = $esp $T0 8 + =  $20 $T0 1160 - ^ =  $23 $T0 1164 - ^ = 
STACK WIN 4 2524b 41 0 0 10 c 484 0 1 $T0 $ebp = $eip $T0 4 + ^ = $ebp $T0 ^ = $esp $T0 8 + =  $20 $T0 1160 - ^ =  $23 $T0 1164 - ^ =  $24 $T0 1168 - ^ = 
STACK WIN 4 252c3 545 1e 0 18 0 22c 0 1 $T0 $ebp = $eip $T0 4 + ^ = $ebp $T0 ^ = $esp $T0 8 + = 
STACK WIN 4 252dc 441 5 0 18 4 22c 0 1 $T0 $ebp = $eip $T0 4 + ^ = $ebp $T0 ^ = $esp $T0 8 + =  $20 $T0 560 - ^ = 
STACK WIN 4 252e0 43a 1 0 18 8 22c 0 1 $T0 $ebp = $eip $T0 4 + ^ = $ebp $T0 ^ = $esp $T0 8 + =  $20 $T0 560 - ^ =  $23 $T0 564 - ^ = 
STACK WIN 4 252e1 438 0 0 18 c 22c 0 1 $T0 $ebp = $eip $T0 4 + ^ = $ebp $T0 ^ = $esp $T0 8 + =  $20 $T0 560 - ^ =  $23 $T0 564 - ^ =  $24 $T0 568 - ^ = 
STACK WIN 4 25808 83 7 0 c 0 8 0 1 $T0 $ebp = $eip $T0 4 + ^ = $ebp $T0 ^ = $esp $T0 8 + = 
STACK WIN 4 2588b 28 5 0 14 0 0 0 1 $T0 $ebp = $eip $T0 4 + ^ = $ebp $T0 ^ = $esp $T0 8 + = 
STACK WIN 4 258b3 b1 1b 0 c 0 488 0 1 $T0 $ebp = $eip $T0 4 + ^ = $ebp $T0 ^ = $esp $T0 8 + = 
STACK WIN 4 258c9 8c 5 0 c 4 488 0 1 $T0 $ebp = $eip $T0 4 + ^ = $ebp $T0 ^ = $esp $T0 8 + =  $20 $T0 1164 - ^ = 
STACK WIN 4 258cd 85 1 0 c 8 488 0 1 $T0 $ebp = $eip $T0 4 + ^ = $ebp $T0 ^ = $esp $T0 8 + =  $20 $T0 1164 - ^ =  $23 $T0 1168 - ^ = 
STACK WIN 4 258ce 83 0 0 c c 488 0 1 $T0 $ebp = $eip $T0 4 + ^ = $ebp $T0 ^ = $esp $T0 8 + =  $20 $T0 1164 - ^ =  $23 $T0 1168 - ^ =  $24 $T0 1172 - ^ = 
STACK WIN 4 25964 6 0 0 4 0 0 0 1 $T0 .raSearch = $eip $T0 ^ = $esp $T0 4 + = 
STACK WIN 4 2596a 25 5 0 10 0 0 0 1 $T0 $ebp = $eip $T0 4 + ^ = $ebp $T0 ^ = $esp $T0 8 + = 
STACK WIN 4 2598f 2f 5 0 14 0 0 0 1 $T0 $ebp = $eip $T0 4 + ^ = $ebp $T0 ^ = $esp $T0 8 + = 
STACK WIN 4 259be 48 6 0 c 0 0 0 1 $T0 $ebp = $eip $T0 4 + ^ = $ebp $T0 ^ = $esp $T0 8 + = 
STACK WIN 4 259c4 31 0 0 c 4 0 0 1 $T0 $ebp = $eip $T0 4 + ^ = $ebp $T0 ^ = $esp $T0 8 + =  $23 $T0 4 - ^ = 
STACK WIN 4 25a06 1b 5 0 8 0 0 0 1 $T0 $ebp = $eip $T0 4 + ^ = $ebp $T0 ^ = $esp $T0 8 + = 
STACK WIN 4 25a21 1e 5 0 c 0 0 0 1 $T0 $ebp = $eip $T0 4 + ^ = $ebp $T0 ^ = $esp $T0 8 + = 
STACK WIN 4 25a3f 31 10 0 4 0 0 0 1 $T0 $ebp = $eip $T0 4 + ^ = $ebp $T0 ^ = $esp $T0 8 + = 
STACK WIN 4 25a4f 1d 0 0 4 4 0 0 1 $T0 $ebp = $eip $T0 4 + ^ = $ebp $T0 ^ = $esp $T0 8 + =  $23 $T0 4 - ^ = 
STACK WIN 4 25a70 13b 1a 0 c 4 328 0 1 $T0 $ebp = $eip $T0 4 + ^ = $ebp $T0 ^ = $esp $T0 8 + =  $24 $T0 812 - ^ = 
STACK WIN 4 25bab 14 5 0 4 0 0 0 1 $T0 $ebp = $eip $T0 4 + ^ = $ebp $T0 ^ = $esp $T0 8 + = 
STACK WIN 4 25bbf 7b 11 0 14 0 4 0 1 $T0 $ebp = $eip $T0 4 + ^ = $ebp $T0 ^ = $esp $T0 8 + = 
STACK WIN 4 25bd0 35 0 0 14 4 4 0 1 $T0 $ebp = $eip $T0 4 + ^ = $ebp $T0 ^ = $esp $T0 8 + =  $23 $T0 8 - ^ = 
STACK WIN 4 25c3a 10 0 0 0 0 0 0 1 $T0 .raSearch = $eip $T0 ^ = $esp $T0 4 + = 
STACK WIN 4 25c4a 1d 3 0 0 4 0 0 1 $T0 .raSearch = $eip $T0 ^ = $esp $T0 4 + =  $23 $T0 4 - ^ = 
STACK WIN 4 25c67 33 0 0 14 0 0 0 1 $T0 .raSearch = $eip $T0 ^ = $esp $T0 4 + = 
STACK WIN 4 25c78 21 0 0 14 4 0 0 1 $T0 .raSearch = $eip $T0 ^ = $esp $T0 4 + =  $23 $T0 4 - ^ = 
STACK WIN 4 25c9a 83 8 0 4 0 0 0 1 $T0 $ebp = $eip $T0 4 + ^ = $ebp $T0 ^ = $esp $T0 8 + = 
STACK WIN 4 25ca0 79 2 0 4 4 0 0 1 $T0 $ebp = $eip $T0 4 + ^ = $ebp $T0 ^ = $esp $T0 8 + =  $24 $T0 4 - ^ = 
STACK WIN 4 25cd3 32 0 0 4 8 0 0 1 $T0 $ebp = $eip $T0 4 + ^ = $ebp $T0 ^ = $esp $T0 8 + =  $24 $T0 4 - ^ =  $23 $T0 8 - ^ = 
STACK WIN 4 25d1d 39 8 0 8 0 10 0 1 $T0 $ebp = $eip $T0 4 + ^ = $ebp $T0 ^ = $esp $T0 8 + = 
STACK WIN 4 25d56 16 5 0 4 0 0 0 1 $T0 $ebp = $eip $T0 4 + ^ = $ebp $T0 ^ = $esp $T0 8 + = 
STACK WIN 4 25d6c 13 5 0 4 0 0 0 1 $T0 $ebp = $eip $T0 4 + ^ = $ebp $T0 ^ = $esp $T0 8 + = 
STACK WIN 4 25d7f 13 5 0 4 0 0 0 1 $T0 $ebp = $eip $T0 4 + ^ = $ebp $T0 ^ = $esp $T0 8 + = 
STACK WIN 4 25d92 80 c 0 4 10 20 0 1 $T0 $ebp = $eip $T0 4 + ^ = $ebp $T0 ^ = $esp $T0 8 + =  $20 $T0 36 - ^ =  $23 $T0 40 - ^ =  $24 $T0 44 - ^ = 
STACK WIN 4 25e06 b 0 0 4 10 20 0 1 $T0 $ebp = $T2 $esp = $T1 .raSearchStart = $eip $T1 ^ = $ebp $T0 = $esp $T1 4 + = 
STACK WIN 4 25e12 70 8 0 4 0 4 0 1 $T0 $ebp = $eip $T0 4 + ^ = $ebp $T0 ^ = $esp $T0 8 + = 
STACK WIN 4 25e19 5e 1 0 4 4 4 0 1 $T0 $ebp = $eip $T0 4 + ^ = $ebp $T0 ^ = $esp $T0 8 + =  $23 $T0 8 - ^ = 
STACK WIN 4 25e1a 5c 0 0 4 8 4 0 1 $T0 $ebp = $eip $T0 4 + ^ = $ebp $T0 ^ = $esp $T0 8 + =  $23 $T0 8 - ^ =  $24 $T0 12 - ^ = 
STACK WIN 4 25e82 b 5 0 4 0 0 0 1 $T0 $ebp = $eip $T0 4 + ^ = $ebp $T0 ^ = $esp $T0 8 + = 
STACK WIN 4 25e8d b 5 0 8 0 0 0 1 $T0 $ebp = $eip $T0 4 + ^ = $ebp $T0 ^ = $esp $T0 8 + = 
STACK WIN 4 26048 51 c 0 c 10 1c 0 1 $T0 $ebp = $eip $T0 4 + ^ = $ebp $T0 ^ = $esp $T0 8 + =  $20 $T0 32 - ^ =  $23 $T0 36 - ^ =  $24 $T0 40 - ^ = 
STACK WIN 4 2608a e 0 0 c 10 1c 0 1 $T0 $ebp = $T2 $esp = $T1 .raSearchStart = $eip $T1 ^ = $ebp $T0 = $esp $T1 4 + = 
STACK WIN 4 26099 28 8 0 8 0 c 0 1 $T0 $ebp = $eip $T0 4 + ^ = $ebp $T0 ^ = $esp $T0 8 + = 
STACK WIN 4 260c1 17c 1d 0 1c 0 484 0 1 $T0 $ebp = $eip $T0 4 + ^ = $ebp $T0 ^ = $esp $T0 8 + = 
STACK WIN 4 260de 13a 0 0 1c 4 484 0 1 $T0 $ebp = $eip $T0 4 + ^ = $ebp $T0 ^ = $esp $T0 8 + =  $20 $T0 1160 - ^ = 
STACK WIN 4 2610a 12d 0 0 1c 8 484 0 1 $T0 $ebp = $eip $T0 4 + ^ = $ebp $T0 ^ = $esp $T0 8 + =  $20 $T0 1160 - ^ =  $23 $T0 1164 - ^ = 
STACK WIN 4 2610b 104 0 0 1c c 484 0 1 $T0 $ebp = $eip $T0 4 + ^ = $ebp $T0 ^ = $esp $T0 8 + =  $20 $T0 1160 - ^ =  $23 $T0 1164 - ^ =  $24 $T0 1168 - ^ = 
STACK WIN 4 2623d 185 1d 0 1c 0 484 0 1 $T0 $ebp = $eip $T0 4 + ^ = $ebp $T0 ^ = $esp $T0 8 + = 
STACK WIN 4 2625a 140 0 0 1c 4 484 0 1 $T0 $ebp = $eip $T0 4 + ^ = $ebp $T0 ^ = $esp $T0 8 + =  $20 $T0 1160 - ^ = 
STACK WIN 4 26286 133 0 0 1c 8 484 0 1 $T0 $ebp = $eip $T0 4 + ^ = $ebp $T0 ^ = $esp $T0 8 + =  $20 $T0 1160 - ^ =  $23 $T0 1164 - ^ = 
STACK WIN 4 26287 10a 0 0 1c c 484 0 1 $T0 $ebp = $eip $T0 4 + ^ = $ebp $T0 ^ = $esp $T0 8 + =  $20 $T0 1160 - ^ =  $23 $T0 1164 - ^ =  $24 $T0 1168 - ^ = 
STACK WIN 4 263c2 18 0 0 0 0 0 0 1 $T0 .raSearch = $eip $T0 ^ = $esp $T0 4 + = 
STACK WIN 4 263da 86 17 0 4 0 4 0 1 $T0 $ebp = $eip $T0 4 + ^ = $ebp $T0 ^ = $esp $T0 8 + = 
STACK WIN 4 263e6 74 b 0 4 4 4 0 1 $T0 $ebp = $eip $T0 4 + ^ = $ebp $T0 ^ = $esp $T0 8 + =  $23 $T0 8 - ^ = 
STACK WIN 4 263ec 6d 5 0 4 8 4 0 1 $T0 $ebp = $eip $T0 4 + ^ = $ebp $T0 ^ = $esp $T0 8 + =  $23 $T0 8 - ^ =  $24 $T0 12 - ^ = 
STACK WIN 4 26406 52 0 0 4 c 4 0 1 $T0 $ebp = $eip $T0 4 + ^ = $ebp $T0 ^ = $esp $T0 8 + =  $23 $T0 8 - ^ =  $24 $T0 12 - ^ =  $20 $T0 16 - ^ = 
STACK WIN 4 26460 40 5 0 10 0 0 0 1 $T0 $ebp = $eip $T0 4 + ^ = $ebp $T0 ^ = $esp $T0 8 + = 
STACK WIN 4 264a0 4f 5 0 10 0 0 0 1 $T0 $ebp = $eip $T0 4 + ^ = $ebp $T0 ^ = $esp $T0 8 + = 
STACK WIN 4 264ef 1e 5 0 0 0 0 0 1 $T0 .raSearch = $eip $T0 ^ = $esp $T0 4 + = 
STACK WIN 4 264f2 1a 2 0 0 4 0 0 1 $T0 .raSearch = $eip $T0 ^ = $esp $T0 4 + =  $23 $T0 4 - ^ = 
STACK WIN 4 264f5 16 0 0 0 8 0 0 1 $T0 .raSearch = $eip $T0 ^ = $esp $T0 4 + =  $23 $T0 4 - ^ =  $24 $T0 8 - ^ = 
STACK WIN 4 2650d 75 9 0 c 0 0 0 1 $T0 $ebp = $eip $T0 4 + ^ = $ebp $T0 ^ = $esp $T0 8 + = 
STACK WIN 4 26513 6b 3 0 c 4 0 0 1 $T0 $ebp = $eip $T0 4 + ^ = $ebp $T0 ^ = $esp $T0 8 + =  $20 $T0 4 - ^ = 
STACK WIN 4 26514 69 2 0 c 8 0 0 1 $T0 $ebp = $eip $T0 4 + ^ = $ebp $T0 ^ = $esp $T0 8 + =  $20 $T0 4 - ^ =  $23 $T0 8 - ^ = 
STACK WIN 4 26517 62 0 0 c c 0 0 1 $T0 $ebp = $eip $T0 4 + ^ = $ebp $T0 ^ = $esp $T0 8 + =  $20 $T0 4 - ^ =  $23 $T0 8 - ^ =  $24 $T0 12 - ^ = 
STACK WIN 4 26582 88 b 0 10 0 8 0 1 $T0 $ebp = $eip $T0 4 + ^ = $ebp $T0 ^ = $esp $T0 8 + = 
STACK WIN 4 2658a 7a 3 0 10 4 8 0 1 $T0 $ebp = $eip $T0 4 + ^ = $ebp $T0 ^ = $esp $T0 8 + =  $20 $T0 12 - ^ = 
STACK WIN 4 2658b 78 2 0 10 8 8 0 1 $T0 $ebp = $eip $T0 4 + ^ = $ebp $T0 ^ = $esp $T0 8 + =  $20 $T0 12 - ^ =  $23 $T0 16 - ^ = 
STACK WIN 4 2658e 71 0 0 10 c 8 0 1 $T0 $ebp = $eip $T0 4 + ^ = $ebp $T0 ^ = $esp $T0 8 + =  $20 $T0 12 - ^ =  $23 $T0 16 - ^ =  $24 $T0 20 - ^ = 
STACK WIN 4 2660a 31 6 0 10 0 0 0 1 $T0 $ebp = $eip $T0 4 + ^ = $ebp $T0 ^ = $esp $T0 8 + = 
STACK WIN 4 26610 29 0 0 10 4 0 0 1 $T0 $ebp = $eip $T0 4 + ^ = $ebp $T0 ^ = $esp $T0 8 + =  $23 $T0 4 - ^ = 
STACK WIN 4 26618 20 0 0 10 8 0 0 1 $T0 $ebp = $eip $T0 4 + ^ = $ebp $T0 ^ = $esp $T0 8 + =  $23 $T0 4 - ^ =  $20 $T0 8 - ^ = 
STACK WIN 4 2661e 19 0 0 10 c 0 0 1 $T0 $ebp = $eip $T0 4 + ^ = $ebp $T0 ^ = $esp $T0 8 + =  $23 $T0 4 - ^ =  $20 $T0 8 - ^ =  $24 $T0 12 - ^ = 
STACK WIN 4 2663b 2c 6 0 10 0 0 0 1 $T0 $ebp = $eip $T0 4 + ^ = $ebp $T0 ^ = $esp $T0 8 + = 
STACK WIN 4 26641 24 0 0 10 4 0 0 1 $T0 $ebp = $eip $T0 4 + ^ = $ebp $T0 ^ = $esp $T0 8 + =  $23 $T0 4 - ^ = 
STACK WIN 4 26649 1b 0 0 10 8 0 0 1 $T0 $ebp = $eip $T0 4 + ^ = $ebp $T0 ^ = $esp $T0 8 + =  $23 $T0 4 - ^ =  $24 $T0 8 - ^ = 
STACK WIN 4 26667 31 6 0 10 0 0 0 1 $T0 $ebp = $eip $T0 4 + ^ = $ebp $T0 ^ = $esp $T0 8 + = 
STACK WIN 4 2666d 29 0 0 10 4 0 0 1 $T0 $ebp = $eip $T0 4 + ^ = $ebp $T0 ^ = $esp $T0 8 + =  $23 $T0 4 - ^ = 
STACK WIN 4 26675 20 0 0 10 8 0 0 1 $T0 $ebp = $eip $T0 4 + ^ = $ebp $T0 ^ = $esp $T0 8 + =  $23 $T0 4 - ^ =  $20 $T0 8 - ^ = 
STACK WIN 4 2667b 19 0 0 10 c 0 0 1 $T0 $ebp = $eip $T0 4 + ^ = $ebp $T0 ^ = $esp $T0 8 + =  $23 $T0 4 - ^ =  $20 $T0 8 - ^ =  $24 $T0 12 - ^ = 
STACK WIN 4 26698 47 b 0 0 0 4 0 1 $T0 $ebp = $eip $T0 4 + ^ = $ebp $T0 ^ = $esp $T0 8 + = 
STACK WIN 4 266df 4c b 0 0 0 4 0 1 $T0 $ebp = $eip $T0 4 + ^ = $ebp $T0 ^ = $esp $T0 8 + = 
STACK WIN 4 2672b 3c 8 0 18 0 0 0 1 $T0 $ebp = $eip $T0 4 + ^ = $ebp $T0 ^ = $esp $T0 8 + = 
STACK WIN 4 26731 32 2 0 18 4 0 0 1 $T0 $ebp = $eip $T0 4 + ^ = $ebp $T0 ^ = $esp $T0 8 + =  $23 $T0 4 - ^ = 
STACK WIN 4 26767 3c 8 0 18 0 0 0 1 $T0 $ebp = $eip $T0 4 + ^ = $ebp $T0 ^ = $esp $T0 8 + = 
STACK WIN 4 2676d 32 2 0 18 4 0 0 1 $T0 $ebp = $eip $T0 4 + ^ = $ebp $T0 ^ = $esp $T0 8 + =  $23 $T0 4 - ^ = 
STACK WIN 4 267a3 35 b 0 18 0 0 0 1 $T0 $ebp = $eip $T0 4 + ^ = $ebp $T0 ^ = $esp $T0 8 + = 
STACK WIN 4 267a9 2b 5 0 18 4 0 0 1 $T0 $ebp = $eip $T0 4 + ^ = $ebp $T0 ^ = $esp $T0 8 + =  $23 $T0 4 - ^ = 
STACK WIN 4 267d8 35 b 0 18 0 0 0 1 $T0 $ebp = $eip $T0 4 + ^ = $ebp $T0 ^ = $esp $T0 8 + = 
STACK WIN 4 267de 2b 5 0 18 4 0 0 1 $T0 $ebp = $eip $T0 4 + ^ = $ebp $T0 ^ = $esp $T0 8 + =  $23 $T0 4 - ^ = 
STACK WIN 4 2680d 1a 5 0 0 0 0 0 1 $T0 .raSearch = $eip $T0 ^ = $esp $T0 4 + = 
STACK WIN 4 26810 16 2 0 0 4 0 0 1 $T0 .raSearch = $eip $T0 ^ = $esp $T0 4 + =  $23 $T0 4 - ^ = 
STACK WIN 4 26827 24 8 0 4 0 0 0 1 $T0 $ebp = $eip $T0 4 + ^ = $ebp $T0 ^ = $esp $T0 8 + = 
STACK WIN 4 2682d 1a 2 0 4 4 0 0 1 $T0 $ebp = $eip $T0 4 + ^ = $ebp $T0 ^ = $esp $T0 8 + =  $23 $T0 4 - ^ = 
STACK WIN 4 2684b bd 18 0 0 0 478 0 1 $T0 $ebp = $eip $T0 4 + ^ = $ebp $T0 ^ = $esp $T0 8 + = 
STACK WIN 4 26861 9e 2 0 0 4 478 0 1 $T0 $ebp = $eip $T0 4 + ^ = $ebp $T0 ^ = $esp $T0 8 + =  $23 $T0 1148 - ^ = 
STACK WIN 4 26864 98 0 0 0 8 478 0 1 $T0 $ebp = $eip $T0 4 + ^ = $ebp $T0 ^ = $esp $T0 8 + =  $23 $T0 1148 - ^ =  $24 $T0 1152 - ^ = 
STACK WIN 4 26908 57 c 0 8 0 0 0 1 $T0 $ebp = $eip $T0 4 + ^ = $ebp $T0 ^ = $esp $T0 8 + = 
STACK WIN 4 26914 49 0 0 8 4 0 0 1 $T0 $ebp = $eip $T0 4 + ^ = $ebp $T0 ^ = $esp $T0 8 + =  $20 $T0 4 - ^ = 
STACK WIN 4 2695f 32 5 0 8 0 0 0 1 $T0 $ebp = $eip $T0 4 + ^ = $ebp $T0 ^ = $esp $T0 8 + = 
STACK WIN 4 26991 34 5 0 8 0 0 0 1 $T0 $ebp = $eip $T0 4 + ^ = $ebp $T0 ^ = $esp $T0 8 + = 
STACK WIN 4 269c5 5c 6 0 8 0 0 0 1 $T0 $ebp = $eip $T0 4 + ^ = $ebp $T0 ^ = $esp $T0 8 + = 
STACK WIN 4 269cb 54 0 0 8 4 0 0 1 $T0 $ebp = $eip $T0 4 + ^ = $ebp $T0 ^ = $esp $T0 8 + =  $23 $T0 4 - ^ = 
STACK WIN 4 26a21 5c a 0 4 0 4 0 1 $T0 $ebp = $eip $T0 4 + ^ = $ebp $T0 ^ = $esp $T0 8 + = 
STACK WIN 4 26a28 4f 3 0 4 4 4 0 1 $T0 $ebp = $eip $T0 4 + ^ = $ebp $T0 ^ = $esp $T0 8 + =  $20 $T0 8 - ^ = 
STACK WIN 4 26a29 4d 2 0 4 8 4 0 1 $T0 $ebp = $eip $T0 4 + ^ = $ebp $T0 ^ = $esp $T0 8 + =  $20 $T0 8 - ^ =  $23 $T0 12 - ^ = 
STACK WIN 4 26a2f 46 0 0 4 c 4 0 1 $T0 $ebp = $eip $T0 4 + ^ = $ebp $T0 ^ = $esp $T0 8 + =  $20 $T0 8 - ^ =  $23 $T0 12 - ^ =  $24 $T0 16 - ^ = 
STACK WIN 4 26a7d 5e a 0 4 0 4 0 1 $T0 $ebp = $eip $T0 4 + ^ = $ebp $T0 ^ = $esp $T0 8 + = 
STACK WIN 4 26a84 51 3 0 4 4 4 0 1 $T0 $ebp = $eip $T0 4 + ^ = $ebp $T0 ^ = $esp $T0 8 + =  $20 $T0 8 - ^ = 
STACK WIN 4 26a85 4f 2 0 4 8 4 0 1 $T0 $ebp = $eip $T0 4 + ^ = $ebp $T0 ^ = $esp $T0 8 + =  $20 $T0 8 - ^ =  $23 $T0 12 - ^ = 
STACK WIN 4 26a8b 48 0 0 4 c 4 0 1 $T0 $ebp = $eip $T0 4 + ^ = $ebp $T0 ^ = $esp $T0 8 + =  $20 $T0 8 - ^ =  $23 $T0 12 - ^ =  $24 $T0 16 - ^ = 
STACK WIN 4 26adb 11c 5 0 0 0 0 0 1 $T0 .raSearch = $eip $T0 ^ = $esp $T0 4 + = 
STACK WIN 4 26ade f5 2 0 0 4 0 0 1 $T0 .raSearch = $eip $T0 ^ = $esp $T0 4 + =  $23 $T0 4 - ^ = 
STACK WIN 4 26af5 dd 0 0 0 8 0 0 1 $T0 .raSearch = $eip $T0 ^ = $esp $T0 4 + =  $23 $T0 4 - ^ =  $20 $T0 8 - ^ = 
STACK WIN 4 26bf7 120 5 0 0 0 0 0 1 $T0 .raSearch = $eip $T0 ^ = $esp $T0 4 + = 
STACK WIN 4 26bfa fa 2 0 0 4 0 0 1 $T0 .raSearch = $eip $T0 ^ = $esp $T0 4 + =  $23 $T0 4 - ^ = 
STACK WIN 4 26c11 e2 0 0 0 8 0 0 1 $T0 .raSearch = $eip $T0 ^ = $esp $T0 4 + =  $23 $T0 4 - ^ =  $20 $T0 8 - ^ = 
STACK WIN 4 26d17 120 5 0 0 0 0 0 1 $T0 .raSearch = $eip $T0 ^ = $esp $T0 4 + = 
STACK WIN 4 26d1a fa 2 0 0 4 0 0 1 $T0 .raSearch = $eip $T0 ^ = $esp $T0 4 + =  $23 $T0 4 - ^ = 
STACK WIN 4 26d31 e2 0 0 0 8 0 0 1 $T0 .raSearch = $eip $T0 ^ = $esp $T0 4 + =  $23 $T0 4 - ^ =  $20 $T0 8 - ^ = 
STACK WIN 4 26e37 3d 0 0 0 0 0 0 1 $T0 .raSearch = $eip $T0 ^ = $esp $T0 4 + = 
STACK WIN 4 26e74 3d 0 0 0 0 0 0 1 $T0 .raSearch = $eip $T0 ^ = $esp $T0 4 + = 
STACK WIN 4 26eb1 1f 0 0 0 0 0 0 1 $T0 .raSearch = $eip $T0 ^ = $esp $T0 4 + = 
STACK WIN 4 26ed0 1f 0 0 0 0 0 0 1 $T0 .raSearch = $eip $T0 ^ = $esp $T0 4 + = 
STACK WIN 4 26eef 1f 0 0 0 0 0 0 1 $T0 .raSearch = $eip $T0 ^ = $esp $T0 4 + = 
STACK WIN 4 26f0e 2a 7 0 0 0 0 0 1 $T0 .raSearch = $eip $T0 ^ = $esp $T0 4 + = 
STACK WIN 4 26f11 26 4 0 0 4 0 0 1 $T0 .raSearch = $eip $T0 ^ = $esp $T0 4 + =  $23 $T0 4 - ^ = 
STACK WIN 4 26f38 1b 0 0 0 0 0 0 1 $T0 .raSearch = $eip $T0 ^ = $esp $T0 4 + = 
STACK WIN 4 26f53 1b 0 0 0 0 0 0 1 $T0 .raSearch = $eip $T0 ^ = $esp $T0 4 + = 
STACK WIN 4 26f6e 61 5 0 4 0 0 0 1 $T0 .raSearch = $eip $T0 ^ = $esp $T0 4 + = 
STACK WIN 4 26f71 5b 2 0 4 4 0 0 1 $T0 .raSearch = $eip $T0 ^ = $esp $T0 4 + =  $23 $T0 4 - ^ = 
STACK WIN 4 26f74 57 0 0 4 8 0 0 1 $T0 .raSearch = $eip $T0 ^ = $esp $T0 4 + =  $23 $T0 4 - ^ =  $24 $T0 8 - ^ = 
STACK WIN 4 26fcf 28 0 0 0 0 0 0 1 $T0 .raSearch = $eip $T0 ^ = $esp $T0 4 + = 
STACK WIN 4 26ff7 29 0 0 0 0 0 0 1 $T0 .raSearch = $eip $T0 ^ = $esp $T0 4 + = 
STACK WIN 4 27020 169 0 0 0 0 0 0 1 $T0 .raSearch = $eip $T0 ^ = $esp $T0 4 + = 
STACK WIN 4 27189 17c 0 0 0 0 0 0 1 $T0 .raSearch = $eip $T0 ^ = $esp $T0 4 + = 
STACK WIN 4 27305 17c 0 0 0 0 0 0 1 $T0 .raSearch = $eip $T0 ^ = $esp $T0 4 + = 
STACK WIN 4 27481 22f a 0 0 0 4 0 1 $T0 $ebp = $eip $T0 4 + ^ = $ebp $T0 ^ = $esp $T0 8 + = 
STACK WIN 4 27488 224 3 0 0 4 4 0 1 $T0 $ebp = $eip $T0 4 + ^ = $ebp $T0 ^ = $esp $T0 8 + =  $20 $T0 8 - ^ = 
STACK WIN 4 27489 222 2 0 0 8 4 0 1 $T0 $ebp = $eip $T0 4 + ^ = $ebp $T0 ^ = $esp $T0 8 + =  $20 $T0 8 - ^ =  $23 $T0 12 - ^ = 
STACK WIN 4 27588 122 0 0 0 c 4 0 1 $T0 $ebp = $eip $T0 4 + ^ = $ebp $T0 ^ = $esp $T0 8 + =  $20 $T0 8 - ^ =  $23 $T0 12 - ^ =  $24 $T0 16 - ^ = 
STACK WIN 4 276b0 25d 16 0 0 0 c 0 1 $T0 $ebp = $eip $T0 4 + ^ = $ebp $T0 ^ = $esp $T0 8 + = 
STACK WIN 4 276c3 241 3 0 0 4 c 0 1 $T0 $ebp = $eip $T0 4 + ^ = $ebp $T0 ^ = $esp $T0 8 + =  $20 $T0 16 - ^ = 
STACK WIN 4 276c4 23d 2 0 0 8 c 0 1 $T0 $ebp = $eip $T0 4 + ^ = $ebp $T0 ^ = $esp $T0 8 + =  $20 $T0 16 - ^ =  $23 $T0 20 - ^ = 
STACK WIN 4 277c1 13a 0 0 0 c c 0 1 $T0 $ebp = $eip $T0 4 + ^ = $ebp $T0 ^ = $esp $T0 8 + =  $20 $T0 16 - ^ =  $23 $T0 20 - ^ =  $24 $T0 24 - ^ = 
STACK WIN 4 2790d 25d 16 0 0 0 c 0 1 $T0 $ebp = $eip $T0 4 + ^ = $ebp $T0 ^ = $esp $T0 8 + = 
STACK WIN 4 27920 241 3 0 0 4 c 0 1 $T0 $ebp = $eip $T0 4 + ^ = $ebp $T0 ^ = $esp $T0 8 + =  $20 $T0 16 - ^ = 
STACK WIN 4 27921 23d 2 0 0 8 c 0 1 $T0 $ebp = $eip $T0 4 + ^ = $ebp $T0 ^ = $esp $T0 8 + =  $20 $T0 16 - ^ =  $23 $T0 20 - ^ = 
STACK WIN 4 27a1e 13a 0 0 0 c c 0 1 $T0 $ebp = $eip $T0 4 + ^ = $ebp $T0 ^ = $esp $T0 8 + =  $20 $T0 16 - ^ =  $23 $T0 20 - ^ =  $24 $T0 24 - ^ = 
STACK WIN 4 27b6a 2b 0 0 0 0 0 0 1 $T0 .raSearch = $eip $T0 ^ = $esp $T0 4 + = 
STACK WIN 4 27b95 2c 0 0 0 0 0 0 1 $T0 .raSearch = $eip $T0 ^ = $esp $T0 4 + = 
STACK WIN 4 27bc1 5c 5 0 4 0 0 0 1 $T0 $ebp = $eip $T0 4 + ^ = $ebp $T0 ^ = $esp $T0 8 + = 
STACK WIN 4 27c1d 63 6 0 0 0 0 0 1 $T0 .raSearch = $eip $T0 ^ = $esp $T0 4 + = 
STACK WIN 4 27c20 5f 3 0 0 4 0 0 1 $T0 .raSearch = $eip $T0 ^ = $esp $T0 4 + =  $20 $T0 4 - ^ = 
STACK WIN 4 27c21 5b 2 0 0 8 0 0 1 $T0 .raSearch = $eip $T0 ^ = $esp $T0 4 + =  $20 $T0 4 - ^ =  $23 $T0 8 - ^ = 
STACK WIN 4 27c24 57 0 0 0 c 0 0 1 $T0 .raSearch = $eip $T0 ^ = $esp $T0 4 + =  $20 $T0 4 - ^ =  $23 $T0 8 - ^ =  $24 $T0 12 - ^ = 
STACK WIN 4 27c80 63 6 0 0 0 0 0 1 $T0 .raSearch = $eip $T0 ^ = $esp $T0 4 + = 
STACK WIN 4 27c83 5f 3 0 0 4 0 0 1 $T0 .raSearch = $eip $T0 ^ = $esp $T0 4 + =  $20 $T0 4 - ^ = 
STACK WIN 4 27c84 5b 2 0 0 8 0 0 1 $T0 .raSearch = $eip $T0 ^ = $esp $T0 4 + =  $20 $T0 4 - ^ =  $23 $T0 8 - ^ = 
STACK WIN 4 27c87 57 0 0 0 c 0 0 1 $T0 .raSearch = $eip $T0 ^ = $esp $T0 4 + =  $20 $T0 4 - ^ =  $23 $T0 8 - ^ =  $24 $T0 12 - ^ = 
STACK WIN 4 27ce3 15a a 0 0 0 8 0 1 $T0 $ebp = $eip $T0 4 + ^ = $ebp $T0 ^ = $esp $T0 8 + = 
STACK WIN 4 27ceb 14e 2 0 0 4 8 0 1 $T0 $ebp = $eip $T0 4 + ^ = $ebp $T0 ^ = $esp $T0 8 + =  $23 $T0 12 - ^ = 
STACK WIN 4 27cee 147 0 0 0 8 8 0 1 $T0 $ebp = $eip $T0 4 + ^ = $ebp $T0 ^ = $esp $T0 8 + =  $23 $T0 12 - ^ =  $24 $T0 16 - ^ = 
STACK WIN 4 27d31 93 0 0 0 c 8 0 1 $T0 $ebp = $eip $T0 4 + ^ = $ebp $T0 ^ = $esp $T0 8 + =  $23 $T0 12 - ^ =  $24 $T0 16 - ^ =  $20 $T0 20 - ^ = 
STACK WIN 4 27e3d 172 b 0 0 0 8 0 1 $T0 $ebp = $eip $T0 4 + ^ = $ebp $T0 ^ = $esp $T0 8 + = 
STACK WIN 4 27e45 166 3 0 0 4 8 0 1 $T0 $ebp = $eip $T0 4 + ^ = $ebp $T0 ^ = $esp $T0 8 + =  $23 $T0 12 - ^ = 
STACK WIN 4 27e46 161 2 0 0 8 8 0 1 $T0 $ebp = $eip $T0 4 + ^ = $ebp $T0 ^ = $esp $T0 8 + =  $23 $T0 12 - ^ =  $24 $T0 16 - ^ = 
STACK WIN 4 27e97 93 0 0 0 c 8 0 1 $T0 $ebp = $eip $T0 4 + ^ = $ebp $T0 ^ = $esp $T0 8 + =  $23 $T0 12 - ^ =  $24 $T0 16 - ^ =  $20 $T0 20 - ^ = 
STACK WIN 4 27faf 90 5 0 4 0 0 0 1 $T0 .raSearch = $eip $T0 ^ = $esp $T0 4 + = 
STACK WIN 4 27fb2 8a 2 0 4 4 0 0 1 $T0 .raSearch = $eip $T0 ^ = $esp $T0 4 + =  $23 $T0 4 - ^ = 
STACK WIN 4 27fb5 86 0 0 4 8 0 0 1 $T0 .raSearch = $eip $T0 ^ = $esp $T0 4 + =  $23 $T0 4 - ^ =  $24 $T0 8 - ^ = 
STACK WIN 4 27fd9 27 0 0 4 c 0 0 1 $T0 .raSearch = $eip $T0 ^ = $esp $T0 4 + =  $23 $T0 4 - ^ =  $24 $T0 8 - ^ =  $20 $T0 28 - ^ = 
STACK WIN 4 2803f 98 a 0 4 0 4 0 1 $T0 $ebp = $eip $T0 4 + ^ = $ebp $T0 ^ = $esp $T0 8 + = 
STACK WIN 4 28046 8b 3 0 4 4 4 0 1 $T0 $ebp = $eip $T0 4 + ^ = $ebp $T0 ^ = $esp $T0 8 + =  $20 $T0 8 - ^ = 
STACK WIN 4 28047 89 2 0 4 8 4 0 1 $T0 $ebp = $eip $T0 4 + ^ = $ebp $T0 ^ = $esp $T0 8 + =  $20 $T0 8 - ^ =  $23 $T0 12 - ^ = 
STACK WIN 4 2804a 7e 0 0 4 c 4 0 1 $T0 $ebp = $eip $T0 4 + ^ = $ebp $T0 ^ = $esp $T0 8 + =  $20 $T0 8 - ^ =  $23 $T0 12 - ^ =  $24 $T0 16 - ^ = 
STACK WIN 4 280d7 14a 9 0 8 0 0 0 1 $T0 $ebp = $eip $T0 4 + ^ = $ebp $T0 ^ = $esp $T0 8 + = 
STACK WIN 4 280dd 140 3 0 8 4 0 0 1 $T0 $ebp = $eip $T0 4 + ^ = $ebp $T0 ^ = $esp $T0 8 + =  $20 $T0 4 - ^ = 
STACK WIN 4 280de 13e 2 0 8 8 0 0 1 $T0 $ebp = $eip $T0 4 + ^ = $ebp $T0 ^ = $esp $T0 8 + =  $20 $T0 4 - ^ =  $23 $T0 8 - ^ = 
STACK WIN 4 28189 28 0 0 8 c 0 0 1 $T0 $ebp = $eip $T0 4 + ^ = $ebp $T0 ^ = $esp $T0 8 + =  $20 $T0 4 - ^ =  $23 $T0 8 - ^ =  $24 $T0 12 - ^ = 
STACK WIN 4 28221 74 5 0 0 0 0 0 1 $T0 .raSearch = $eip $T0 ^ = $esp $T0 4 + = 
STACK WIN 4 28224 70 2 0 0 4 0 0 1 $T0 .raSearch = $eip $T0 ^ = $esp $T0 4 + =  $23 $T0 4 - ^ = 
STACK WIN 4 28227 6c 0 0 0 8 0 0 1 $T0 .raSearch = $eip $T0 ^ = $esp $T0 4 + =  $23 $T0 4 - ^ =  $24 $T0 8 - ^ = 
STACK WIN 4 28295 1f 0 0 0 0 0 0 1 $T0 .raSearch = $eip $T0 ^ = $esp $T0 4 + = 
STACK WIN 4 282b4 18 0 0 0 0 0 0 1 $T0 .raSearch = $eip $T0 ^ = $esp $T0 4 + = 
STACK WIN 4 282cc 73 6 0 0 0 0 0 1 $T0 .raSearch = $eip $T0 ^ = $esp $T0 4 + = 
STACK WIN 4 282cf 6f 3 0 0 4 0 0 1 $T0 .raSearch = $eip $T0 ^ = $esp $T0 4 + =  $20 $T0 4 - ^ = 
STACK WIN 4 282d0 6d 2 0 0 8 0 0 1 $T0 .raSearch = $eip $T0 ^ = $esp $T0 4 + =  $20 $T0 4 - ^ =  $23 $T0 8 - ^ = 
STACK WIN 4 282d3 64 0 0 0 c 0 0 1 $T0 .raSearch = $eip $T0 ^ = $esp $T0 4 + =  $20 $T0 4 - ^ =  $23 $T0 8 - ^ =  $24 $T0 12 - ^ = 
STACK WIN 4 2833f 74 6 0 0 0 0 0 1 $T0 .raSearch = $eip $T0 ^ = $esp $T0 4 + = 
STACK WIN 4 28342 70 3 0 0 4 0 0 1 $T0 .raSearch = $eip $T0 ^ = $esp $T0 4 + =  $20 $T0 4 - ^ = 
STACK WIN 4 28343 6e 2 0 0 8 0 0 1 $T0 .raSearch = $eip $T0 ^ = $esp $T0 4 + =  $20 $T0 4 - ^ =  $23 $T0 8 - ^ = 
STACK WIN 4 28346 65 0 0 0 c 0 0 1 $T0 .raSearch = $eip $T0 ^ = $esp $T0 4 + =  $20 $T0 4 - ^ =  $23 $T0 8 - ^ =  $24 $T0 12 - ^ = 
STACK WIN 4 283b3 40 9 0 8 0 0 0 1 $T0 $ebp = $eip $T0 4 + ^ = $ebp $T0 ^ = $esp $T0 8 + = 
STACK WIN 4 283b9 36 3 0 8 4 0 0 1 $T0 $ebp = $eip $T0 4 + ^ = $ebp $T0 ^ = $esp $T0 8 + =  $23 $T0 4 - ^ = 
STACK WIN 4 283ba 32 2 0 8 8 0 0 1 $T0 $ebp = $eip $T0 4 + ^ = $ebp $T0 ^ = $esp $T0 8 + =  $23 $T0 4 - ^ =  $24 $T0 8 - ^ = 
STACK WIN 4 283c7 24 0 0 8 c 0 0 1 $T0 $ebp = $eip $T0 4 + ^ = $ebp $T0 ^ = $esp $T0 8 + =  $23 $T0 4 - ^ =  $24 $T0 8 - ^ =  $20 $T0 12 - ^ = 
STACK WIN 4 283f3 1b 0 0 0 0 0 0 1 $T0 .raSearch = $eip $T0 ^ = $esp $T0 4 + = 
STACK WIN 4 2840e 40 5 0 8 0 0 0 1 $T0 $ebp = $eip $T0 4 + ^ = $ebp $T0 ^ = $esp $T0 8 + = 
STACK WIN 4 2844e 42 7 0 8 0 0 0 1 $T0 $ebp = $eip $T0 4 + ^ = $ebp $T0 ^ = $esp $T0 8 + = 
STACK WIN 4 28490 45 7 0 8 0 0 0 1 $T0 $ebp = $eip $T0 4 + ^ = $ebp $T0 ^ = $esp $T0 8 + = 
STACK WIN 4 284d5 a7 16 0 4 0 10 0 1 $T0 $ebp = $eip $T0 4 + ^ = $ebp $T0 ^ = $esp $T0 8 + = 
STACK WIN 4 284e8 89 3 0 4 4 10 0 1 $T0 $ebp = $eip $T0 4 + ^ = $ebp $T0 ^ = $esp $T0 8 + =  $20 $T0 20 - ^ = 
STACK WIN 4 284e9 85 2 0 4 8 10 0 1 $T0 $ebp = $eip $T0 4 + ^ = $ebp $T0 ^ = $esp $T0 8 + =  $20 $T0 20 - ^ =  $23 $T0 24 - ^ = 
STACK WIN 4 284ec 81 0 0 4 c 10 0 1 $T0 $ebp = $eip $T0 4 + ^ = $ebp $T0 ^ = $esp $T0 8 + =  $20 $T0 20 - ^ =  $23 $T0 24 - ^ =  $24 $T0 28 - ^ = 
STACK WIN 4 2857c 8b b 0 4 0 8 0 1 $T0 $ebp = $eip $T0 4 + ^ = $ebp $T0 ^ = $esp $T0 8 + = 
STACK WIN 4 28584 7d 3 0 4 4 8 0 1 $T0 $ebp = $eip $T0 4 + ^ = $ebp $T0 ^ = $esp $T0 8 + =  $20 $T0 12 - ^ = 
STACK WIN 4 28585 79 2 0 4 8 8 0 1 $T0 $ebp = $eip $T0 4 + ^ = $ebp $T0 ^ = $esp $T0 8 + =  $20 $T0 12 - ^ =  $23 $T0 16 - ^ = 
STACK WIN 4 28588 75 0 0 4 c 8 0 1 $T0 $ebp = $eip $T0 4 + ^ = $ebp $T0 ^ = $esp $T0 8 + =  $20 $T0 12 - ^ =  $23 $T0 16 - ^ =  $24 $T0 20 - ^ = 
STACK WIN 4 28607 8b b 0 4 0 8 0 1 $T0 $ebp = $eip $T0 4 + ^ = $ebp $T0 ^ = $esp $T0 8 + = 
STACK WIN 4 2860f 7d 3 0 4 4 8 0 1 $T0 $ebp = $eip $T0 4 + ^ = $ebp $T0 ^ = $esp $T0 8 + =  $20 $T0 12 - ^ = 
STACK WIN 4 28610 79 2 0 4 8 8 0 1 $T0 $ebp = $eip $T0 4 + ^ = $ebp $T0 ^ = $esp $T0 8 + =  $20 $T0 12 - ^ =  $23 $T0 16 - ^ = 
STACK WIN 4 28613 75 0 0 4 c 8 0 1 $T0 $ebp = $eip $T0 4 + ^ = $ebp $T0 ^ = $esp $T0 8 + =  $20 $T0 12 - ^ =  $23 $T0 16 - ^ =  $24 $T0 20 - ^ = 
STACK WIN 4 28692 8d a 0 10 0 8 0 1 $T0 $ebp = $eip $T0 4 + ^ = $ebp $T0 ^ = $esp $T0 8 + = 
STACK WIN 4 2869a 7f 2 0 10 4 8 0 1 $T0 $ebp = $eip $T0 4 + ^ = $ebp $T0 ^ = $esp $T0 8 + =  $20 $T0 12 - ^ = 
STACK WIN 4 286be 5a 0 0 10 8 8 0 1 $T0 $ebp = $eip $T0 4 + ^ = $ebp $T0 ^ = $esp $T0 8 + =  $20 $T0 12 - ^ =  $23 $T0 16 - ^ = 
STACK WIN 4 286c2 55 0 0 10 c 8 0 1 $T0 $ebp = $eip $T0 4 + ^ = $ebp $T0 ^ = $esp $T0 8 + =  $20 $T0 12 - ^ =  $23 $T0 16 - ^ =  $24 $T0 20 - ^ = 
STACK WIN 4 2871f 93 11 0 10 0 8 0 1 $T0 $ebp = $eip $T0 4 + ^ = $ebp $T0 ^ = $esp $T0 8 + = 
STACK WIN 4 28727 85 9 0 10 4 8 0 1 $T0 $ebp = $eip $T0 4 + ^ = $ebp $T0 ^ = $esp $T0 8 + =  $23 $T0 12 - ^ = 
STACK WIN 4 28728 83 8 0 10 8 8 0 1 $T0 $ebp = $eip $T0 4 + ^ = $ebp $T0 ^ = $esp $T0 8 + =  $23 $T0 12 - ^ =  $24 $T0 16 - ^ = 
STACK WIN 4 2875e 3e 0 0 10 c 8 0 1 $T0 $ebp = $eip $T0 4 + ^ = $ebp $T0 ^ = $esp $T0 8 + =  $23 $T0 12 - ^ =  $24 $T0 16 - ^ =  $20 $T0 20 - ^ = 
STACK WIN 4 287b2 9a 11 0 10 0 8 0 1 $T0 $ebp = $eip $T0 4 + ^ = $ebp $T0 ^ = $esp $T0 8 + = 
STACK WIN 4 287ba 8c 9 0 10 4 8 0 1 $T0 $ebp = $eip $T0 4 + ^ = $ebp $T0 ^ = $esp $T0 8 + =  $20 $T0 12 - ^ = 
STACK WIN 4 287c0 85 3 0 10 8 8 0 1 $T0 $ebp = $eip $T0 4 + ^ = $ebp $T0 ^ = $esp $T0 8 + =  $20 $T0 12 - ^ =  $24 $T0 16 - ^ = 
STACK WIN 4 287fa 1b 0 0 10 c 8 0 1 $T0 $ebp = $eip $T0 4 + ^ = $ebp $T0 ^ = $esp $T0 8 + =  $20 $T0 12 - ^ =  $24 $T0 16 - ^ =  $23 $T0 20 - ^ = 
STACK WIN 4 2884c 77 8 0 18 0 2c 0 1 $T0 $ebp = $eip $T0 4 + ^ = $ebp $T0 ^ = $esp $T0 8 + = 
STACK WIN 4 288c3 24 5 0 1c 0 0 0 1 $T0 $ebp = $eip $T0 4 + ^ = $ebp $T0 ^ = $esp $T0 8 + = 
STACK WIN 4 288e7 24 5 0 1c 0 0 0 1 $T0 $ebp = $eip $T0 4 + ^ = $ebp $T0 ^ = $esp $T0 8 + = 
STACK WIN 4 2890b 5 0 0 4 0 0 0 1 $T0 $ebp = $eip $T0 4 + ^ = $ebp $T0 ^ = $esp $T0 8 + = 
STACK WIN 4 28910 b 5 0 4 0 0 0 1 $T0 $ebp = $eip $T0 4 + ^ = $ebp $T0 ^ = $esp $T0 8 + = 
STACK WIN 4 2891b c8 6 0 0 0 0 0 1 $T0 .raSearch = $eip $T0 ^ = $esp $T0 4 + = 
STACK WIN 4 28921 c1 0 0 0 4 0 0 1 $T0 .raSearch = $eip $T0 ^ = $esp $T0 4 + =  $23 $T0 4 - ^ = 
STACK WIN 4 28986 59 0 0 0 8 0 0 1 $T0 .raSearch = $eip $T0 ^ = $esp $T0 4 + =  $23 $T0 4 - ^ =  $24 $T0 8 - ^ = 
STACK WIN 4 289e3 10 5 0 4 0 0 0 1 $T0 $ebp = $eip $T0 4 + ^ = $ebp $T0 ^ = $esp $T0 8 + = 
STACK WIN 4 289f3 4c 3 0 0 0 0 0 1 $T0 .raSearch = $eip $T0 ^ = $esp $T0 4 + = 
STACK WIN 4 289f6 48 0 0 0 4 0 0 1 $T0 .raSearch = $eip $T0 ^ = $esp $T0 4 + =  $23 $T0 4 - ^ = 
STACK WIN 4 28a3f 14 5 0 4 0 0 0 1 $T0 $ebp = $eip $T0 4 + ^ = $ebp $T0 ^ = $esp $T0 8 + = 
STACK WIN 4 28a53 14 5 0 4 0 0 0 1 $T0 $ebp = $eip $T0 4 + ^ = $ebp $T0 ^ = $esp $T0 8 + = 
STACK WIN 4 28a67 33 5 0 8 0 0 0 1 $T0 $ebp = $eip $T0 4 + ^ = $ebp $T0 ^ = $esp $T0 8 + = 
STACK WIN 4 28a9a 228 d 0 14 0 28 0 1 $T0 $ebp = $eip $T0 4 + ^ = $ebp $T0 ^ = $esp $T0 8 + = 
STACK WIN 4 28aa6 3d 1 0 14 4 28 0 1 $T0 $ebp = $eip $T0 4 + ^ = $ebp $T0 ^ = $esp $T0 8 + =  $20 $T0 44 - ^ = 
STACK WIN 4 28aa7 11f 0 0 14 8 28 0 1 $T0 $ebp = $eip $T0 4 + ^ = $ebp $T0 ^ = $esp $T0 8 + =  $20 $T0 44 - ^ =  $24 $T0 48 - ^ = 
STACK WIN 4 28ae8 1c5 0 0 14 c 28 0 1 $T0 $ebp = $eip $T0 4 + ^ = $ebp $T0 ^ = $esp $T0 8 + =  $20 $T0 44 - ^ =  $24 $T0 48 - ^ =  $23 $T0 52 - ^ = 
STACK WIN 4 28cc2 6e5 d 0 14 0 1c 0 1 $T0 $ebp = $eip $T0 4 + ^ = $ebp $T0 ^ = $esp $T0 8 + = 
STACK WIN 4 28cce 3f 1 0 14 4 1c 0 1 $T0 $ebp = $eip $T0 4 + ^ = $ebp $T0 ^ = $esp $T0 8 + =  $20 $T0 32 - ^ = 
STACK WIN 4 28ccf 3b 0 0 14 8 1c 0 1 $T0 $ebp = $eip $T0 4 + ^ = $ebp $T0 ^ = $esp $T0 8 + =  $20 $T0 32 - ^ =  $24 $T0 36 - ^ = 
STACK WIN 4 28d12 680 0 0 14 c 1c 0 1 $T0 $ebp = $eip $T0 4 + ^ = $ebp $T0 ^ = $esp $T0 8 + =  $20 $T0 32 - ^ =  $24 $T0 36 - ^ =  $23 $T0 40 - ^ = 
STACK WIN 4 293a7 28 5 0 4 0 0 0 1 $T0 $ebp = $eip $T0 4 + ^ = $ebp $T0 ^ = $esp $T0 8 + = 
STACK WIN 4 293cf 2c 5 0 4 0 0 0 1 $T0 $ebp = $eip $T0 4 + ^ = $ebp $T0 ^ = $esp $T0 8 + = 
STACK WIN 4 293fb 2a 5 0 c 0 0 0 1 $T0 $ebp = $eip $T0 4 + ^ = $ebp $T0 ^ = $esp $T0 8 + = 
STACK WIN 4 29425 33 5 0 c 0 0 0 1 $T0 $ebp = $eip $T0 4 + ^ = $ebp $T0 ^ = $esp $T0 8 + = 
STACK WIN 4 29458 2a 6 0 4 0 4 0 1 $T0 $ebp = $eip $T0 4 + ^ = $ebp $T0 ^ = $esp $T0 8 + = 
STACK WIN 4 29482 3b 8 0 8 0 10 0 1 $T0 $ebp = $eip $T0 4 + ^ = $ebp $T0 ^ = $esp $T0 8 + = 
STACK WIN 4 294bd 38 8 0 8 0 10 0 1 $T0 $ebp = $eip $T0 4 + ^ = $ebp $T0 ^ = $esp $T0 8 + = 
STACK WIN 4 294f5 38 8 0 8 0 10 0 1 $T0 $ebp = $eip $T0 4 + ^ = $ebp $T0 ^ = $esp $T0 8 + = 
STACK WIN 4 2952d 2f 5 0 4 0 0 0 1 $T0 $ebp = $eip $T0 4 + ^ = $ebp $T0 ^ = $esp $T0 8 + = 
STACK WIN 4 2955c 2d 5 0 4 0 0 0 1 $T0 $ebp = $eip $T0 4 + ^ = $ebp $T0 ^ = $esp $T0 8 + = 
STACK WIN 4 29589 2d 5 0 4 0 0 0 1 $T0 $ebp = $eip $T0 4 + ^ = $ebp $T0 ^ = $esp $T0 8 + = 
STACK WIN 4 295b6 b 5 0 8 0 0 0 1 $T0 $ebp = $eip $T0 4 + ^ = $ebp $T0 ^ = $esp $T0 8 + = 
STACK WIN 4 295c1 61 10 0 8 0 8 0 1 $T0 $ebp = $eip $T0 4 + ^ = $ebp $T0 ^ = $esp $T0 8 + = 
STACK WIN 4 295c9 55 8 0 8 4 8 0 1 $T0 $ebp = $eip $T0 4 + ^ = $ebp $T0 ^ = $esp $T0 8 + =  $20 $T0 12 - ^ = 
STACK WIN 4 295ca 53 7 0 8 8 8 0 1 $T0 $ebp = $eip $T0 4 + ^ = $ebp $T0 ^ = $esp $T0 8 + =  $20 $T0 12 - ^ =  $23 $T0 16 - ^ = 
STACK WIN 4 295d1 4b 0 0 8 c 8 0 1 $T0 $ebp = $eip $T0 4 + ^ = $ebp $T0 ^ = $esp $T0 8 + =  $20 $T0 12 - ^ =  $23 $T0 16 - ^ =  $24 $T0 20 - ^ = 
STACK WIN 4 29622 66 8 0 0 0 10 0 1 $T0 $ebp = $eip $T0 4 + ^ = $ebp $T0 ^ = $esp $T0 8 + = 
STACK WIN 4 29688 62 14 0 0 0 8 0 1 $T0 $ebp = $eip $T0 4 + ^ = $ebp $T0 ^ = $esp $T0 8 + = 
STACK WIN 4 2969c 4a 0 0 0 4 8 0 1 $T0 $ebp = $eip $T0 4 + ^ = $ebp $T0 ^ = $esp $T0 8 + =  $23 $T0 12 - ^ = 
STACK WIN 4 296ea 14 5 0 4 0 0 0 1 $T0 $ebp = $eip $T0 4 + ^ = $ebp $T0 ^ = $esp $T0 8 + = 
STACK WIN 4 296fe 44 11 0 4 0 4 0 1 $T0 $ebp = $eip $T0 4 + ^ = $ebp $T0 ^ = $esp $T0 8 + = 
STACK WIN 4 2970f 2a 0 0 4 4 4 0 1 $T0 $ebp = $eip $T0 4 + ^ = $ebp $T0 ^ = $esp $T0 8 + =  $23 $T0 8 - ^ = 
STACK WIN 4 29742 52 c 0 0 10 1c 0 1 $T0 $ebp = $eip $T0 4 + ^ = $ebp $T0 ^ = $esp $T0 8 + =  $20 $T0 32 - ^ =  $23 $T0 36 - ^ =  $24 $T0 40 - ^ = 
STACK WIN 4 29788 b 0 0 0 10 1c 0 1 $T0 $ebp = $T2 $esp = $T1 .raSearchStart = $eip $T1 ^ = $ebp $T0 = $esp $T1 4 + = 
STACK WIN 4 29794 5c 1f 0 8 0 8 0 1 $T0 $ebp = $eip $T0 4 + ^ = $ebp $T0 ^ = $esp $T0 8 + = 
STACK WIN 4 297a9 3e a 0 8 4 8 0 1 $T0 $ebp = $eip $T0 4 + ^ = $ebp $T0 ^ = $esp $T0 8 + =  $20 $T0 12 - ^ = 
STACK WIN 4 297aa 3a 9 0 8 8 8 0 1 $T0 $ebp = $eip $T0 4 + ^ = $ebp $T0 ^ = $esp $T0 8 + =  $20 $T0 12 - ^ =  $23 $T0 16 - ^ = 
STACK WIN 4 297b3 30 0 0 8 c 8 0 1 $T0 $ebp = $eip $T0 4 + ^ = $ebp $T0 ^ = $esp $T0 8 + =  $20 $T0 12 - ^ =  $23 $T0 16 - ^ =  $24 $T0 20 - ^ = 
STACK WIN 4 297f0 45 15 0 8 0 4 0 1 $T0 $ebp = $eip $T0 4 + ^ = $ebp $T0 ^ = $esp $T0 8 + = 
STACK WIN 4 29801 2b 4 0 8 4 4 0 1 $T0 $ebp = $eip $T0 4 + ^ = $ebp $T0 ^ = $esp $T0 8 + =  $23 $T0 8 - ^ = 
STACK WIN 4 29805 24 0 0 8 8 4 0 1 $T0 $ebp = $eip $T0 4 + ^ = $ebp $T0 ^ = $esp $T0 8 + =  $23 $T0 8 - ^ =  $24 $T0 12 - ^ = 
STACK WIN 4 29835 20 5 0 8 0 0 0 1 $T0 $ebp = $eip $T0 4 + ^ = $ebp $T0 ^ = $esp $T0 8 + = 
STACK WIN 4 29855 173 12 0 8 0 8 0 1 $T0 $ebp = $eip $T0 4 + ^ = $ebp $T0 ^ = $esp $T0 8 + = 
STACK WIN 4 29867 158 0 0 8 4 8 0 1 $T0 $ebp = $eip $T0 4 + ^ = $ebp $T0 ^ = $esp $T0 8 + =  $23 $T0 12 - ^ = 
STACK WIN 4 2987b 13e 0 0 8 8 8 0 1 $T0 $ebp = $eip $T0 4 + ^ = $ebp $T0 ^ = $esp $T0 8 + =  $23 $T0 12 - ^ =  $20 $T0 16 - ^ = 
STACK WIN 4 2987e 13a 0 0 8 c 8 0 1 $T0 $ebp = $eip $T0 4 + ^ = $ebp $T0 ^ = $esp $T0 8 + =  $23 $T0 12 - ^ =  $20 $T0 16 - ^ =  $24 $T0 20 - ^ = 
STACK WIN 4 299c8 13 5 0 4 0 0 0 1 $T0 $ebp = $eip $T0 4 + ^ = $ebp $T0 ^ = $esp $T0 8 + = 
STACK WIN 4 299db 119 c 0 c 10 1c 0 1 $T0 $ebp = $eip $T0 4 + ^ = $ebp $T0 ^ = $esp $T0 8 + =  $20 $T0 32 - ^ =  $23 $T0 36 - ^ =  $24 $T0 40 - ^ = 
STACK WIN 4 29aca 10 0 0 c 10 1c 0 1 $T0 $ebp = $T2 $esp = $T1 .raSearchStart = $eip $T1 ^ = $ebp $T0 = $esp $T1 4 + = 
STACK WIN 4 29ae2 b 0 0 c 10 1c 0 1 $T0 $ebp = $T2 $esp = $T1 .raSearchStart = $eip $T1 ^ = $ebp $T0 = $esp $T1 4 + = 
STACK WIN 4 29af4 41 5 0 4 0 0 0 1 $T0 $ebp = $eip $T0 4 + ^ = $ebp $T0 ^ = $esp $T0 8 + = 
STACK WIN 4 29b35 44 0 0 0 0 0 0 1 $T0 .raSearch = $eip $T0 ^ = $esp $T0 4 + = 
STACK WIN 4 29b79 6a 11 0 4 0 8 0 1 $T0 $ebp = $eip $T0 4 + ^ = $ebp $T0 ^ = $esp $T0 8 + = 
STACK WIN 4 29ba4 22 0 0 4 4 8 0 1 $T0 $ebp = $eip $T0 4 + ^ = $ebp $T0 ^ = $esp $T0 8 + =  $23 $T0 12 - ^ = 
STACK WIN 4 29be3 f 5 0 4 0 0 0 1 $T0 $ebp = $eip $T0 4 + ^ = $ebp $T0 ^ = $esp $T0 8 + = 
STACK WIN 4 29bf2 f 0 0 0 0 0 0 1 $T0 .raSearch = $eip $T0 ^ = $esp $T0 4 + = 
STACK WIN 4 29c01 16 5 0 4 0 0 0 1 $T0 $ebp = $eip $T0 4 + ^ = $ebp $T0 ^ = $esp $T0 8 + = 
STACK WIN 4 29c17 6 0 0 0 0 0 0 1 $T0 .raSearch = $eip $T0 ^ = $esp $T0 4 + = 
STACK WIN 4 29c1d 124 d 0 4 0 c 0 1 $T0 $ebp = $eip $T0 4 + ^ = $ebp $T0 ^ = $esp $T0 8 + = 
STACK WIN 4 29c2a 113 0 0 4 4 c 0 1 $T0 $ebp = $eip $T0 4 + ^ = $ebp $T0 ^ = $esp $T0 8 + =  $23 $T0 16 - ^ = 
STACK WIN 4 29c49 f3 0 0 4 8 c 0 1 $T0 $ebp = $eip $T0 4 + ^ = $ebp $T0 ^ = $esp $T0 8 + =  $23 $T0 16 - ^ =  $20 $T0 20 - ^ = 
STACK WIN 4 29c4a ef 0 0 4 c c 0 1 $T0 $ebp = $eip $T0 4 + ^ = $ebp $T0 ^ = $esp $T0 8 + =  $23 $T0 16 - ^ =  $20 $T0 20 - ^ =  $24 $T0 24 - ^ = 
STACK WIN 4 29d41 175 12 0 14 0 4 0 1 $T0 $ebp = $eip $T0 4 + ^ = $ebp $T0 ^ = $esp $T0 8 + = 
STACK WIN 4 29d4b 15b 8 0 14 4 4 0 1 $T0 $ebp = $eip $T0 4 + ^ = $ebp $T0 ^ = $esp $T0 8 + =  $20 $T0 8 - ^ = 
STACK WIN 4 29d4f 156 4 0 14 8 4 0 1 $T0 $ebp = $eip $T0 4 + ^ = $ebp $T0 ^ = $esp $T0 8 + =  $20 $T0 8 - ^ =  $23 $T0 12 - ^ = 
STACK WIN 4 29d53 151 0 0 14 c 4 0 1 $T0 $ebp = $eip $T0 4 + ^ = $ebp $T0 ^ = $esp $T0 8 + =  $20 $T0 8 - ^ =  $23 $T0 12 - ^ =  $24 $T0 16 - ^ = 
STACK WIN 4 29eb6 55 6 0 c 0 0 0 1 $T0 $ebp = $eip $T0 4 + ^ = $ebp $T0 ^ = $esp $T0 8 + = 
STACK WIN 4 29ebc 4d 0 0 c 4 0 0 1 $T0 $ebp = $eip $T0 4 + ^ = $ebp $T0 ^ = $esp $T0 8 + =  $23 $T0 4 - ^ = 
STACK WIN 4 29ecc 3c 0 0 c 8 0 0 1 $T0 $ebp = $eip $T0 4 + ^ = $ebp $T0 ^ = $esp $T0 8 + =  $23 $T0 4 - ^ =  $24 $T0 8 - ^ = 
STACK WIN 4 29f0b b 5 0 4 0 0 0 1 $T0 $ebp = $eip $T0 4 + ^ = $ebp $T0 ^ = $esp $T0 8 + = 
STACK WIN 4 29f16 2f 0 0 0 0 0 0 1 $T0 .raSearch = $eip $T0 ^ = $esp $T0 4 + = 
STACK WIN 4 29f45 59 0 0 0 0 0 0 1 $T0 .raSearch = $eip $T0 ^ = $esp $T0 4 + = 
STACK WIN 4 29f52 4b 0 0 0 4 0 0 1 $T0 .raSearch = $eip $T0 ^ = $esp $T0 4 + =  $23 $T0 4 - ^ = 
STACK WIN 4 29f53 49 0 0 0 8 0 0 1 $T0 .raSearch = $eip $T0 ^ = $esp $T0 4 + =  $23 $T0 4 - ^ =  $24 $T0 8 - ^ = 
STACK WIN 4 29f9e d1 a 0 4 0 8 0 1 $T0 $ebp = $eip $T0 4 + ^ = $ebp $T0 ^ = $esp $T0 8 + = 
STACK WIN 4 29fa6 b8 2 0 4 4 8 0 1 $T0 $ebp = $eip $T0 4 + ^ = $ebp $T0 ^ = $esp $T0 8 + =  $20 $T0 12 - ^ = 
STACK WIN 4 29fa7 b4 1 0 4 8 8 0 1 $T0 $ebp = $eip $T0 4 + ^ = $ebp $T0 ^ = $esp $T0 8 + =  $20 $T0 12 - ^ =  $23 $T0 16 - ^ = 
STACK WIN 4 29fa8 b2 0 0 4 c 8 0 1 $T0 $ebp = $eip $T0 4 + ^ = $ebp $T0 ^ = $esp $T0 8 + =  $20 $T0 12 - ^ =  $23 $T0 16 - ^ =  $24 $T0 20 - ^ = 
STACK WIN 4 2a06f 2f 6 0 4 0 0 0 1 $T0 $ebp = $eip $T0 4 + ^ = $ebp $T0 ^ = $esp $T0 8 + = 
STACK WIN 4 2a075 27 0 0 4 4 0 0 1 $T0 $ebp = $eip $T0 4 + ^ = $ebp $T0 ^ = $esp $T0 8 + =  $23 $T0 4 - ^ = 
STACK WIN 4 2a07f 1c 0 0 4 8 0 0 1 $T0 $ebp = $eip $T0 4 + ^ = $ebp $T0 ^ = $esp $T0 8 + =  $23 $T0 4 - ^ =  $24 $T0 8 - ^ = 
STACK WIN 4 2a09e 7f 3 0 0 0 0 0 1 $T0 .raSearch = $eip $T0 ^ = $esp $T0 4 + = 
STACK WIN 4 2a0a1 6f 0 0 0 4 0 0 1 $T0 .raSearch = $eip $T0 ^ = $esp $T0 4 + =  $24 $T0 4 - ^ = 
STACK WIN 4 2a0b1 5e 0 0 0 8 0 0 1 $T0 .raSearch = $eip $T0 ^ = $esp $T0 4 + =  $24 $T0 4 - ^ =  $20 $T0 8 - ^ = 
STACK WIN 4 2a0b2 5c 0 0 0 c 0 0 1 $T0 .raSearch = $eip $T0 ^ = $esp $T0 4 + =  $24 $T0 4 - ^ =  $20 $T0 8 - ^ =  $23 $T0 12 - ^ = 
STACK WIN 4 2a11d 40 13 0 4 0 4 0 1 $T0 $ebp = $eip $T0 4 + ^ = $ebp $T0 ^ = $esp $T0 8 + = 
STACK WIN 4 2a12e 24 2 0 4 4 4 0 1 $T0 $ebp = $eip $T0 4 + ^ = $ebp $T0 ^ = $esp $T0 8 + =  $23 $T0 8 - ^ = 
STACK WIN 4 2a131 1e 0 0 4 8 4 0 1 $T0 $ebp = $eip $T0 4 + ^ = $ebp $T0 ^ = $esp $T0 8 + =  $23 $T0 8 - ^ =  $24 $T0 12 - ^ = 
STACK WIN 4 2a15d 1b 5 0 4 0 0 0 1 $T0 $ebp = $eip $T0 4 + ^ = $ebp $T0 ^ = $esp $T0 8 + = 
STACK WIN 4 2a178 1b 5 0 4 0 0 0 1 $T0 $ebp = $eip $T0 4 + ^ = $ebp $T0 ^ = $esp $T0 8 + = 
STACK WIN 4 2a193 5 0 0 0 0 0 0 1 $T0 .raSearch = $eip $T0 ^ = $esp $T0 4 + = 
STACK WIN 4 2a198 37 0 0 0 0 0 0 1 $T0 .raSearch = $eip $T0 ^ = $esp $T0 4 + = 
STACK WIN 4 2a1cf 5 0 0 0 0 0 0 1 $T0 .raSearch = $eip $T0 ^ = $esp $T0 4 + = 
STACK WIN 4 2a1d4 51 c 0 c 10 1c 0 1 $T0 $ebp = $eip $T0 4 + ^ = $ebp $T0 ^ = $esp $T0 8 + =  $20 $T0 32 - ^ =  $23 $T0 36 - ^ =  $24 $T0 40 - ^ = 
STACK WIN 4 2a216 e 0 0 c 10 1c 0 1 $T0 $ebp = $T2 $esp = $T1 .raSearchStart = $eip $T1 ^ = $ebp $T0 = $esp $T1 4 + = 
STACK WIN 4 2a225 51 c 0 c 10 1c 0 1 $T0 $ebp = $eip $T0 4 + ^ = $ebp $T0 ^ = $esp $T0 8 + =  $20 $T0 32 - ^ =  $23 $T0 36 - ^ =  $24 $T0 40 - ^ = 
STACK WIN 4 2a267 e 0 0 c 10 1c 0 1 $T0 $ebp = $T2 $esp = $T1 .raSearchStart = $eip $T1 ^ = $ebp $T0 = $esp $T1 4 + = 
STACK WIN 4 2a276 28 8 0 8 0 c 0 1 $T0 $ebp = $eip $T0 4 + ^ = $ebp $T0 ^ = $esp $T0 8 + = 
STACK WIN 4 2a29e 28 8 0 8 0 c 0 1 $T0 $ebp = $eip $T0 4 + ^ = $ebp $T0 ^ = $esp $T0 8 + = 
STACK WIN 4 2a2c6 1f 5 0 4 0 0 0 1 $T0 $ebp = $eip $T0 4 + ^ = $ebp $T0 ^ = $esp $T0 8 + = 
STACK WIN 4 2a2e5 120 17 0 0 0 18 0 1 $T0 $ebp = $eip $T0 4 + ^ = $ebp $T0 ^ = $esp $T0 8 + = 
STACK WIN 4 2a2fd ff 0 0 0 4 18 0 1 $T0 $ebp = $eip $T0 4 + ^ = $ebp $T0 ^ = $esp $T0 8 + =  $20 $T0 28 - ^ = 
STACK WIN 4 2a314 e2 0 0 0 8 18 0 1 $T0 $ebp = $eip $T0 4 + ^ = $ebp $T0 ^ = $esp $T0 8 + =  $20 $T0 28 - ^ =  $23 $T0 32 - ^ = 
STACK WIN 4 2a315 de 0 0 0 c 18 0 1 $T0 $ebp = $eip $T0 4 + ^ = $ebp $T0 ^ = $esp $T0 8 + =  $20 $T0 28 - ^ =  $23 $T0 32 - ^ =  $24 $T0 36 - ^ = 
STACK WIN 4 2a405 141 d 0 0 0 c 0 1 $T0 $ebp = $eip $T0 4 + ^ = $ebp $T0 ^ = $esp $T0 8 + = 
STACK WIN 4 2a413 12f 0 0 0 4 c 0 1 $T0 $ebp = $eip $T0 4 + ^ = $ebp $T0 ^ = $esp $T0 8 + =  $23 $T0 16 - ^ = 
STACK WIN 4 2a42b 116 0 0 0 8 c 0 1 $T0 $ebp = $eip $T0 4 + ^ = $ebp $T0 ^ = $esp $T0 8 + =  $23 $T0 16 - ^ =  $20 $T0 20 - ^ = 
STACK WIN 4 2a431 10f 0 0 0 c c 0 1 $T0 $ebp = $eip $T0 4 + ^ = $ebp $T0 ^ = $esp $T0 8 + =  $23 $T0 16 - ^ =  $20 $T0 20 - ^ =  $24 $T0 24 - ^ = 
STACK WIN 4 2a546 16 5 0 4 0 0 0 1 $T0 $ebp = $eip $T0 4 + ^ = $ebp $T0 ^ = $esp $T0 8 + = 
STACK WIN 4 2a55c 1d 6 0 4 0 4 0 1 $T0 $ebp = $eip $T0 4 + ^ = $ebp $T0 ^ = $esp $T0 8 + = 
STACK WIN 4 2a579 3d 6 0 4 0 0 0 1 $T0 $ebp = $eip $T0 4 + ^ = $ebp $T0 ^ = $esp $T0 8 + = 
STACK WIN 4 2a57f 35 0 0 4 4 0 0 1 $T0 $ebp = $eip $T0 4 + ^ = $ebp $T0 ^ = $esp $T0 8 + =  $23 $T0 4 - ^ = 
STACK WIN 4 2a5b6 24 7 0 8 0 8 0 1 $T0 $ebp = $eip $T0 4 + ^ = $ebp $T0 ^ = $esp $T0 8 + = 
STACK WIN 4 2a5da 12 0 0 0 0 0 0 1 $T0 .raSearch = $eip $T0 ^ = $esp $T0 4 + = 
STACK WIN 4 2a5ec 1a 0 0 0 0 0 0 1 $T0 .raSearch = $eip $T0 ^ = $esp $T0 4 + = 
STACK WIN 4 2a606 8 0 0 4 0 0 0 1 $T0 .raSearch = $eip $T0 ^ = $esp $T0 4 + = 
STACK WIN 4 2a60e 3d 6 0 0 0 0 0 1 $T0 .raSearch = $eip $T0 ^ = $esp $T0 4 + = 
STACK WIN 4 2a614 36 0 0 0 4 0 0 1 $T0 .raSearch = $eip $T0 ^ = $esp $T0 4 + =  $23 $T0 4 - ^ = 
STACK WIN 4 2a64b 9 0 0 4 0 0 0 1 $T0 .raSearch = $eip $T0 ^ = $esp $T0 4 + = 
STACK WIN 4 2a654 77 9 0 4 0 0 0 1 $T0 .raSearch = $eip $T0 ^ = $esp $T0 4 + = 
STACK WIN 4 2a65d 6d 0 0 4 4 0 0 1 $T0 .raSearch = $eip $T0 ^ = $esp $T0 4 + =  $23 $T0 4 - ^ = 
STACK WIN 4 2a6cb 3 0 0 4 0 0 0 1 $T0 .raSearch = $eip $T0 ^ = $esp $T0 4 + = 
STACK WIN 4 2a6ce 12 0 0 0 0 0 0 1 $T0 .raSearch = $eip $T0 ^ = $esp $T0 4 + = 
STACK WIN 4 2a6e0 b 0 0 0 0 0 0 1 $T0 .raSearch = $eip $T0 ^ = $esp $T0 4 + = 
STACK WIN 4 2a6eb 8 0 0 0 0 0 0 1 $T0 .raSearch = $eip $T0 ^ = $esp $T0 4 + = 
STACK WIN 4 2a6f3 12 0 0 4 0 0 0 1 $T0 .raSearch = $eip $T0 ^ = $esp $T0 4 + = 
STACK WIN 4 2a705 12 5 0 4 0 0 0 1 $T0 $ebp = $eip $T0 4 + ^ = $ebp $T0 ^ = $esp $T0 8 + = 
STACK WIN 4 2a717 3c c 0 0 10 1c 0 1 $T0 $ebp = $eip $T0 4 + ^ = $ebp $T0 ^ = $esp $T0 8 + =  $20 $T0 32 - ^ =  $23 $T0 36 - ^ =  $24 $T0 40 - ^ = 
STACK WIN 4 2a73f 4 0 0 0 10 1c 0 1 $T0 $ebp = $T2 $esp = $T1 .raSearchStart = $eip $T1 ^ = $ebp $T0 = $esp $T1 4 + = 
STACK WIN 4 2a753 43 0 0 0 0 0 0 1 $T0 .raSearch = $eip $T0 ^ = $esp $T0 4 + = 
STACK WIN 4 2a796 5a 9 0 c 0 0 0 1 $T0 $ebp = $eip $T0 4 + ^ = $ebp $T0 ^ = $esp $T0 8 + = 
STACK WIN 4 2a79f 27 0 0 c 4 0 0 1 $T0 $ebp = $eip $T0 4 + ^ = $ebp $T0 ^ = $esp $T0 8 + =  $23 $T0 4 - ^ = 
STACK WIN 4 2a7c9 14 0 0 c 8 0 0 1 $T0 $ebp = $eip $T0 4 + ^ = $ebp $T0 ^ = $esp $T0 8 + =  $23 $T0 4 - ^ =  $24 $T0 8 - ^ = 
STACK WIN 4 2a7f0 3a 5 0 4 0 0 0 1 $T0 $ebp = $eip $T0 4 + ^ = $ebp $T0 ^ = $esp $T0 8 + = 
STACK WIN 4 2a811 17 0 0 4 4 0 0 1 $T0 $ebp = $eip $T0 4 + ^ = $ebp $T0 ^ = $esp $T0 8 + =  $23 $T0 4 - ^ = 
STACK WIN 4 2a82a 4e 6 0 4 0 0 0 1 $T0 $ebp = $eip $T0 4 + ^ = $ebp $T0 ^ = $esp $T0 8 + = 
STACK WIN 4 2a830 46 0 0 4 4 0 0 1 $T0 $ebp = $eip $T0 4 + ^ = $ebp $T0 ^ = $esp $T0 8 + =  $23 $T0 4 - ^ = 
STACK WIN 4 2a878 5d 6 0 8 0 0 0 1 $T0 $ebp = $eip $T0 4 + ^ = $ebp $T0 ^ = $esp $T0 8 + = 
STACK WIN 4 2a87e 55 0 0 8 4 0 0 1 $T0 $ebp = $eip $T0 4 + ^ = $ebp $T0 ^ = $esp $T0 8 + =  $23 $T0 4 - ^ = 
STACK WIN 4 2a8d5 6 0 0 0 0 0 0 1 $T0 .raSearch = $eip $T0 ^ = $esp $T0 4 + = 
STACK WIN 4 2a8db 43 5 0 4 0 0 0 1 $T0 $ebp = $eip $T0 4 + ^ = $ebp $T0 ^ = $esp $T0 8 + = 
STACK WIN 4 2a91e 23 6 0 4 0 0 0 1 $T0 $ebp = $eip $T0 4 + ^ = $ebp $T0 ^ = $esp $T0 8 + = 
STACK WIN 4 2a924 1b 0 0 4 4 0 0 1 $T0 $ebp = $eip $T0 4 + ^ = $ebp $T0 ^ = $esp $T0 8 + =  $23 $T0 4 - ^ = 
STACK WIN 4 2a941 13 0 0 0 0 0 0 1 $T0 .raSearch = $eip $T0 ^ = $esp $T0 4 + = 
STACK WIN 4 2a954 13 0 0 0 0 0 0 1 $T0 .raSearch = $eip $T0 ^ = $esp $T0 4 + = 
STACK WIN 4 2a967 8e 12 0 14 0 0 0 1 $T0 $ebp = $eip $T0 4 + ^ = $ebp $T0 ^ = $esp $T0 8 + = 
STACK WIN 4 2a973 80 6 0 14 4 0 0 1 $T0 $ebp = $eip $T0 4 + ^ = $ebp $T0 ^ = $esp $T0 8 + =  $20 $T0 4 - ^ = 
STACK WIN 4 2a974 7e 5 0 14 8 0 0 1 $T0 $ebp = $eip $T0 4 + ^ = $ebp $T0 ^ = $esp $T0 8 + =  $20 $T0 4 - ^ =  $23 $T0 8 - ^ = 
STACK WIN 4 2a979 78 0 0 14 c 0 0 1 $T0 $ebp = $eip $T0 4 + ^ = $ebp $T0 ^ = $esp $T0 8 + =  $20 $T0 4 - ^ =  $23 $T0 8 - ^ =  $24 $T0 12 - ^ = 
STACK WIN 4 2a9f5 5f 9 0 14 0 0 0 1 $T0 $ebp = $eip $T0 4 + ^ = $ebp $T0 ^ = $esp $T0 8 + = 
STACK WIN 4 2a9fe 54 0 0 14 4 0 0 1 $T0 $ebp = $eip $T0 4 + ^ = $ebp $T0 ^ = $esp $T0 8 + =  $23 $T0 4 - ^ = 
STACK WIN 4 2aa54 35 6 0 10 0 4 0 1 $T0 $ebp = $eip $T0 4 + ^ = $ebp $T0 ^ = $esp $T0 8 + = 
STACK WIN 4 2aa89 3f 5 0 4 0 0 0 1 $T0 $ebp = $eip $T0 4 + ^ = $ebp $T0 ^ = $esp $T0 8 + = 
STACK WIN 4 2aac8 75 8 0 c 0 0 0 1 $T0 $ebp = $eip $T0 4 + ^ = $ebp $T0 ^ = $esp $T0 8 + = 
STACK WIN 4 2aace 30 2 0 c 4 0 0 1 $T0 $ebp = $eip $T0 4 + ^ = $ebp $T0 ^ = $esp $T0 8 + =  $20 $T0 4 - ^ = 
STACK WIN 4 2aacf 2e 1 0 c 8 0 0 1 $T0 $ebp = $eip $T0 4 + ^ = $ebp $T0 ^ = $esp $T0 8 + =  $20 $T0 4 - ^ =  $23 $T0 8 - ^ = 
STACK WIN 4 2aad0 2a 0 0 c c 0 0 1 $T0 $ebp = $eip $T0 4 + ^ = $ebp $T0 ^ = $esp $T0 8 + =  $20 $T0 4 - ^ =  $23 $T0 8 - ^ =  $24 $T0 12 - ^ = 
STACK WIN 4 2ab3d 64 9 0 c 0 0 0 1 $T0 $ebp = $eip $T0 4 + ^ = $ebp $T0 ^ = $esp $T0 8 + = 
STACK WIN 4 2ab46 29 0 0 c 4 0 0 1 $T0 $ebp = $eip $T0 4 + ^ = $ebp $T0 ^ = $esp $T0 8 + =  $23 $T0 4 - ^ = 
STACK WIN 4 2ab72 19 0 0 c 8 0 0 1 $T0 $ebp = $eip $T0 4 + ^ = $ebp $T0 ^ = $esp $T0 8 + =  $23 $T0 4 - ^ =  $24 $T0 8 - ^ = 
STACK WIN 4 2aba1 e9 f 0 10 0 4 0 1 $T0 $ebp = $eip $T0 4 + ^ = $ebp $T0 ^ = $esp $T0 8 + = 
STACK WIN 4 2abab 45 5 0 10 4 4 0 1 $T0 $ebp = $eip $T0 4 + ^ = $ebp $T0 ^ = $esp $T0 8 + =  $20 $T0 8 - ^ = 
STACK WIN 4 2abac 43 4 0 10 8 4 0 1 $T0 $ebp = $eip $T0 4 + ^ = $ebp $T0 ^ = $esp $T0 8 + =  $20 $T0 8 - ^ =  $23 $T0 12 - ^ = 
STACK WIN 4 2abb0 3e 0 0 10 c 4 0 1 $T0 $ebp = $eip $T0 4 + ^ = $ebp $T0 ^ = $esp $T0 8 + =  $20 $T0 8 - ^ =  $23 $T0 12 - ^ =  $24 $T0 16 - ^ = 
STACK WIN 4 2ac8a b 5 0 10 0 0 0 1 $T0 $ebp = $eip $T0 4 + ^ = $ebp $T0 ^ = $esp $T0 8 + = 
STACK WIN 4 2ac95 d9 a 0 c 0 10 0 1 $T0 $ebp = $eip $T0 4 + ^ = $ebp $T0 ^ = $esp $T0 8 + = 
STACK WIN 4 2ac9e cc 1 0 c 4 10 0 1 $T0 $ebp = $eip $T0 4 + ^ = $ebp $T0 ^ = $esp $T0 8 + =  $20 $T0 20 - ^ = 
STACK WIN 4 2ac9f ca 0 0 c 8 10 0 1 $T0 $ebp = $eip $T0 4 + ^ = $ebp $T0 ^ = $esp $T0 8 + =  $20 $T0 20 - ^ =  $23 $T0 24 - ^ = 
STACK WIN 4 2acef 4b 0 0 c c 10 0 1 $T0 $ebp = $eip $T0 4 + ^ = $ebp $T0 ^ = $esp $T0 8 + =  $20 $T0 20 - ^ =  $23 $T0 24 - ^ =  $24 $T0 28 - ^ = 
STACK WIN 4 2ad6e 22 6 0 4 0 0 0 1 $T0 $ebp = $eip $T0 4 + ^ = $ebp $T0 ^ = $esp $T0 8 + = 
STACK WIN 4 2ad74 18 0 0 4 4 0 0 1 $T0 $ebp = $eip $T0 4 + ^ = $ebp $T0 ^ = $esp $T0 8 + =  $23 $T0 4 - ^ = 
STACK WIN 4 2ad90 b 5 0 c 0 0 0 1 $T0 $ebp = $eip $T0 4 + ^ = $ebp $T0 ^ = $esp $T0 8 + = 
STACK WIN 4 2ad9b 66 9 0 4 0 0 0 1 $T0 $ebp = $eip $T0 4 + ^ = $ebp $T0 ^ = $esp $T0 8 + = 
STACK WIN 4 2ada4 5b 0 0 4 4 0 0 1 $T0 $ebp = $eip $T0 4 + ^ = $ebp $T0 ^ = $esp $T0 8 + =  $23 $T0 4 - ^ = 
STACK WIN 4 2adbd 41 0 0 4 8 0 0 1 $T0 $ebp = $eip $T0 4 + ^ = $ebp $T0 ^ = $esp $T0 8 + =  $23 $T0 4 - ^ =  $24 $T0 8 - ^ = 
STACK WIN 4 2ae01 47 6 0 4 0 0 0 1 $T0 $ebp = $eip $T0 4 + ^ = $ebp $T0 ^ = $esp $T0 8 + = 
STACK WIN 4 2ae07 3f 0 0 4 4 0 0 1 $T0 $ebp = $eip $T0 4 + ^ = $ebp $T0 ^ = $esp $T0 8 + =  $23 $T0 4 - ^ = 
STACK WIN 4 2ae48 9 0 0 0 0 0 0 1 $T0 .raSearch = $eip $T0 ^ = $esp $T0 4 + = 
STACK WIN 4 2ae51 d8 c 0 4 10 2c 0 1 $T0 $ebp = $eip $T0 4 + ^ = $ebp $T0 ^ = $esp $T0 8 + =  $20 $T0 48 - ^ =  $23 $T0 52 - ^ =  $24 $T0 56 - ^ = 
STACK WIN 4 2aef0 f 0 0 4 10 2c 0 1 $T0 $ebp = $T2 $esp = $T1 .raSearchStart = $eip $T1 ^ = $ebp $T0 = $esp $T1 4 + = 
STACK WIN 4 2af1d b 0 0 4 10 2c 0 1 $T0 $ebp = $T2 $esp = $T1 .raSearchStart = $eip $T1 ^ = $ebp $T0 = $esp $T1 4 + = 
STACK WIN 4 2af29 59 c 0 4 10 1c 0 1 $T0 $ebp = $eip $T0 4 + ^ = $ebp $T0 ^ = $esp $T0 8 + =  $20 $T0 32 - ^ =  $23 $T0 36 - ^ =  $24 $T0 40 - ^ = 
STACK WIN 4 2af74 d 0 0 4 10 1c 0 1 $T0 $ebp = $T2 $esp = $T1 .raSearchStart = $eip $T1 ^ = $ebp $T0 = $esp $T1 4 + = 
STACK WIN 4 2af82 51 c 0 c 10 1c 0 1 $T0 $ebp = $eip $T0 4 + ^ = $ebp $T0 ^ = $esp $T0 8 + =  $20 $T0 32 - ^ =  $23 $T0 36 - ^ =  $24 $T0 40 - ^ = 
STACK WIN 4 2afc4 e 0 0 c 10 1c 0 1 $T0 $ebp = $T2 $esp = $T1 .raSearchStart = $eip $T1 ^ = $ebp $T0 = $esp $T1 4 + = 
STACK WIN 4 2afd3 28 8 0 8 0 c 0 1 $T0 $ebp = $eip $T0 4 + ^ = $ebp $T0 ^ = $esp $T0 8 + = 
STACK WIN 4 2affb 9a 7 0 0 0 0 0 1 $T0 .raSearch = $eip $T0 ^ = $esp $T0 4 + = 
STACK WIN 4 2affe 96 4 0 0 4 0 0 1 $T0 .raSearch = $eip $T0 ^ = $esp $T0 4 + =  $20 $T0 4 - ^ = 
STACK WIN 4 2afff 94 3 0 0 8 0 0 1 $T0 .raSearch = $eip $T0 ^ = $esp $T0 4 + =  $20 $T0 4 - ^ =  $23 $T0 8 - ^ = 
STACK WIN 4 2b000 92 2 0 0 c 0 0 1 $T0 .raSearch = $eip $T0 ^ = $esp $T0 4 + =  $20 $T0 4 - ^ =  $23 $T0 8 - ^ =  $24 $T0 12 - ^ = 
STACK WIN 4 2b095 33 5 0 10 0 0 0 1 $T0 $ebp = $eip $T0 4 + ^ = $ebp $T0 ^ = $esp $T0 8 + = 
STACK WIN 4 2b0c8 76 8 0 10 0 14 0 1 $T0 $ebp = $eip $T0 4 + ^ = $ebp $T0 ^ = $esp $T0 8 + = 
STACK WIN 4 2b13e 5a c 0 c 10 1c 0 1 $T0 $ebp = $eip $T0 4 + ^ = $ebp $T0 ^ = $esp $T0 8 + =  $20 $T0 32 - ^ =  $23 $T0 36 - ^ =  $24 $T0 40 - ^ = 
STACK WIN 4 2b189 e 0 0 c 10 1c 0 1 $T0 $ebp = $T2 $esp = $T1 .raSearchStart = $eip $T1 ^ = $ebp $T0 = $esp $T1 4 + = 
STACK WIN 4 2b198 28 8 0 8 0 c 0 1 $T0 $ebp = $eip $T0 4 + ^ = $ebp $T0 ^ = $esp $T0 8 + = 
STACK WIN 4 2b1c0 42 5 0 4 0 0 0 1 $T0 $ebp = $eip $T0 4 + ^ = $ebp $T0 ^ = $esp $T0 8 + = 
STACK WIN 4 2b202 28 5 0 8 0 0 0 1 $T0 $ebp = $eip $T0 4 + ^ = $ebp $T0 ^ = $esp $T0 8 + = 
STACK WIN 4 2b22a 17 6 0 0 0 4 0 1 $T0 $ebp = $eip $T0 4 + ^ = $ebp $T0 ^ = $esp $T0 8 + = 
STACK WIN 4 2b241 3b 5 0 4 0 0 0 1 $T0 $ebp = $eip $T0 4 + ^ = $ebp $T0 ^ = $esp $T0 8 + = 
STACK WIN 4 2b27c 9 0 0 0 0 0 0 1 $T0 .raSearch = $eip $T0 ^ = $esp $T0 4 + = 
STACK WIN 4 2b285 208 c 0 4 10 3c 0 1 $T0 $ebp = $eip $T0 4 + ^ = $ebp $T0 ^ = $esp $T0 8 + =  $20 $T0 64 - ^ =  $23 $T0 68 - ^ =  $24 $T0 72 - ^ = 
STACK WIN 4 2b436 1d 0 0 4 10 3c 0 1 $T0 $ebp = $T2 $esp = $T1 .raSearchStart = $eip $T1 ^ = $ebp $T0 = $esp $T1 4 + = 
STACK WIN 4 2b48d 50 c 0 c 10 18 0 1 $T0 $ebp = $eip $T0 4 + ^ = $ebp $T0 ^ = $esp $T0 8 + =  $20 $T0 28 - ^ =  $23 $T0 32 - ^ =  $24 $T0 36 - ^ = 
STACK WIN 4 2b4d1 b 0 0 c 10 18 0 1 $T0 $ebp = $T2 $esp = $T1 .raSearchStart = $eip $T1 ^ = $ebp $T0 = $esp $T1 4 + = 
STACK WIN 4 2b4dd 61 c 0 c 10 18 0 1 $T0 $ebp = $eip $T0 4 + ^ = $ebp $T0 ^ = $esp $T0 8 + =  $20 $T0 28 - ^ =  $23 $T0 32 - ^ =  $24 $T0 36 - ^ = 
STACK WIN 4 2b532 b 0 0 c 10 18 0 1 $T0 $ebp = $T2 $esp = $T1 .raSearchStart = $eip $T1 ^ = $ebp $T0 = $esp $T1 4 + = 
STACK WIN 4 2b53e 4b c 0 c 10 18 0 1 $T0 $ebp = $eip $T0 4 + ^ = $ebp $T0 ^ = $esp $T0 8 + =  $20 $T0 28 - ^ =  $23 $T0 32 - ^ =  $24 $T0 36 - ^ = 
STACK WIN 4 2b57d b 0 0 c 10 18 0 1 $T0 $ebp = $T2 $esp = $T1 .raSearchStart = $eip $T1 ^ = $ebp $T0 = $esp $T1 4 + = 
STACK WIN 4 2b589 48 c 0 c 10 18 0 1 $T0 $ebp = $eip $T0 4 + ^ = $ebp $T0 ^ = $esp $T0 8 + =  $20 $T0 28 - ^ =  $23 $T0 32 - ^ =  $24 $T0 36 - ^ = 
STACK WIN 4 2b5c5 b 0 0 c 10 18 0 1 $T0 $ebp = $T2 $esp = $T1 .raSearchStart = $eip $T1 ^ = $ebp $T0 = $esp $T1 4 + = 
STACK WIN 4 2b5d1 28 8 0 8 0 c 0 1 $T0 $ebp = $eip $T0 4 + ^ = $ebp $T0 ^ = $esp $T0 8 + = 
STACK WIN 4 2b5f9 28 8 0 8 0 c 0 1 $T0 $ebp = $eip $T0 4 + ^ = $ebp $T0 ^ = $esp $T0 8 + = 
STACK WIN 4 2b621 28 8 0 8 0 c 0 1 $T0 $ebp = $eip $T0 4 + ^ = $ebp $T0 ^ = $esp $T0 8 + = 
STACK WIN 4 2b649 28 8 0 8 0 c 0 1 $T0 $ebp = $eip $T0 4 + ^ = $ebp $T0 ^ = $esp $T0 8 + = 
STACK WIN 4 2b671 79 7 0 8 0 8 0 1 $T0 $ebp = $eip $T0 4 + ^ = $ebp $T0 ^ = $esp $T0 8 + = 
STACK WIN 4 2b6ea 21 5 0 4 0 0 0 1 $T0 $ebp = $eip $T0 4 + ^ = $ebp $T0 ^ = $esp $T0 8 + = 
STACK WIN 4 2b70b a9 6 0 4 0 4 0 1 $T0 $ebp = $eip $T0 4 + ^ = $ebp $T0 ^ = $esp $T0 8 + = 
STACK WIN 4 2b7b4 4b 6 0 8 0 0 0 1 $T0 $ebp = $eip $T0 4 + ^ = $ebp $T0 ^ = $esp $T0 8 + = 
STACK WIN 4 2b7ba 38 0 0 8 4 0 0 1 $T0 $ebp = $eip $T0 4 + ^ = $ebp $T0 ^ = $esp $T0 8 + =  $23 $T0 4 - ^ = 
STACK WIN 4 2b7ff 2c 0 0 0 0 0 0 1 $T0 .raSearch = $eip $T0 ^ = $esp $T0 4 + = 
STACK WIN 4 2b80a 20 0 0 0 4 0 0 1 $T0 .raSearch = $eip $T0 ^ = $esp $T0 4 + =  $23 $T0 4 - ^ = 
STACK WIN 4 2b82b 84 4 0 0 0 0 0 1 $T0 .raSearch = $eip $T0 ^ = $esp $T0 4 + = 
STACK WIN 4 2b82e 73 1 0 0 4 0 0 1 $T0 .raSearch = $eip $T0 ^ = $esp $T0 4 + =  $23 $T0 4 - ^ = 
STACK WIN 4 2b82f 71 0 0 0 8 0 0 1 $T0 .raSearch = $eip $T0 ^ = $esp $T0 4 + =  $23 $T0 4 - ^ =  $24 $T0 8 - ^ = 
STACK WIN 4 2b8a2 d 0 0 0 8 0 0 1 $T0 .raSearch = $eip $T0 ^ = $esp $T0 4 + =  $23 $T0 4 - ^ =  $24 $T0 8 - ^ = 
STACK WIN 4 2b8af 85 5 0 0 0 0 0 1 $T0 .raSearch = $eip $T0 ^ = $esp $T0 4 + = 
STACK WIN 4 2b8b2 81 2 0 0 4 0 0 1 $T0 .raSearch = $eip $T0 ^ = $esp $T0 4 + =  $20 $T0 4 - ^ = 
STACK WIN 4 2b8b3 7d 1 0 0 8 0 0 1 $T0 .raSearch = $eip $T0 ^ = $esp $T0 4 + =  $20 $T0 4 - ^ =  $23 $T0 8 - ^ = 
STACK WIN 4 2b8b4 7b 0 0 0 c 0 0 1 $T0 .raSearch = $eip $T0 ^ = $esp $T0 4 + =  $20 $T0 4 - ^ =  $23 $T0 8 - ^ =  $24 $T0 12 - ^ = 
STACK WIN 4 2b934 2c 0 0 0 0 0 0 1 $T0 .raSearch = $eip $T0 ^ = $esp $T0 4 + = 
STACK WIN 4 2b960 1a 0 0 4 0 0 0 1 $T0 .raSearch = $eip $T0 ^ = $esp $T0 4 + = 
STACK WIN 4 2b97a 5f 7 0 8 0 8 0 1 $T0 $ebp = $eip $T0 4 + ^ = $ebp $T0 ^ = $esp $T0 8 + = 
STACK WIN 4 2b9d9 2d 6 0 8 0 0 0 1 $T0 $ebp = $eip $T0 4 + ^ = $ebp $T0 ^ = $esp $T0 8 + = 
STACK WIN 4 2b9df 25 0 0 8 4 0 0 1 $T0 $ebp = $eip $T0 4 + ^ = $ebp $T0 ^ = $esp $T0 8 + =  $23 $T0 4 - ^ = 
STACK WIN 4 2ba06 2d 6 0 8 0 0 0 1 $T0 $ebp = $eip $T0 4 + ^ = $ebp $T0 ^ = $esp $T0 8 + = 
STACK WIN 4 2ba0c 25 0 0 8 4 0 0 1 $T0 $ebp = $eip $T0 4 + ^ = $ebp $T0 ^ = $esp $T0 8 + =  $23 $T0 4 - ^ = 
STACK WIN 4 2ba33 b 0 0 0 0 0 0 1 $T0 .raSearch = $eip $T0 ^ = $esp $T0 4 + = 
STACK WIN 4 2ba3e 52 c 0 0 10 18 0 1 $T0 $ebp = $eip $T0 4 + ^ = $ebp $T0 ^ = $esp $T0 8 + =  $20 $T0 28 - ^ =  $23 $T0 32 - ^ =  $24 $T0 36 - ^ = 
STACK WIN 4 2ba87 8 0 0 0 10 18 0 1 $T0 $ebp = $T2 $esp = $T1 .raSearchStart = $eip $T1 ^ = $ebp $T0 = $esp $T1 4 + = 
STACK WIN 4 2ba90 127 c 0 8 0 0 0 1 $T0 $ebp = $eip $T0 4 + ^ = $ebp $T0 ^ = $esp $T0 8 + = 
STACK WIN 4 2ba9b 11a 1 0 8 4 0 0 1 $T0 $ebp = $eip $T0 4 + ^ = $ebp $T0 ^ = $esp $T0 8 + =  $23 $T0 4 - ^ = 
STACK WIN 4 2ba9c 116 0 0 8 8 0 0 1 $T0 $ebp = $eip $T0 4 + ^ = $ebp $T0 ^ = $esp $T0 8 + =  $23 $T0 4 - ^ =  $24 $T0 8 - ^ = 
STACK WIN 4 2bbb7 1b7 10 0 8 0 4 0 1 $T0 $ebp = $eip $T0 4 + ^ = $ebp $T0 ^ = $esp $T0 8 + = 
STACK WIN 4 2bbc6 1a4 1 0 8 4 4 0 1 $T0 $ebp = $eip $T0 4 + ^ = $ebp $T0 ^ = $esp $T0 8 + =  $23 $T0 8 - ^ = 
STACK WIN 4 2bbc7 1a0 0 0 8 8 4 0 1 $T0 $ebp = $eip $T0 4 + ^ = $ebp $T0 ^ = $esp $T0 8 + =  $23 $T0 8 - ^ =  $24 $T0 12 - ^ = 
STACK WIN 4 2bd6e 29 5 0 c 0 0 0 1 $T0 $ebp = $eip $T0 4 + ^ = $ebp $T0 ^ = $esp $T0 8 + = 
STACK WIN 4 2bd97 ca e 0 10 0 10 0 1 $T0 $ebp = $eip $T0 4 + ^ = $ebp $T0 ^ = $esp $T0 8 + = 
STACK WIN 4 2bda3 ba 2 0 10 4 10 0 1 $T0 $ebp = $eip $T0 4 + ^ = $ebp $T0 ^ = $esp $T0 8 + =  $20 $T0 20 - ^ = 
STACK WIN 4 2bda4 b8 1 0 10 8 10 0 1 $T0 $ebp = $eip $T0 4 + ^ = $ebp $T0 ^ = $esp $T0 8 + =  $20 $T0 20 - ^ =  $23 $T0 24 - ^ = 
STACK WIN 4 2bda5 b4 0 0 10 c 10 0 1 $T0 $ebp = $eip $T0 4 + ^ = $ebp $T0 ^ = $esp $T0 8 + =  $20 $T0 20 - ^ =  $23 $T0 24 - ^ =  $24 $T0 28 - ^ = 
STACK WIN 4 2be61 41 4 0 0 0 0 0 1 $T0 .raSearch = $eip $T0 ^ = $esp $T0 4 + = 
STACK WIN 4 2be64 3d 1 0 0 4 0 0 1 $T0 .raSearch = $eip $T0 ^ = $esp $T0 4 + =  $23 $T0 4 - ^ = 
STACK WIN 4 2be65 3b 0 0 0 8 0 0 1 $T0 .raSearch = $eip $T0 ^ = $esp $T0 4 + =  $23 $T0 4 - ^ =  $24 $T0 8 - ^ = 
STACK WIN 4 2bea2 17 5 0 4 0 0 0 1 $T0 $ebp = $eip $T0 4 + ^ = $ebp $T0 ^ = $esp $T0 8 + = 
STACK WIN 4 2beb9 31 3 0 4 0 0 0 1 $T0 .raSearch = $eip $T0 ^ = $esp $T0 4 + = 
STACK WIN 4 2bebc 2d 0 0 4 4 0 0 1 $T0 .raSearch = $eip $T0 ^ = $esp $T0 4 + =  $23 $T0 4 - ^ = 
STACK WIN 4 2beca 1c 0 0 4 8 0 0 1 $T0 .raSearch = $eip $T0 ^ = $esp $T0 4 + =  $23 $T0 4 - ^ =  $24 $T0 8 - ^ = 
STACK WIN 4 2beea 17 5 0 4 0 0 0 1 $T0 $ebp = $eip $T0 4 + ^ = $ebp $T0 ^ = $esp $T0 8 + = 
STACK WIN 4 2bf01 14a c 0 c 0 1c 0 1 $T0 $ebp = $eip $T0 4 + ^ = $ebp $T0 ^ = $esp $T0 8 + = 
STACK WIN 4 2bf0d 13a 0 0 c 4 1c 0 1 $T0 $ebp = $eip $T0 4 + ^ = $ebp $T0 ^ = $esp $T0 8 + =  $20 $T0 32 - ^ = 
STACK WIN 4 2c04b 1d 5 0 8 0 0 0 1 $T0 $ebp = $eip $T0 4 + ^ = $ebp $T0 ^ = $esp $T0 8 + = 
STACK WIN 4 2c068 1a 5 0 8 0 0 0 1 $T0 $ebp = $eip $T0 4 + ^ = $ebp $T0 ^ = $esp $T0 8 + = 
STACK WIN 4 2c082 30 5 0 4 0 0 0 1 $T0 $ebp = $eip $T0 4 + ^ = $ebp $T0 ^ = $esp $T0 8 + = 
STACK WIN 4 2c0b2 69 6 0 8 0 0 0 1 $T0 $ebp = $eip $T0 4 + ^ = $ebp $T0 ^ = $esp $T0 8 + = 
STACK WIN 4 2c0b8 37 0 0 8 4 0 0 1 $T0 $ebp = $eip $T0 4 + ^ = $ebp $T0 ^ = $esp $T0 8 + =  $24 $T0 4 - ^ = 
STACK WIN 4 2c0cb 23 0 0 8 8 0 0 1 $T0 $ebp = $eip $T0 4 + ^ = $ebp $T0 ^ = $esp $T0 8 + =  $24 $T0 4 - ^ =  $23 $T0 8 - ^ = 
STACK WIN 4 2c11b 1b 5 0 c 0 0 0 1 $T0 $ebp = $eip $T0 4 + ^ = $ebp $T0 ^ = $esp $T0 8 + = 
STACK WIN 4 2c136 2c 6 0 c 0 4 0 1 $T0 $ebp = $eip $T0 4 + ^ = $ebp $T0 ^ = $esp $T0 8 + = 
STACK WIN 4 2c162 2c 6 0 c 0 4 0 1 $T0 $ebp = $eip $T0 4 + ^ = $ebp $T0 ^ = $esp $T0 8 + = 
STACK WIN 4 2c18e fa a 0 10 0 10 0 1 $T0 $ebp = $eip $T0 4 + ^ = $ebp $T0 ^ = $esp $T0 8 + = 
STACK WIN 4 2c197 24 1 0 10 4 10 0 1 $T0 $ebp = $eip $T0 4 + ^ = $ebp $T0 ^ = $esp $T0 8 + =  $20 $T0 20 - ^ = 
STACK WIN 4 2c198 22 0 0 10 8 10 0 1 $T0 $ebp = $eip $T0 4 + ^ = $ebp $T0 ^ = $esp $T0 8 + =  $20 $T0 20 - ^ =  $23 $T0 24 - ^ = 
STACK WIN 4 2c1c0 c3 0 0 10 c 10 0 1 $T0 $ebp = $eip $T0 4 + ^ = $ebp $T0 ^ = $esp $T0 8 + =  $20 $T0 20 - ^ =  $23 $T0 24 - ^ =  $24 $T0 28 - ^ = 
STACK WIN 4 2c288 1a 5 0 c 0 0 0 1 $T0 $ebp = $eip $T0 4 + ^ = $ebp $T0 ^ = $esp $T0 8 + = 
STACK WIN 4 2c2a2 121 d 0 14 0 14 0 1 $T0 $ebp = $eip $T0 4 + ^ = $ebp $T0 ^ = $esp $T0 8 + = 
STACK WIN 4 2c2ab 99 4 0 14 4 14 0 1 $T0 $ebp = $eip $T0 4 + ^ = $ebp $T0 ^ = $esp $T0 8 + =  $20 $T0 24 - ^ = 
STACK WIN 4 2c2af 94 0 0 14 8 14 0 1 $T0 $ebp = $eip $T0 4 + ^ = $ebp $T0 ^ = $esp $T0 8 + =  $20 $T0 24 - ^ =  $24 $T0 28 - ^ = 
STACK WIN 4 2c2d3 e4 0 0 14 c 14 0 1 $T0 $ebp = $eip $T0 4 + ^ = $ebp $T0 ^ = $esp $T0 8 + =  $20 $T0 24 - ^ =  $24 $T0 28 - ^ =  $23 $T0 32 - ^ = 
STACK WIN 4 2c3c3 1d 5 0 10 0 0 0 1 $T0 $ebp = $eip $T0 4 + ^ = $ebp $T0 ^ = $esp $T0 8 + = 
STACK WIN 4 2c3e0 6c 1e 0 4 0 0 0 1 $T0 $ebp = $eip $T0 4 + ^ = $ebp $T0 ^ = $esp $T0 8 + = 
STACK WIN 4 2c3ee 5c 10 0 4 4 0 0 1 $T0 $ebp = $eip $T0 4 + ^ = $ebp $T0 ^ = $esp $T0 8 + =  $20 $T0 4 - ^ = 
STACK WIN 4 2c3ef 5a f 0 4 8 0 0 1 $T0 $ebp = $eip $T0 4 + ^ = $ebp $T0 ^ = $esp $T0 8 + =  $20 $T0 4 - ^ =  $23 $T0 8 - ^ = 
STACK WIN 4 2c3fe 4a 0 0 4 c 0 0 1 $T0 $ebp = $eip $T0 4 + ^ = $ebp $T0 ^ = $esp $T0 8 + =  $20 $T0 4 - ^ =  $23 $T0 8 - ^ =  $24 $T0 12 - ^ = 
STACK WIN 4 2c44c 1e 5 0 4 0 0 0 1 $T0 $ebp = $eip $T0 4 + ^ = $ebp $T0 ^ = $esp $T0 8 + = 
STACK WIN 4 2c46a 303 b 0 24 0 30 0 1 $T0 $ebp = $eip $T0 4 + ^ = $ebp $T0 ^ = $esp $T0 8 + = 
STACK WIN 4 2c473 2f6 2 0 24 4 30 0 1 $T0 $ebp = $eip $T0 4 + ^ = $ebp $T0 ^ = $esp $T0 8 + =  $20 $T0 52 - ^ = 
STACK WIN 4 2c474 2f4 1 0 24 8 30 0 1 $T0 $ebp = $eip $T0 4 + ^ = $ebp $T0 ^ = $esp $T0 8 + =  $20 $T0 52 - ^ =  $23 $T0 56 - ^ = 
STACK WIN 4 2c475 2f2 0 0 24 c 30 0 1 $T0 $ebp = $eip $T0 4 + ^ = $ebp $T0 ^ = $esp $T0 8 + =  $20 $T0 52 - ^ =  $23 $T0 56 - ^ =  $24 $T0 60 - ^ = 
STACK WIN 4 2c76d 9b 10 0 24 0 c 0 1 $T0 $ebp = $eip $T0 4 + ^ = $ebp $T0 ^ = $esp $T0 8 + = 
STACK WIN 4 2c779 8b 4 0 24 4 c 0 1 $T0 $ebp = $eip $T0 4 + ^ = $ebp $T0 ^ = $esp $T0 8 + =  $23 $T0 16 - ^ = 
STACK WIN 4 2c77d 86 0 0 24 8 c 0 1 $T0 $ebp = $eip $T0 4 + ^ = $ebp $T0 ^ = $esp $T0 8 + =  $23 $T0 16 - ^ =  $24 $T0 20 - ^ = 
STACK WIN 4 2c808 14b a 0 20 0 10 0 1 $T0 $ebp = $eip $T0 4 + ^ = $ebp $T0 ^ = $esp $T0 8 + = 
STACK WIN 4 2c811 29 1 0 20 4 10 0 1 $T0 $ebp = $eip $T0 4 + ^ = $ebp $T0 ^ = $esp $T0 8 + =  $23 $T0 20 - ^ = 
STACK WIN 4 2c812 f4 0 0 20 8 10 0 1 $T0 $ebp = $eip $T0 4 + ^ = $ebp $T0 ^ = $esp $T0 8 + =  $23 $T0 20 - ^ =  $24 $T0 24 - ^ = 
STACK WIN 4 2c83f 8d 0 0 20 c 10 0 1 $T0 $ebp = $eip $T0 4 + ^ = $ebp $T0 ^ = $esp $T0 8 + =  $23 $T0 20 - ^ =  $24 $T0 24 - ^ =  $20 $T0 28 - ^ = 
STACK WIN 4 2c953 8d c 0 1c 0 c 0 1 $T0 $ebp = $eip $T0 4 + ^ = $ebp $T0 ^ = $esp $T0 8 + = 
STACK WIN 4 2c95e 7e 1 0 1c 4 c 0 1 $T0 $ebp = $eip $T0 4 + ^ = $ebp $T0 ^ = $esp $T0 8 + =  $23 $T0 16 - ^ = 
STACK WIN 4 2c95f 7c 0 0 1c 8 c 0 1 $T0 $ebp = $eip $T0 4 + ^ = $ebp $T0 ^ = $esp $T0 8 + =  $23 $T0 16 - ^ =  $24 $T0 20 - ^ = 
STACK WIN 4 2c9e0 d7 e 0 18 0 10 0 1 $T0 $ebp = $eip $T0 4 + ^ = $ebp $T0 ^ = $esp $T0 8 + = 
STACK WIN 4 2c9ec b9 2 0 18 4 10 0 1 $T0 $ebp = $eip $T0 4 + ^ = $ebp $T0 ^ = $esp $T0 8 + =  $20 $T0 20 - ^ = 
STACK WIN 4 2c9ed b7 1 0 18 8 10 0 1 $T0 $ebp = $eip $T0 4 + ^ = $ebp $T0 ^ = $esp $T0 8 + =  $20 $T0 20 - ^ =  $23 $T0 24 - ^ = 
STACK WIN 4 2c9ee b5 0 0 18 c 10 0 1 $T0 $ebp = $eip $T0 4 + ^ = $ebp $T0 ^ = $esp $T0 8 + =  $20 $T0 20 - ^ =  $23 $T0 24 - ^ =  $24 $T0 28 - ^ = 
STACK WIN 4 2cab7 c8 b 0 24 0 10 0 1 $T0 $ebp = $eip $T0 4 + ^ = $ebp $T0 ^ = $esp $T0 8 + = 
STACK WIN 4 2cac0 bb 2 0 24 4 10 0 1 $T0 $ebp = $eip $T0 4 + ^ = $ebp $T0 ^ = $esp $T0 8 + =  $20 $T0 20 - ^ = 
STACK WIN 4 2cac1 b9 1 0 24 8 10 0 1 $T0 $ebp = $eip $T0 4 + ^ = $ebp $T0 ^ = $esp $T0 8 + =  $20 $T0 20 - ^ =  $23 $T0 24 - ^ = 
STACK WIN 4 2cac2 b7 0 0 24 c 10 0 1 $T0 $ebp = $eip $T0 4 + ^ = $ebp $T0 ^ = $esp $T0 8 + =  $20 $T0 20 - ^ =  $23 $T0 24 - ^ =  $24 $T0 28 - ^ = 
STACK WIN 4 2cb7f f8 19 0 14 0 48 0 1 $T0 $ebp = $eip $T0 4 + ^ = $ebp $T0 ^ = $esp $T0 8 + = 
STACK WIN 4 2cb98 19 0 0 14 4 48 0 1 $T0 $ebp = $eip $T0 4 + ^ = $ebp $T0 ^ = $esp $T0 8 + =  $20 $T0 76 - ^ = 
STACK WIN 4 2cc0b 57 0 0 14 8 48 0 1 $T0 $ebp = $eip $T0 4 + ^ = $ebp $T0 ^ = $esp $T0 8 + =  $20 $T0 76 - ^ =  $23 $T0 80 - ^ = 
STACK WIN 4 2cc18 49 0 0 14 c 48 0 1 $T0 $ebp = $eip $T0 4 + ^ = $ebp $T0 ^ = $esp $T0 8 + =  $20 $T0 76 - ^ =  $23 $T0 80 - ^ =  $24 $T0 84 - ^ = 
STACK WIN 4 2cc77 34 5 0 10 0 0 0 1 $T0 $ebp = $eip $T0 4 + ^ = $ebp $T0 ^ = $esp $T0 8 + = 
STACK WIN 4 2cc84 25 0 0 10 4 0 0 1 $T0 $ebp = $eip $T0 4 + ^ = $ebp $T0 ^ = $esp $T0 8 + =  $23 $T0 4 - ^ = 
STACK WIN 4 2cc8a 1e 0 0 10 8 0 0 1 $T0 $ebp = $eip $T0 4 + ^ = $ebp $T0 ^ = $esp $T0 8 + =  $23 $T0 4 - ^ =  $24 $T0 8 - ^ = 
STACK WIN 4 2ccab 14a 9 0 28 0 8 0 1 $T0 $ebp = $eip $T0 4 + ^ = $ebp $T0 ^ = $esp $T0 8 + = 
STACK WIN 4 2ccb3 13e 1 0 28 4 8 0 1 $T0 $ebp = $eip $T0 4 + ^ = $ebp $T0 ^ = $esp $T0 8 + =  $23 $T0 12 - ^ = 
STACK WIN 4 2ccb4 13c 0 0 28 8 8 0 1 $T0 $ebp = $eip $T0 4 + ^ = $ebp $T0 ^ = $esp $T0 8 + =  $23 $T0 12 - ^ =  $24 $T0 16 - ^ = 
STACK WIN 4 2ccd2 11d 0 0 28 c 8 0 1 $T0 $ebp = $eip $T0 4 + ^ = $ebp $T0 ^ = $esp $T0 8 + =  $23 $T0 12 - ^ =  $24 $T0 16 - ^ =  $20 $T0 20 - ^ = 
STACK WIN 4 2cdf5 32 5 0 8 0 0 0 1 $T0 $ebp = $eip $T0 4 + ^ = $ebp $T0 ^ = $esp $T0 8 + = 
STACK WIN 4 2ce27 126 13 0 8 0 10 0 1 $T0 $ebp = $eip $T0 4 + ^ = $ebp $T0 ^ = $esp $T0 8 + = 
STACK WIN 4 2ce3a 10a 0 0 8 4 10 0 1 $T0 $ebp = $eip $T0 4 + ^ = $ebp $T0 ^ = $esp $T0 8 + =  $24 $T0 20 - ^ = 
STACK WIN 4 2ce58 e6 0 0 8 8 10 0 1 $T0 $ebp = $eip $T0 4 + ^ = $ebp $T0 ^ = $esp $T0 8 + =  $24 $T0 20 - ^ =  $20 $T0 24 - ^ = 
STACK WIN 4 2ce59 e4 0 0 8 c 10 0 1 $T0 $ebp = $eip $T0 4 + ^ = $ebp $T0 ^ = $esp $T0 8 + =  $24 $T0 20 - ^ =  $20 $T0 24 - ^ =  $23 $T0 28 - ^ = 
STACK WIN 4 2cf4d 26 5 0 4 0 0 0 1 $T0 $ebp = $eip $T0 4 + ^ = $ebp $T0 ^ = $esp $T0 8 + = 
STACK WIN 4 2cf73 29 5 0 8 0 0 0 1 $T0 $ebp = $eip $T0 4 + ^ = $ebp $T0 ^ = $esp $T0 8 + = 
STACK WIN 4 2cf9c 15 0 0 0 0 0 0 1 $T0 .raSearch = $eip $T0 ^ = $esp $T0 4 + = 
STACK WIN 4 2cfb4 b5 6 0 4 0 0 0 1 $T0 $ebp = $eip $T0 4 + ^ = $ebp $T0 ^ = $esp $T0 8 + = 
STACK WIN 4 2cfba ad 0 0 4 4 0 0 1 $T0 $ebp = $eip $T0 4 + ^ = $ebp $T0 ^ = $esp $T0 8 + =  $23 $T0 4 - ^ = 
STACK WIN 4 2cfd7 8f 0 0 4 8 0 0 1 $T0 $ebp = $eip $T0 4 + ^ = $ebp $T0 ^ = $esp $T0 8 + =  $23 $T0 4 - ^ =  $20 $T0 8 - ^ = 
STACK WIN 4 2cfd8 8d 0 0 4 c 0 0 1 $T0 $ebp = $eip $T0 4 + ^ = $ebp $T0 ^ = $esp $T0 8 + =  $23 $T0 4 - ^ =  $20 $T0 8 - ^ =  $24 $T0 12 - ^ = 
STACK WIN 4 2d069 39 5 0 8 0 0 0 1 $T0 $ebp = $eip $T0 4 + ^ = $ebp $T0 ^ = $esp $T0 8 + = 
STACK WIN 4 2d075 2b 0 0 8 4 0 0 1 $T0 $ebp = $eip $T0 4 + ^ = $ebp $T0 ^ = $esp $T0 8 + =  $23 $T0 4 - ^ = 
STACK WIN 4 2d079 26 0 0 8 8 0 0 1 $T0 $ebp = $eip $T0 4 + ^ = $ebp $T0 ^ = $esp $T0 8 + =  $23 $T0 4 - ^ =  $24 $T0 8 - ^ = 
STACK WIN 4 2d0a2 b6 8 0 0 0 48 0 1 $T0 $ebp = $eip $T0 4 + ^ = $ebp $T0 ^ = $esp $T0 8 + = 
STACK WIN 4 2d0cb 89 0 0 0 4 48 0 1 $T0 $ebp = $eip $T0 4 + ^ = $ebp $T0 ^ = $esp $T0 8 + =  $20 $T0 76 - ^ = 
STACK WIN 4 2d0cc 87 0 0 0 8 48 0 1 $T0 $ebp = $eip $T0 4 + ^ = $ebp $T0 ^ = $esp $T0 8 + =  $20 $T0 76 - ^ =  $23 $T0 80 - ^ = 
STACK WIN 4 2d0f5 5d 0 0 0 c 48 0 1 $T0 $ebp = $eip $T0 4 + ^ = $ebp $T0 ^ = $esp $T0 8 + =  $20 $T0 76 - ^ =  $23 $T0 80 - ^ =  $24 $T0 84 - ^ = 
STACK WIN 4 2d158 b6 5 0 0 0 0 0 1 $T0 .raSearch = $eip $T0 ^ = $esp $T0 4 + = 
STACK WIN 4 2d15b b2 2 0 0 4 0 0 1 $T0 .raSearch = $eip $T0 ^ = $esp $T0 4 + =  $20 $T0 4 - ^ = 
STACK WIN 4 2d15c b0 1 0 0 8 0 0 1 $T0 .raSearch = $eip $T0 ^ = $esp $T0 4 + =  $20 $T0 4 - ^ =  $23 $T0 8 - ^ = 
STACK WIN 4 2d15d ae 0 0 0 c 0 0 1 $T0 .raSearch = $eip $T0 ^ = $esp $T0 4 + =  $20 $T0 4 - ^ =  $23 $T0 8 - ^ =  $24 $T0 12 - ^ = 
STACK WIN 4 2d20e 56 c 0 0 10 1c 0 1 $T0 $ebp = $eip $T0 4 + ^ = $ebp $T0 ^ = $esp $T0 8 + =  $20 $T0 32 - ^ =  $23 $T0 36 - ^ =  $24 $T0 40 - ^ = 
STACK WIN 4 2d258 b 0 0 0 10 1c 0 1 $T0 $ebp = $T2 $esp = $T1 .raSearchStart = $eip $T1 ^ = $ebp $T0 = $esp $T1 4 + = 
STACK WIN 4 2d264 2c 3 0 4 0 0 0 1 $T0 .raSearch = $eip $T0 ^ = $esp $T0 4 + = 
STACK WIN 4 2d267 28 0 0 4 4 0 0 1 $T0 .raSearch = $eip $T0 ^ = $esp $T0 4 + =  $23 $T0 4 - ^ = 
STACK WIN 4 2d290 1a 0 0 0 0 0 0 1 $T0 .raSearch = $eip $T0 ^ = $esp $T0 4 + = 
STACK WIN 4 2d2aa 1a 0 0 0 0 0 0 1 $T0 .raSearch = $eip $T0 ^ = $esp $T0 4 + = 
STACK WIN 4 2d2c4 1a 0 0 0 0 0 0 1 $T0 .raSearch = $eip $T0 ^ = $esp $T0 4 + = 
STACK WIN 4 2d2de 9c b 0 10 0 0 0 1 $T0 $ebp = $eip $T0 4 + ^ = $ebp $T0 ^ = $esp $T0 8 + = 
STACK WIN 4 2d2e7 91 2 0 10 4 0 0 1 $T0 $ebp = $eip $T0 4 + ^ = $ebp $T0 ^ = $esp $T0 8 + =  $20 $T0 4 - ^ = 
STACK WIN 4 2d2e8 8f 1 0 10 8 0 0 1 $T0 $ebp = $eip $T0 4 + ^ = $ebp $T0 ^ = $esp $T0 8 + =  $20 $T0 4 - ^ =  $23 $T0 8 - ^ = 
STACK WIN 4 2d2e9 8d 0 0 10 c 0 0 1 $T0 $ebp = $eip $T0 4 + ^ = $ebp $T0 ^ = $esp $T0 8 + =  $20 $T0 4 - ^ =  $23 $T0 8 - ^ =  $24 $T0 12 - ^ = 
STACK WIN 4 2d37a 7b 9 0 4 0 0 0 1 $T0 $ebp = $eip $T0 4 + ^ = $ebp $T0 ^ = $esp $T0 8 + = 
STACK WIN 4 2d383 70 0 0 4 4 0 0 1 $T0 $ebp = $eip $T0 4 + ^ = $ebp $T0 ^ = $esp $T0 8 + =  $24 $T0 4 - ^ = 
STACK WIN 4 2d39c 56 0 0 4 8 0 0 1 $T0 $ebp = $eip $T0 4 + ^ = $ebp $T0 ^ = $esp $T0 8 + =  $24 $T0 4 - ^ =  $20 $T0 8 - ^ = 
STACK WIN 4 2d3a4 4d 0 0 4 c 0 0 1 $T0 $ebp = $eip $T0 4 + ^ = $ebp $T0 ^ = $esp $T0 8 + =  $24 $T0 4 - ^ =  $20 $T0 8 - ^ =  $23 $T0 12 - ^ = 
STACK WIN 4 2d3f5 74 11 0 24 0 4 0 1 $T0 $ebp = $eip $T0 4 + ^ = $ebp $T0 ^ = $esp $T0 8 + = 
STACK WIN 4 2d406 58 0 0 24 4 4 0 1 $T0 $ebp = $eip $T0 4 + ^ = $ebp $T0 ^ = $esp $T0 8 + =  $23 $T0 8 - ^ = 
STACK WIN 4 2d469 56 11 0 4 0 4 0 1 $T0 $ebp = $eip $T0 4 + ^ = $ebp $T0 ^ = $esp $T0 8 + = 
STACK WIN 4 2d47a 3a 0 0 4 4 4 0 1 $T0 $ebp = $eip $T0 4 + ^ = $ebp $T0 ^ = $esp $T0 8 + =  $23 $T0 8 - ^ = 
STACK WIN 4 2d4bf 56 11 0 4 0 4 0 1 $T0 $ebp = $eip $T0 4 + ^ = $ebp $T0 ^ = $esp $T0 8 + = 
STACK WIN 4 2d4d0 3a 0 0 4 4 4 0 1 $T0 $ebp = $eip $T0 4 + ^ = $ebp $T0 ^ = $esp $T0 8 + =  $23 $T0 8 - ^ = 
STACK WIN 4 2d515 56 11 0 4 0 4 0 1 $T0 $ebp = $eip $T0 4 + ^ = $ebp $T0 ^ = $esp $T0 8 + = 
STACK WIN 4 2d526 3a 0 0 4 4 4 0 1 $T0 $ebp = $eip $T0 4 + ^ = $ebp $T0 ^ = $esp $T0 8 + =  $23 $T0 8 - ^ = 
STACK WIN 4 2d56b 59 11 0 8 0 4 0 1 $T0 $ebp = $eip $T0 4 + ^ = $ebp $T0 ^ = $esp $T0 8 + = 
STACK WIN 4 2d57c 3d 0 0 8 4 4 0 1 $T0 $ebp = $eip $T0 4 + ^ = $ebp $T0 ^ = $esp $T0 8 + =  $23 $T0 8 - ^ = 
STACK WIN 4 2d5c4 62 11 0 c 0 4 0 1 $T0 $ebp = $eip $T0 4 + ^ = $ebp $T0 ^ = $esp $T0 8 + = 
STACK WIN 4 2d5d5 46 0 0 c 4 4 0 1 $T0 $ebp = $eip $T0 4 + ^ = $ebp $T0 ^ = $esp $T0 8 + =  $23 $T0 8 - ^ = 
STACK WIN 4 2d626 88 11 0 24 0 4 0 1 $T0 $ebp = $eip $T0 4 + ^ = $ebp $T0 ^ = $esp $T0 8 + = 
STACK WIN 4 2d637 6c 0 0 24 4 4 0 1 $T0 $ebp = $eip $T0 4 + ^ = $ebp $T0 ^ = $esp $T0 8 + =  $23 $T0 8 - ^ = 
STACK WIN 4 2d6ae 5c 11 0 8 0 4 0 1 $T0 $ebp = $eip $T0 4 + ^ = $ebp $T0 ^ = $esp $T0 8 + = 
STACK WIN 4 2d6bf 40 0 0 8 4 4 0 1 $T0 $ebp = $eip $T0 4 + ^ = $ebp $T0 ^ = $esp $T0 8 + =  $23 $T0 8 - ^ = 
STACK WIN 4 2d70a 49 11 0 10 0 4 0 1 $T0 $ebp = $eip $T0 4 + ^ = $ebp $T0 ^ = $esp $T0 8 + = 
STACK WIN 4 2d71b 27 0 0 10 4 4 0 1 $T0 $ebp = $eip $T0 4 + ^ = $ebp $T0 ^ = $esp $T0 8 + =  $23 $T0 8 - ^ = 
STACK WIN 4 2d753 19 0 0 0 0 0 0 1 $T0 .raSearch = $eip $T0 ^ = $esp $T0 4 + = 
STACK WIN 4 2d76c 7f 11 0 0 0 4 0 1 $T0 $ebp = $eip $T0 4 + ^ = $ebp $T0 ^ = $esp $T0 8 + = 
STACK WIN 4 2d77d 65 0 0 0 4 4 0 1 $T0 $ebp = $eip $T0 4 + ^ = $ebp $T0 ^ = $esp $T0 8 + =  $23 $T0 8 - ^ = 
STACK WIN 4 2d79d 3f 0 0 0 8 4 0 1 $T0 $ebp = $eip $T0 4 + ^ = $ebp $T0 ^ = $esp $T0 8 + =  $23 $T0 8 - ^ =  $24 $T0 12 - ^ = 
STACK WIN 4 2d7eb 26 6 0 0 0 0 0 1 $T0 .raSearch = $eip $T0 ^ = $esp $T0 4 + = 
STACK WIN 4 2d7f1 1f 0 0 0 4 0 0 1 $T0 .raSearch = $eip $T0 ^ = $esp $T0 4 + =  $24 $T0 4 - ^ = 
STACK WIN 4 2d811 a6 13 0 0 0 10 0 1 $T0 $ebp = $eip $T0 4 + ^ = $ebp $T0 ^ = $esp $T0 8 + = 
STACK WIN 4 2d824 8a 0 0 0 4 10 0 1 $T0 $ebp = $eip $T0 4 + ^ = $ebp $T0 ^ = $esp $T0 8 + =  $23 $T0 20 - ^ = 
STACK WIN 4 2d848 60 0 0 0 8 10 0 1 $T0 $ebp = $eip $T0 4 + ^ = $ebp $T0 ^ = $esp $T0 8 + =  $23 $T0 20 - ^ =  $20 $T0 24 - ^ = 
STACK WIN 4 2d87c 1e 0 0 0 c 10 0 1 $T0 $ebp = $eip $T0 4 + ^ = $ebp $T0 ^ = $esp $T0 8 + =  $23 $T0 20 - ^ =  $20 $T0 24 - ^ =  $24 $T0 28 - ^ = 
STACK WIN 4 2d8b7 87 11 0 0 0 8 0 1 $T0 $ebp = $eip $T0 4 + ^ = $ebp $T0 ^ = $esp $T0 8 + = 
STACK WIN 4 2d8dd 53 0 0 0 4 8 0 1 $T0 $ebp = $eip $T0 4 + ^ = $ebp $T0 ^ = $esp $T0 8 + =  $23 $T0 12 - ^ = 
STACK WIN 4 2d93e 36 5 0 4 0 0 0 1 $T0 $ebp = $eip $T0 4 + ^ = $ebp $T0 ^ = $esp $T0 8 + = 
STACK WIN 4 2d94a 26 0 0 4 4 0 0 1 $T0 $ebp = $eip $T0 4 + ^ = $ebp $T0 ^ = $esp $T0 8 + =  $23 $T0 4 - ^ = 
STACK WIN 4 2d974 a0 c 0 0 10 20 0 1 $T0 $ebp = $eip $T0 4 + ^ = $ebp $T0 ^ = $esp $T0 8 + =  $20 $T0 36 - ^ =  $23 $T0 40 - ^ =  $24 $T0 44 - ^ = 
STACK WIN 4 2da0b 8 0 0 0 10 20 0 1 $T0 $ebp = $T2 $esp = $T1 .raSearchStart = $eip $T1 ^ = $ebp $T0 = $esp $T1 4 + = 
STACK WIN 4 2da14 3e a 0 4 0 0 0 1 $T0 $ebp = $eip $T0 4 + ^ = $ebp $T0 ^ = $esp $T0 8 + = 
STACK WIN 4 2da1a 36 4 0 4 4 0 0 1 $T0 $ebp = $eip $T0 4 + ^ = $ebp $T0 ^ = $esp $T0 8 + =  $23 $T0 4 - ^ = 
STACK WIN 4 2da1e 31 0 0 4 8 0 0 1 $T0 $ebp = $eip $T0 4 + ^ = $ebp $T0 ^ = $esp $T0 8 + =  $23 $T0 4 - ^ =  $24 $T0 8 - ^ = 
STACK WIN 4 2da52 26 6 0 0 0 4 0 1 $T0 $ebp = $eip $T0 4 + ^ = $ebp $T0 ^ = $esp $T0 8 + = 
STACK WIN 4 2da78 d2 13 0 c 0 24 0 1 $T0 $ebp = $eip $T0 4 + ^ = $ebp $T0 ^ = $esp $T0 8 + = 
STACK WIN 4 2da8b b6 0 0 c 4 24 0 1 $T0 $ebp = $eip $T0 4 + ^ = $ebp $T0 ^ = $esp $T0 8 + =  $20 $T0 40 - ^ = 
STACK WIN 4 2db4a 18 5 0 8 0 0 0 1 $T0 $ebp = $eip $T0 4 + ^ = $ebp $T0 ^ = $esp $T0 8 + = 
STACK WIN 4 2db62 190 c 0 8 0 20 0 1 $T0 $ebp = $eip $T0 4 + ^ = $ebp $T0 ^ = $esp $T0 8 + = 
STACK WIN 4 2db6e 173 0 0 8 4 20 0 1 $T0 $ebp = $eip $T0 4 + ^ = $ebp $T0 ^ = $esp $T0 8 + =  $23 $T0 36 - ^ = 
STACK WIN 4 2db8e 152 0 0 8 8 20 0 1 $T0 $ebp = $eip $T0 4 + ^ = $ebp $T0 ^ = $esp $T0 8 + =  $23 $T0 36 - ^ =  $20 $T0 40 - ^ = 
STACK WIN 4 2db8f 150 0 0 8 c 20 0 1 $T0 $ebp = $eip $T0 4 + ^ = $ebp $T0 ^ = $esp $T0 8 + =  $23 $T0 36 - ^ =  $20 $T0 40 - ^ =  $24 $T0 44 - ^ = 
STACK WIN 4 2dcf2 96 6 0 10 0 4 0 1 $T0 $ebp = $eip $T0 4 + ^ = $ebp $T0 ^ = $esp $T0 8 + = 
STACK WIN 4 2dd0b 6c 0 0 10 4 4 0 1 $T0 $ebp = $eip $T0 4 + ^ = $ebp $T0 ^ = $esp $T0 8 + =  $24 $T0 8 - ^ = 
STACK WIN 4 2dd1e 58 0 0 10 8 4 0 1 $T0 $ebp = $eip $T0 4 + ^ = $ebp $T0 ^ = $esp $T0 8 + =  $24 $T0 8 - ^ =  $20 $T0 12 - ^ = 
STACK WIN 4 2dd1f 56 0 0 10 c 4 0 1 $T0 $ebp = $eip $T0 4 + ^ = $ebp $T0 ^ = $esp $T0 8 + =  $24 $T0 8 - ^ =  $20 $T0 12 - ^ =  $23 $T0 16 - ^ = 
STACK WIN 4 2dd88 184 21 0 c 0 150 0 1 $T0 $ebp = $eip $T0 4 + ^ = $ebp $T0 ^ = $esp $T0 8 + = 
STACK WIN 4 2dda1 cd 8 0 c 4 150 0 1 $T0 $ebp = $eip $T0 4 + ^ = $ebp $T0 ^ = $esp $T0 8 + =  $20 $T0 340 - ^ = 
STACK WIN 4 2dda5 c6 4 0 c 8 150 0 1 $T0 $ebp = $eip $T0 4 + ^ = $ebp $T0 ^ = $esp $T0 8 + =  $20 $T0 340 - ^ =  $23 $T0 344 - ^ = 
STACK WIN 4 2dda9 c1 0 0 c c 150 0 1 $T0 $ebp = $eip $T0 4 + ^ = $ebp $T0 ^ = $esp $T0 8 + =  $20 $T0 340 - ^ =  $23 $T0 344 - ^ =  $24 $T0 348 - ^ = 
STACK WIN 4 2df0c 25 6 0 0 0 0 0 1 $T0 .raSearch = $eip $T0 ^ = $esp $T0 4 + = 
STACK WIN 4 2df0f 21 3 0 0 4 0 0 1 $T0 .raSearch = $eip $T0 ^ = $esp $T0 4 + =  $23 $T0 4 - ^ = 
STACK WIN 4 2df10 1f 2 0 0 8 0 0 1 $T0 .raSearch = $eip $T0 ^ = $esp $T0 4 + =  $23 $T0 4 - ^ =  $24 $T0 8 - ^ = 
STACK WIN 4 2df31 35 9 0 4 0 0 0 1 $T0 $ebp = $eip $T0 4 + ^ = $ebp $T0 ^ = $esp $T0 8 + = 
STACK WIN 4 2df37 2b 3 0 4 4 0 0 1 $T0 $ebp = $eip $T0 4 + ^ = $ebp $T0 ^ = $esp $T0 8 + =  $23 $T0 4 - ^ = 
STACK WIN 4 2df38 29 2 0 4 8 0 0 1 $T0 $ebp = $eip $T0 4 + ^ = $ebp $T0 ^ = $esp $T0 8 + =  $23 $T0 4 - ^ =  $24 $T0 8 - ^ = 
STACK WIN 4 2df66 87 5 0 0 0 0 0 1 $T0 .raSearch = $eip $T0 ^ = $esp $T0 4 + = 
STACK WIN 4 2df69 83 2 0 0 4 0 0 1 $T0 .raSearch = $eip $T0 ^ = $esp $T0 4 + =  $23 $T0 4 - ^ = 
STACK WIN 4 2df6c 7f 0 0 0 8 0 0 1 $T0 .raSearch = $eip $T0 ^ = $esp $T0 4 + =  $23 $T0 4 - ^ =  $24 $T0 8 - ^ = 
STACK WIN 4 2dfb6 34 0 0 0 c 0 0 1 $T0 .raSearch = $eip $T0 ^ = $esp $T0 4 + =  $23 $T0 4 - ^ =  $24 $T0 8 - ^ =  $20 $T0 12 - ^ = 
STACK WIN 4 2dfed b 5 0 8 0 0 0 1 $T0 $ebp = $eip $T0 4 + ^ = $ebp $T0 ^ = $esp $T0 8 + = 
STACK WIN 4 2dff8 43 c 0 c 10 18 0 1 $T0 $ebp = $eip $T0 4 + ^ = $ebp $T0 ^ = $esp $T0 8 + =  $20 $T0 28 - ^ =  $23 $T0 32 - ^ =  $24 $T0 36 - ^ = 
STACK WIN 4 2e02f b 0 0 c 10 18 0 1 $T0 $ebp = $T2 $esp = $T1 .raSearchStart = $eip $T1 ^ = $ebp $T0 = $esp $T1 4 + = 
STACK WIN 4 2e03b 28 8 0 8 0 c 0 1 $T0 $ebp = $eip $T0 4 + ^ = $ebp $T0 ^ = $esp $T0 8 + = 
STACK WIN 4 2e063 c4 5 0 0 0 0 0 1 $T0 .raSearch = $eip $T0 ^ = $esp $T0 4 + = 
STACK WIN 4 2e066 c0 2 0 0 4 0 0 1 $T0 .raSearch = $eip $T0 ^ = $esp $T0 4 + =  $23 $T0 4 - ^ = 
STACK WIN 4 2e127 3e 5 0 4 0 0 0 1 $T0 $ebp = $eip $T0 4 + ^ = $ebp $T0 ^ = $esp $T0 8 + = 
STACK WIN 4 2e165 73 8 0 4 0 10 0 1 $T0 $ebp = $eip $T0 4 + ^ = $ebp $T0 ^ = $esp $T0 8 + = 
STACK WIN 4 2e1d8 65 b 0 4 0 0 0 1 $T0 $ebp = $eip $T0 4 + ^ = $ebp $T0 ^ = $esp $T0 8 + = 
STACK WIN 4 2e1de 5d 5 0 4 4 0 0 1 $T0 $ebp = $eip $T0 4 + ^ = $ebp $T0 ^ = $esp $T0 8 + =  $20 $T0 4 - ^ = 
STACK WIN 4 2e1e2 58 1 0 4 8 0 0 1 $T0 $ebp = $eip $T0 4 + ^ = $ebp $T0 ^ = $esp $T0 8 + =  $20 $T0 4 - ^ =  $23 $T0 8 - ^ = 
STACK WIN 4 2e1e3 56 0 0 4 c 0 0 1 $T0 $ebp = $eip $T0 4 + ^ = $ebp $T0 ^ = $esp $T0 8 + =  $20 $T0 4 - ^ =  $23 $T0 8 - ^ =  $24 $T0 12 - ^ = 
STACK WIN 4 2e23d 194 21 0 4 0 720 0 1 $T0 $ebp = $eip $T0 4 + ^ = $ebp $T0 ^ = $esp $T0 8 + = 
STACK WIN 4 2e253 175 b 0 4 4 720 0 1 $T0 $ebp = $eip $T0 4 + ^ = $ebp $T0 ^ = $esp $T0 8 + =  $20 $T0 1828 - ^ = 
STACK WIN 4 2e254 171 a 0 4 8 720 0 1 $T0 $ebp = $eip $T0 4 + ^ = $ebp $T0 ^ = $esp $T0 8 + =  $20 $T0 1828 - ^ =  $23 $T0 1832 - ^ = 
STACK WIN 4 2e25e 166 0 0 4 c 720 0 1 $T0 $ebp = $eip $T0 4 + ^ = $ebp $T0 ^ = $esp $T0 8 + =  $20 $T0 1828 - ^ =  $23 $T0 1832 - ^ =  $24 $T0 1836 - ^ = 
STACK WIN 4 2e3d1 101 8 0 8 0 c 0 1 $T0 $ebp = $eip $T0 4 + ^ = $ebp $T0 ^ = $esp $T0 8 + = 
STACK WIN 4 2e402 52 0 0 8 4 c 0 1 $T0 $ebp = $eip $T0 4 + ^ = $ebp $T0 ^ = $esp $T0 8 + =  $20 $T0 16 - ^ = 
STACK WIN 4 2e403 50 0 0 8 8 c 0 1 $T0 $ebp = $eip $T0 4 + ^ = $ebp $T0 ^ = $esp $T0 8 + =  $20 $T0 16 - ^ =  $23 $T0 20 - ^ = 
STACK WIN 4 2e404 4c 0 0 8 c c 0 1 $T0 $ebp = $eip $T0 4 + ^ = $ebp $T0 ^ = $esp $T0 8 + =  $20 $T0 16 - ^ =  $23 $T0 20 - ^ =  $24 $T0 24 - ^ = 
STACK WIN 4 2e4d2 1e 0 0 0 0 0 0 1 $T0 .raSearch = $eip $T0 ^ = $esp $T0 4 + = 
STACK WIN 4 2e4f0 a2 c 0 0 10 1c 0 1 $T0 $ebp = $eip $T0 4 + ^ = $ebp $T0 ^ = $esp $T0 8 + =  $20 $T0 32 - ^ =  $23 $T0 36 - ^ =  $24 $T0 40 - ^ = 
STACK WIN 4 2e57e b 0 0 0 10 1c 0 1 $T0 $ebp = $T2 $esp = $T1 .raSearchStart = $eip $T1 ^ = $ebp $T0 = $esp $T1 4 + = 
STACK WIN 4 2e592 1f1 14 0 8 0 20 0 1 $T0 $ebp = $eip $T0 4 + ^ = $ebp $T0 ^ = $esp $T0 8 + = 
STACK WIN 4 2e5a5 1d5 1 0 8 4 20 0 1 $T0 $ebp = $eip $T0 4 + ^ = $ebp $T0 ^ = $esp $T0 8 + =  $20 $T0 36 - ^ = 
STACK WIN 4 2e5a6 1d1 0 0 8 8 20 0 1 $T0 $ebp = $eip $T0 4 + ^ = $ebp $T0 ^ = $esp $T0 8 + =  $20 $T0 36 - ^ =  $23 $T0 40 - ^ = 
STACK WIN 4 2e5c7 1ac 0 0 8 c 20 0 1 $T0 $ebp = $eip $T0 4 + ^ = $ebp $T0 ^ = $esp $T0 8 + =  $20 $T0 36 - ^ =  $23 $T0 40 - ^ =  $24 $T0 44 - ^ = 
STACK WIN 4 2e783 81 6 0 10 0 0 0 1 $T0 $ebp = $eip $T0 4 + ^ = $ebp $T0 ^ = $esp $T0 8 + = 
STACK WIN 4 2e789 79 0 0 10 4 0 0 1 $T0 $ebp = $eip $T0 4 + ^ = $ebp $T0 ^ = $esp $T0 8 + =  $23 $T0 4 - ^ = 
STACK WIN 4 2e7af 52 0 0 10 8 0 0 1 $T0 $ebp = $eip $T0 4 + ^ = $ebp $T0 ^ = $esp $T0 8 + =  $23 $T0 4 - ^ =  $24 $T0 8 - ^ = 
STACK WIN 4 2e804 59 9 0 10 0 10 0 1 $T0 $ebp = $eip $T0 4 + ^ = $ebp $T0 ^ = $esp $T0 8 + = 
STACK WIN 4 2e80d 3e 0 0 10 4 10 0 1 $T0 $ebp = $eip $T0 4 + ^ = $ebp $T0 ^ = $esp $T0 8 + =  $23 $T0 20 - ^ = 
STACK WIN 4 2e85d 18 5 0 4 0 0 0 1 $T0 $ebp = $eip $T0 4 + ^ = $ebp $T0 ^ = $esp $T0 8 + = 
STACK WIN 4 2e875 19 0 0 0 0 0 0 1 $T0 .raSearch = $eip $T0 ^ = $esp $T0 4 + = 
STACK WIN 4 2e88e 37 9 0 4 0 0 0 1 $T0 $ebp = $eip $T0 4 + ^ = $ebp $T0 ^ = $esp $T0 8 + = 
STACK WIN 4 2e897 2c 0 0 4 4 0 0 1 $T0 $ebp = $eip $T0 4 + ^ = $ebp $T0 ^ = $esp $T0 8 + =  $24 $T0 4 - ^ = 
STACK WIN 4 2e89f 20 0 0 4 8 0 0 1 $T0 $ebp = $eip $T0 4 + ^ = $ebp $T0 ^ = $esp $T0 8 + =  $24 $T0 4 - ^ =  $23 $T0 8 - ^ = 
STACK WIN 4 2e8c5 83 9 0 0 0 4 0 1 $T0 $ebp = $eip $T0 4 + ^ = $ebp $T0 ^ = $esp $T0 8 + = 
STACK WIN 4 2e8cc 78 2 0 0 4 4 0 1 $T0 $ebp = $eip $T0 4 + ^ = $ebp $T0 ^ = $esp $T0 8 + =  $20 $T0 8 - ^ = 
STACK WIN 4 2e8cd 74 1 0 0 8 4 0 1 $T0 $ebp = $eip $T0 4 + ^ = $ebp $T0 ^ = $esp $T0 8 + =  $20 $T0 8 - ^ =  $23 $T0 12 - ^ = 
STACK WIN 4 2e8ce 72 0 0 0 c 4 0 1 $T0 $ebp = $eip $T0 4 + ^ = $ebp $T0 ^ = $esp $T0 8 + =  $20 $T0 8 - ^ =  $23 $T0 12 - ^ =  $24 $T0 16 - ^ = 
STACK WIN 4 2e948 23b 9 0 8 0 c 0 1 $T0 $ebp = $eip $T0 4 + ^ = $ebp $T0 ^ = $esp $T0 8 + = 
STACK WIN 4 2e951 94 0 0 8 4 c 0 1 $T0 $ebp = $eip $T0 4 + ^ = $ebp $T0 ^ = $esp $T0 8 + =  $20 $T0 16 - ^ = 
STACK WIN 4 2e969 7b 0 0 8 8 c 0 1 $T0 $ebp = $eip $T0 4 + ^ = $ebp $T0 ^ = $esp $T0 8 + =  $20 $T0 16 - ^ =  $23 $T0 20 - ^ = 
STACK WIN 4 2e96a 77 0 0 8 c c 0 1 $T0 $ebp = $eip $T0 4 + ^ = $ebp $T0 ^ = $esp $T0 8 + =  $20 $T0 16 - ^ =  $23 $T0 20 - ^ =  $24 $T0 24 - ^ = 
STACK WIN 4 2eb83 b1 7 0 4 0 4 0 1 $T0 $ebp = $eip $T0 4 + ^ = $ebp $T0 ^ = $esp $T0 8 + = 
STACK WIN 4 2eb8a 94 0 0 4 4 4 0 1 $T0 $ebp = $eip $T0 4 + ^ = $ebp $T0 ^ = $esp $T0 8 + =  $24 $T0 8 - ^ = 
STACK WIN 4 2ebaa 73 0 0 4 8 4 0 1 $T0 $ebp = $eip $T0 4 + ^ = $ebp $T0 ^ = $esp $T0 8 + =  $24 $T0 8 - ^ =  $23 $T0 12 - ^ = 
STACK WIN 4 2ebc3 4f 0 0 4 c 4 0 1 $T0 $ebp = $eip $T0 4 + ^ = $ebp $T0 ^ = $esp $T0 8 + =  $24 $T0 8 - ^ =  $23 $T0 12 - ^ =  $20 $T0 16 - ^ = 
STACK WIN 4 2ec22 12 0 0 4 4 4 0 1 $T0 $ebp = $eip $T0 4 + ^ = $ebp $T0 ^ = $esp $T0 8 + =  $24 $T0 8 - ^ =  $23 $T0 12 - ^ =  $20 $T0 16 - ^ = 
STACK WIN 4 2ec34 54 8 0 8 0 0 0 1 $T0 $ebp = $eip $T0 4 + ^ = $ebp $T0 ^ = $esp $T0 8 + = 
STACK WIN 4 2ec3a 45 2 0 8 4 0 0 1 $T0 $ebp = $eip $T0 4 + ^ = $ebp $T0 ^ = $esp $T0 8 + =  $20 $T0 4 - ^ = 
STACK WIN 4 2ec3b 43 1 0 8 8 0 0 1 $T0 $ebp = $eip $T0 4 + ^ = $ebp $T0 ^ = $esp $T0 8 + =  $20 $T0 4 - ^ =  $23 $T0 8 - ^ = 
STACK WIN 4 2ec3c 3f 0 0 8 c 0 0 1 $T0 $ebp = $eip $T0 4 + ^ = $ebp $T0 ^ = $esp $T0 8 + =  $20 $T0 4 - ^ =  $23 $T0 8 - ^ =  $24 $T0 12 - ^ = 
STACK WIN 4 2ec88 b 5 0 8 0 0 0 1 $T0 $ebp = $eip $T0 4 + ^ = $ebp $T0 ^ = $esp $T0 8 + = 
STACK WIN 4 2ec93 b 5 0 c 0 0 0 1 $T0 $ebp = $eip $T0 4 + ^ = $ebp $T0 ^ = $esp $T0 8 + = 
STACK WIN 4 2ec9e 6d 6 0 c 0 0 0 1 $T0 $ebp = $eip $T0 4 + ^ = $ebp $T0 ^ = $esp $T0 8 + = 
STACK WIN 4 2eca4 65 0 0 c 4 0 0 1 $T0 $ebp = $eip $T0 4 + ^ = $ebp $T0 ^ = $esp $T0 8 + =  $23 $T0 4 - ^ = 
STACK WIN 4 2ecc7 41 0 0 c 8 0 0 1 $T0 $ebp = $eip $T0 4 + ^ = $ebp $T0 ^ = $esp $T0 8 + =  $23 $T0 4 - ^ =  $20 $T0 8 - ^ = 
STACK WIN 4 2eccb 3a 0 0 c c 0 0 1 $T0 $ebp = $eip $T0 4 + ^ = $ebp $T0 ^ = $esp $T0 8 + =  $23 $T0 4 - ^ =  $20 $T0 8 - ^ =  $24 $T0 12 - ^ = 
STACK WIN 4 2ed0b 11 0 0 0 0 0 0 1 $T0 .raSearch = $eip $T0 ^ = $esp $T0 4 + = 
STACK WIN 4 2ed1c a 0 0 4 0 0 0 1 $T0 .raSearch = $eip $T0 ^ = $esp $T0 4 + = 
STACK WIN 4 2ed26 83 11 0 8 0 4 0 1 $T0 $ebp = $eip $T0 4 + ^ = $ebp $T0 ^ = $esp $T0 8 + = 
STACK WIN 4 2ed37 69 0 0 8 4 4 0 1 $T0 $ebp = $eip $T0 4 + ^ = $ebp $T0 ^ = $esp $T0 8 + =  $24 $T0 8 - ^ = 
STACK WIN 4 2ed44 56 0 0 8 8 4 0 1 $T0 $ebp = $eip $T0 4 + ^ = $ebp $T0 ^ = $esp $T0 8 + =  $24 $T0 8 - ^ =  $23 $T0 12 - ^ = 
STACK WIN 4 2ed47 52 0 0 8 c 4 0 1 $T0 $ebp = $eip $T0 4 + ^ = $ebp $T0 ^ = $esp $T0 8 + =  $24 $T0 8 - ^ =  $23 $T0 12 - ^ =  $20 $T0 16 - ^ = 
STACK WIN 4 2eda9 4d 11 0 8 0 4 0 1 $T0 $ebp = $eip $T0 4 + ^ = $ebp $T0 ^ = $esp $T0 8 + = 
STACK WIN 4 2edba 33 0 0 8 4 4 0 1 $T0 $ebp = $eip $T0 4 + ^ = $ebp $T0 ^ = $esp $T0 8 + =  $23 $T0 8 - ^ = 
STACK WIN 4 2edc6 1f 0 0 8 8 4 0 1 $T0 $ebp = $eip $T0 4 + ^ = $ebp $T0 ^ = $esp $T0 8 + =  $23 $T0 8 - ^ =  $24 $T0 12 - ^ = 
STACK WIN 4 2edf6 19 0 0 0 0 0 0 1 $T0 .raSearch = $eip $T0 ^ = $esp $T0 4 + = 
STACK WIN 4 2ee0f 14 5 0 4 0 0 0 1 $T0 $ebp = $eip $T0 4 + ^ = $ebp $T0 ^ = $esp $T0 8 + = 
STACK WIN 4 2ee23 49 11 0 4 0 4 0 1 $T0 $ebp = $eip $T0 4 + ^ = $ebp $T0 ^ = $esp $T0 8 + = 
STACK WIN 4 2ee34 2f 0 0 4 4 4 0 1 $T0 $ebp = $eip $T0 4 + ^ = $ebp $T0 ^ = $esp $T0 8 + =  $23 $T0 8 - ^ = 
STACK WIN 4 2ee6c 6 0 0 0 0 0 0 1 $T0 .raSearch = $eip $T0 ^ = $esp $T0 4 + = 
STACK WIN 4 2ee72 98 c 0 c 10 1c 0 1 $T0 $ebp = $eip $T0 4 + ^ = $ebp $T0 ^ = $esp $T0 8 + =  $20 $T0 32 - ^ =  $23 $T0 36 - ^ =  $24 $T0 40 - ^ = 
STACK WIN 4 2eefb e 0 0 c 10 1c 0 1 $T0 $ebp = $T2 $esp = $T1 .raSearchStart = $eip $T1 ^ = $ebp $T0 = $esp $T1 4 + = 
STACK WIN 4 2ef0a 28 8 0 8 0 c 0 1 $T0 $ebp = $eip $T0 4 + ^ = $ebp $T0 ^ = $esp $T0 8 + = 
STACK WIN 4 2ef32 6f 7 0 4 0 4 0 1 $T0 $ebp = $eip $T0 4 + ^ = $ebp $T0 ^ = $esp $T0 8 + = 
STACK WIN 4 2ef39 64 0 0 4 4 4 0 1 $T0 $ebp = $eip $T0 4 + ^ = $ebp $T0 ^ = $esp $T0 8 + =  $23 $T0 8 - ^ = 
STACK WIN 4 2efa1 1b3 2a 0 10 0 38 0 1 $T0 $ebp = $eip $T0 4 + ^ = $ebp $T0 ^ = $esp $T0 8 + = 
STACK WIN 4 2efbf 18c c 0 10 4 38 0 1 $T0 $ebp = $eip $T0 4 + ^ = $ebp $T0 ^ = $esp $T0 8 + =  $20 $T0 60 - ^ = 
STACK WIN 4 2efc3 185 8 0 10 8 38 0 1 $T0 $ebp = $eip $T0 4 + ^ = $ebp $T0 ^ = $esp $T0 8 + =  $20 $T0 60 - ^ =  $23 $T0 64 - ^ = 
STACK WIN 4 2efcb 17c 0 0 10 c 38 0 1 $T0 $ebp = $eip $T0 4 + ^ = $ebp $T0 ^ = $esp $T0 8 + =  $20 $T0 60 - ^ =  $23 $T0 64 - ^ =  $24 $T0 68 - ^ = 
STACK WIN 4 2f154 6d e 0 c 0 4 0 1 $T0 $ebp = $eip $T0 4 + ^ = $ebp $T0 ^ = $esp $T0 8 + = 
STACK WIN 4 2f15b 62 7 0 c 4 4 0 1 $T0 $ebp = $eip $T0 4 + ^ = $ebp $T0 ^ = $esp $T0 8 + =  $20 $T0 8 - ^ = 
STACK WIN 4 2f15c 60 6 0 c 8 4 0 1 $T0 $ebp = $eip $T0 4 + ^ = $ebp $T0 ^ = $esp $T0 8 + =  $20 $T0 8 - ^ =  $23 $T0 12 - ^ = 
STACK WIN 4 2f162 57 0 0 c c 4 0 1 $T0 $ebp = $eip $T0 4 + ^ = $ebp $T0 ^ = $esp $T0 8 + =  $20 $T0 8 - ^ =  $23 $T0 12 - ^ =  $24 $T0 16 - ^ = 
STACK WIN 4 2f1c1 76 7 0 4 0 4 0 1 $T0 $ebp = $eip $T0 4 + ^ = $ebp $T0 ^ = $esp $T0 8 + = 
STACK WIN 4 2f1c8 6b 0 0 4 4 4 0 1 $T0 $ebp = $eip $T0 4 + ^ = $ebp $T0 ^ = $esp $T0 8 + =  $23 $T0 8 - ^ = 
STACK WIN 4 2f1db 57 0 0 4 8 4 0 1 $T0 $ebp = $eip $T0 4 + ^ = $ebp $T0 ^ = $esp $T0 8 + =  $23 $T0 8 - ^ =  $24 $T0 12 - ^ = 
STACK WIN 4 2f237 df 37 0 10 0 1410 0 1 $T0 $ebp = $eip $T0 4 + ^ = $ebp $T0 ^ = $esp $T0 8 + = 
STACK WIN 4 2f25f ae f 0 10 4 1410 0 1 $T0 $ebp = $eip $T0 4 + ^ = $ebp $T0 ^ = $esp $T0 8 + =  $20 $T0 5140 - ^ = 
STACK WIN 4 2f26a a0 4 0 10 8 1410 0 1 $T0 $ebp = $eip $T0 4 + ^ = $ebp $T0 ^ = $esp $T0 8 + =  $20 $T0 5140 - ^ =  $23 $T0 5144 - ^ = 
STACK WIN 4 2f26e 9b 0 0 10 c 1410 0 1 $T0 $ebp = $eip $T0 4 + ^ = $ebp $T0 ^ = $esp $T0 8 + =  $20 $T0 5140 - ^ =  $23 $T0 5144 - ^ =  $24 $T0 5148 - ^ = 
STACK WIN 4 2f316 ee 37 0 10 0 1410 0 1 $T0 $ebp = $eip $T0 4 + ^ = $ebp $T0 ^ = $esp $T0 8 + = 
STACK WIN 4 2f33e bd f 0 10 4 1410 0 1 $T0 $ebp = $eip $T0 4 + ^ = $ebp $T0 ^ = $esp $T0 8 + =  $20 $T0 5140 - ^ = 
STACK WIN 4 2f349 af 4 0 10 8 1410 0 1 $T0 $ebp = $eip $T0 4 + ^ = $ebp $T0 ^ = $esp $T0 8 + =  $20 $T0 5140 - ^ =  $23 $T0 5144 - ^ = 
STACK WIN 4 2f34d aa 0 0 10 c 1410 0 1 $T0 $ebp = $eip $T0 4 + ^ = $ebp $T0 ^ = $esp $T0 8 + =  $20 $T0 5140 - ^ =  $23 $T0 5144 - ^ =  $24 $T0 5148 - ^ = 
STACK WIN 4 2f404 12d 36 0 10 0 1418 0 1 $T0 $ebp = $eip $T0 4 + ^ = $ebp $T0 ^ = $esp $T0 8 + = 
STACK WIN 4 2f42c fc e 0 10 4 1418 0 1 $T0 $ebp = $eip $T0 4 + ^ = $ebp $T0 ^ = $esp $T0 8 + =  $20 $T0 5148 - ^ = 
STACK WIN 4 2f42d f8 d 0 10 8 1418 0 1 $T0 $ebp = $eip $T0 4 + ^ = $ebp $T0 ^ = $esp $T0 8 + =  $20 $T0 5148 - ^ =  $23 $T0 5152 - ^ = 
STACK WIN 4 2f43a ea 0 0 10 c 1418 0 1 $T0 $ebp = $eip $T0 4 + ^ = $ebp $T0 ^ = $esp $T0 8 + =  $20 $T0 5148 - ^ =  $23 $T0 5152 - ^ =  $24 $T0 5156 - ^ = 
STACK WIN 4 2f531 eb c 0 c 10 24 0 1 $T0 $ebp = $eip $T0 4 + ^ = $ebp $T0 ^ = $esp $T0 8 + =  $20 $T0 40 - ^ =  $23 $T0 44 - ^ =  $24 $T0 48 - ^ = 
STACK WIN 4 2f5ed d 0 0 c 10 24 0 1 $T0 $ebp = $T2 $esp = $T1 .raSearchStart = $eip $T1 ^ = $ebp $T0 = $esp $T1 4 + = 
STACK WIN 4 2f61c 20c 1d 0 c 0 30 0 1 $T0 $ebp = $eip $T0 4 + ^ = $ebp $T0 ^ = $esp $T0 8 + = 
STACK WIN 4 2f635 1ea 4 0 c 4 30 0 1 $T0 $ebp = $eip $T0 4 + ^ = $ebp $T0 ^ = $esp $T0 8 + =  $23 $T0 52 - ^ = 
STACK WIN 4 2f639 1e3 0 0 c 8 30 0 1 $T0 $ebp = $eip $T0 4 + ^ = $ebp $T0 ^ = $esp $T0 8 + =  $23 $T0 52 - ^ =  $24 $T0 56 - ^ = 
STACK WIN 4 2f66e 1aa 0 0 c c 30 0 1 $T0 $ebp = $eip $T0 4 + ^ = $ebp $T0 ^ = $esp $T0 8 + =  $23 $T0 52 - ^ =  $24 $T0 56 - ^ =  $20 $T0 60 - ^ = 
STACK WIN 4 2f828 7d 5 0 4 0 0 0 1 $T0 $ebp = $eip $T0 4 + ^ = $ebp $T0 ^ = $esp $T0 8 + = 
STACK WIN 4 2f866 3d 0 0 4 4 0 0 1 $T0 $ebp = $eip $T0 4 + ^ = $ebp $T0 ^ = $esp $T0 8 + =  $23 $T0 4 - ^ = 
STACK WIN 4 2f8a5 14a c 0 4 0 4 0 1 $T0 $ebp = $eip $T0 4 + ^ = $ebp $T0 ^ = $esp $T0 8 + = 
STACK WIN 4 2f8ac 13f 5 0 4 4 4 0 1 $T0 $ebp = $eip $T0 4 + ^ = $ebp $T0 ^ = $esp $T0 8 + =  $20 $T0 8 - ^ = 
STACK WIN 4 2f8ad 13d 4 0 4 8 4 0 1 $T0 $ebp = $eip $T0 4 + ^ = $ebp $T0 ^ = $esp $T0 8 + =  $20 $T0 8 - ^ =  $23 $T0 12 - ^ = 
STACK WIN 4 2f8b1 138 0 0 4 c 4 0 1 $T0 $ebp = $eip $T0 4 + ^ = $ebp $T0 ^ = $esp $T0 8 + =  $20 $T0 8 - ^ =  $23 $T0 12 - ^ =  $24 $T0 16 - ^ = 
STACK WIN 4 2f9ef 29 5 0 4 0 0 0 1 $T0 $ebp = $eip $T0 4 + ^ = $ebp $T0 ^ = $esp $T0 8 + = 
STACK WIN 4 2fa18 30 6 0 4 0 0 0 1 $T0 $ebp = $eip $T0 4 + ^ = $ebp $T0 ^ = $esp $T0 8 + = 
STACK WIN 4 2fa1e 28 0 0 4 4 0 0 1 $T0 $ebp = $eip $T0 4 + ^ = $ebp $T0 ^ = $esp $T0 8 + =  $23 $T0 4 - ^ = 
STACK WIN 4 2fa48 29 5 0 4 0 0 0 1 $T0 $ebp = $eip $T0 4 + ^ = $ebp $T0 ^ = $esp $T0 8 + = 
STACK WIN 4 2fa71 81 5 0 4 0 0 0 1 $T0 $ebp = $eip $T0 4 + ^ = $ebp $T0 ^ = $esp $T0 8 + = 
STACK WIN 4 2fab3 3d 0 0 4 4 0 0 1 $T0 $ebp = $eip $T0 4 + ^ = $ebp $T0 ^ = $esp $T0 8 + =  $23 $T0 4 - ^ = 
STACK WIN 4 2faf2 77 c 0 0 10 1c 0 1 $T0 $ebp = $eip $T0 4 + ^ = $ebp $T0 ^ = $esp $T0 8 + =  $20 $T0 32 - ^ =  $23 $T0 36 - ^ =  $24 $T0 40 - ^ = 
STACK WIN 4 2fb55 b 0 0 0 10 1c 0 1 $T0 $ebp = $T2 $esp = $T1 .raSearchStart = $eip $T1 ^ = $ebp $T0 = $esp $T1 4 + = 
STACK WIN 4 2fb69 50 a 0 8 0 0 0 1 $T0 $ebp = $eip $T0 4 + ^ = $ebp $T0 ^ = $esp $T0 8 + = 
STACK WIN 4 2fb6f 48 4 0 8 4 0 0 1 $T0 $ebp = $eip $T0 4 + ^ = $ebp $T0 ^ = $esp $T0 8 + =  $23 $T0 4 - ^ = 
STACK WIN 4 2fb73 43 0 0 8 8 0 0 1 $T0 $ebp = $eip $T0 4 + ^ = $ebp $T0 ^ = $esp $T0 8 + =  $23 $T0 4 - ^ =  $24 $T0 8 - ^ = 
STACK WIN 4 2fbb9 fe 6 0 4 0 0 0 1 $T0 $ebp = $eip $T0 4 + ^ = $ebp $T0 ^ = $esp $T0 8 + = 
STACK WIN 4 2fbbf f6 0 0 4 4 0 0 1 $T0 $ebp = $eip $T0 4 + ^ = $ebp $T0 ^ = $esp $T0 8 + =  $23 $T0 4 - ^ = 
STACK WIN 4 2fcb7 69 6 0 4 0 0 0 1 $T0 $ebp = $eip $T0 4 + ^ = $ebp $T0 ^ = $esp $T0 8 + = 
STACK WIN 4 2fcbd 61 0 0 4 4 0 0 1 $T0 $ebp = $eip $T0 4 + ^ = $ebp $T0 ^ = $esp $T0 8 + =  $23 $T0 4 - ^ = 
STACK WIN 4 2fd20 3c e 0 8 0 0 0 1 $T0 $ebp = $eip $T0 4 + ^ = $ebp $T0 ^ = $esp $T0 8 + = 
STACK WIN 4 2fd29 31 5 0 8 4 0 0 1 $T0 $ebp = $eip $T0 4 + ^ = $ebp $T0 ^ = $esp $T0 8 + =  $20 $T0 4 - ^ = 
STACK WIN 4 2fd2a 2f 4 0 8 8 0 0 1 $T0 $ebp = $eip $T0 4 + ^ = $ebp $T0 ^ = $esp $T0 8 + =  $20 $T0 4 - ^ =  $23 $T0 8 - ^ = 
STACK WIN 4 2fd2e 2a 0 0 8 c 0 0 1 $T0 $ebp = $eip $T0 4 + ^ = $ebp $T0 ^ = $esp $T0 8 + =  $20 $T0 4 - ^ =  $23 $T0 8 - ^ =  $24 $T0 12 - ^ = 
STACK WIN 4 2fd5c e4 6 0 4 0 0 0 1 $T0 $ebp = $eip $T0 4 + ^ = $ebp $T0 ^ = $esp $T0 8 + = 
STACK WIN 4 2fd62 dc 0 0 4 4 0 0 1 $T0 $ebp = $eip $T0 4 + ^ = $ebp $T0 ^ = $esp $T0 8 + =  $23 $T0 4 - ^ = 
STACK WIN 4 2fe40 11d 15 0 1c c 18 0 1 $T0 $ebp = $eip $T0 4 + ^ = $ebp $T0 ^ = $esp $T0 8 + =  $20 $T0 28 - ^ =  $23 $T0 32 - ^ =  $24 $T0 36 - ^ = 
STACK WIN 4 2ff5d 20 5 0 4 0 0 0 1 $T0 $ebp = $eip $T0 4 + ^ = $ebp $T0 ^ = $esp $T0 8 + = 
STACK WIN 4 2ff7d 6c b 0 c 0 0 0 1 $T0 $ebp = $eip $T0 4 + ^ = $ebp $T0 ^ = $esp $T0 8 + = 
STACK WIN 4 2ff88 5f 0 0 c 4 0 0 1 $T0 $ebp = $eip $T0 4 + ^ = $ebp $T0 ^ = $esp $T0 8 + =  $23 $T0 4 - ^ = 
STACK WIN 4 2ffe9 b7 8 0 10 0 10 0 1 $T0 $ebp = $eip $T0 4 + ^ = $ebp $T0 ^ = $esp $T0 8 + = 
STACK WIN 4 2fffc 9c 0 0 10 4 10 0 1 $T0 $ebp = $eip $T0 4 + ^ = $ebp $T0 ^ = $esp $T0 8 + =  $20 $T0 20 - ^ = 
STACK WIN 4 2fffd 9a 0 0 10 8 10 0 1 $T0 $ebp = $eip $T0 4 + ^ = $ebp $T0 ^ = $esp $T0 8 + =  $20 $T0 20 - ^ =  $23 $T0 24 - ^ = 
STACK WIN 4 2fffe 96 0 0 10 c 10 0 1 $T0 $ebp = $eip $T0 4 + ^ = $ebp $T0 ^ = $esp $T0 8 + =  $20 $T0 20 - ^ =  $23 $T0 24 - ^ =  $24 $T0 28 - ^ = 
STACK WIN 4 300a0 2a8 2a 0 20 c 2c 0 1 $T0 $ebp = $eip $T0 4 + ^ = $ebp $T0 ^ = $esp $T0 8 + =  $20 $T0 48 - ^ =  $23 $T0 52 - ^ =  $24 $T0 56 - ^ = 
STACK WIN 4 30348 48 8 0 20 0 10 0 1 $T0 $ebp = $eip $T0 4 + ^ = $ebp $T0 ^ = $esp $T0 8 + = 
STACK WIN 4 30390 21d 17 0 24 c 8 0 1 $T0 $ebp = $eip $T0 4 + ^ = $ebp $T0 ^ = $esp $T0 8 + =  $20 $T0 12 - ^ =  $23 $T0 16 - ^ =  $24 $T0 20 - ^ = 
STACK WIN 4 305ad 4b 8 0 24 0 10 0 1 $T0 $ebp = $eip $T0 4 + ^ = $ebp $T0 ^ = $esp $T0 8 + = 
STACK WIN 4 305f8 bc 9 0 10 0 0 0 1 $T0 $ebp = $eip $T0 4 + ^ = $ebp $T0 ^ = $esp $T0 8 + = 
STACK WIN 4 30601 b1 0 0 10 4 0 0 1 $T0 $ebp = $eip $T0 4 + ^ = $ebp $T0 ^ = $esp $T0 8 + =  $23 $T0 4 - ^ = 
STACK WIN 4 30648 69 0 0 10 8 0 0 1 $T0 $ebp = $eip $T0 4 + ^ = $ebp $T0 ^ = $esp $T0 8 + =  $23 $T0 4 - ^ =  $20 $T0 8 - ^ = 
STACK WIN 4 3064e 60 0 0 10 c 0 0 1 $T0 $ebp = $eip $T0 4 + ^ = $ebp $T0 ^ = $esp $T0 8 + =  $23 $T0 4 - ^ =  $20 $T0 8 - ^ =  $24 $T0 12 - ^ = 
STACK WIN 4 306b4 2a 5 0 0 0 0 0 1 $T0 .raSearch = $eip $T0 ^ = $esp $T0 4 + = 
STACK WIN 4 306b7 26 2 0 0 4 0 0 1 $T0 .raSearch = $eip $T0 ^ = $esp $T0 4 + =  $23 $T0 4 - ^ = 
STACK WIN 4 306e0 4ae c 0 8 0 21c 0 1 $T0 $ebp = $eip $T0 4 + ^ = $ebp $T0 ^ = $esp $T0 8 + = 
STACK WIN 4 306ec 49e 0 0 8 4 21c 0 1 $T0 $ebp = $eip $T0 4 + ^ = $ebp $T0 ^ = $esp $T0 8 + =  $20 $T0 544 - ^ = 
STACK WIN 4 306fd 48c 0 0 8 8 21c 0 1 $T0 $ebp = $eip $T0 4 + ^ = $ebp $T0 ^ = $esp $T0 8 + =  $20 $T0 544 - ^ =  $24 $T0 548 - ^ = 
STACK WIN 4 30711 477 0 0 8 c 21c 0 1 $T0 $ebp = $eip $T0 4 + ^ = $ebp $T0 ^ = $esp $T0 8 + =  $20 $T0 544 - ^ =  $24 $T0 548 - ^ =  $23 $T0 552 - ^ = 
STACK WIN 4 30b8e 139c 21 0 18 0 964 0 1 $T0 $ebp = $eip $T0 4 + ^ = $ebp $T0 ^ = $esp $T0 8 + = 
STACK WIN 4 30ba4 135c b 0 18 4 964 0 1 $T0 $ebp = $eip $T0 4 + ^ = $ebp $T0 ^ = $esp $T0 8 + =  $20 $T0 2408 - ^ = 
STACK WIN 4 30bae 1351 1 0 18 8 964 0 1 $T0 $ebp = $eip $T0 4 + ^ = $ebp $T0 ^ = $esp $T0 8 + =  $20 $T0 2408 - ^ =  $23 $T0 2412 - ^ = 
STACK WIN 4 30baf 134f 0 0 18 c 964 0 1 $T0 $ebp = $eip $T0 4 + ^ = $ebp $T0 ^ = $esp $T0 8 + =  $20 $T0 2408 - ^ =  $23 $T0 2412 - ^ =  $24 $T0 2416 - ^ = 
STACK WIN 4 31f1d d 0 0 18 c 964 0 1 $T0 $ebp = $eip $T0 4 + ^ = $ebp $T0 ^ = $esp $T0 8 + =  $20 $T0 2408 - ^ =  $23 $T0 2412 - ^ =  $24 $T0 2416 - ^ = 
STACK WIN 4 31f2a 111 6 0 8 0 0 0 1 $T0 $ebp = $eip $T0 4 + ^ = $ebp $T0 ^ = $esp $T0 8 + = 
STACK WIN 4 31f30 109 0 0 8 4 0 0 1 $T0 $ebp = $eip $T0 4 + ^ = $ebp $T0 ^ = $esp $T0 8 + =  $24 $T0 4 - ^ = 
STACK WIN 4 31fb5 83 0 0 8 8 0 0 1 $T0 $ebp = $eip $T0 4 + ^ = $ebp $T0 ^ = $esp $T0 8 + =  $24 $T0 4 - ^ =  $20 $T0 8 - ^ = 
STACK WIN 4 31fdf 32 0 0 8 c 0 0 1 $T0 $ebp = $eip $T0 4 + ^ = $ebp $T0 ^ = $esp $T0 8 + =  $24 $T0 4 - ^ =  $20 $T0 8 - ^ =  $23 $T0 12 - ^ = 
STACK WIN 4 3203b 115 6 0 8 0 0 0 1 $T0 $ebp = $eip $T0 4 + ^ = $ebp $T0 ^ = $esp $T0 8 + = 
STACK WIN 4 32041 10d 0 0 8 4 0 0 1 $T0 $ebp = $eip $T0 4 + ^ = $ebp $T0 ^ = $esp $T0 8 + =  $24 $T0 4 - ^ = 
STACK WIN 4 320c8 85 0 0 8 8 0 0 1 $T0 $ebp = $eip $T0 4 + ^ = $ebp $T0 ^ = $esp $T0 8 + =  $24 $T0 4 - ^ =  $20 $T0 8 - ^ = 
STACK WIN 4 320c9 83 0 0 8 c 0 0 1 $T0 $ebp = $eip $T0 4 + ^ = $ebp $T0 ^ = $esp $T0 8 + =  $24 $T0 4 - ^ =  $20 $T0 8 - ^ =  $23 $T0 12 - ^ = 
STACK WIN 4 32150 cc 7 0 8 0 0 0 1 $T0 $ebp = $eip $T0 4 + ^ = $ebp $T0 ^ = $esp $T0 8 + = 
STACK WIN 4 32156 c4 1 0 8 4 0 0 1 $T0 $ebp = $eip $T0 4 + ^ = $ebp $T0 ^ = $esp $T0 8 + =  $23 $T0 4 - ^ = 
STACK WIN 4 32157 c2 0 0 8 8 0 0 1 $T0 $ebp = $eip $T0 4 + ^ = $ebp $T0 ^ = $esp $T0 8 + =  $23 $T0 4 - ^ =  $24 $T0 8 - ^ = 
STACK WIN 4 3221c d4 7 0 8 0 0 0 1 $T0 $ebp = $eip $T0 4 + ^ = $ebp $T0 ^ = $esp $T0 8 + = 
STACK WIN 4 32222 cc 1 0 8 4 0 0 1 $T0 $ebp = $eip $T0 4 + ^ = $ebp $T0 ^ = $esp $T0 8 + =  $23 $T0 4 - ^ = 
STACK WIN 4 32223 ca 0 0 8 8 0 0 1 $T0 $ebp = $eip $T0 4 + ^ = $ebp $T0 ^ = $esp $T0 8 + =  $23 $T0 4 - ^ =  $24 $T0 8 - ^ = 
STACK WIN 4 322f0 b 5 0 8 0 0 0 1 $T0 $ebp = $eip $T0 4 + ^ = $ebp $T0 ^ = $esp $T0 8 + = 
STACK WIN 4 322fb b 5 0 8 0 0 0 1 $T0 $ebp = $eip $T0 4 + ^ = $ebp $T0 ^ = $esp $T0 8 + = 
STACK WIN 4 32306 56 5 0 4 0 0 0 1 $T0 $ebp = $eip $T0 4 + ^ = $ebp $T0 ^ = $esp $T0 8 + = 
STACK WIN 4 3235c 7a 9 0 0 0 8 0 1 $T0 $ebp = $eip $T0 4 + ^ = $ebp $T0 ^ = $esp $T0 8 + = 
STACK WIN 4 32364 6e 1 0 0 4 8 0 1 $T0 $ebp = $eip $T0 4 + ^ = $ebp $T0 ^ = $esp $T0 8 + =  $20 $T0 12 - ^ = 
STACK WIN 4 32365 6c 0 0 0 8 8 0 1 $T0 $ebp = $eip $T0 4 + ^ = $ebp $T0 ^ = $esp $T0 8 + =  $20 $T0 12 - ^ =  $24 $T0 16 - ^ = 
STACK WIN 4 3238a 3d 0 0 0 c 8 0 1 $T0 $ebp = $eip $T0 4 + ^ = $ebp $T0 ^ = $esp $T0 8 + =  $20 $T0 12 - ^ =  $24 $T0 16 - ^ =  $23 $T0 20 - ^ = 
STACK WIN 4 323d6 35 6 0 4 0 0 0 1 $T0 $ebp = $eip $T0 4 + ^ = $ebp $T0 ^ = $esp $T0 8 + = 
STACK WIN 4 323dc 2d 0 0 4 4 0 0 1 $T0 $ebp = $eip $T0 4 + ^ = $ebp $T0 ^ = $esp $T0 8 + =  $23 $T0 4 - ^ = 
STACK WIN 4 323e4 24 0 0 4 8 0 0 1 $T0 $ebp = $eip $T0 4 + ^ = $ebp $T0 ^ = $esp $T0 8 + =  $23 $T0 4 - ^ =  $20 $T0 8 - ^ = 
STACK WIN 4 323eb 1c 0 0 4 c 0 0 1 $T0 $ebp = $eip $T0 4 + ^ = $ebp $T0 ^ = $esp $T0 8 + =  $23 $T0 4 - ^ =  $20 $T0 8 - ^ =  $24 $T0 12 - ^ = 
STACK WIN 4 3240b 98 c 0 4 10 24 0 1 $T0 $ebp = $eip $T0 4 + ^ = $ebp $T0 ^ = $esp $T0 8 + =  $20 $T0 40 - ^ =  $23 $T0 44 - ^ =  $24 $T0 48 - ^ = 
STACK WIN 4 32497 b 0 0 4 10 24 0 1 $T0 $ebp = $T2 $esp = $T1 .raSearchStart = $eip $T1 ^ = $ebp $T0 = $esp $T1 4 + = 
STACK WIN 4 324a3 23 5 0 4 0 0 0 1 $T0 $ebp = $eip $T0 4 + ^ = $ebp $T0 ^ = $esp $T0 8 + = 
STACK WIN 4 324c6 23 5 0 4 0 0 0 1 $T0 $ebp = $eip $T0 4 + ^ = $ebp $T0 ^ = $esp $T0 8 + = 
STACK WIN 4 324e9 91 b 0 4 0 0 0 1 $T0 $ebp = $eip $T0 4 + ^ = $ebp $T0 ^ = $esp $T0 8 + = 
STACK WIN 4 324ef 89 5 0 4 4 0 0 1 $T0 $ebp = $eip $T0 4 + ^ = $ebp $T0 ^ = $esp $T0 8 + =  $20 $T0 4 - ^ = 
STACK WIN 4 324f0 87 4 0 4 8 0 0 1 $T0 $ebp = $eip $T0 4 + ^ = $ebp $T0 ^ = $esp $T0 8 + =  $20 $T0 4 - ^ =  $23 $T0 8 - ^ = 
STACK WIN 4 324f4 82 0 0 4 c 0 0 1 $T0 $ebp = $eip $T0 4 + ^ = $ebp $T0 ^ = $esp $T0 8 + =  $20 $T0 4 - ^ =  $23 $T0 8 - ^ =  $24 $T0 12 - ^ = 
STACK WIN 4 3257a 6a 5 0 4 0 0 0 1 $T0 $ebp = $eip $T0 4 + ^ = $ebp $T0 ^ = $esp $T0 8 + = 
STACK WIN 4 325e4 bc b 0 4 0 10 0 1 $T0 $ebp = $eip $T0 4 + ^ = $ebp $T0 ^ = $esp $T0 8 + = 
STACK WIN 4 325ed af 2 0 4 4 10 0 1 $T0 $ebp = $eip $T0 4 + ^ = $ebp $T0 ^ = $esp $T0 8 + =  $20 $T0 20 - ^ = 
STACK WIN 4 325ee ad 1 0 4 8 10 0 1 $T0 $ebp = $eip $T0 4 + ^ = $ebp $T0 ^ = $esp $T0 8 + =  $20 $T0 20 - ^ =  $23 $T0 24 - ^ = 
STACK WIN 4 325ef ab 0 0 4 c 10 0 1 $T0 $ebp = $eip $T0 4 + ^ = $ebp $T0 ^ = $esp $T0 8 + =  $20 $T0 20 - ^ =  $23 $T0 24 - ^ =  $24 $T0 28 - ^ = 
STACK WIN 4 326a0 2c 5 0 4 0 0 0 1 $T0 $ebp = $eip $T0 4 + ^ = $ebp $T0 ^ = $esp $T0 8 + = 
STACK WIN 4 326cc 76 6 0 4 0 0 0 1 $T0 $ebp = $eip $T0 4 + ^ = $ebp $T0 ^ = $esp $T0 8 + = 
STACK WIN 4 326d2 6e 0 0 4 4 0 0 1 $T0 $ebp = $eip $T0 4 + ^ = $ebp $T0 ^ = $esp $T0 8 + =  $23 $T0 4 - ^ = 
STACK WIN 4 326f2 4d 0 0 4 8 0 0 1 $T0 $ebp = $eip $T0 4 + ^ = $ebp $T0 ^ = $esp $T0 8 + =  $23 $T0 4 - ^ =  $24 $T0 8 - ^ = 
STACK WIN 4 32742 80 c 0 4 10 20 0 1 $T0 $ebp = $eip $T0 4 + ^ = $ebp $T0 ^ = $esp $T0 8 + =  $20 $T0 36 - ^ =  $23 $T0 40 - ^ =  $24 $T0 44 - ^ = 
STACK WIN 4 327b5 c 0 0 4 10 20 0 1 $T0 $ebp = $T2 $esp = $T1 .raSearchStart = $eip $T1 ^ = $ebp $T0 = $esp $T1 4 + = 
STACK WIN 4 327d0 96 14 0 10 0 4 0 1 $T0 $ebp = $eip $T0 4 + ^ = $ebp $T0 ^ = $esp $T0 8 + = 
STACK WIN 4 327e4 79 0 0 10 4 4 0 1 $T0 $ebp = $eip $T0 4 + ^ = $ebp $T0 ^ = $esp $T0 8 + =  $20 $T0 8 - ^ = 
STACK WIN 4 327ef 68 0 0 10 8 4 0 1 $T0 $ebp = $eip $T0 4 + ^ = $ebp $T0 ^ = $esp $T0 8 + =  $20 $T0 8 - ^ =  $23 $T0 12 - ^ = 
STACK WIN 4 327f0 66 0 0 10 c 4 0 1 $T0 $ebp = $eip $T0 4 + ^ = $ebp $T0 ^ = $esp $T0 8 + =  $20 $T0 8 - ^ =  $23 $T0 12 - ^ =  $24 $T0 16 - ^ = 
STACK WIN 4 32870 39 9 0 c 0 0 0 1 $T0 $ebp = $eip $T0 4 + ^ = $ebp $T0 ^ = $esp $T0 8 + = 
STACK WIN 4 32879 2e 0 0 c 4 0 0 1 $T0 $ebp = $eip $T0 4 + ^ = $ebp $T0 ^ = $esp $T0 8 + =  $24 $T0 4 - ^ = 
STACK WIN 4 32881 25 0 0 c 8 0 0 1 $T0 $ebp = $eip $T0 4 + ^ = $ebp $T0 ^ = $esp $T0 8 + =  $24 $T0 4 - ^ =  $23 $T0 8 - ^ = 
STACK WIN 4 328b0 39a 2c 0 10 0 11c 0 1 $T0 $ebp = $eip $T0 4 + ^ = $ebp $T0 ^ = $esp $T0 8 + = 
STACK WIN 4 328d2 36f a 0 10 4 11c 0 1 $T0 $ebp = $eip $T0 4 + ^ = $ebp $T0 ^ = $esp $T0 8 + =  $23 $T0 288 - ^ = 
STACK WIN 4 328dc 362 0 0 10 8 11c 0 1 $T0 $ebp = $eip $T0 4 + ^ = $ebp $T0 ^ = $esp $T0 8 + =  $23 $T0 288 - ^ =  $24 $T0 292 - ^ = 
STACK WIN 4 3292d 30d 0 0 10 c 11c 0 1 $T0 $ebp = $eip $T0 4 + ^ = $ebp $T0 ^ = $esp $T0 8 + =  $23 $T0 288 - ^ =  $24 $T0 292 - ^ =  $20 $T0 296 - ^ = 
STACK WIN 4 32c4a b1 d 0 10 0 4 0 1 $T0 $ebp = $eip $T0 4 + ^ = $ebp $T0 ^ = $esp $T0 8 + = 
STACK WIN 4 32c57 40 0 0 10 4 4 0 1 $T0 $ebp = $eip $T0 4 + ^ = $ebp $T0 ^ = $esp $T0 8 + =  $23 $T0 8 - ^ = 
STACK WIN 4 32c9c 3f 0 0 10 8 4 0 1 $T0 $ebp = $eip $T0 4 + ^ = $ebp $T0 ^ = $esp $T0 8 + =  $23 $T0 8 - ^ =  $20 $T0 12 - ^ = 
STACK WIN 4 32ca1 37 0 0 10 c 4 0 1 $T0 $ebp = $eip $T0 4 + ^ = $ebp $T0 ^ = $esp $T0 8 + =  $23 $T0 8 - ^ =  $20 $T0 12 - ^ =  $24 $T0 16 - ^ = 
STACK WIN 4 32cfb b 5 0 10 0 0 0 1 $T0 $ebp = $eip $T0 4 + ^ = $ebp $T0 ^ = $esp $T0 8 + = 
STACK WIN 4 32d50 17 5 0 8 0 0 0 1 $T0 $ebp = $eip $T0 4 + ^ = $ebp $T0 ^ = $esp $T0 8 + = 
STACK WIN 4 32d67 8d 8 0 c 0 10 0 1 $T0 $ebp = $eip $T0 4 + ^ = $ebp $T0 ^ = $esp $T0 8 + = 
STACK WIN 4 32d8a 66 0 0 c 4 10 0 1 $T0 $ebp = $eip $T0 4 + ^ = $ebp $T0 ^ = $esp $T0 8 + =  $23 $T0 20 - ^ = 
STACK WIN 4 32df4 f 0 0 0 0 0 0 1 $T0 .raSearch = $eip $T0 ^ = $esp $T0 4 + = 
STACK WIN 4 32e03 33 5 0 4 0 0 0 1 $T0 $ebp = $eip $T0 4 + ^ = $ebp $T0 ^ = $esp $T0 8 + = 
STACK WIN 4 32e36 105 c 0 10 10 2c 0 1 $T0 $ebp = $eip $T0 4 + ^ = $ebp $T0 ^ = $esp $T0 8 + =  $20 $T0 48 - ^ =  $23 $T0 52 - ^ =  $24 $T0 56 - ^ = 
STACK WIN 4 32f05 10 0 0 10 10 2c 0 1 $T0 $ebp = $T2 $esp = $T1 .raSearchStart = $eip $T1 ^ = $ebp $T0 = $esp $T1 4 + = 
STACK WIN 4 32f3b 7e c 0 10 0 8 0 1 $T0 $ebp = $eip $T0 4 + ^ = $ebp $T0 ^ = $esp $T0 8 + = 
STACK WIN 4 32f43 72 4 0 10 4 8 0 1 $T0 $ebp = $eip $T0 4 + ^ = $ebp $T0 ^ = $esp $T0 8 + =  $23 $T0 12 - ^ = 
STACK WIN 4 32f47 6d 0 0 10 8 8 0 1 $T0 $ebp = $eip $T0 4 + ^ = $ebp $T0 ^ = $esp $T0 8 + =  $23 $T0 12 - ^ =  $24 $T0 16 - ^ = 
STACK WIN 4 32fb9 1b 5 0 10 0 0 0 1 $T0 $ebp = $eip $T0 4 + ^ = $ebp $T0 ^ = $esp $T0 8 + = 
STACK WIN 4 32fd4 1b 5 0 10 0 0 0 1 $T0 $ebp = $eip $T0 4 + ^ = $ebp $T0 ^ = $esp $T0 8 + = 
STACK WIN 4 32fef 45 6 0 4 0 4 0 1 $T0 $ebp = $eip $T0 4 + ^ = $ebp $T0 ^ = $esp $T0 8 + = 
STACK WIN 4 330a1 1c 5 0 8 0 0 0 1 $T0 $ebp = $eip $T0 4 + ^ = $ebp $T0 ^ = $esp $T0 8 + = 
STACK WIN 4 330bd 1d 6 0 4 0 0 0 1 $T0 $ebp = $eip $T0 4 + ^ = $ebp $T0 ^ = $esp $T0 8 + = 
STACK WIN 4 330c3 15 0 0 4 4 0 0 1 $T0 $ebp = $eip $T0 4 + ^ = $ebp $T0 ^ = $esp $T0 8 + =  $23 $T0 4 - ^ = 
STACK WIN 4 330da 49 10 0 4 0 8 0 1 $T0 $ebp = $eip $T0 4 + ^ = $ebp $T0 ^ = $esp $T0 8 + = 
STACK WIN 4 330ea 35 0 0 4 4 8 0 1 $T0 $ebp = $eip $T0 4 + ^ = $ebp $T0 ^ = $esp $T0 8 + =  $23 $T0 12 - ^ = 
STACK WIN 4 33123 4f 7 0 4 0 8 0 1 $T0 $ebp = $eip $T0 4 + ^ = $ebp $T0 ^ = $esp $T0 8 + = 
STACK WIN 4 333ed 5d d 0 4 0 0 0 1 $T0 $ebp = $eip $T0 4 + ^ = $ebp $T0 ^ = $esp $T0 8 + = 
STACK WIN 4 333f9 4f 1 0 4 4 0 0 1 $T0 $ebp = $eip $T0 4 + ^ = $ebp $T0 ^ = $esp $T0 8 + =  $20 $T0 4 - ^ = 
STACK WIN 4 333fa 4d 0 0 4 8 0 0 1 $T0 $ebp = $eip $T0 4 + ^ = $ebp $T0 ^ = $esp $T0 8 + =  $20 $T0 4 - ^ =  $23 $T0 8 - ^ = 
STACK WIN 4 3344a 82 c 0 c 10 1c 0 1 $T0 $ebp = $eip $T0 4 + ^ = $ebp $T0 ^ = $esp $T0 8 + =  $20 $T0 32 - ^ =  $23 $T0 36 - ^ =  $24 $T0 40 - ^ = 
STACK WIN 4 334bd e 0 0 c 10 1c 0 1 $T0 $ebp = $T2 $esp = $T1 .raSearchStart = $eip $T1 ^ = $ebp $T0 = $esp $T1 4 + = 
STACK WIN 4 334cc 28 8 0 8 0 c 0 1 $T0 $ebp = $eip $T0 4 + ^ = $ebp $T0 ^ = $esp $T0 8 + = 
STACK WIN 4 334f4 7f 7 0 4 0 4 0 1 $T0 $ebp = $eip $T0 4 + ^ = $ebp $T0 ^ = $esp $T0 8 + = 
STACK WIN 4 334fb 74 0 0 4 4 4 0 1 $T0 $ebp = $eip $T0 4 + ^ = $ebp $T0 ^ = $esp $T0 8 + =  $23 $T0 8 - ^ = 
STACK WIN 4 33573 9c 7 0 4 0 0 0 1 $T0 $ebp = $eip $T0 4 + ^ = $ebp $T0 ^ = $esp $T0 8 + = 
STACK WIN 4 33579 94 1 0 4 4 0 0 1 $T0 $ebp = $eip $T0 4 + ^ = $ebp $T0 ^ = $esp $T0 8 + =  $23 $T0 4 - ^ = 
STACK WIN 4 3357a 92 0 0 4 8 0 0 1 $T0 $ebp = $eip $T0 4 + ^ = $ebp $T0 ^ = $esp $T0 8 + =  $23 $T0 4 - ^ =  $24 $T0 8 - ^ = 
STACK WIN 4 3360f 3b 5 0 4 0 0 0 1 $T0 $ebp = $eip $T0 4 + ^ = $ebp $T0 ^ = $esp $T0 8 + = 
STACK WIN 4 3364a 1f 0 0 0 0 0 0 1 $T0 .raSearch = $eip $T0 ^ = $esp $T0 4 + = 
STACK WIN 4 33669 17 0 0 0 0 0 0 1 $T0 .raSearch = $eip $T0 ^ = $esp $T0 4 + = 
STACK WIN 4 33680 7d 5 0 4 0 0 0 1 $T0 $ebp = $eip $T0 4 + ^ = $ebp $T0 ^ = $esp $T0 8 + = 
STACK WIN 4 3369a 5f 0 0 4 4 0 0 1 $T0 $ebp = $eip $T0 4 + ^ = $ebp $T0 ^ = $esp $T0 8 + =  $24 $T0 4 - ^ = 
STACK WIN 4 336c8 c 0 0 4 8 0 0 1 $T0 $ebp = $eip $T0 4 + ^ = $ebp $T0 ^ = $esp $T0 8 + =  $24 $T0 4 - ^ =  $23 $T0 8 - ^ = 
STACK WIN 4 336fd 73 5 0 4 0 0 0 1 $T0 $ebp = $eip $T0 4 + ^ = $ebp $T0 ^ = $esp $T0 8 + = 
STACK WIN 4 33738 c 0 0 4 4 0 0 1 $T0 $ebp = $eip $T0 4 + ^ = $ebp $T0 ^ = $esp $T0 8 + =  $23 $T0 4 - ^ = 
STACK WIN 4 33770 71 5 0 4 0 0 0 1 $T0 $ebp = $eip $T0 4 + ^ = $ebp $T0 ^ = $esp $T0 8 + = 
STACK WIN 4 337a9 c 0 0 4 4 0 0 1 $T0 $ebp = $eip $T0 4 + ^ = $ebp $T0 ^ = $esp $T0 8 + =  $23 $T0 4 - ^ = 
STACK WIN 4 337e1 80 5 0 4 0 0 0 1 $T0 $ebp = $eip $T0 4 + ^ = $ebp $T0 ^ = $esp $T0 8 + = 
STACK WIN 4 337fe 5f 0 0 4 4 0 0 1 $T0 $ebp = $eip $T0 4 + ^ = $ebp $T0 ^ = $esp $T0 8 + =  $24 $T0 4 - ^ = 
STACK WIN 4 3382c c 0 0 4 8 0 0 1 $T0 $ebp = $eip $T0 4 + ^ = $ebp $T0 ^ = $esp $T0 8 + =  $24 $T0 4 - ^ =  $23 $T0 8 - ^ = 
STACK WIN 4 33861 61 5 0 4 0 0 0 1 $T0 $ebp = $eip $T0 4 + ^ = $ebp $T0 ^ = $esp $T0 8 + = 
STACK WIN 4 33871 3a 0 0 4 4 0 0 1 $T0 $ebp = $eip $T0 4 + ^ = $ebp $T0 ^ = $esp $T0 8 + =  $23 $T0 4 - ^ = 
STACK WIN 4 338c2 61 5 0 4 0 0 0 1 $T0 $ebp = $eip $T0 4 + ^ = $ebp $T0 ^ = $esp $T0 8 + = 
STACK WIN 4 338d2 3a 0 0 4 4 0 0 1 $T0 $ebp = $eip $T0 4 + ^ = $ebp $T0 ^ = $esp $T0 8 + =  $23 $T0 4 - ^ = 
STACK WIN 4 33923 43 7 0 0 0 8 0 1 $T0 $ebp = $eip $T0 4 + ^ = $ebp $T0 ^ = $esp $T0 8 + = 
STACK WIN 4 33948 1a 0 0 0 4 8 0 1 $T0 $ebp = $eip $T0 4 + ^ = $ebp $T0 ^ = $esp $T0 8 + =  $23 $T0 12 - ^ = 
STACK WIN 4 33966 a8 7 0 0 0 8 0 1 $T0 $ebp = $eip $T0 4 + ^ = $ebp $T0 ^ = $esp $T0 8 + = 
STACK WIN 4 33a0e 80 b 0 4 0 20 0 1 $T0 $ebp = $eip $T0 4 + ^ = $ebp $T0 ^ = $esp $T0 8 + = 
STACK WIN 4 33a17 73 2 0 4 4 20 0 1 $T0 $ebp = $eip $T0 4 + ^ = $ebp $T0 ^ = $esp $T0 8 + =  $20 $T0 36 - ^ = 
STACK WIN 4 33a18 71 1 0 4 8 20 0 1 $T0 $ebp = $eip $T0 4 + ^ = $ebp $T0 ^ = $esp $T0 8 + =  $20 $T0 36 - ^ =  $23 $T0 40 - ^ = 
STACK WIN 4 33a19 6f 0 0 4 c 20 0 1 $T0 $ebp = $eip $T0 4 + ^ = $ebp $T0 ^ = $esp $T0 8 + =  $20 $T0 36 - ^ =  $23 $T0 40 - ^ =  $24 $T0 44 - ^ = 
STACK WIN 4 33a8e 80 b 0 4 0 20 0 1 $T0 $ebp = $eip $T0 4 + ^ = $ebp $T0 ^ = $esp $T0 8 + = 
STACK WIN 4 33a97 73 2 0 4 4 20 0 1 $T0 $ebp = $eip $T0 4 + ^ = $ebp $T0 ^ = $esp $T0 8 + =  $20 $T0 36 - ^ = 
STACK WIN 4 33a98 71 1 0 4 8 20 0 1 $T0 $ebp = $eip $T0 4 + ^ = $ebp $T0 ^ = $esp $T0 8 + =  $20 $T0 36 - ^ =  $23 $T0 40 - ^ = 
STACK WIN 4 33a99 6f 0 0 4 c 20 0 1 $T0 $ebp = $eip $T0 4 + ^ = $ebp $T0 ^ = $esp $T0 8 + =  $20 $T0 36 - ^ =  $23 $T0 40 - ^ =  $24 $T0 44 - ^ = 
STACK WIN 4 33b0e de 8 0 0 0 c 0 1 $T0 $ebp = $eip $T0 4 + ^ = $ebp $T0 ^ = $esp $T0 8 + = 
STACK WIN 4 33b31 78 0 0 0 4 c 0 1 $T0 $ebp = $eip $T0 4 + ^ = $ebp $T0 ^ = $esp $T0 8 + =  $24 $T0 16 - ^ = 
STACK WIN 4 33bec f 0 0 0 0 0 0 1 $T0 .raSearch = $eip $T0 ^ = $esp $T0 4 + = 
STACK WIN 4 34473 218 1b 0 10 0 24 0 1 $T0 $ebp = $eip $T0 4 + ^ = $ebp $T0 ^ = $esp $T0 8 + = 
STACK WIN 4 3448d 1f5 1 0 10 4 24 0 1 $T0 $ebp = $eip $T0 4 + ^ = $ebp $T0 ^ = $esp $T0 8 + =  $23 $T0 40 - ^ = 
STACK WIN 4 3448e 1f1 0 0 10 8 24 0 1 $T0 $ebp = $eip $T0 4 + ^ = $ebp $T0 ^ = $esp $T0 8 + =  $23 $T0 40 - ^ =  $24 $T0 44 - ^ = 
STACK WIN 4 3468b b9 9 0 8 0 8 0 1 $T0 $ebp = $eip $T0 4 + ^ = $ebp $T0 ^ = $esp $T0 8 + = 
STACK WIN 4 34693 ad 1 0 8 4 8 0 1 $T0 $ebp = $eip $T0 4 + ^ = $ebp $T0 ^ = $esp $T0 8 + =  $20 $T0 12 - ^ = 
STACK WIN 4 34694 ab 0 0 8 8 8 0 1 $T0 $ebp = $eip $T0 4 + ^ = $ebp $T0 ^ = $esp $T0 8 + =  $20 $T0 12 - ^ =  $23 $T0 16 - ^ = 
STACK WIN 4 34744 13 6 0 0 0 4 0 1 $T0 $ebp = $eip $T0 4 + ^ = $ebp $T0 ^ = $esp $T0 8 + = 
STACK WIN 4 34757 2c 7 0 8 0 8 0 1 $T0 $ebp = $eip $T0 4 + ^ = $ebp $T0 ^ = $esp $T0 8 + = 
STACK WIN 4 34783 5b b 0 4 0 c 0 1 $T0 $ebp = $eip $T0 4 + ^ = $ebp $T0 ^ = $esp $T0 8 + = 
STACK WIN 4 347de 12 6 0 0 0 4 0 1 $T0 $ebp = $eip $T0 4 + ^ = $ebp $T0 ^ = $esp $T0 8 + = 
STACK WIN 4 347f0 6a 7 0 8 0 8 0 1 $T0 $ebp = $eip $T0 4 + ^ = $ebp $T0 ^ = $esp $T0 8 + = 
STACK WIN 4 3485a 12b 5 0 14 0 0 0 1 $T0 $ebp = $eip $T0 4 + ^ = $ebp $T0 ^ = $esp $T0 8 + = 
STACK WIN 4 34985 10b 2f 0 c 8 88 0 1 $T0 $ebp = $T1 $ebx = $eip $T1 4 + ^ = $ebx $T1 ^ = $esp $T1 8 + = $ebp $ebp ^ =  $23 $T0 140 - ^ =  $24 $T0 144 - ^ = 
STACK WIN 4 34a90 16 7 0 8 0 8 0 1 $T0 $ebp = $eip $T0 4 + ^ = $ebp $T0 ^ = $esp $T0 8 + = 
STACK WIN 4 34aa6 34 5 0 4 0 0 0 1 $T0 $ebp = $eip $T0 4 + ^ = $ebp $T0 ^ = $esp $T0 8 + = 
STACK WIN 4 34ada ce 2f 0 1c 8 88 0 1 $T0 $ebp = $T1 $ebx = $eip $T1 4 + ^ = $ebx $T1 ^ = $esp $T1 8 + = $ebp $ebp ^ =  $23 $T0 140 - ^ =  $24 $T0 144 - ^ = 
STACK WIN 4 34ba8 1e0 d 0 c 0 10 0 1 $T0 $ebp = $eip $T0 4 + ^ = $ebp $T0 ^ = $esp $T0 8 + = 
STACK WIN 4 34bb1 1d3 4 0 c 4 10 0 1 $T0 $ebp = $eip $T0 4 + ^ = $ebp $T0 ^ = $esp $T0 8 + =  $20 $T0 20 - ^ = 
STACK WIN 4 34bb5 1cb 0 0 c 8 10 0 1 $T0 $ebp = $eip $T0 4 + ^ = $ebp $T0 ^ = $esp $T0 8 + =  $20 $T0 20 - ^ =  $23 $T0 24 - ^ = 
STACK WIN 4 34ca5 b3 0 0 c c 10 0 1 $T0 $ebp = $eip $T0 4 + ^ = $ebp $T0 ^ = $esp $T0 8 + =  $20 $T0 20 - ^ =  $23 $T0 24 - ^ =  $24 $T0 28 - ^ = 
STACK WIN 4 34d88 23 5 0 18 0 0 0 1 $T0 $ebp = $eip $T0 4 + ^ = $ebp $T0 ^ = $esp $T0 8 + = 
STACK WIN 4 34dab 2f1 15 0 1c 0 0 0 1 $T0 $ebp = $eip $T0 4 + ^ = $ebp $T0 ^ = $esp $T0 8 + = 
STACK WIN 4 34db6 2e4 a 0 1c 4 0 0 1 $T0 $ebp = $eip $T0 4 + ^ = $ebp $T0 ^ = $esp $T0 8 + =  $20 $T0 4 - ^ = 
STACK WIN 4 34dc0 2d9 0 0 1c 8 0 0 1 $T0 $ebp = $eip $T0 4 + ^ = $ebp $T0 ^ = $esp $T0 8 + =  $20 $T0 4 - ^ =  $24 $T0 8 - ^ = 
STACK WIN 4 34e29 261 0 0 1c c 0 0 1 $T0 $ebp = $eip $T0 4 + ^ = $ebp $T0 ^ = $esp $T0 8 + =  $20 $T0 4 - ^ =  $24 $T0 8 - ^ =  $23 $T0 12 - ^ = 
STACK WIN 4 3509c 2f 5 0 4 0 0 0 1 $T0 $ebp = $eip $T0 4 + ^ = $ebp $T0 ^ = $esp $T0 8 + = 
STACK WIN 4 350cb a2 b 0 24 0 20 0 1 $T0 $ebp = $eip $T0 4 + ^ = $ebp $T0 ^ = $esp $T0 8 + = 
STACK WIN 4 3510f 3d 0 0 24 4 20 0 1 $T0 $ebp = $eip $T0 4 + ^ = $ebp $T0 ^ = $esp $T0 8 + =  $23 $T0 36 - ^ = 
STACK WIN 4 3516d d4 f 0 c 0 0 0 1 $T0 $ebp = $eip $T0 4 + ^ = $ebp $T0 ^ = $esp $T0 8 + = 
STACK WIN 4 3517c c3 0 0 c 4 0 0 1 $T0 $ebp = $eip $T0 4 + ^ = $ebp $T0 ^ = $esp $T0 8 + =  $24 $T0 4 - ^ = 
STACK WIN 4 3518b ae 0 0 c 8 0 0 1 $T0 $ebp = $eip $T0 4 + ^ = $ebp $T0 ^ = $esp $T0 8 + =  $24 $T0 4 - ^ =  $23 $T0 8 - ^ = 
STACK WIN 4 35241 2f 7 0 c 0 8 0 1 $T0 $ebp = $eip $T0 4 + ^ = $ebp $T0 ^ = $esp $T0 8 + = 
STACK WIN 4 35270 5e 5 0 8 0 0 0 1 $T0 $ebp = $eip $T0 4 + ^ = $ebp $T0 ^ = $esp $T0 8 + = 
STACK WIN 4 352ce a4 5 0 8 0 0 0 1 $T0 $ebp = $eip $T0 4 + ^ = $ebp $T0 ^ = $esp $T0 8 + = 
STACK WIN 4 35380 43 b 0 8 0 0 0 1 $T0 $ebp = $eip $T0 4 + ^ = $ebp $T0 ^ = $esp $T0 8 + = 
STACK WIN 4 35389 38 2 0 8 4 0 0 1 $T0 $ebp = $eip $T0 4 + ^ = $ebp $T0 ^ = $esp $T0 8 + =  $20 $T0 4 - ^ = 
STACK WIN 4 3538a 36 1 0 8 8 0 0 1 $T0 $ebp = $eip $T0 4 + ^ = $ebp $T0 ^ = $esp $T0 8 + =  $20 $T0 4 - ^ =  $23 $T0 8 - ^ = 
STACK WIN 4 3538b 34 0 0 8 c 0 0 1 $T0 $ebp = $eip $T0 4 + ^ = $ebp $T0 ^ = $esp $T0 8 + =  $20 $T0 4 - ^ =  $23 $T0 8 - ^ =  $24 $T0 12 - ^ = 
STACK WIN 4 353d0 ba 33 0 4 10 18 0 1 $T0 $ebp = $eip $T0 4 + ^ = $ebp $T0 ^ = $esp $T0 8 + =  $20 $T0 28 - ^ =  $23 $T0 32 - ^ =  $24 $T0 36 - ^ = 
STACK WIN 4 35459 13 0 0 4 10 18 0 1 $T0 $ebp = $T2 $esp = $T1 .raSearchStart = $eip $T1 ^ = $ebp $T0 = $esp $T1 4 + = 
STACK WIN 4 35490 31 3 0 4 0 0 0 1 $T0 $ebp = $eip $T0 4 + ^ = $ebp $T0 ^ = $esp $T0 8 + = 
STACK WIN 0 22f18 d 0 0 0 0 0 0 0 0
STACK WIN 0 22f93 f 0 0 0 0 0 0 0 0
STACK WIN 0 23068 1f 0 0 0 0 0 0 0 0
STACK WIN 0 23814 13 0 0 0 0 0 0 0 0
STACK WIN 0 23d42 572 2 0 c 8 0 0 0 0
STACK WIN 0 242fb 258 b 0 8 c 0 0 0 0
STACK WIN 0 24560 12b 0 0 8 0 0 0 0 0
STACK WIN 0 24c70 15a 0 0 c 0 0 0 0 0
STACK WIN 0 24df0 90 3 0 c c 0 0 0 0
STACK WIN 0 24e80 46 0 0 10 4 0 0 0 1
STACK WIN 0 24eee 17 4 0 0 10 0 0 0 1
STACK WIN 0 24f05 19 0 0 0 0 0 0 0 0
STACK WIN 0 24f37 17 1 0 8 4 0 0 0 1
STACK WIN 0 25155 84 3 0 8 c 0 0 0 0
STACK WIN 0 251d9 23 0 0 0 0 0 0 0 0
STACK WIN 0 25224 3 0 0 0 0 0 0 0 0
STACK WIN 0 25e06 c 0 0 0 0 0 0 0 0
STACK WIN 0 25ea0 124 0 0 c 0 0 0 0 0
STACK WIN 0 25fd2 76 2 0 c 8 0 0 0 0
STACK WIN 0 2608a f 0 0 0 0 0 0 0 0
STACK WIN 0 29788 c 0 0 0 0 0 0 0 0
STACK WIN 0 29aca 10 0 0 0 0 0 0 0 0
STACK WIN 0 29ae2 c 0 0 0 0 0 0 0 0
STACK WIN 0 2a216 f 0 0 0 0 0 0 0 0
STACK WIN 0 2a267 f 0 0 0 0 0 0 0 0
STACK WIN 0 2a73f 4 0 0 0 0 0 0 0 0
STACK WIN 0 2aef0 10 0 0 0 0 0 0 0 0
STACK WIN 0 2af1d c 0 0 0 0 0 0 0 0
STACK WIN 0 2af74 e 0 0 0 0 0 0 0 0
STACK WIN 0 2afc4 f 0 0 0 0 0 0 0 0
STACK WIN 0 2b189 f 0 0 0 0 0 0 0 0
STACK WIN 0 2b436 1e 0 0 0 0 0 0 0 0
STACK WIN 0 2b4d1 c 0 0 0 0 0 0 0 0
STACK WIN 0 2b532 c 0 0 0 0 0 0 0 0
STACK WIN 0 2b57d c 0 0 0 0 0 0 0 0
STACK WIN 0 2b5c5 c 0 0 0 0 0 0 0 0
STACK WIN 0 2ba87 9 0 0 0 0 0 0 0 0
STACK WIN 0 2d258 c 0 0 0 0 0 0 0 0
STACK WIN 0 2da0b 9 0 0 0 0 0 0 0 0
STACK WIN 0 2e02f c 0 0 0 0 0 0 0 0
STACK WIN 0 2e57e c 0 0 0 0 0 0 0 0
STACK WIN 0 2eefb f 0 0 0 0 0 0 0 0
STACK WIN 0 2f5ed e 0 0 0 0 0 0 0 0
STACK WIN 0 2fb55 c 0 0 0 0 0 0 0 0
STACK WIN 0 32497 c 0 0 0 0 0 0 0 0
STACK WIN 0 327b5 d 0 0 0 0 0 0 0 0
STACK WIN 0 32f05 11 0 0 0 0 0 0 0 0
STACK WIN 0 334bd f 0 0 0 0 0 0 0 0
STACK WIN 0 35459 13 0 0 0 0 0 0 0 0
STACK WIN 0 354d0 95 0 0 10 0 4 0 0 0
STACK WIN 0 35570 1a 0 0 10 0 0 0 0 0
STACK WIN 0 3558a 1a 0 0 10 0 4 0 0 0
STACK WIN 0 355b0 aa 0 0 10 0 c 0 0 0
STACK WIN 0 35660 df 0 0 10 0 c 0 0 1
STACK WIN 0 357a0 1f 0 0 0 0 0 0 0 0
STACK WIN 0 35820 1f 0 0 0 0 0 0 0 0
STACK WIN 0 35902 572 2 0 c 8 0 0 0 0
STACK WIN 0 35e80 137 0 0 8 0 0 0 0 0
