MODULE windows x86 B9D491115C0C4FA586E7E8F5F4DB0B791 keytar.pdb
INFO CODE_ID 5BD854DD1B000 keytar.node
FUNC 1000 92 0 Nan::AsyncResource::AsyncResource(char const *,v8::Local<v8::Object>)
FUNC 10a0 b2 10 Nan::Callback::Call(int,v8::Local<v8::Value> * const)
FUNC 1160 a2 1c Nan::Callback::Call_(v8::Isolate *,v8::Local<v8::Object>,int,v8::Local<v8::Value> * const,Nan::AsyncResource *)
FUNC 1210 ac 0 Nan::AsyncWorker::AsyncWorker(Nan::Callback *,char const *)
FUNC 12c0 a9 0 Nan::AsyncWorker::~AsyncWorker()
FUNC 1370 69 0 Nan::AsyncWorker::WorkComplete()
FUNC 13e0 b 0 Nan::AsyncWorker::Destroy()
FUNC 13f0 67 0 Nan::AsyncWorker::HandleOKCallback()
FUNC 1460 a3 0 Nan::AsyncWorker::HandleErrorCallback()
FUNC 1510 20 0 Nan::AsyncWorker::`scalar deleting destructor'(unsigned int)
FUNC 1530 82 0 SetPasswordWorker::SetPasswordWorker(std::basic_string<char,std::char_traits<char>,std::allocator<char> > const &,std::basic_string<char,std::char_traits<char>,std::allocator<char> > const &,std::basic_string<char,std::char_traits<char>,std::allocator<char> > const &,Nan::Callback *)
FUNC 15c0 49 0 SetPasswordWorker::`scalar deleting destructor'(unsigned int)
FUNC 1610 f0 0 SetPasswordWorker::Execute()
FUNC 1700 49 0 GetPasswordWorker::`scalar deleting destructor'(unsigned int)
FUNC 1750 fe 0 GetPasswordWorker::Execute()
FUNC 1850 97 0 GetPasswordWorker::HandleOKCallback()
FUNC 18f0 3e 0 DeletePasswordWorker::`scalar deleting destructor'(unsigned int)
FUNC 1930 f5 0 DeletePasswordWorker::Execute()
FUNC 1a30 60 0 DeletePasswordWorker::HandleOKCallback()
FUNC 1a90 3e 0 FindPasswordWorker::`scalar deleting destructor'(unsigned int)
FUNC 1ad0 f5 0 FindPasswordWorker::Execute()
FUNC 1bd0 97 0 FindPasswordWorker::HandleOKCallback()
FUNC 1c70 68 0 std::basic_string<char,std::char_traits<char>,std::allocator<char> >::~basic_string<char,std::char_traits<char>,std::allocator<char> >()
FUNC 1ce0 86 0 std::basic_string<char,std::char_traits<char>,std::allocator<char> >::_Tidy(bool,unsigned int)
FUNC 1d70 104 0 std::basic_string<char,std::char_traits<char>,std::allocator<char> >::assign(std::basic_string<char,std::char_traits<char>,std::allocator<char> > const &,unsigned int,unsigned int)
FUNC 1e80 95 0 std::basic_string<char,std::char_traits<char>,std::allocator<char> >::erase(unsigned int,unsigned int)
FUNC 1f20 125 0 std::basic_string<char,std::char_traits<char>,std::allocator<char> >::_Copy(unsigned int,unsigned int)
FUNC 2050 bc 0 Nan::imp::FunctionCallbackWrapper
FUNC 2110 153 8 Nan::imp::Factory<v8::FunctionTemplate>::New(void (*)(Nan::FunctionCallbackInfo<v8::Value> const &),v8::Local<v8::Value>,v8::Local<v8::Signature>)
FUNC 2270 b 0 Nan::AsyncExecute(uv_work_s *)
FUNC 2280 16 0 Nan::AsyncExecuteComplete(uv_work_s *)
FUNC 22a0 212 4 `anonymous namespace'::SetPassword
FUNC 24c0 206 4 `anonymous namespace'::GetPassword
FUNC 26d0 1ec 4 `anonymous namespace'::DeletePassword
FUNC 28c0 170 4 `anonymous namespace'::FindPassword
FUNC 2a30 50 0 `anonymous namespace'::Init
FUNC 2a80 d 0 _register_keytar
FUNC 2a90 f1 0 std::basic_string<char,std::char_traits<char>,std::allocator<char> >::assign(char const *,unsigned int)
FUNC 2b90 86 0 Nan::SetMethod<v8::Object,v8::Local>(v8::Local<v8::Object>,char const *,void (*)(Nan::FunctionCallbackInfo<v8::Value> const &))
FUNC 2c20 78 0 Nan::imp::SetMethodAux<v8::Local<v8::Object> >(v8::Local<v8::Object>,v8::Local<v8::String>,v8::Local<v8::FunctionTemplate>,...)
FUNC 2ca0 63 0 keytar::getErrorMessage(unsigned long)
FUNC 2d10 212 0 keytar::SetPassword(std::basic_string<char,std::char_traits<char>,std::allocator<char> > const &,std::basic_string<char,std::char_traits<char>,std::allocator<char> > const &,std::basic_string<char,std::char_traits<char>,std::allocator<char> > const &,std::basic_string<char,std::char_traits<char>,std::allocator<char> > *)
FUNC 2f30 1d5 0 keytar::GetPassword(std::basic_string<char,std::char_traits<char>,std::allocator<char> > const &,std::basic_string<char,std::char_traits<char>,std::allocator<char> > const &,std::basic_string<char,std::char_traits<char>,std::allocator<char> > *,std::basic_string<char,std::char_traits<char>,std::allocator<char> > *)
FUNC 3110 181 0 keytar::DeletePassword(std::basic_string<char,std::char_traits<char>,std::allocator<char> > const &,std::basic_string<char,std::char_traits<char>,std::allocator<char> > const &,std::basic_string<char,std::char_traits<char>,std::allocator<char> > *)
FUNC 32a0 160 0 keytar::FindPassword(std::basic_string<char,std::char_traits<char>,std::allocator<char> > const &,std::basic_string<char,std::char_traits<char>,std::allocator<char> > *,std::basic_string<char,std::char_traits<char>,std::allocator<char> > *)
FUNC 3400 93 0 std::basic_string<char,std::char_traits<char>,std::allocator<char> >::operator=(std::basic_string<char,std::char_traits<char>,std::allocator<char> > &&)
FUNC 34a0 74 0 std::basic_string<char,std::char_traits<char>,std::allocator<char> >::basic_string<char,std::char_traits<char>,std::allocator<char> >(std::basic_string<char,std::char_traits<char>,std::allocator<char> > &&)
FUNC 3520 10a 0 std::basic_string<char,std::char_traits<char>,std::allocator<char> >::append(char const *,unsigned int)
FUNC 3630 f5 0 std::basic_string<char,std::char_traits<char>,std::allocator<char> >::append(std::basic_string<char,std::char_traits<char>,std::allocator<char> > const &,unsigned int,unsigned int)
FUNC 3730 63 0 std::basic_string<char,std::char_traits<char>,std::allocator<char> >::_Assign_rv(std::basic_string<char,std::char_traits<char>,std::allocator<char> > &&)
FUNC 37a0 98 0 std::basic_string<char,std::char_traits<char>,std::allocator<char> >::append(unsigned int,char)
FUNC 3840 78 0 std::basic_string<char,std::char_traits<char>,std::allocator<char> >::reserve(unsigned int)
FUNC 38b8 1b 0 std::bad_alloc::bad_alloc(std::bad_alloc const &)
FUNC 38d3 18 0 std::bad_alloc::bad_alloc()
FUNC 38eb 2c 0 std::exception::exception(std::exception const &)
FUNC 3917 37 0 std::exception::exception(char const * const)
FUNC 394e 1b 0 std::length_error::length_error(std::length_error const &)
FUNC 3969 21 0 std::length_error::length_error(char const *)
FUNC 398a 1b 0 std::logic_error::logic_error(std::logic_error const &)
FUNC 39a5 1b 0 std::out_of_range::out_of_range(std::out_of_range const &)
FUNC 39c0 21 0 std::out_of_range::out_of_range(char const *)
FUNC 39e1 11 0 std::out_of_range::~out_of_range()
FUNC 39f2 2d 0 std::out_of_range::`scalar deleting destructor'(unsigned int)
FUNC 3a1f 20 0 std::_Xlength_error(char const *)
FUNC 3a3f 20 0 std::_Xout_of_range(char const *)
FUNC 3a5f d 0 std::exception::what()
FUNC 3a6c 11 0 __security_check_cookie
FUNC 3a7d 5 0 operator delete[](void *)
FUNC 3a82 33 0 operator new(unsigned int)
FUNC 3ab5 5 0 operator delete(void *)
FUNC 3aba e 0 operator delete(void *,unsigned int)
FUNC 3ac8 9 0 operator new[](unsigned int)
FUNC 3ad1 53 0 dllmain_crt_dispatch
FUNC 3b24 112 0 dllmain_crt_process_attach
FUNC 3c36 7d 0 dllmain_crt_process_detach
FUNC 3cb3 fc 0 dllmain_dispatch
FUNC 3daf 2a 0 dllmain_raw
FUNC 3dd9 23 c _DllMainCRTStartup
FUNC 3dfc 23 0 type_info::`scalar deleting destructor'(unsigned int)
FUNC 3e1f 28 0 __raise_securityfailure
FUNC 3e47 fb 0 __report_gsfailure
FUNC 3f42 1b 0 std::bad_array_new_length::bad_array_new_length(std::bad_array_new_length const &)
FUNC 3f5d 18 0 std::bad_array_new_length::bad_array_new_length()
FUNC 3f75 1d 0 __scrt_throw_std_bad_alloc()
FUNC 3f92 1d 0 __scrt_throw_std_bad_array_new_length()
FUNC 3faf 1d 0 __crt_fast_encode_pointer<void (**)(void)>(void (** const)(void))
FUNC 3fcc 44 0 find_pe_section
FUNC 4010 35 0 __scrt_acquire_startup_lock
FUNC 4045 2b 0 __scrt_dllmain_after_initialize_c
FUNC 4070 e 0 __scrt_dllmain_before_initialize_c
FUNC 407e 1f 0 __scrt_dllmain_crt_thread_attach
FUNC 409d d 0 __scrt_dllmain_crt_thread_detach
FUNC 40aa 33 0 __scrt_dllmain_exception_filter
FUNC 40dd 23 0 __scrt_dllmain_uninitialize_c
FUNC 4100 d 0 __scrt_dllmain_uninitialize_critical
FUNC 410d 39 0 __scrt_initialize_crt
FUNC 4146 97 0 __scrt_initialize_onexit_tables
FUNC 41dd 8a 0 __scrt_is_nonwritable_in_current_image
FUNC 4267 1d 0 __scrt_release_startup_lock
FUNC 4284 28 0 __scrt_uninitialize_crt
FUNC 42ac 3b 0 _onexit
FUNC 42e7 15 0 atexit
FUNC 42fc 9c 0 __security_init_cookie
FUNC 4398 6 c DllMain
FUNC 439e c 0 __scrt_initialize_type_info()
FUNC 43aa c 0 __scrt_uninitialize_type_info()
FUNC 43b6 6 0 __local_stdio_printf_options
FUNC 43bc 6 0 __local_stdio_scanf_options
FUNC 43c2 1d 0 __scrt_initialize_default_local_stdio_options
FUNC 43df 6 0 __scrt_get_dyn_tls_init_callback
FUNC 43e5 11b 0 __scrt_fastfail
FUNC 4500 8 4 _crt_debugger_hook
FUNC 4508 2b 0 _RTC_Initialize
FUNC 4533 2b 0 _RTC_Terminate
FUNC 455e 6 0 _guard_check_icall
FUNC 4570 46 0 _SEH_prolog4
FUNC 45b6 15 0 _SEH_epilog4
FUNC 45cb 19a 0 __isa_available_init
FUNC 4765 4 0 _get_startup_argv_mode
FUNC 4769 c 0 __scrt_is_ucrt_dll_in_use
FUNC 4780 574 0 memmove
FUNC 4cf4 1f 0 _get_purecall_handler
FUNC 4d13 1b 0 _purecall
FUNC 4d2e 63 0 __std_exception_copy
FUNC 4d91 1f 0 __std_exception_destroy
FUNC 4db0 6e 8 _CxxThrowException
FUNC 4e20 32 0 ValidateLocalCookies
FUNC 4e60 166 0 _except_handler4
FUNC 4fc6 29 0 __vcrt_initialize
FUNC 4fef b 0 __vcrt_thread_attach
FUNC 4ffa b 0 __vcrt_thread_detach
FUNC 5005 1f 0 __vcrt_uninitialize
FUNC 5024 8 0 __vcrt_uninitialize_critical
FUNC 502c 23 0 __std_type_info_destroy_list
FUNC 5050 15a 0 memset
FUNC 51aa 1d 0 __vcrt_initialize_pure_virtual_call_handler
FUNC 51d0 90 0 _local_unwind4
FUNC 5260 46 0 _unwind_handler4
FUNC 52a6 28 4 _seh_longjmp_unwind4
FUNC 52ce 17 0 _EH4_CallFilterFunc
FUNC 52e5 19 0 _EH4_TransferToHandler
FUNC 52fe 19 0 _EH4_GlobalUnwind2
FUNC 5317 17 8 _EH4_LocalUnwind
FUNC 532e 1 4 __except_validate_context_record
FUNC 532f 1c 4 __vcrt_freefls
FUNC 534b 36 0 __vcrt_freeptd
FUNC 5381 92 0 __vcrt_getptd_noexit
FUNC 5413 33 0 __vcrt_initialize_ptd
FUNC 5446 1b 0 __vcrt_uninitialize_ptd
FUNC 5461 3c 0 __vcrt_initialize_locks
FUNC 549d 2f 0 __vcrt_uninitialize_locks
FUNC 54cc a0 0 try_get_function
FUNC 556c 81 0 try_get_module
FUNC 55ed 3a 0 __vcrt_FlsAlloc
FUNC 5627 3a 0 __vcrt_FlsFree
FUNC 5661 3a 0 __vcrt_FlsGetValue
FUNC 569b 3d 0 __vcrt_FlsSetValue
FUNC 56d8 46 0 __vcrt_InitializeCriticalSectionEx
FUNC 571e 3a 0 __vcrt_initialize_winapi_thunks
FUNC 5758 32 0 __vcrt_uninitialize_winapi_thunks
FUNC 5790 20 0 _global_unwind2
FUNC 57b0 45 0 __unwind_handler
FUNC 57f5 84 0 _local_unwind2
FUNC 5879 23 0 _abnormal_termination
FUNC 589c 9 0 _NLG_Notify1
FUNC 58a5 1f 0 _NLG_Notify
PUBLIC 58bc 0 _NLG_Dispatch
FUNC 58c4 3 0 _NLG_Call
PUBLIC 58c6 0 _NLG_Return2
FUNC 58c7 13b 0 __acrt_call_reportfault
FUNC 5a02 14 0 __acrt_initialize_invalid_parameter_handler
FUNC 5a16 7b 0 _invalid_parameter
FUNC 5a91 10 0 _invalid_parameter_noinfo
FUNC 5aa1 1d 0 _invalid_parameter_noinfo_noreturn
FUNC 5abe 33 14 _invoke_watson
FUNC 5af1 83 0 _LocaleUpdate::_LocaleUpdate(__crt_locale_pointers * const)
FUNC 5b74 14 0 __acrt_initialize_new_handler
FUNC 5b88 44 0 _callnewh
FUNC 5bcc 52 0 _query_new_handler
FUNC 5c1e b 0 malloc
FUNC 5c29 5 0 free
FUNC 5c2e 5c 0 _initterm
FUNC 5c8a 45 0 _initterm_e
FUNC 5ccf 20 0 _seh_filter_dll
FUNC 5cef 173 0 _seh_filter_exe
FUNC 5e62 13 0 atexit_exception_filter
FUNC 5e75 119 0 common_exit
FUNC 5f8e 41 0 exit_or_terminate_process
FUNC 5fcf 44 0 is_managed_app
FUNC 6013 6a 0 try_cor_exit_process
FUNC 607d f 0 __acrt_initialize_thread_local_exit_callback
FUNC 608c f 0 _cexit
FUNC 609b 16 0 _exit
FUNC 60b1 6 0 _is_c_termination_complete
FUNC 60b7 124 0 common_configure_argv<char>
FUNC 61db 175 0 parse_command_line<char>
FUNC 6350 55 0 __acrt_allocate_buffer_for_argv
FUNC 63a5 b 0 _configure_narrow_argv
FUNC 63b0 59 0 common_initialize_environment_nolock<char>
FUNC 6409 d1 0 create_environment<char>
FUNC 64da 2f 0 free_environment<char>
FUNC 6509 40 0 __crt_state_management::dual_state_global<wchar_t * *>::uninitialize<void (&)(wchar_t * * &)>(void (&)(wchar_t * * &))
FUNC 6549 1b 0 uninitialize_environment_internal<char>
FUNC 6564 1b 0 uninitialize_environment_internal<wchar_t>
FUNC 657f 37 0 __dcrt_uninitialize_environments_nolock
FUNC 65b6 5 0 _initialize_narrow_environment
FUNC 65bb 51 0 __crt_seh_guarded_call<int>::operator()<<lambda_800076c951b434888f4765a74a194fcc>,<lambda_4e60a939b0d047cfe11ddc22648dfba9> &,<lambda_6dbb1268764f43b569ce7b67e331d33a> >(<lambda_800076c951b434888f4765a74a194fcc> &&,<lambda_4e60a939b0d047cfe11ddc22648dfba9> &,<lambda_6dbb1268764f43b569ce7b67e331d33a> &&)
FUNC 660c 51 0 __crt_seh_guarded_call<int>::operator()<<lambda_995298e7d72eb4c2aab26c0585b3abe5>,<lambda_275893d493268fdec8709772e3fcec0e> &,<lambda_293819299cbf9a7022e18b56a874bb5c> >(<lambda_995298e7d72eb4c2aab26c0585b3abe5> &&,<lambda_275893d493268fdec8709772e3fcec0e> &,<lambda_293819299cbf9a7022e18b56a874bb5c> &&)
FUNC 665d 28 0 __acrt_lock_and_call<<lambda_275893d493268fdec8709772e3fcec0e> >(__acrt_lock_id,<lambda_275893d493268fdec8709772e3fcec0e> &&)
FUNC 6685 28 0 __acrt_lock_and_call<<lambda_4e60a939b0d047cfe11ddc22648dfba9> >(__acrt_lock_id,<lambda_4e60a939b0d047cfe11ddc22648dfba9> &&)
FUNC 66ad 1f 0 __crt_fast_encode_pointer<int (*)(void)>(int (*const)(void))
FUNC 66cc 120 0 <lambda_275893d493268fdec8709772e3fcec0e>::operator()
FUNC 67ec 141 0 <lambda_4e60a939b0d047cfe11ddc22648dfba9>::operator()
FUNC 692d 16 0 _crt_atexit
FUNC 6943 1d 0 _execute_onexit_table
FUNC 6960 3d 0 _initialize_onexit_table
FUNC 699d 24 0 _register_onexit_function
FUNC 69c1 12 0 initialize_global_variables
FUNC 69d3 1a 0 initialize_c
FUNC 69ed 8 4 uninitialize_environment
FUNC 69f5 3 0 initialize_environment
FUNC 69f8 3d 0 initialize_pointers
FUNC 6a35 9 4 uninitialize_vcruntime
FUNC 6a3e 77 4 uninitialize_allocated_memory
FUNC 6ab5 12 0 __acrt_initialize
FUNC 6ac7 b 0 __acrt_thread_attach
FUNC 6ad2 8 0 __acrt_thread_detach
FUNC 6ada 12 4 __acrt_uninitialize
FUNC 6aec 12 0 __acrt_uninitialize_critical
FUNC 6afe 3c 0 terminate
FUNC 6b3a 43 0 abort
FUNC 6b7d 5a 0 strcpy_s
FUNC 6bd7 3a 0 _free_base
FUNC 6c11 4e 0 _malloc_base
FUNC 6c5f 5d 0 _calloc_base
FUNC 6cbc 50 0 __crt_seh_guarded_call<void>::operator()<<lambda_3518db117f0e7cdb002338c5d3c47b6c>,<lambda_b2ea41f6bbb362cd97d94c6828d90b61> &,<lambda_abdedf541bb04549bc734292b4a045d4> >(<lambda_3518db117f0e7cdb002338c5d3c47b6c> &&,<lambda_b2ea41f6bbb362cd97d94c6828d90b61> &,<lambda_abdedf541bb04549bc734292b4a045d4> &&)
FUNC 6d0c 61 0 __crt_seh_guarded_call<void>::operator()<<lambda_51b6e8b1eb166f2a3faf91f424b38130>,<lambda_6250bd4b2a391816dd638c3bf72b0bcb> &,<lambda_0b5a4a3e68152e1d9b943535f5f47bed> >(<lambda_51b6e8b1eb166f2a3faf91f424b38130> &&,<lambda_6250bd4b2a391816dd638c3bf72b0bcb> &,<lambda_0b5a4a3e68152e1d9b943535f5f47bed> &&)
FUNC 6d6d 4b 0 __crt_seh_guarded_call<void>::operator()<<lambda_5b71d36f03204c0beab531769a5b5694>,<lambda_be2b3da3f62db62e9dad5dc70221a656> &,<lambda_8f9ce462984622f9bf76b59e2aaaf805> >(<lambda_5b71d36f03204c0beab531769a5b5694> &&,<lambda_be2b3da3f62db62e9dad5dc70221a656> &,<lambda_8f9ce462984622f9bf76b59e2aaaf805> &&)
FUNC 6db8 48 0 __crt_seh_guarded_call<void>::operator()<<lambda_9df27f884b057bc3edfc946cb5b7cf47>,<lambda_e69574bed617af4e071282c136b37893> &,<lambda_cc0d902bcbbeb830f749456577db4721> >(<lambda_9df27f884b057bc3edfc946cb5b7cf47> &&,<lambda_e69574bed617af4e071282c136b37893> &,<lambda_cc0d902bcbbeb830f749456577db4721> &&)
FUNC 6e00 28 0 __acrt_lock_and_call<<lambda_6250bd4b2a391816dd638c3bf72b0bcb> >(__acrt_lock_id,<lambda_6250bd4b2a391816dd638c3bf72b0bcb> &&)
FUNC 6e28 28 0 __acrt_lock_and_call<<lambda_b2ea41f6bbb362cd97d94c6828d90b61> >(__acrt_lock_id,<lambda_b2ea41f6bbb362cd97d94c6828d90b61> &&)
FUNC 6e50 28 0 __acrt_lock_and_call<<lambda_be2b3da3f62db62e9dad5dc70221a656> >(__acrt_lock_id,<lambda_be2b3da3f62db62e9dad5dc70221a656> &&)
FUNC 6e78 28 0 __acrt_lock_and_call<<lambda_e69574bed617af4e071282c136b37893> >(__acrt_lock_id,<lambda_e69574bed617af4e071282c136b37893> &&)
FUNC 6ea0 79 0 construct_ptd
FUNC 6f19 21 0 destroy_fls
FUNC 6f3a a9 0 destroy_ptd
FUNC 6fe3 4b 0 replace_current_thread_locale_nolock
FUNC 702e 2c 0 __acrt_freeptd
FUNC 705a 84 0 __acrt_getptd
FUNC 70de 85 0 __acrt_getptd_noexit
FUNC 7163 2c 0 __acrt_initialize_ptd
FUNC 718f 1a 4 __acrt_uninitialize_ptd
FUNC 71a9 43 0 __acrt_errno_from_os_error
FUNC 71ec 23 0 __acrt_errno_map_os_error
FUNC 720f 13 0 __doserrno
FUNC 7222 13 0 _errno
FUNC 7235 2d 0 __acrt_update_locale_info
FUNC 7262 2d 0 __acrt_update_multibyte_info
FUNC 728f b 0 __acrt_set_locale_changed
FUNC 729a 52 0 __acrt_uninitialize_locale
FUNC 72ec 41 0 __acrt_initialize_locks
FUNC 732d 17 0 __acrt_lock
FUNC 7344 31 4 __acrt_uninitialize_locks
FUNC 7375 17 0 __acrt_unlock
FUNC 738c 9c 0 try_get_function
FUNC 7428 7b 0 try_get_module
FUNC 74a3 56 4 __acrt_FlsAlloc
FUNC 74f9 56 4 __acrt_FlsFree
FUNC 754f 56 4 __acrt_FlsGetValue
FUNC 75a5 59 8 __acrt_FlsSetValue
FUNC 75fe 62 c __acrt_InitializeCriticalSectionEx
FUNC 7660 88 24 __acrt_LCMapStringEx
FUNC 76e8 5c 8 __acrt_LocaleNameToLCID
FUNC 7744 26 0 __acrt_initialize_winapi_thunks
FUNC 776a 87 0 __acrt_is_packaged_app
FUNC 77f1 36 0 __acrt_uninitialize_winapi_thunks
FUNC 7827 18 0 <lambda_62bb7ecb46d0a77b591a051c43eb5ad1>::<helper_func_cdecl>
FUNC 783f 190 0 common_expand_argv_wildcards<char>
FUNC 79cf 96 0 copy_and_add_argument_to_buffer<char>
FUNC 7a65 184 0 expand_argument_wildcards<char>
FUNC 7be9 25 0 `anonymous namespace'::argument_list<char>::~argument_list<char>()
FUNC 7c0e 35 0 `anonymous namespace'::argument_list<char>::append(char * const)
FUNC 7c43 87 0 `anonymous namespace'::argument_list<char>::expand_if_necessary()
FUNC 7cca b 0 __acrt_expand_narrow_argv_wildcards
FUNC 7cd5 43 0 __crt_seh_guarded_call<void>::operator()<<lambda_978dc153c237d78434369da87b74ff60>,<lambda_ad1ced32f4ac17aa236e5ef05d6b3b7c> &,<lambda_4a8533e2866a575feecb8298ce776b0d> >(<lambda_978dc153c237d78434369da87b74ff60> &&,<lambda_ad1ced32f4ac17aa236e5ef05d6b3b7c> &,<lambda_4a8533e2866a575feecb8298ce776b0d> &&)
FUNC 7d18 28 0 __acrt_lock_and_call<<lambda_ad1ced32f4ac17aa236e5ef05d6b3b7c> >(__acrt_lock_id,<lambda_ad1ced32f4ac17aa236e5ef05d6b3b7c> &&)
FUNC 7d40 c4 0 <lambda_ad1ced32f4ac17aa236e5ef05d6b3b7c>::operator()
FUNC 7e04 3e 0 CPtoLocaleName
FUNC 7e42 73 0 getSystemCP
FUNC 7eb5 65 0 setSBCS
FUNC 7f1a 194 0 setSBUpLow
FUNC 80ae 101 0 setmbcp_internal
FUNC 81af 1e 0 __acrt_initialize_multibyte
FUNC 81cd a2 0 __acrt_update_thread_multibyte_data
FUNC 826f 1f1 0 _setmbcp_nolock
FUNC 8460 81 0 memcpy_s
FUNC 84e1 59 0 x_ismbbtype_l
FUNC 853a 18 0 _ismbblead
FUNC 8552 19 0 __acrt_initialize_command_line
FUNC 856b 37 0 find_end_of_double_null_terminated_sequence
FUNC 85a2 83 0 __dcrt_get_narrow_environment_from_os
FUNC 8625 b 0 _recalloc
FUNC 8630 6d 0 _recalloc_base
FUNC 869d 11 0 __acrt_initialize_heap
FUNC 86ae a 4 __acrt_uninitialize_heap
FUNC 86b8 b6 0 initialize_inherited_file_handles_nolock
FUNC 876e b6 0 initialize_stdio_handles_nolock
FUNC 8824 56 0 __acrt_initialize_lowio
FUNC 887a 2c 4 __acrt_uninitialize_lowio
FUNC 88a6 83 0 __acrt_execute_initializers
FUNC 8929 4d 0 __acrt_execute_uninitializers
FUNC 8976 5a 0 __crt_seh_guarded_call<void (*)(int)>::operator()<<lambda_a048d3beccc847880fc8490e18b82769>,<lambda_ec61778202f4f5fc7e7711acc23c3bca> &,<lambda_f7496a158712204296dd6628a163878e> >(<lambda_a048d3beccc847880fc8490e18b82769> &&,<lambda_ec61778202f4f5fc7e7711acc23c3bca> &,<lambda_f7496a158712204296dd6628a163878e> &&)
FUNC 89d0 28 0 __acrt_lock_and_call<<lambda_ec61778202f4f5fc7e7711acc23c3bca> >(__acrt_lock_id,<lambda_ec61778202f4f5fc7e7711acc23c3bca> &&)
FUNC 89f8 42 0 get_global_action_nolock
FUNC 8a3a 31 0 __crt_state_management::dual_state_global<void (*)(int)>::initialize(void (*const)(int))
FUNC 8a6b 28 0 siglookup
FUNC 8a93 17 0 __acrt_get_sigabrt_handler
FUNC 8aaa 3b 0 __acrt_initialize_signal_handlers
FUNC 8ae5 9 0 __fpecode
FUNC 8aee 208 0 raise
FUNC 8cf6 19 0 __acrt_has_user_matherr
FUNC 8d0f 14 0 __acrt_initialize_user_matherr
FUNC 8d23 49 0 __acrt_invoke_user_matherr
FUNC 8d6c 6 0 _query_new_mode
FUNC 8d72 fa 0 _mbtowc_l
FUNC 8e6c 1a 0 mbtowc
FUNC 8e86 26 0 _fileno
FUNC 8eac c8 0 __acrt_initialize_stdio
FUNC 8f74 4c 0 __acrt_uninitialize_stdio
FUNC 8fc0 14 0 _lock_file
FUNC 8fd4 14 0 _unlock_file
FUNC 8fe8 26 0 __pctype_func
FUNC 900e 7d 0 __acrt_add_locale_ref
FUNC 908b 14a 0 __acrt_free_locale
FUNC 91d5 29 0 __acrt_locale_add_lc_time_reference
FUNC 91fe 30 0 __acrt_locale_free_lc_time_if_unreferenced
FUNC 922e 29 0 __acrt_locale_release_lc_time_reference
FUNC 9257 81 0 __acrt_release_locale_ref
FUNC 92d8 77 0 __acrt_update_thread_locale_data
FUNC 934f 50 0 _updatetlocinfoEx_nolock
FUNC 939f 39 0 _isleadbyte_l
FUNC 93d8 21d 0 __acrt_LCMapStringA_stat
FUNC 95f5 4b 0 __acrt_LCMapStringA
FUNC 9640 20 0 _freea_crt
FUNC 9660 fe 0 __acrt_locale_free_monetary
FUNC 975e 69 0 __acrt_locale_free_numeric
FUNC 97c7 3c 0 free_crt_array_internal
FUNC 9803 e4 0 __acrt_locale_free_time
FUNC 98e7 11d 0 __acrt_GetStringTypeA
FUNC 9a04 bc 0 GetTableIndexFromLocaleName
FUNC 9ac0 2c 0 __acrt_DownlevelLocaleNameToLCID
FUNC 9af0 96 0 shortsort
FUNC 9b90 39 0 swap
FUNC 9bd0 39a 0 qsort
FUNC 9f6a b1 0 common_tcsncpy_s<char>
FUNC a01b b 0 strncpy_s
FUNC a030 40 0 strpbrk
FUNC a070 17 0 _mbsdec
FUNC a087 8d 0 _mbsdec_l
FUNC a114 f 0 initialize_multibyte
FUNC a123 33 0 _msize
FUNC a156 69 0 _realloc_base
FUNC a1bf 7a 0 __acrt_lowio_create_handle_array
FUNC a239 35 0 __acrt_lowio_destroy_handle_array
FUNC a26e 98 0 __acrt_lowio_ensure_fh_exists
FUNC a306 23 0 __acrt_lowio_lock_fh
FUNC a329 23 0 __acrt_lowio_unlock_fh
FUNC a34c 91 0 _free_osfhnd
FUNC a3dd 6a 0 _get_osfhandle
FUNC a447 56 0 _isatty
FUNC a49d 66 0 __acrt_stdio_flush_nolock
FUNC a503 47 0 _fflush_nolock
FUNC a54a 9 0 _flushall
FUNC a553 d8 0 common_flush_all
FUNC a62b a0 0 _fcloseall
FUNC a6cb 3e 0 __acrt_stdio_free_buffer_nolock
FUNC a709 1c 0 __strncnt
FUNC a725 6 0 _query_app_type
FUNC a72b 98 0 __crt_seh_guarded_call<int>::operator()<<lambda_61cee617f5178ae960314fd4d05640a0>,<lambda_6978c1fb23f02e42e1d9e99668cc68aa> &,<lambda_9cd88cf8ad10232537feb2133f08c833> >(<lambda_61cee617f5178ae960314fd4d05640a0> &&,<lambda_6978c1fb23f02e42e1d9e99668cc68aa> &,<lambda_9cd88cf8ad10232537feb2133f08c833> &&)
FUNC a7c3 28 0 __acrt_lowio_lock_fh_and_call<<lambda_6978c1fb23f02e42e1d9e99668cc68aa> >(int,<lambda_6978c1fb23f02e42e1d9e99668cc68aa> &&)
FUNC a7eb 6f 0 _commit
FUNC a85a 1b3 0 write_double_translated_ansi_nolock
FUNC aa0d 6d 0 write_double_translated_unicode_nolock
FUNC aa7a 76 0 write_requires_double_translation_nolock
FUNC aaf0 df 0 write_text_ansi_nolock
FUNC abcf ee 0 write_text_utf16le_nolock
FUNC acbd 12d 0 write_text_utf8_nolock
FUNC adea eb 0 _write
FUNC aed5 20c 0 _write_nolock
FUNC b0f0 3f 0 log10
FUNC b130 3b 0 _CIlog10
FUNC b16b d5 0 _CIlog10_default
PUBLIC b17f 0 _log10_default
FUNC b240 40 0 ceil
FUNC b280 dd 0 _ceil_pentium4
FUNC b35d 7e 0 common_lseek_nolock<__int64>
FUNC b3db 1b 0 _lseeki64_nolock
FUNC b3f6 76 0 _fclose_nolock
FUNC b46c 80 0 fclose
FUNC b4f0 61 0 __ascii_strnicmp
FUNC b551 45 0 _putwch_nolock
FUNC b596 f 0 __acrt_initialize_sse2
FUNC b5b0 284 0 _CIlog10_pentium4
PUBLIC b5c8 0 _log10_pentium4
PUBLIC b851 0 _fFEXP
PUBLIC b8a8 0 _rtinfpopse
PUBLIC b8aa 0 _rtinfnpopse
PUBLIC b8ba 0 _fFLN
PUBLIC b96f 0 _rtinfpop
PUBLIC b971 0 _rtinfnpop
PUBLIC b98e 0 _ffexpm1
FUNC ba40 67 0 _trandisp1
FUNC baa7 8c 0 _trandisp2
PUBLIC bb33 0 _rttospopde
PUBLIC bb38 0 _rttospop
PUBLIC bb3a 0 _rtnospop
PUBLIC bb3c 0 _rttosnpop
PUBLIC bb3d 0 _rtnospopde
PUBLIC bb44 0 _rtzeropop
PUBLIC bb46 0 _rtzeronpop
PUBLIC bb4b 0 _rtzerospop
PUBLIC bb58 0 _rtonepop
PUBLIC bb5a 0 _rtonenpop
PUBLIC bb5f 0 _tosnan1
PUBLIC bb8a 0 _nosnan2
PUBLIC bb8c 0 _tosnan2
PUBLIC bbb4 0 _nan2
PUBLIC bbf3 0 _rtindfpop
PUBLIC bbf5 0 _rtindfnpop
PUBLIC bc06 0 _rttosnpopde
PUBLIC bc10 0 _rtatan2inf
PUBLIC bc2d 0 _rtchsifneg
FUNC bc40 15 0 _twoToTOS
FUNC bc55 17 0 _load_CW
FUNC bc6c 19 0 _convertTOStoQNaN
FUNC bc85 43 0 _fload_withFB
FUNC bcc8 16 0 _checkTOS_withFB
FUNC bcde d 0 _fast_exit
FUNC bceb 2a 0 _math_exit
FUNC bd15 14 0 _check_overflow_exit
FUNC bd29 a3 0 _check_range_exit
FUNC bdd0 17 0 _startTwoArgErrorHandling
FUNC bde7 3c 0 _startOneArgErrorHandling
FUNC be23 218 0 __libm_error_support
FUNC c03b b9 0 _ceil_default
FUNC c0f4 82 0 __crt_seh_guarded_call<int>::operator()<<lambda_123407a5e2ac06da108355a851863b7a>,<lambda_2fe9b910cf3cbf4a0ab98a02ba45b3ec> &,<lambda_ae55bdf541ad94d75914d381c370e64d> >(<lambda_123407a5e2ac06da108355a851863b7a> &&,<lambda_2fe9b910cf3cbf4a0ab98a02ba45b3ec> &,<lambda_ae55bdf541ad94d75914d381c370e64d> &&)
FUNC c176 28 0 __acrt_lowio_lock_fh_and_call<<lambda_2fe9b910cf3cbf4a0ab98a02ba45b3ec> >(int,<lambda_2fe9b910cf3cbf4a0ab98a02ba45b3ec> &&)
FUNC c19e 7f 0 _close
FUNC c21d 9c 0 _close_nolock
FUNC c2b9 3b 0 __acrt_stdio_free_stream(__crt_stdio_stream)
FUNC c2f4 1f 0 __dcrt_lowio_initialize_console_output
FUNC c313 17 0 __dcrt_terminate_console_output
FUNC c32a 13 0 _clrfp
FUNC c33d 2c 0 _ctrlfp
FUNC c369 5b 0 _set_statfp
FUNC c3c4 12 0 _statfp
FUNC c3d6 6a 0 _d_inttype
FUNC c440 12b 0 _powhlp
FUNC c56b 10b 0 _87except
FUNC c676 16 0 _frnd
FUNC c68c 34 0 _errcode
FUNC c6c0 ce 0 _except1
FUNC c78e 1e0 0 _handle_exc
FUNC c96e 23 0 _raise_exc
FUNC c991 2f1 0 _raise_exc_ex
FUNC cc82 2f 0 _set_errno_from_matherr
FUNC ccb1 a2 0 _umatherr
FUNC cd53 d4 0 _decomp
FUNC ce27 2f 0 _set_exp
FUNC ce56 5e 0 _sptype
FUNC ceb4 a4 0 _fpclass
PUBLIC cf58 4 IsProcessorFeaturePresent
PUBLIC cf5e 10 RtlUnwind
FUNC cf70 43 0 _FindPESection
FUNC cfc0 ba 0 _IsNonwritableInCurrentImage
FUNC d080 31 0 _ValidateImageBase
FUNC d0c0 95 0 _aulldvrm
FUNC d160 49 0 _SEH_prolog4_GS
FUNC d1a9 11 0 _SEH_epilog4_GS
FUNC d1c0 34 0 _allmul
FUNC d200 df 0 _alldvrm
FUNC d2e0 1f 0 _aullshr
FUNC d300 2c 0 _alloca_probe_16
PUBLIC d316 0 _alloca_probe_8
FUNC d330 1f 0 _allshl
FUNC d350 9 0 _ftol2_sse
FUNC d359 13 0 _ftol2_pentium4
FUNC d36c 1a 0 _ftol2_sse_excpt
FUNC d390 75 0 _ftol2
FUNC d410 2d 0 _chkstk
FUNC d440 574 0 memcpy
FUNC d9c0 12b 0 strchr
PUBLIC da2e 0 __from_strstr_to_strchr
FUNC daf0 137 0 strrchr
STACK WIN 4 1000 92 e 0 8 c 18 0 1 $T0 .raSearch = $eip $T0 ^ = $esp $T0 4 + =  $20 $T0 28 - ^ =  $23 $T0 32 - ^ =  $24 $T0 36 - ^ = 
STACK WIN 4 10a0 b2 d 0 c 8 38 0 1 $T1 .raSearch = $T0  $T1 4 - 16 @ = $ebp $T1 4 - ^ = $eip $T1 ^ = $esp $T1 4 + = $23 $T0 60 - ^ =  $24 $T0 64 - ^ = 
STACK WIN 4 1160 a2 13 0 18 8 18 0 1 $T1 .raSearch = $T0  $T1 4 - 8 @ = $ebp $T1 4 - ^ = $eip $T1 ^ = $esp $T1 4 + = $23 $T0 28 - ^ =  $24 $T0 32 - ^ = 
STACK WIN 4 1210 ac 11 0 8 8 c 0 1 $T0 .raSearch = $eip $T0 ^ = $esp $T0 4 + =  $23 $T0 16 - ^ =  $24 $T0 20 - ^ = 
STACK WIN 4 12c0 a9 6 0 0 8 c 0 1 $T0 .raSearch = $eip $T0 ^ = $esp $T0 4 + =  $23 $T0 16 - ^ =  $24 $T0 20 - ^ = 
STACK WIN 4 1370 69 7 0 0 0 0 0 1 $T0 .raSearch = $eip $T0 ^ = $esp $T0 4 + = 
STACK WIN 4 1374 61 3 0 0 4 c 0 1 $T0 .raSearch = $eip $T0 ^ = $esp $T0 4 + =  $23 $T0 16 - ^ = 
STACK WIN 4 1375 5f 2 0 0 8 c 0 1 $T0 .raSearch = $eip $T0 ^ = $esp $T0 4 + =  $23 $T0 16 - ^ =  $24 $T0 20 - ^ = 
STACK WIN 4 13e0 b 0 0 0 0 0 0 1 $T0 .raSearch = $eip $T0 ^ = $esp $T0 4 + = 
STACK WIN 4 13f0 67 f 0 0 0 0 0 1 $T0 .raSearch = $eip $T0 ^ = $esp $T0 4 + = 
STACK WIN 4 13f4 5f b 0 0 4 18 0 1 $T0 .raSearch = $eip $T0 ^ = $esp $T0 4 + =  $20 $T0 28 - ^ = 
STACK WIN 4 13fb 57 4 0 0 8 18 0 1 $T0 .raSearch = $eip $T0 ^ = $esp $T0 4 + =  $20 $T0 28 - ^ =  $22 $T0 32 - ^ = 
STACK WIN 4 13fc 55 3 0 0 c 18 0 1 $T0 .raSearch = $eip $T0 ^ = $esp $T0 4 + =  $20 $T0 28 - ^ =  $22 $T0 32 - ^ =  $23 $T0 36 - ^ = 
STACK WIN 4 13fd 53 2 0 0 10 18 0 1 $T0 .raSearch = $eip $T0 ^ = $esp $T0 4 + =  $20 $T0 28 - ^ =  $22 $T0 32 - ^ =  $23 $T0 36 - ^ =  $24 $T0 40 - ^ = 
STACK WIN 4 1460 a3 d 0 0 0 0 0 1 $T0 .raSearch = $eip $T0 ^ = $esp $T0 4 + = 
STACK WIN 4 1464 9b 9 0 0 4 1c 0 1 $T0 .raSearch = $eip $T0 ^ = $esp $T0 4 + =  $20 $T0 32 - ^ = 
STACK WIN 4 1465 99 8 0 0 8 1c 0 1 $T0 .raSearch = $eip $T0 ^ = $esp $T0 4 + =  $20 $T0 32 - ^ =  $22 $T0 36 - ^ = 
STACK WIN 4 146e 8f 0 0 0 c 1c 0 1 $T0 .raSearch = $eip $T0 ^ = $esp $T0 4 + =  $20 $T0 32 - ^ =  $22 $T0 36 - ^ =  $23 $T0 40 - ^ = 
STACK WIN 4 146f 8d 0 0 0 10 1c 0 1 $T0 .raSearch = $eip $T0 ^ = $esp $T0 4 + =  $20 $T0 32 - ^ =  $22 $T0 36 - ^ =  $23 $T0 40 - ^ =  $24 $T0 44 - ^ = 
STACK WIN 4 1510 20 3 0 4 0 0 0 1 $T0 .raSearch = $eip $T0 ^ = $esp $T0 4 + = 
STACK WIN 4 1511 1c 2 0 4 4 0 0 1 $T0 .raSearch = $eip $T0 ^ = $esp $T0 4 + =  $23 $T0 4 - ^ = 
STACK WIN 4 1530 82 8 0 10 4 0 0 1 $T0 .raSearch = $eip $T0 ^ = $esp $T0 4 + =  $23 $T0 4 - ^ = 
STACK WIN 4 15c0 49 3 0 4 0 0 0 1 $T0 .raSearch = $eip $T0 ^ = $esp $T0 4 + = 
STACK WIN 4 15c1 45 2 0 4 4 0 0 1 $T0 .raSearch = $eip $T0 ^ = $esp $T0 4 + =  $23 $T0 4 - ^ = 
STACK WIN 4 1610 f0 19 0 0 c 1c 0 1 $T1 .raSearch = $T0  $T1 4 - 8 @ = $ebp $T1 4 - ^ = $eip $T1 ^ = $esp $T1 4 + = $20 $T0 32 - ^ =  $23 $T0 36 - ^ =  $24 $T0 40 - ^ = 
STACK WIN 4 1700 49 3 0 4 0 0 0 1 $T0 .raSearch = $eip $T0 ^ = $esp $T0 4 + = 
STACK WIN 4 1701 45 2 0 4 4 0 0 1 $T0 .raSearch = $eip $T0 ^ = $esp $T0 4 + =  $23 $T0 4 - ^ = 
STACK WIN 4 1750 fe 19 0 0 c 1c 0 1 $T1 .raSearch = $T0  $T1 4 - 8 @ = $ebp $T1 4 - ^ = $eip $T1 ^ = $esp $T1 4 + = $20 $T0 32 - ^ =  $23 $T0 36 - ^ =  $24 $T0 40 - ^ = 
STACK WIN 4 1850 97 e 0 0 0 0 0 1 $T0 .raSearch = $eip $T0 ^ = $esp $T0 4 + = 
STACK WIN 4 1854 8f a 0 0 4 18 0 1 $T0 .raSearch = $eip $T0 ^ = $esp $T0 4 + =  $20 $T0 28 - ^ = 
STACK WIN 4 185b 87 3 0 0 8 18 0 1 $T0 .raSearch = $eip $T0 ^ = $esp $T0 4 + =  $20 $T0 28 - ^ =  $23 $T0 32 - ^ = 
STACK WIN 4 185c 85 2 0 0 c 18 0 1 $T0 .raSearch = $eip $T0 ^ = $esp $T0 4 + =  $20 $T0 28 - ^ =  $23 $T0 32 - ^ =  $24 $T0 36 - ^ = 
STACK WIN 4 18f0 3e 3 0 4 0 0 0 1 $T0 .raSearch = $eip $T0 ^ = $esp $T0 4 + = 
STACK WIN 4 18f1 3a 2 0 4 4 0 0 1 $T0 .raSearch = $eip $T0 ^ = $esp $T0 4 + =  $23 $T0 4 - ^ = 
STACK WIN 4 1930 f5 19 0 0 c 1c 0 1 $T1 .raSearch = $T0  $T1 4 - 8 @ = $ebp $T1 4 - ^ = $eip $T1 ^ = $esp $T1 4 + = $20 $T0 32 - ^ =  $23 $T0 36 - ^ =  $24 $T0 40 - ^ = 
STACK WIN 4 1a30 60 f 0 0 0 0 0 1 $T0 .raSearch = $eip $T0 ^ = $esp $T0 4 + = 
STACK WIN 4 1a34 58 b 0 0 4 18 0 1 $T0 .raSearch = $eip $T0 ^ = $esp $T0 4 + =  $20 $T0 28 - ^ = 
STACK WIN 4 1a35 56 a 0 0 8 18 0 1 $T0 .raSearch = $eip $T0 ^ = $esp $T0 4 + =  $20 $T0 28 - ^ =  $22 $T0 32 - ^ = 
STACK WIN 4 1a36 54 9 0 0 c 18 0 1 $T0 .raSearch = $eip $T0 ^ = $esp $T0 4 + =  $20 $T0 28 - ^ =  $22 $T0 32 - ^ =  $23 $T0 36 - ^ = 
STACK WIN 4 1a37 52 8 0 0 10 18 0 1 $T0 .raSearch = $eip $T0 ^ = $esp $T0 4 + =  $20 $T0 28 - ^ =  $22 $T0 32 - ^ =  $23 $T0 36 - ^ =  $24 $T0 40 - ^ = 
STACK WIN 4 1a90 3e 3 0 4 0 0 0 1 $T0 .raSearch = $eip $T0 ^ = $esp $T0 4 + = 
STACK WIN 4 1a91 3a 2 0 4 4 0 0 1 $T0 .raSearch = $eip $T0 ^ = $esp $T0 4 + =  $23 $T0 4 - ^ = 
STACK WIN 4 1ad0 f5 19 0 0 c 1c 0 1 $T1 .raSearch = $T0  $T1 4 - 8 @ = $ebp $T1 4 - ^ = $eip $T1 ^ = $esp $T1 4 + = $20 $T0 32 - ^ =  $23 $T0 36 - ^ =  $24 $T0 40 - ^ = 
STACK WIN 4 1bd0 97 e 0 0 0 0 0 1 $T0 .raSearch = $eip $T0 ^ = $esp $T0 4 + = 
STACK WIN 4 1bd4 8f a 0 0 4 18 0 1 $T0 .raSearch = $eip $T0 ^ = $esp $T0 4 + =  $20 $T0 28 - ^ = 
STACK WIN 4 1bdb 87 3 0 0 8 18 0 1 $T0 .raSearch = $eip $T0 ^ = $esp $T0 4 + =  $20 $T0 28 - ^ =  $23 $T0 32 - ^ = 
STACK WIN 4 1bdc 85 2 0 0 c 18 0 1 $T0 .raSearch = $eip $T0 ^ = $esp $T0 4 + =  $20 $T0 28 - ^ =  $23 $T0 32 - ^ =  $24 $T0 36 - ^ = 
STACK WIN 4 1c70 68 3 0 0 0 0 0 1 $T0 .raSearch = $eip $T0 ^ = $esp $T0 4 + = 
STACK WIN 4 1c71 51 2 0 0 4 0 0 1 $T0 .raSearch = $eip $T0 ^ = $esp $T0 4 + =  $23 $T0 4 - ^ = 
STACK WIN 4 1ce0 86 e 0 8 0 0 0 1 $T0 .raSearch = $eip $T0 ^ = $esp $T0 4 + = 
STACK WIN 4 1ce6 68 8 0 8 4 0 0 1 $T0 .raSearch = $eip $T0 ^ = $esp $T0 4 + =  $20 $T0 4 - ^ = 
STACK WIN 4 1ce7 66 7 0 8 8 0 0 1 $T0 .raSearch = $eip $T0 ^ = $esp $T0 4 + =  $20 $T0 4 - ^ =  $23 $T0 8 - ^ = 
STACK WIN 4 1ce8 64 6 0 8 c 0 0 1 $T0 .raSearch = $eip $T0 ^ = $esp $T0 4 + =  $20 $T0 4 - ^ =  $23 $T0 8 - ^ =  $24 $T0 12 - ^ = 
STACK WIN 4 1d70 104 10 0 c 0 0 0 1 $T0 .raSearch = $eip $T0 ^ = $esp $T0 4 + = 
STACK WIN 4 1d71 e1 f 0 c 4 0 0 1 $T0 .raSearch = $eip $T0 ^ = $esp $T0 4 + =  $20 $T0 4 - ^ = 
STACK WIN 4 1d76 db a 0 c 8 0 0 1 $T0 .raSearch = $eip $T0 ^ = $esp $T0 4 + =  $20 $T0 4 - ^ =  $22 $T0 8 - ^ = 
STACK WIN 4 1d7b d5 5 0 c c 0 0 1 $T0 .raSearch = $eip $T0 ^ = $esp $T0 4 + =  $20 $T0 4 - ^ =  $22 $T0 8 - ^ =  $23 $T0 12 - ^ = 
STACK WIN 4 1d8b c2 0 0 c 10 0 0 1 $T0 .raSearch = $eip $T0 ^ = $esp $T0 4 + =  $20 $T0 4 - ^ =  $22 $T0 8 - ^ =  $23 $T0 12 - ^ =  $24 $T0 16 - ^ = 
STACK WIN 4 1e80 95 3 0 8 0 0 0 1 $T0 .raSearch = $eip $T0 ^ = $esp $T0 4 + = 
STACK WIN 4 1e81 86 2 0 8 4 0 0 1 $T0 .raSearch = $eip $T0 ^ = $esp $T0 4 + =  $23 $T0 4 - ^ = 
STACK WIN 4 1e88 7c 0 0 8 8 0 0 1 $T0 .raSearch = $eip $T0 ^ = $esp $T0 4 + =  $23 $T0 4 - ^ =  $24 $T0 8 - ^ = 
STACK WIN 4 1ecf 1f 0 0 8 c 0 0 1 $T0 .raSearch = $eip $T0 ^ = $esp $T0 4 + =  $23 $T0 4 - ^ =  $24 $T0 8 - ^ =  $20 $T0 12 - ^ = 
STACK WIN 4 1f20 125 b 0 8 0 0 0 1 $T0 .raSearch = $eip $T0 ^ = $esp $T0 4 + = 
STACK WIN 4 1f25 103 6 0 8 4 0 0 1 $T0 .raSearch = $eip $T0 ^ = $esp $T0 4 + =  $20 $T0 4 - ^ = 
STACK WIN 4 1f26 101 5 0 8 8 0 0 1 $T0 .raSearch = $eip $T0 ^ = $esp $T0 4 + =  $20 $T0 4 - ^ =  $23 $T0 8 - ^ = 
STACK WIN 4 1f27 ff 4 0 8 c 0 0 1 $T0 .raSearch = $eip $T0 ^ = $esp $T0 4 + =  $20 $T0 4 - ^ =  $23 $T0 8 - ^ =  $24 $T0 12 - ^ = 
STACK WIN 4 1f9b 8a 0 0 8 10 0 0 1 $T0 .raSearch = $eip $T0 ^ = $esp $T0 4 + =  $20 $T0 4 - ^ =  $23 $T0 8 - ^ =  $24 $T0 12 - ^ =  $22 $T0 16 - ^ = 
STACK WIN 4 2050 bc 9 0 4 8 10 0 1 $T0 .raSearch = $eip $T0 ^ = $esp $T0 4 + =  $20 $T0 20 - ^ =  $23 $T0 24 - ^ = 
STACK WIN 4 2110 153 18 0 8 c 3c 0 1 $T1 .raSearch = $T0  $T1 4 - 8 @ = $ebp $T1 4 - ^ = $eip $T1 ^ = $esp $T1 4 + = $20 $T0 64 - ^ =  $23 $T0 68 - ^ =  $24 $T0 72 - ^ = 
STACK WIN 4 2270 b 0 0 4 0 0 0 1 $T0 .raSearch = $eip $T0 ^ = $esp $T0 4 + = 
STACK WIN 4 2280 16 5 0 4 0 0 0 1 $T0 .raSearch = $eip $T0 ^ = $esp $T0 4 + = 
STACK WIN 4 2285 e 0 0 4 4 0 0 1 $T0 .raSearch = $eip $T0 ^ = $esp $T0 4 + =  $23 $T0 4 - ^ = 
STACK WIN 4 22a0 212 17 0 4 c 6c 0 1 $T1 .raSearch = $T0  $T1 4 - 8 @ = $ebp $T1 4 - ^ = $eip $T1 ^ = $esp $T1 4 + = $20 $T0 112 - ^ =  $23 $T0 116 - ^ =  $24 $T0 120 - ^ = 
STACK WIN 4 24c0 206 17 0 4 c 4c 0 1 $T1 .raSearch = $T0  $T1 4 - 8 @ = $ebp $T1 4 - ^ = $eip $T1 ^ = $esp $T1 4 + = $20 $T0 80 - ^ =  $23 $T0 84 - ^ =  $24 $T0 88 - ^ = 
STACK WIN 4 26d0 1ec 17 0 4 c 4c 0 1 $T1 .raSearch = $T0  $T1 4 - 8 @ = $ebp $T1 4 - ^ = $eip $T1 ^ = $esp $T1 4 + = $20 $T0 80 - ^ =  $23 $T0 84 - ^ =  $24 $T0 88 - ^ = 
STACK WIN 4 28c0 170 17 0 4 c 2c 0 1 $T1 .raSearch = $T0  $T1 4 - 8 @ = $ebp $T1 4 - ^ = $eip $T1 ^ = $esp $T1 4 + = $20 $T0 48 - ^ =  $23 $T0 52 - ^ =  $24 $T0 56 - ^ = 
STACK WIN 4 2a30 50 0 0 4 0 0 0 1 $T0 .raSearch = $eip $T0 ^ = $esp $T0 4 + = 
STACK WIN 4 2a80 d 0 0 0 0 0 0 1 $T0 .raSearch = $eip $T0 ^ = $esp $T0 4 + = 
STACK WIN 4 2a90 f1 8 0 8 0 0 0 1 $T0 .raSearch = $eip $T0 ^ = $esp $T0 4 + = 
STACK WIN 4 2a91 e2 7 0 8 4 0 0 1 $T0 .raSearch = $eip $T0 ^ = $esp $T0 4 + =  $20 $T0 4 - ^ = 
STACK WIN 4 2a96 dc 2 0 8 8 0 0 1 $T0 .raSearch = $eip $T0 ^ = $esp $T0 4 + =  $20 $T0 4 - ^ =  $23 $T0 8 - ^ = 
STACK WIN 4 2af4 7b 0 0 8 c 0 0 1 $T0 .raSearch = $eip $T0 ^ = $esp $T0 4 + =  $20 $T0 4 - ^ =  $23 $T0 8 - ^ =  $24 $T0 12 - ^ = 
STACK WIN 4 2b76 b 0 0 8 8 0 0 1 $T0 .raSearch = $eip $T0 ^ = $esp $T0 4 + =  $20 $T0 4 - ^ =  $23 $T0 8 - ^ =  $24 $T0 12 - ^ = 
STACK WIN 4 2b90 86 9 0 4 0 0 0 1 $T0 .raSearch = $eip $T0 ^ = $esp $T0 4 + = 
STACK WIN 4 2b94 7e 5 0 4 4 14 0 1 $T0 .raSearch = $eip $T0 ^ = $esp $T0 4 + =  $20 $T0 24 - ^ = 
STACK WIN 4 2b95 7c 4 0 4 8 14 0 1 $T0 .raSearch = $eip $T0 ^ = $esp $T0 4 + =  $20 $T0 24 - ^ =  $23 $T0 28 - ^ = 
STACK WIN 4 2c20 78 9 0 c 8 18 0 1 $T0 .raSearch = $eip $T0 ^ = $esp $T0 4 + =  $23 $T0 28 - ^ =  $24 $T0 32 - ^ = 
STACK WIN 4 2ca0 63 c 0 0 0 0 0 1 $T0 .raSearch = $eip $T0 ^ = $esp $T0 4 + = 
STACK WIN 4 2ca2 5f a 0 0 4 4 0 1 $T0 .raSearch = $eip $T0 ^ = $esp $T0 4 + =  $23 $T0 8 - ^ = 
STACK WIN 4 2cde d 0 0 0 8 4 0 1 $T0 .raSearch = $eip $T0 ^ = $esp $T0 4 + =  $23 $T0 8 - ^ =  $24 $T0 12 - ^ = 
STACK WIN 4 2d10 212 1e 0 8 10 74 0 1 $T0 .raSearch = $eip $T0 ^ = $esp $T0 4 + =  $20 $T0 120 - ^ =  $22 $T0 124 - ^ =  $23 $T0 128 - ^ =  $24 $T0 132 - ^ = 
STACK WIN 4 2f30 1d5 1b 0 8 10 3c 0 1 $T0 .raSearch = $eip $T0 ^ = $esp $T0 4 + =  $20 $T0 64 - ^ =  $22 $T0 68 - ^ =  $23 $T0 72 - ^ =  $24 $T0 76 - ^ = 
STACK WIN 4 3110 181 16 0 4 c 34 0 1 $T0 .raSearch = $eip $T0 ^ = $esp $T0 4 + =  $20 $T0 56 - ^ =  $23 $T0 60 - ^ =  $24 $T0 64 - ^ = 
STACK WIN 4 32a0 160 12 0 4 c 3c 0 1 $T0 .raSearch = $eip $T0 ^ = $esp $T0 4 + =  $20 $T0 64 - ^ =  $23 $T0 68 - ^ =  $24 $T0 72 - ^ = 
STACK WIN 4 3400 93 3 0 4 0 0 0 1 $T0 .raSearch = $eip $T0 ^ = $esp $T0 4 + = 
STACK WIN 4 3401 7a 2 0 4 4 0 0 1 $T0 .raSearch = $eip $T0 ^ = $esp $T0 4 + =  $23 $T0 4 - ^ = 
STACK WIN 4 34a0 74 8 0 4 0 0 0 1 $T0 .raSearch = $eip $T0 ^ = $esp $T0 4 + = 
STACK WIN 4 34a1 70 7 0 4 4 0 0 1 $T0 .raSearch = $eip $T0 ^ = $esp $T0 4 + =  $23 $T0 4 - ^ = 
STACK WIN 4 34a6 6a 2 0 4 8 0 0 1 $T0 .raSearch = $eip $T0 ^ = $esp $T0 4 + =  $23 $T0 4 - ^ =  $24 $T0 8 - ^ = 
STACK WIN 4 3520 10a 3 0 8 0 0 0 1 $T0 .raSearch = $eip $T0 ^ = $esp $T0 4 + = 
STACK WIN 4 3521 f1 2 0 8 4 0 0 1 $T0 .raSearch = $eip $T0 ^ = $esp $T0 4 + =  $23 $T0 4 - ^ = 
STACK WIN 4 3578 97 0 0 8 8 0 0 1 $T0 .raSearch = $eip $T0 ^ = $esp $T0 4 + =  $23 $T0 4 - ^ =  $20 $T0 8 - ^ = 
STACK WIN 4 3587 87 0 0 8 c 0 0 1 $T0 .raSearch = $eip $T0 ^ = $esp $T0 4 + =  $23 $T0 4 - ^ =  $20 $T0 8 - ^ =  $24 $T0 12 - ^ = 
STACK WIN 4 3615 15 0 0 8 4 0 0 1 $T0 .raSearch = $eip $T0 ^ = $esp $T0 4 + =  $23 $T0 4 - ^ =  $20 $T0 8 - ^ =  $24 $T0 12 - ^ = 
STACK WIN 4 3630 f5 c 0 c 0 0 0 1 $T0 .raSearch = $eip $T0 ^ = $esp $T0 4 + = 
STACK WIN 4 3635 ce 7 0 c 4 0 0 1 $T0 .raSearch = $eip $T0 ^ = $esp $T0 4 + =  $20 $T0 4 - ^ = 
STACK WIN 4 363a c8 2 0 c 8 0 0 1 $T0 .raSearch = $eip $T0 ^ = $esp $T0 4 + =  $20 $T0 4 - ^ =  $23 $T0 8 - ^ = 
STACK WIN 4 364d b2 0 0 c c 0 0 1 $T0 .raSearch = $eip $T0 ^ = $esp $T0 4 + =  $20 $T0 4 - ^ =  $23 $T0 8 - ^ =  $22 $T0 12 - ^ = 
STACK WIN 4 3663 9b 0 0 c 10 0 0 1 $T0 .raSearch = $eip $T0 ^ = $esp $T0 4 + =  $20 $T0 4 - ^ =  $23 $T0 8 - ^ =  $22 $T0 12 - ^ =  $24 $T0 16 - ^ = 
STACK WIN 4 3730 63 8 0 4 0 0 0 1 $T0 .raSearch = $eip $T0 ^ = $esp $T0 4 + = 
STACK WIN 4 3731 5f 7 0 4 4 0 0 1 $T0 .raSearch = $eip $T0 ^ = $esp $T0 4 + =  $23 $T0 4 - ^ = 
STACK WIN 4 3736 56 2 0 4 8 0 0 1 $T0 .raSearch = $eip $T0 ^ = $esp $T0 4 + =  $23 $T0 4 - ^ =  $24 $T0 8 - ^ = 
STACK WIN 4 37a0 98 3 0 8 0 0 0 1 $T0 .raSearch = $eip $T0 ^ = $esp $T0 4 + = 
STACK WIN 4 37a1 7f 2 0 8 4 0 0 1 $T0 .raSearch = $eip $T0 ^ = $esp $T0 4 + =  $23 $T0 4 - ^ = 
STACK WIN 4 37b0 6d 0 0 8 8 0 0 1 $T0 .raSearch = $eip $T0 ^ = $esp $T0 4 + =  $23 $T0 4 - ^ =  $24 $T0 8 - ^ = 
STACK WIN 4 3840 78 4 0 4 0 0 0 1 $T0 .raSearch = $eip $T0 ^ = $esp $T0 4 + = 
STACK WIN 4 3841 69 3 0 4 4 0 0 1 $T0 .raSearch = $eip $T0 ^ = $esp $T0 4 + =  $20 $T0 4 - ^ = 
STACK WIN 4 3842 67 2 0 4 8 0 0 1 $T0 .raSearch = $eip $T0 ^ = $esp $T0 4 + =  $20 $T0 4 - ^ =  $23 $T0 8 - ^ = 
STACK WIN 4 3845 60 0 0 4 c 0 0 1 $T0 .raSearch = $eip $T0 ^ = $esp $T0 4 + =  $20 $T0 4 - ^ =  $23 $T0 8 - ^ =  $24 $T0 12 - ^ = 
STACK WIN 4 38b8 1b 9 0 4 0 0 0 1 $T0 $ebp = $eip $T0 4 + ^ = $ebp $T0 ^ = $esp $T0 8 + = 
STACK WIN 4 38bc 13 5 0 4 4 0 0 1 $T0 $ebp = $eip $T0 4 + ^ = $ebp $T0 ^ = $esp $T0 8 + =  $23 $T0 4 - ^ = 
STACK WIN 4 38d3 18 0 0 0 0 0 0 1 $T0 .raSearch = $eip $T0 ^ = $esp $T0 4 + = 
STACK WIN 4 38eb 2c 6 0 4 0 0 0 1 $T0 $ebp = $eip $T0 4 + ^ = $ebp $T0 ^ = $esp $T0 8 + = 
STACK WIN 4 38ef 24 2 0 4 4 0 0 1 $T0 $ebp = $eip $T0 4 + ^ = $ebp $T0 ^ = $esp $T0 8 + =  $23 $T0 4 - ^ = 
STACK WIN 4 3917 37 b 0 4 0 8 0 1 $T0 $ebp = $eip $T0 4 + ^ = $ebp $T0 ^ = $esp $T0 8 + = 
STACK WIN 4 3920 28 2 0 4 4 8 0 1 $T0 $ebp = $eip $T0 4 + ^ = $ebp $T0 ^ = $esp $T0 8 + =  $23 $T0 12 - ^ = 
STACK WIN 4 394e 1b 9 0 4 0 0 0 1 $T0 $ebp = $eip $T0 4 + ^ = $ebp $T0 ^ = $esp $T0 8 + = 
STACK WIN 4 3952 13 5 0 4 4 0 0 1 $T0 $ebp = $eip $T0 4 + ^ = $ebp $T0 ^ = $esp $T0 8 + =  $23 $T0 4 - ^ = 
STACK WIN 4 3969 21 d 0 4 0 4 0 1 $T0 $ebp = $eip $T0 4 + ^ = $ebp $T0 ^ = $esp $T0 8 + = 
STACK WIN 4 396e 16 8 0 4 4 4 0 1 $T0 $ebp = $eip $T0 4 + ^ = $ebp $T0 ^ = $esp $T0 8 + =  $23 $T0 8 - ^ = 
STACK WIN 4 398a 1b 9 0 4 0 0 0 1 $T0 $ebp = $eip $T0 4 + ^ = $ebp $T0 ^ = $esp $T0 8 + = 
STACK WIN 4 398e 13 5 0 4 4 0 0 1 $T0 $ebp = $eip $T0 4 + ^ = $ebp $T0 ^ = $esp $T0 8 + =  $23 $T0 4 - ^ = 
STACK WIN 4 39a5 1b 9 0 4 0 0 0 1 $T0 $ebp = $eip $T0 4 + ^ = $ebp $T0 ^ = $esp $T0 8 + = 
STACK WIN 4 39a9 13 5 0 4 4 0 0 1 $T0 $ebp = $eip $T0 4 + ^ = $ebp $T0 ^ = $esp $T0 8 + =  $23 $T0 4 - ^ = 
STACK WIN 4 39c0 21 d 0 4 0 4 0 1 $T0 $ebp = $eip $T0 4 + ^ = $ebp $T0 ^ = $esp $T0 8 + = 
STACK WIN 4 39c5 16 8 0 4 4 4 0 1 $T0 $ebp = $eip $T0 4 + ^ = $ebp $T0 ^ = $esp $T0 8 + =  $23 $T0 8 - ^ = 
STACK WIN 4 39e1 11 0 0 0 0 0 0 1 $T0 .raSearch = $eip $T0 ^ = $esp $T0 4 + = 
STACK WIN 4 39f2 2d 6 0 4 0 0 0 1 $T0 $ebp = $eip $T0 4 + ^ = $ebp $T0 ^ = $esp $T0 8 + = 
STACK WIN 4 39f6 25 2 0 4 4 0 0 1 $T0 $ebp = $eip $T0 4 + ^ = $ebp $T0 ^ = $esp $T0 8 + =  $23 $T0 4 - ^ = 
STACK WIN 4 3a1f 20 6 0 4 0 c 0 1 $T0 $ebp = $eip $T0 4 + ^ = $ebp $T0 ^ = $esp $T0 8 + = 
STACK WIN 4 3a3f 20 6 0 4 0 c 0 1 $T0 $ebp = $eip $T0 4 + ^ = $ebp $T0 ^ = $esp $T0 8 + = 
STACK WIN 4 3a5f d 0 0 0 0 0 0 1 $T0 .raSearch = $eip $T0 ^ = $esp $T0 4 + = 
STACK WIN 4 3a6c 11 0 0 0 0 0 0 1 $T0 .raSearch = $eip $T0 ^ = $esp $T0 4 + = 
STACK WIN 4 3a7d 5 0 0 4 0 0 0 1 $T0 $ebp = $eip $T0 4 + ^ = $ebp $T0 ^ = $esp $T0 8 + = 
STACK WIN 4 3a82 33 3 0 4 0 0 0 1 $T0 $ebp = $eip $T0 4 + ^ = $ebp $T0 ^ = $esp $T0 8 + = 
STACK WIN 4 3ab5 5 0 0 4 0 0 0 1 $T0 $ebp = $eip $T0 4 + ^ = $ebp $T0 ^ = $esp $T0 8 + = 
STACK WIN 4 3aba e 3 0 8 0 0 0 1 $T0 $ebp = $eip $T0 4 + ^ = $ebp $T0 ^ = $esp $T0 8 + = 
STACK WIN 4 3ac8 9 3 0 4 0 0 0 1 $T0 $ebp = $eip $T0 4 + ^ = $ebp $T0 ^ = $esp $T0 8 + = 
STACK WIN 4 3ad1 53 3 0 c 0 0 0 1 $T0 $ebp = $eip $T0 4 + ^ = $ebp $T0 ^ = $esp $T0 8 + = 
STACK WIN 4 3b24 112 c 0 8 10 20 0 1 $T0 $ebp = $eip $T0 4 + ^ = $ebp $T0 ^ = $esp $T0 8 + =  $20 $T0 36 - ^ =  $23 $T0 40 - ^ =  $24 $T0 44 - ^ = 
STACK WIN 4 3c29 c 0 0 8 10 20 0 1 $T0 $ebp = $T2 $esp = $T1 .raSearchStart = $eip $T1 ^ = $ebp $T0 = $esp $T1 4 + = 
STACK WIN 4 3c36 7d c 0 4 10 1c 0 1 $T0 $ebp = $eip $T0 4 + ^ = $ebp $T0 ^ = $esp $T0 8 + =  $20 $T0 32 - ^ =  $23 $T0 36 - ^ =  $24 $T0 40 - ^ = 
STACK WIN 4 3ca4 e 0 0 4 10 1c 0 1 $T0 $ebp = $T2 $esp = $T1 .raSearchStart = $eip $T1 ^ = $ebp $T0 = $esp $T1 4 + = 
STACK WIN 4 3cb3 fc c 0 c 10 1c 0 1 $T0 $ebp = $eip $T0 4 + ^ = $ebp $T0 ^ = $esp $T0 8 + =  $20 $T0 32 - ^ =  $23 $T0 36 - ^ =  $24 $T0 40 - ^ = 
STACK WIN 4 3d79 1f 0 0 c 10 1c 0 1 $T0 $ebp = $T2 $esp = $T1 .raSearchStart = $eip $T1 ^ = $ebp $T0 = $esp $T1 4 + = 
STACK WIN 4 3daf 2a 4 0 c 0 0 0 1 $T0 $ebp = $eip $T0 4 + ^ = $ebp $T0 ^ = $esp $T0 8 + = 
STACK WIN 4 3db3 22 0 0 c 4 0 0 1 $T0 $ebp = $eip $T0 4 + ^ = $ebp $T0 ^ = $esp $T0 8 + =  $23 $T0 4 - ^ = 
STACK WIN 4 3dd9 23 3 0 c 0 0 0 1 $T0 $ebp = $eip $T0 4 + ^ = $ebp $T0 ^ = $esp $T0 8 + = 
STACK WIN 4 3dfc 23 a 0 4 0 0 0 1 $T0 $ebp = $eip $T0 4 + ^ = $ebp $T0 ^ = $esp $T0 8 + = 
STACK WIN 4 3e04 17 2 0 4 4 0 0 1 $T0 $ebp = $eip $T0 4 + ^ = $ebp $T0 ^ = $esp $T0 8 + =  $23 $T0 4 - ^ = 
STACK WIN 4 3e1f 28 3 0 4 0 0 0 1 $T0 $ebp = $eip $T0 4 + ^ = $ebp $T0 ^ = $esp $T0 8 + = 
STACK WIN 4 3e47 fb 9 0 0 0 324 0 1 $T0 $ebp = $eip $T0 4 + ^ = $ebp $T0 ^ = $esp $T0 8 + = 
STACK WIN 4 3f42 1b 9 0 4 0 0 0 1 $T0 $ebp = $eip $T0 4 + ^ = $ebp $T0 ^ = $esp $T0 8 + = 
STACK WIN 4 3f46 13 5 0 4 4 0 0 1 $T0 $ebp = $eip $T0 4 + ^ = $ebp $T0 ^ = $esp $T0 8 + =  $23 $T0 4 - ^ = 
STACK WIN 4 3f5d 18 0 0 0 0 0 0 1 $T0 .raSearch = $eip $T0 ^ = $esp $T0 4 + = 
STACK WIN 4 3f75 1d 6 0 0 0 c 0 1 $T0 $ebp = $eip $T0 4 + ^ = $ebp $T0 ^ = $esp $T0 8 + = 
STACK WIN 4 3f92 1d 6 0 0 0 c 0 1 $T0 $ebp = $eip $T0 4 + ^ = $ebp $T0 ^ = $esp $T0 8 + = 
STACK WIN 4 3faf 1d 3 0 4 0 0 0 1 $T0 $ebp = $eip $T0 4 + ^ = $ebp $T0 ^ = $esp $T0 8 + = 
STACK WIN 4 3fcc 44 7 0 8 0 0 0 1 $T0 $ebp = $eip $T0 4 + ^ = $ebp $T0 ^ = $esp $T0 8 + = 
STACK WIN 4 3fd3 37 0 0 8 4 0 0 1 $T0 $ebp = $eip $T0 4 + ^ = $ebp $T0 ^ = $esp $T0 8 + =  $23 $T0 4 - ^ = 
STACK WIN 4 4010 35 0 0 0 0 0 0 1 $T0 .raSearch = $eip $T0 ^ = $esp $T0 4 + = 
STACK WIN 4 4023 21 0 0 0 4 0 0 1 $T0 .raSearch = $eip $T0 ^ = $esp $T0 4 + =  $23 $T0 4 - ^ = 
STACK WIN 4 4045 2b 0 0 0 0 0 0 1 $T0 .raSearch = $eip $T0 ^ = $esp $T0 4 + = 
STACK WIN 4 4070 e 0 0 0 0 0 0 1 $T0 .raSearch = $eip $T0 ^ = $esp $T0 4 + = 
STACK WIN 4 407e 1f 0 0 0 0 0 0 1 $T0 .raSearch = $eip $T0 ^ = $esp $T0 4 + = 
STACK WIN 4 409d d 0 0 0 0 0 0 1 $T0 .raSearch = $eip $T0 ^ = $esp $T0 4 + = 
STACK WIN 4 40aa 33 3 0 18 0 0 0 1 $T0 $ebp = $eip $T0 4 + ^ = $ebp $T0 ^ = $esp $T0 8 + = 
STACK WIN 4 40dd 23 0 0 0 0 0 0 1 $T0 .raSearch = $eip $T0 ^ = $esp $T0 4 + = 
STACK WIN 4 4100 d 0 0 0 0 0 0 1 $T0 .raSearch = $eip $T0 ^ = $esp $T0 4 + = 
STACK WIN 4 410d 39 3 0 4 0 0 0 1 $T0 $ebp = $eip $T0 4 + ^ = $ebp $T0 ^ = $esp $T0 8 + = 
STACK WIN 4 4146 97 7 0 4 0 c 0 1 $T0 $ebp = $eip $T0 4 + ^ = $ebp $T0 ^ = $esp $T0 8 + = 
STACK WIN 4 414d 84 0 0 4 4 c 0 1 $T0 $ebp = $eip $T0 4 + ^ = $ebp $T0 ^ = $esp $T0 8 + =  $23 $T0 16 - ^ = 
STACK WIN 4 4195 3b 0 0 4 8 c 0 1 $T0 $ebp = $eip $T0 4 + ^ = $ebp $T0 ^ = $esp $T0 8 + =  $23 $T0 16 - ^ =  $24 $T0 20 - ^ = 
STACK WIN 4 41dd 8a c 0 4 10 18 0 1 $T0 $ebp = $eip $T0 4 + ^ = $ebp $T0 ^ = $esp $T0 8 + =  $20 $T0 28 - ^ =  $23 $T0 32 - ^ =  $24 $T0 36 - ^ = 
STACK WIN 4 4242 13 0 0 4 10 18 0 1 $T0 $ebp = $T2 $esp = $T1 .raSearchStart = $eip $T1 ^ = $ebp $T0 = $esp $T1 4 + = 
STACK WIN 4 4267 1d 3 0 4 0 0 0 1 $T0 $ebp = $eip $T0 4 + ^ = $ebp $T0 ^ = $esp $T0 8 + = 
STACK WIN 4 4284 28 3 0 8 0 0 0 1 $T0 $ebp = $eip $T0 4 + ^ = $ebp $T0 ^ = $esp $T0 8 + = 
STACK WIN 4 42ac 3b 3 0 4 0 0 0 1 $T0 $ebp = $eip $T0 4 + ^ = $ebp $T0 ^ = $esp $T0 8 + = 
STACK WIN 4 42e7 15 3 0 4 0 0 0 1 $T0 $ebp = $eip $T0 4 + ^ = $ebp $T0 ^ = $esp $T0 8 + = 
STACK WIN 4 42fc 9c 15 0 0 0 14 0 1 $T0 $ebp = $eip $T0 4 + ^ = $ebp $T0 ^ = $esp $T0 8 + = 
STACK WIN 4 4310 84 1 0 0 4 14 0 1 $T0 $ebp = $eip $T0 4 + ^ = $ebp $T0 ^ = $esp $T0 8 + =  $23 $T0 24 - ^ = 
STACK WIN 4 4311 82 0 0 0 8 14 0 1 $T0 $ebp = $eip $T0 4 + ^ = $ebp $T0 ^ = $esp $T0 8 + =  $23 $T0 24 - ^ =  $24 $T0 28 - ^ = 
STACK WIN 4 4398 6 0 0 c 0 0 0 1 $T0 .raSearch = $eip $T0 ^ = $esp $T0 4 + = 
STACK WIN 4 439e c 0 0 0 0 0 0 1 $T0 .raSearch = $eip $T0 ^ = $esp $T0 4 + = 
STACK WIN 4 43aa c 0 0 0 0 0 0 1 $T0 .raSearch = $eip $T0 ^ = $esp $T0 4 + = 
STACK WIN 4 43b6 6 0 0 0 0 0 0 1 $T0 .raSearch = $eip $T0 ^ = $esp $T0 4 + = 
STACK WIN 4 43bc 6 0 0 0 0 0 0 1 $T0 .raSearch = $eip $T0 ^ = $esp $T0 4 + = 
STACK WIN 4 43c2 1d 0 0 0 0 0 0 1 $T0 .raSearch = $eip $T0 ^ = $esp $T0 4 + = 
STACK WIN 4 43df 6 0 0 0 0 0 0 1 $T0 .raSearch = $eip $T0 ^ = $esp $T0 4 + = 
STACK WIN 4 43e5 11b b 0 4 8 324 0 1 $T0 $ebp = $eip $T0 4 + ^ = $ebp $T0 ^ = $esp $T0 8 + =  $20 $T0 808 - ^ =  $23 $T0 812 - ^ = 
STACK WIN 4 4500 8 0 0 4 0 0 0 1 $T0 .raSearch = $eip $T0 ^ = $esp $T0 4 + = 
STACK WIN 4 4508 2b 2 0 0 0 0 0 1 $T0 .raSearch = $eip $T0 ^ = $esp $T0 4 + = 
STACK WIN 4 4509 29 1 0 0 4 0 0 1 $T0 .raSearch = $eip $T0 ^ = $esp $T0 4 + =  $20 $T0 4 - ^ = 
STACK WIN 4 450a 27 0 0 0 8 0 0 1 $T0 .raSearch = $eip $T0 ^ = $esp $T0 4 + =  $20 $T0 4 - ^ =  $23 $T0 8 - ^ = 
STACK WIN 4 4519 17 0 0 0 c 0 0 1 $T0 .raSearch = $eip $T0 ^ = $esp $T0 4 + =  $20 $T0 4 - ^ =  $23 $T0 8 - ^ =  $24 $T0 12 - ^ = 
STACK WIN 4 4533 2b 2 0 0 0 0 0 1 $T0 .raSearch = $eip $T0 ^ = $esp $T0 4 + = 
STACK WIN 4 4534 29 1 0 0 4 0 0 1 $T0 .raSearch = $eip $T0 ^ = $esp $T0 4 + =  $20 $T0 4 - ^ = 
STACK WIN 4 4535 27 0 0 0 8 0 0 1 $T0 .raSearch = $eip $T0 ^ = $esp $T0 4 + =  $20 $T0 4 - ^ =  $23 $T0 8 - ^ = 
STACK WIN 4 4544 17 0 0 0 c 0 0 1 $T0 .raSearch = $eip $T0 ^ = $esp $T0 4 + =  $20 $T0 4 - ^ =  $23 $T0 8 - ^ =  $24 $T0 12 - ^ = 
STACK WIN 4 455e 6 0 0 0 0 0 0 1 $T0 .raSearch = $eip $T0 ^ = $esp $T0 4 + = 
STACK WIN 4 45cb 19a e 0 0 0 28 0 1 $T0 $ebp = $eip $T0 4 + ^ = $ebp $T0 ^ = $esp $T0 8 + = 
STACK WIN 4 45d9 188 0 0 0 4 28 0 1 $T0 $ebp = $eip $T0 4 + ^ = $ebp $T0 ^ = $esp $T0 8 + =  $20 $T0 44 - ^ = 
STACK WIN 4 4601 e9 0 0 0 8 28 0 1 $T0 $ebp = $eip $T0 4 + ^ = $ebp $T0 ^ = $esp $T0 8 + =  $20 $T0 44 - ^ =  $23 $T0 48 - ^ = 
STACK WIN 4 4602 e7 0 0 0 c 28 0 1 $T0 $ebp = $eip $T0 4 + ^ = $ebp $T0 ^ = $esp $T0 8 + =  $20 $T0 44 - ^ =  $23 $T0 48 - ^ =  $24 $T0 52 - ^ = 
STACK WIN 4 4765 4 0 0 0 0 0 0 1 $T0 .raSearch = $eip $T0 ^ = $esp $T0 4 + = 
STACK WIN 4 4769 c 0 0 0 0 0 0 1 $T0 .raSearch = $eip $T0 ^ = $esp $T0 4 + = 
STACK WIN 4 4cf4 1f 0 0 0 0 0 0 1 $T0 .raSearch = $eip $T0 ^ = $esp $T0 4 + = 
STACK WIN 4 4d13 1b 1 0 0 4 0 0 1 $T0 .raSearch = $eip $T0 ^ = $esp $T0 4 + =  $23 $T0 4 - ^ = 
STACK WIN 4 4d2e 63 4 0 8 0 0 0 1 $T0 $ebp = $eip $T0 4 + ^ = $ebp $T0 ^ = $esp $T0 8 + = 
STACK WIN 4 4d32 5d 0 0 8 4 0 0 1 $T0 $ebp = $eip $T0 4 + ^ = $ebp $T0 ^ = $esp $T0 8 + =  $24 $T0 4 - ^ = 
STACK WIN 4 4d4e 33 0 0 8 8 0 0 1 $T0 $ebp = $eip $T0 4 + ^ = $ebp $T0 ^ = $esp $T0 8 + =  $24 $T0 4 - ^ =  $20 $T0 8 - ^ = 
STACK WIN 4 4d4f 31 0 0 8 c 0 0 1 $T0 $ebp = $eip $T0 4 + ^ = $ebp $T0 ^ = $esp $T0 8 + =  $24 $T0 4 - ^ =  $20 $T0 8 - ^ =  $23 $T0 12 - ^ = 
STACK WIN 4 4d91 1f 4 0 4 0 0 0 1 $T0 $ebp = $eip $T0 4 + ^ = $ebp $T0 ^ = $esp $T0 8 + = 
STACK WIN 4 4d95 19 0 0 4 4 0 0 1 $T0 $ebp = $eip $T0 4 + ^ = $ebp $T0 ^ = $esp $T0 8 + =  $23 $T0 4 - ^ = 
STACK WIN 4 4db0 6e c 0 8 0 20 0 1 $T0 $ebp = $eip $T0 4 + ^ = $ebp $T0 ^ = $esp $T0 8 + = 
STACK WIN 4 4db7 61 5 0 8 4 20 0 1 $T0 $ebp = $eip $T0 4 + ^ = $ebp $T0 ^ = $esp $T0 8 + =  $20 $T0 36 - ^ = 
STACK WIN 4 4dbb 5c 1 0 8 8 20 0 1 $T0 $ebp = $eip $T0 4 + ^ = $ebp $T0 ^ = $esp $T0 8 + =  $20 $T0 36 - ^ =  $23 $T0 40 - ^ = 
STACK WIN 4 4dbc 5a 0 0 8 c 20 0 1 $T0 $ebp = $eip $T0 4 + ^ = $ebp $T0 ^ = $esp $T0 8 + =  $20 $T0 36 - ^ =  $23 $T0 40 - ^ =  $24 $T0 44 - ^ = 
STACK WIN 4 4e20 32 8 0 8 0 0 0 1 $T0 $ebp = $eip $T0 4 + ^ = $ebp $T0 ^ = $esp $T0 8 + = 
STACK WIN 4 4e24 28 4 0 8 4 0 0 1 $T0 $ebp = $eip $T0 4 + ^ = $ebp $T0 ^ = $esp $T0 8 + =  $23 $T0 4 - ^ = 
STACK WIN 4 4e28 23 0 0 8 8 0 0 1 $T0 $ebp = $eip $T0 4 + ^ = $ebp $T0 ^ = $esp $T0 8 + =  $23 $T0 4 - ^ =  $24 $T0 8 - ^ = 
STACK WIN 4 4e60 166 c 0 10 0 1c 0 1 $T0 $ebp = $eip $T0 4 + ^ = $ebp $T0 ^ = $esp $T0 8 + = 
STACK WIN 4 4e67 129 5 0 10 4 1c 0 1 $T0 $ebp = $eip $T0 4 + ^ = $ebp $T0 ^ = $esp $T0 8 + =  $20 $T0 32 - ^ = 
STACK WIN 4 4e68 127 4 0 10 8 1c 0 1 $T0 $ebp = $eip $T0 4 + ^ = $ebp $T0 ^ = $esp $T0 8 + =  $20 $T0 32 - ^ =  $23 $T0 36 - ^ = 
STACK WIN 4 4e6c 122 0 0 10 c 1c 0 1 $T0 $ebp = $eip $T0 4 + ^ = $ebp $T0 ^ = $esp $T0 8 + =  $20 $T0 32 - ^ =  $23 $T0 36 - ^ =  $24 $T0 40 - ^ = 
STACK WIN 4 4fc6 29 0 0 0 0 0 0 1 $T0 .raSearch = $eip $T0 ^ = $esp $T0 4 + = 
STACK WIN 4 4fef b 0 0 0 0 0 0 1 $T0 .raSearch = $eip $T0 ^ = $esp $T0 4 + = 
STACK WIN 4 4ffa b 0 0 0 0 0 0 1 $T0 .raSearch = $eip $T0 ^ = $esp $T0 4 + = 
STACK WIN 4 5005 1f 3 0 4 0 0 0 1 $T0 $ebp = $eip $T0 4 + ^ = $ebp $T0 ^ = $esp $T0 8 + = 
STACK WIN 4 5024 8 0 0 0 0 0 0 1 $T0 .raSearch = $eip $T0 ^ = $esp $T0 4 + = 
STACK WIN 4 502c 23 3 0 4 0 0 0 1 $T0 $ebp = $eip $T0 4 + ^ = $ebp $T0 ^ = $esp $T0 8 + = 
STACK WIN 4 503d 10 0 0 4 4 0 0 1 $T0 $ebp = $eip $T0 4 + ^ = $ebp $T0 ^ = $esp $T0 8 + =  $23 $T0 4 - ^ = 
STACK WIN 4 51aa 1d 0 0 0 0 0 0 1 $T0 .raSearch = $eip $T0 ^ = $esp $T0 4 + = 
STACK WIN 4 532e 1 0 0 4 0 0 0 1 $T0 .raSearch = $eip $T0 ^ = $esp $T0 4 + = 
STACK WIN 4 532f 1c 3 0 4 0 0 0 1 $T0 $ebp = $eip $T0 4 + ^ = $ebp $T0 ^ = $esp $T0 8 + = 
STACK WIN 4 534b 36 3 0 4 0 0 0 1 $T0 $ebp = $eip $T0 4 + ^ = $ebp $T0 ^ = $esp $T0 8 + = 
STACK WIN 4 5359 26 0 0 4 4 0 0 1 $T0 $ebp = $eip $T0 4 + ^ = $ebp $T0 ^ = $esp $T0 8 + =  $23 $T0 4 - ^ = 
STACK WIN 4 5381 92 0 0 0 0 0 0 1 $T0 .raSearch = $eip $T0 ^ = $esp $T0 4 + = 
STACK WIN 4 538e 84 0 0 0 4 0 0 1 $T0 .raSearch = $eip $T0 ^ = $esp $T0 4 + =  $20 $T0 4 - ^ = 
STACK WIN 4 538f 80 0 0 0 8 0 0 1 $T0 .raSearch = $eip $T0 ^ = $esp $T0 4 + =  $20 $T0 4 - ^ =  $24 $T0 8 - ^ = 
STACK WIN 4 53c6 41 0 0 0 c 0 0 1 $T0 .raSearch = $eip $T0 ^ = $esp $T0 4 + =  $20 $T0 4 - ^ =  $24 $T0 8 - ^ =  $23 $T0 12 - ^ = 
STACK WIN 4 5413 33 0 0 0 0 0 0 1 $T0 .raSearch = $eip $T0 ^ = $esp $T0 4 + = 
STACK WIN 4 5446 1b 0 0 0 0 0 0 1 $T0 .raSearch = $eip $T0 ^ = $esp $T0 4 + = 
STACK WIN 4 5461 3c 2 0 0 0 0 0 1 $T0 .raSearch = $eip $T0 ^ = $esp $T0 4 + = 
STACK WIN 4 5462 3a 1 0 0 4 0 0 1 $T0 .raSearch = $eip $T0 ^ = $esp $T0 4 + =  $23 $T0 4 - ^ = 
STACK WIN 4 5463 38 0 0 0 8 0 0 1 $T0 .raSearch = $eip $T0 ^ = $esp $T0 4 + =  $23 $T0 4 - ^ =  $24 $T0 8 - ^ = 
STACK WIN 4 549d 2f 1 0 0 0 0 0 1 $T0 .raSearch = $eip $T0 ^ = $esp $T0 4 + = 
STACK WIN 4 549e 2d 0 0 0 4 0 0 1 $T0 .raSearch = $eip $T0 ^ = $esp $T0 4 + =  $23 $T0 4 - ^ = 
STACK WIN 4 54ac 1c 0 0 0 8 0 0 1 $T0 .raSearch = $eip $T0 ^ = $esp $T0 4 + =  $23 $T0 4 - ^ =  $24 $T0 8 - ^ = 
STACK WIN 4 54cc a0 b 0 10 0 0 0 1 $T0 $ebp = $eip $T0 4 + ^ = $ebp $T0 ^ = $esp $T0 8 + = 
STACK WIN 4 54d5 95 2 0 10 4 0 0 1 $T0 $ebp = $eip $T0 4 + ^ = $ebp $T0 ^ = $esp $T0 8 + =  $20 $T0 4 - ^ = 
STACK WIN 4 54d6 93 1 0 10 8 0 0 1 $T0 $ebp = $eip $T0 4 + ^ = $ebp $T0 ^ = $esp $T0 8 + =  $20 $T0 4 - ^ =  $23 $T0 8 - ^ = 
STACK WIN 4 54d7 91 0 0 10 c 0 0 1 $T0 $ebp = $eip $T0 4 + ^ = $ebp $T0 ^ = $esp $T0 8 + =  $20 $T0 4 - ^ =  $23 $T0 8 - ^ =  $24 $T0 12 - ^ = 
STACK WIN 4 556c 81 a 0 4 0 0 0 1 $T0 $ebp = $eip $T0 4 + ^ = $ebp $T0 ^ = $esp $T0 8 + = 
STACK WIN 4 5570 7b 6 0 4 4 0 0 1 $T0 $ebp = $eip $T0 4 + ^ = $ebp $T0 ^ = $esp $T0 8 + =  $20 $T0 4 - ^ = 
STACK WIN 4 5576 74 0 0 4 8 0 0 1 $T0 $ebp = $eip $T0 4 + ^ = $ebp $T0 ^ = $esp $T0 8 + =  $20 $T0 4 - ^ =  $24 $T0 8 - ^ = 
STACK WIN 4 559c 4d 0 0 4 c 0 0 1 $T0 $ebp = $eip $T0 4 + ^ = $ebp $T0 ^ = $esp $T0 8 + =  $20 $T0 4 - ^ =  $24 $T0 8 - ^ =  $23 $T0 12 - ^ = 
STACK WIN 4 55ed 3a 4 0 4 0 0 0 1 $T0 $ebp = $eip $T0 4 + ^ = $ebp $T0 ^ = $esp $T0 8 + = 
STACK WIN 4 55f1 2f 0 0 4 4 0 0 1 $T0 $ebp = $eip $T0 4 + ^ = $ebp $T0 ^ = $esp $T0 8 + =  $23 $T0 4 - ^ = 
STACK WIN 4 5627 3a 4 0 4 0 0 0 1 $T0 $ebp = $eip $T0 4 + ^ = $ebp $T0 ^ = $esp $T0 8 + = 
STACK WIN 4 562b 34 0 0 4 4 0 0 1 $T0 $ebp = $eip $T0 4 + ^ = $ebp $T0 ^ = $esp $T0 8 + =  $23 $T0 4 - ^ = 
STACK WIN 4 5661 3a 4 0 4 0 0 0 1 $T0 $ebp = $eip $T0 4 + ^ = $ebp $T0 ^ = $esp $T0 8 + = 
STACK WIN 4 5665 34 0 0 4 4 0 0 1 $T0 $ebp = $eip $T0 4 + ^ = $ebp $T0 ^ = $esp $T0 8 + =  $23 $T0 4 - ^ = 
STACK WIN 4 569b 3d 4 0 8 0 0 0 1 $T0 $ebp = $eip $T0 4 + ^ = $ebp $T0 ^ = $esp $T0 8 + = 
STACK WIN 4 569f 37 0 0 8 4 0 0 1 $T0 $ebp = $eip $T0 4 + ^ = $ebp $T0 ^ = $esp $T0 8 + =  $23 $T0 4 - ^ = 
STACK WIN 4 56d8 46 4 0 c 0 0 0 1 $T0 $ebp = $eip $T0 4 + ^ = $ebp $T0 ^ = $esp $T0 8 + = 
STACK WIN 4 56dc 40 0 0 c 4 0 0 1 $T0 $ebp = $eip $T0 4 + ^ = $ebp $T0 ^ = $esp $T0 8 + =  $23 $T0 4 - ^ = 
STACK WIN 4 571e 3a b 0 0 0 0 0 1 $T0 .raSearch = $eip $T0 ^ = $esp $T0 4 + = 
STACK WIN 4 5729 2e 0 0 0 4 0 0 1 $T0 .raSearch = $eip $T0 ^ = $esp $T0 4 + =  $23 $T0 4 - ^ = 
STACK WIN 4 5758 32 3 0 4 0 0 0 1 $T0 $ebp = $eip $T0 4 + ^ = $ebp $T0 ^ = $esp $T0 8 + = 
STACK WIN 4 5762 26 0 0 4 4 0 0 1 $T0 $ebp = $eip $T0 4 + ^ = $ebp $T0 ^ = $esp $T0 8 + =  $23 $T0 4 - ^ = 
STACK WIN 4 58c7 13b 1a 0 c 4 328 0 1 $T0 $ebp = $eip $T0 4 + ^ = $ebp $T0 ^ = $esp $T0 8 + =  $24 $T0 812 - ^ = 
STACK WIN 4 5a02 14 5 0 4 0 0 0 1 $T0 $ebp = $eip $T0 4 + ^ = $ebp $T0 ^ = $esp $T0 8 + = 
STACK WIN 4 5a16 7b 11 0 14 0 4 0 1 $T0 $ebp = $eip $T0 4 + ^ = $ebp $T0 ^ = $esp $T0 8 + = 
STACK WIN 4 5a27 35 0 0 14 4 4 0 1 $T0 $ebp = $eip $T0 4 + ^ = $ebp $T0 ^ = $esp $T0 8 + =  $23 $T0 8 - ^ = 
STACK WIN 4 5a91 10 0 0 0 0 0 0 1 $T0 .raSearch = $eip $T0 ^ = $esp $T0 4 + = 
STACK WIN 4 5aa1 1d 3 0 0 4 0 0 1 $T0 .raSearch = $eip $T0 ^ = $esp $T0 4 + =  $23 $T0 4 - ^ = 
STACK WIN 4 5abe 33 0 0 14 0 0 0 1 $T0 .raSearch = $eip $T0 ^ = $esp $T0 4 + = 
STACK WIN 4 5acf 21 0 0 14 4 0 0 1 $T0 .raSearch = $eip $T0 ^ = $esp $T0 4 + =  $23 $T0 4 - ^ = 
STACK WIN 4 5af1 83 8 0 4 0 0 0 1 $T0 $ebp = $eip $T0 4 + ^ = $ebp $T0 ^ = $esp $T0 8 + = 
STACK WIN 4 5af7 79 2 0 4 4 0 0 1 $T0 $ebp = $eip $T0 4 + ^ = $ebp $T0 ^ = $esp $T0 8 + =  $24 $T0 4 - ^ = 
STACK WIN 4 5b2a 32 0 0 4 8 0 0 1 $T0 $ebp = $eip $T0 4 + ^ = $ebp $T0 ^ = $esp $T0 8 + =  $24 $T0 4 - ^ =  $23 $T0 8 - ^ = 
STACK WIN 4 5b74 14 5 0 4 0 0 0 1 $T0 $ebp = $eip $T0 4 + ^ = $ebp $T0 ^ = $esp $T0 8 + = 
STACK WIN 4 5b88 44 11 0 4 0 4 0 1 $T0 $ebp = $eip $T0 4 + ^ = $ebp $T0 ^ = $esp $T0 8 + = 
STACK WIN 4 5b99 2a 0 0 4 4 4 0 1 $T0 $ebp = $eip $T0 4 + ^ = $ebp $T0 ^ = $esp $T0 8 + =  $23 $T0 8 - ^ = 
STACK WIN 4 5bcc 52 c 0 0 10 1c 0 1 $T0 $ebp = $eip $T0 4 + ^ = $ebp $T0 ^ = $esp $T0 8 + =  $20 $T0 32 - ^ =  $23 $T0 36 - ^ =  $24 $T0 40 - ^ = 
STACK WIN 4 5c12 b 0 0 0 10 1c 0 1 $T0 $ebp = $T2 $esp = $T1 .raSearchStart = $eip $T1 ^ = $ebp $T0 = $esp $T1 4 + = 
STACK WIN 4 5c1e b 5 0 4 0 0 0 1 $T0 $ebp = $eip $T0 4 + ^ = $ebp $T0 ^ = $esp $T0 8 + = 
STACK WIN 4 5c29 5 0 0 4 0 0 0 1 $T0 $ebp = $eip $T0 4 + ^ = $ebp $T0 ^ = $esp $T0 8 + = 
STACK WIN 4 5c2e 5c 1f 0 8 0 8 0 1 $T0 $ebp = $eip $T0 4 + ^ = $ebp $T0 ^ = $esp $T0 8 + = 
STACK WIN 4 5c43 3e a 0 8 4 8 0 1 $T0 $ebp = $eip $T0 4 + ^ = $ebp $T0 ^ = $esp $T0 8 + =  $20 $T0 12 - ^ = 
STACK WIN 4 5c44 3a 9 0 8 8 8 0 1 $T0 $ebp = $eip $T0 4 + ^ = $ebp $T0 ^ = $esp $T0 8 + =  $20 $T0 12 - ^ =  $23 $T0 16 - ^ = 
STACK WIN 4 5c4d 30 0 0 8 c 8 0 1 $T0 $ebp = $eip $T0 4 + ^ = $ebp $T0 ^ = $esp $T0 8 + =  $20 $T0 12 - ^ =  $23 $T0 16 - ^ =  $24 $T0 20 - ^ = 
STACK WIN 4 5c8a 45 15 0 8 0 4 0 1 $T0 $ebp = $eip $T0 4 + ^ = $ebp $T0 ^ = $esp $T0 8 + = 
STACK WIN 4 5c9b 2b 4 0 8 4 4 0 1 $T0 $ebp = $eip $T0 4 + ^ = $ebp $T0 ^ = $esp $T0 8 + =  $23 $T0 8 - ^ = 
STACK WIN 4 5c9f 24 0 0 8 8 4 0 1 $T0 $ebp = $eip $T0 4 + ^ = $ebp $T0 ^ = $esp $T0 8 + =  $23 $T0 8 - ^ =  $24 $T0 12 - ^ = 
STACK WIN 4 5ccf 20 5 0 8 0 0 0 1 $T0 $ebp = $eip $T0 4 + ^ = $ebp $T0 ^ = $esp $T0 8 + = 
STACK WIN 4 5cef 173 12 0 8 0 8 0 1 $T0 $ebp = $eip $T0 4 + ^ = $ebp $T0 ^ = $esp $T0 8 + = 
STACK WIN 4 5d01 158 0 0 8 4 8 0 1 $T0 $ebp = $eip $T0 4 + ^ = $ebp $T0 ^ = $esp $T0 8 + =  $23 $T0 12 - ^ = 
STACK WIN 4 5d15 13e 0 0 8 8 8 0 1 $T0 $ebp = $eip $T0 4 + ^ = $ebp $T0 ^ = $esp $T0 8 + =  $23 $T0 12 - ^ =  $20 $T0 16 - ^ = 
STACK WIN 4 5d18 13a 0 0 8 c 8 0 1 $T0 $ebp = $eip $T0 4 + ^ = $ebp $T0 ^ = $esp $T0 8 + =  $23 $T0 12 - ^ =  $20 $T0 16 - ^ =  $24 $T0 20 - ^ = 
STACK WIN 4 5e62 13 5 0 4 0 0 0 1 $T0 $ebp = $eip $T0 4 + ^ = $ebp $T0 ^ = $esp $T0 8 + = 
STACK WIN 4 5e75 119 c 0 c 10 1c 0 1 $T0 $ebp = $eip $T0 4 + ^ = $ebp $T0 ^ = $esp $T0 8 + =  $20 $T0 32 - ^ =  $23 $T0 36 - ^ =  $24 $T0 40 - ^ = 
STACK WIN 4 5f64 10 0 0 c 10 1c 0 1 $T0 $ebp = $T2 $esp = $T1 .raSearchStart = $eip $T1 ^ = $ebp $T0 = $esp $T1 4 + = 
STACK WIN 4 5f7c b 0 0 c 10 1c 0 1 $T0 $ebp = $T2 $esp = $T1 .raSearchStart = $eip $T1 ^ = $ebp $T0 = $esp $T1 4 + = 
STACK WIN 4 5f8e 41 5 0 4 0 0 0 1 $T0 $ebp = $eip $T0 4 + ^ = $ebp $T0 ^ = $esp $T0 8 + = 
STACK WIN 4 5fcf 44 0 0 0 0 0 0 1 $T0 .raSearch = $eip $T0 ^ = $esp $T0 4 + = 
STACK WIN 4 6013 6a 11 0 4 0 8 0 1 $T0 $ebp = $eip $T0 4 + ^ = $ebp $T0 ^ = $esp $T0 8 + = 
STACK WIN 4 603e 22 0 0 4 4 8 0 1 $T0 $ebp = $eip $T0 4 + ^ = $ebp $T0 ^ = $esp $T0 8 + =  $23 $T0 12 - ^ = 
STACK WIN 4 607d f 5 0 4 0 0 0 1 $T0 $ebp = $eip $T0 4 + ^ = $ebp $T0 ^ = $esp $T0 8 + = 
STACK WIN 4 608c f 0 0 0 0 0 0 1 $T0 .raSearch = $eip $T0 ^ = $esp $T0 4 + = 
STACK WIN 4 609b 16 5 0 4 0 0 0 1 $T0 $ebp = $eip $T0 4 + ^ = $ebp $T0 ^ = $esp $T0 8 + = 
STACK WIN 4 60b1 6 0 0 0 0 0 0 1 $T0 .raSearch = $eip $T0 ^ = $esp $T0 4 + = 
STACK WIN 4 60b7 124 d 0 4 0 c 0 1 $T0 $ebp = $eip $T0 4 + ^ = $ebp $T0 ^ = $esp $T0 8 + = 
STACK WIN 4 60c4 113 0 0 4 4 c 0 1 $T0 $ebp = $eip $T0 4 + ^ = $ebp $T0 ^ = $esp $T0 8 + =  $23 $T0 16 - ^ = 
STACK WIN 4 60e3 f3 0 0 4 8 c 0 1 $T0 $ebp = $eip $T0 4 + ^ = $ebp $T0 ^ = $esp $T0 8 + =  $23 $T0 16 - ^ =  $20 $T0 20 - ^ = 
STACK WIN 4 60e4 ef 0 0 4 c c 0 1 $T0 $ebp = $eip $T0 4 + ^ = $ebp $T0 ^ = $esp $T0 8 + =  $23 $T0 16 - ^ =  $20 $T0 20 - ^ =  $24 $T0 24 - ^ = 
STACK WIN 4 61db 175 12 0 14 0 4 0 1 $T0 $ebp = $eip $T0 4 + ^ = $ebp $T0 ^ = $esp $T0 8 + = 
STACK WIN 4 61e5 15b 8 0 14 4 4 0 1 $T0 $ebp = $eip $T0 4 + ^ = $ebp $T0 ^ = $esp $T0 8 + =  $20 $T0 8 - ^ = 
STACK WIN 4 61e9 156 4 0 14 8 4 0 1 $T0 $ebp = $eip $T0 4 + ^ = $ebp $T0 ^ = $esp $T0 8 + =  $20 $T0 8 - ^ =  $23 $T0 12 - ^ = 
STACK WIN 4 61ed 151 0 0 14 c 4 0 1 $T0 $ebp = $eip $T0 4 + ^ = $ebp $T0 ^ = $esp $T0 8 + =  $20 $T0 8 - ^ =  $23 $T0 12 - ^ =  $24 $T0 16 - ^ = 
STACK WIN 4 6350 55 6 0 c 0 0 0 1 $T0 $ebp = $eip $T0 4 + ^ = $ebp $T0 ^ = $esp $T0 8 + = 
STACK WIN 4 6356 4d 0 0 c 4 0 0 1 $T0 $ebp = $eip $T0 4 + ^ = $ebp $T0 ^ = $esp $T0 8 + =  $23 $T0 4 - ^ = 
STACK WIN 4 6366 3c 0 0 c 8 0 0 1 $T0 $ebp = $eip $T0 4 + ^ = $ebp $T0 ^ = $esp $T0 8 + =  $23 $T0 4 - ^ =  $24 $T0 8 - ^ = 
STACK WIN 4 63a5 b 5 0 4 0 0 0 1 $T0 $ebp = $eip $T0 4 + ^ = $ebp $T0 ^ = $esp $T0 8 + = 
STACK WIN 4 63b0 59 0 0 0 0 0 0 1 $T0 .raSearch = $eip $T0 ^ = $esp $T0 4 + = 
STACK WIN 4 63bd 4b 0 0 0 4 0 0 1 $T0 .raSearch = $eip $T0 ^ = $esp $T0 4 + =  $23 $T0 4 - ^ = 
STACK WIN 4 63be 49 0 0 0 8 0 0 1 $T0 .raSearch = $eip $T0 ^ = $esp $T0 4 + =  $23 $T0 4 - ^ =  $24 $T0 8 - ^ = 
STACK WIN 4 6409 d1 a 0 4 0 8 0 1 $T0 $ebp = $eip $T0 4 + ^ = $ebp $T0 ^ = $esp $T0 8 + = 
STACK WIN 4 6411 b8 2 0 4 4 8 0 1 $T0 $ebp = $eip $T0 4 + ^ = $ebp $T0 ^ = $esp $T0 8 + =  $20 $T0 12 - ^ = 
STACK WIN 4 6412 b4 1 0 4 8 8 0 1 $T0 $ebp = $eip $T0 4 + ^ = $ebp $T0 ^ = $esp $T0 8 + =  $20 $T0 12 - ^ =  $23 $T0 16 - ^ = 
STACK WIN 4 6413 b2 0 0 4 c 8 0 1 $T0 $ebp = $eip $T0 4 + ^ = $ebp $T0 ^ = $esp $T0 8 + =  $20 $T0 12 - ^ =  $23 $T0 16 - ^ =  $24 $T0 20 - ^ = 
STACK WIN 4 64da 2f 6 0 4 0 0 0 1 $T0 $ebp = $eip $T0 4 + ^ = $ebp $T0 ^ = $esp $T0 8 + = 
STACK WIN 4 64e0 27 0 0 4 4 0 0 1 $T0 $ebp = $eip $T0 4 + ^ = $ebp $T0 ^ = $esp $T0 8 + =  $23 $T0 4 - ^ = 
STACK WIN 4 64ea 1c 0 0 4 8 0 0 1 $T0 $ebp = $eip $T0 4 + ^ = $ebp $T0 ^ = $esp $T0 8 + =  $23 $T0 4 - ^ =  $24 $T0 8 - ^ = 
STACK WIN 4 6509 40 13 0 4 0 4 0 1 $T0 $ebp = $eip $T0 4 + ^ = $ebp $T0 ^ = $esp $T0 8 + = 
STACK WIN 4 651a 24 2 0 4 4 4 0 1 $T0 $ebp = $eip $T0 4 + ^ = $ebp $T0 ^ = $esp $T0 8 + =  $23 $T0 8 - ^ = 
STACK WIN 4 651d 1e 0 0 4 8 4 0 1 $T0 $ebp = $eip $T0 4 + ^ = $ebp $T0 ^ = $esp $T0 8 + =  $23 $T0 8 - ^ =  $24 $T0 12 - ^ = 
STACK WIN 4 6549 1b 5 0 4 0 0 0 1 $T0 $ebp = $eip $T0 4 + ^ = $ebp $T0 ^ = $esp $T0 8 + = 
STACK WIN 4 6564 1b 5 0 4 0 0 0 1 $T0 $ebp = $eip $T0 4 + ^ = $ebp $T0 ^ = $esp $T0 8 + = 
STACK WIN 4 657f 37 0 0 0 0 0 0 1 $T0 .raSearch = $eip $T0 ^ = $esp $T0 4 + = 
STACK WIN 4 65b6 5 0 0 0 0 0 0 1 $T0 .raSearch = $eip $T0 ^ = $esp $T0 4 + = 
STACK WIN 4 65bb 51 c 0 c 10 1c 0 1 $T0 $ebp = $eip $T0 4 + ^ = $ebp $T0 ^ = $esp $T0 8 + =  $20 $T0 32 - ^ =  $23 $T0 36 - ^ =  $24 $T0 40 - ^ = 
STACK WIN 4 65fd e 0 0 c 10 1c 0 1 $T0 $ebp = $T2 $esp = $T1 .raSearchStart = $eip $T1 ^ = $ebp $T0 = $esp $T1 4 + = 
STACK WIN 4 660c 51 c 0 c 10 1c 0 1 $T0 $ebp = $eip $T0 4 + ^ = $ebp $T0 ^ = $esp $T0 8 + =  $20 $T0 32 - ^ =  $23 $T0 36 - ^ =  $24 $T0 40 - ^ = 
STACK WIN 4 664e e 0 0 c 10 1c 0 1 $T0 $ebp = $T2 $esp = $T1 .raSearchStart = $eip $T1 ^ = $ebp $T0 = $esp $T1 4 + = 
STACK WIN 4 665d 28 8 0 8 0 c 0 1 $T0 $ebp = $eip $T0 4 + ^ = $ebp $T0 ^ = $esp $T0 8 + = 
STACK WIN 4 6685 28 8 0 8 0 c 0 1 $T0 $ebp = $eip $T0 4 + ^ = $ebp $T0 ^ = $esp $T0 8 + = 
STACK WIN 4 66ad 1f 5 0 4 0 0 0 1 $T0 $ebp = $eip $T0 4 + ^ = $ebp $T0 ^ = $esp $T0 8 + = 
STACK WIN 4 66cc 120 17 0 0 0 18 0 1 $T0 $ebp = $eip $T0 4 + ^ = $ebp $T0 ^ = $esp $T0 8 + = 
STACK WIN 4 66e4 ff 0 0 0 4 18 0 1 $T0 $ebp = $eip $T0 4 + ^ = $ebp $T0 ^ = $esp $T0 8 + =  $20 $T0 28 - ^ = 
STACK WIN 4 66fb e2 0 0 0 8 18 0 1 $T0 $ebp = $eip $T0 4 + ^ = $ebp $T0 ^ = $esp $T0 8 + =  $20 $T0 28 - ^ =  $23 $T0 32 - ^ = 
STACK WIN 4 66fc de 0 0 0 c 18 0 1 $T0 $ebp = $eip $T0 4 + ^ = $ebp $T0 ^ = $esp $T0 8 + =  $20 $T0 28 - ^ =  $23 $T0 32 - ^ =  $24 $T0 36 - ^ = 
STACK WIN 4 67ec 141 d 0 0 0 c 0 1 $T0 $ebp = $eip $T0 4 + ^ = $ebp $T0 ^ = $esp $T0 8 + = 
STACK WIN 4 67fa 12f 0 0 0 4 c 0 1 $T0 $ebp = $eip $T0 4 + ^ = $ebp $T0 ^ = $esp $T0 8 + =  $23 $T0 16 - ^ = 
STACK WIN 4 6812 116 0 0 0 8 c 0 1 $T0 $ebp = $eip $T0 4 + ^ = $ebp $T0 ^ = $esp $T0 8 + =  $23 $T0 16 - ^ =  $20 $T0 20 - ^ = 
STACK WIN 4 6818 10f 0 0 0 c c 0 1 $T0 $ebp = $eip $T0 4 + ^ = $ebp $T0 ^ = $esp $T0 8 + =  $23 $T0 16 - ^ =  $20 $T0 20 - ^ =  $24 $T0 24 - ^ = 
STACK WIN 4 692d 16 5 0 4 0 0 0 1 $T0 $ebp = $eip $T0 4 + ^ = $ebp $T0 ^ = $esp $T0 8 + = 
STACK WIN 4 6943 1d 6 0 4 0 4 0 1 $T0 $ebp = $eip $T0 4 + ^ = $ebp $T0 ^ = $esp $T0 8 + = 
STACK WIN 4 6960 3d 6 0 4 0 0 0 1 $T0 $ebp = $eip $T0 4 + ^ = $ebp $T0 ^ = $esp $T0 8 + = 
STACK WIN 4 6966 35 0 0 4 4 0 0 1 $T0 $ebp = $eip $T0 4 + ^ = $ebp $T0 ^ = $esp $T0 8 + =  $23 $T0 4 - ^ = 
STACK WIN 4 699d 24 7 0 8 0 8 0 1 $T0 $ebp = $eip $T0 4 + ^ = $ebp $T0 ^ = $esp $T0 8 + = 
STACK WIN 4 69c1 12 0 0 0 0 0 0 1 $T0 .raSearch = $eip $T0 ^ = $esp $T0 4 + = 
STACK WIN 4 69d3 1a 0 0 0 0 0 0 1 $T0 .raSearch = $eip $T0 ^ = $esp $T0 4 + = 
STACK WIN 4 69ed 8 0 0 4 0 0 0 1 $T0 .raSearch = $eip $T0 ^ = $esp $T0 4 + = 
STACK WIN 4 69f5 3 0 0 4 0 0 0 1 $T0 .raSearch = $eip $T0 ^ = $esp $T0 4 + = 
STACK WIN 4 69f8 3d 6 0 0 0 0 0 1 $T0 .raSearch = $eip $T0 ^ = $esp $T0 4 + = 
STACK WIN 4 69fe 36 0 0 0 4 0 0 1 $T0 .raSearch = $eip $T0 ^ = $esp $T0 4 + =  $23 $T0 4 - ^ = 
STACK WIN 4 6a35 9 0 0 4 0 0 0 1 $T0 .raSearch = $eip $T0 ^ = $esp $T0 4 + = 
STACK WIN 4 6a3e 77 9 0 4 0 0 0 1 $T0 .raSearch = $eip $T0 ^ = $esp $T0 4 + = 
STACK WIN 4 6a47 6d 0 0 4 4 0 0 1 $T0 .raSearch = $eip $T0 ^ = $esp $T0 4 + =  $23 $T0 4 - ^ = 
STACK WIN 4 6ab5 12 0 0 0 0 0 0 1 $T0 .raSearch = $eip $T0 ^ = $esp $T0 4 + = 
STACK WIN 4 6ac7 b 0 0 0 0 0 0 1 $T0 .raSearch = $eip $T0 ^ = $esp $T0 4 + = 
STACK WIN 4 6ad2 8 0 0 0 0 0 0 1 $T0 .raSearch = $eip $T0 ^ = $esp $T0 4 + = 
STACK WIN 4 6ada 12 0 0 4 0 0 0 1 $T0 .raSearch = $eip $T0 ^ = $esp $T0 4 + = 
STACK WIN 4 6aec 12 5 0 4 0 0 0 1 $T0 $ebp = $eip $T0 4 + ^ = $ebp $T0 ^ = $esp $T0 8 + = 
STACK WIN 4 6afe 3c c 0 0 10 1c 0 1 $T0 $ebp = $eip $T0 4 + ^ = $ebp $T0 ^ = $esp $T0 8 + =  $20 $T0 32 - ^ =  $23 $T0 36 - ^ =  $24 $T0 40 - ^ = 
STACK WIN 4 6b26 4 0 0 0 10 1c 0 1 $T0 $ebp = $T2 $esp = $T1 .raSearchStart = $eip $T1 ^ = $ebp $T0 = $esp $T1 4 + = 
STACK WIN 4 6b3a 43 0 0 0 0 0 0 1 $T0 .raSearch = $eip $T0 ^ = $esp $T0 4 + = 
STACK WIN 4 6b7d 5a 9 0 c 0 0 0 1 $T0 $ebp = $eip $T0 4 + ^ = $ebp $T0 ^ = $esp $T0 8 + = 
STACK WIN 4 6b86 27 0 0 c 4 0 0 1 $T0 $ebp = $eip $T0 4 + ^ = $ebp $T0 ^ = $esp $T0 8 + =  $23 $T0 4 - ^ = 
STACK WIN 4 6bb0 14 0 0 c 8 0 0 1 $T0 $ebp = $eip $T0 4 + ^ = $ebp $T0 ^ = $esp $T0 8 + =  $23 $T0 4 - ^ =  $24 $T0 8 - ^ = 
STACK WIN 4 6bd7 3a 5 0 4 0 0 0 1 $T0 $ebp = $eip $T0 4 + ^ = $ebp $T0 ^ = $esp $T0 8 + = 
STACK WIN 4 6bf8 17 0 0 4 4 0 0 1 $T0 $ebp = $eip $T0 4 + ^ = $ebp $T0 ^ = $esp $T0 8 + =  $23 $T0 4 - ^ = 
STACK WIN 4 6c11 4e 6 0 4 0 0 0 1 $T0 $ebp = $eip $T0 4 + ^ = $ebp $T0 ^ = $esp $T0 8 + = 
STACK WIN 4 6c17 46 0 0 4 4 0 0 1 $T0 $ebp = $eip $T0 4 + ^ = $ebp $T0 ^ = $esp $T0 8 + =  $23 $T0 4 - ^ = 
STACK WIN 4 6c5f 5d 6 0 8 0 0 0 1 $T0 $ebp = $eip $T0 4 + ^ = $ebp $T0 ^ = $esp $T0 8 + = 
STACK WIN 4 6c65 55 0 0 8 4 0 0 1 $T0 $ebp = $eip $T0 4 + ^ = $ebp $T0 ^ = $esp $T0 8 + =  $23 $T0 4 - ^ = 
STACK WIN 4 6cbc 50 c 0 c 10 18 0 1 $T0 $ebp = $eip $T0 4 + ^ = $ebp $T0 ^ = $esp $T0 8 + =  $20 $T0 28 - ^ =  $23 $T0 32 - ^ =  $24 $T0 36 - ^ = 
STACK WIN 4 6d00 b 0 0 c 10 18 0 1 $T0 $ebp = $T2 $esp = $T1 .raSearchStart = $eip $T1 ^ = $ebp $T0 = $esp $T1 4 + = 
STACK WIN 4 6d0c 61 c 0 c 10 18 0 1 $T0 $ebp = $eip $T0 4 + ^ = $ebp $T0 ^ = $esp $T0 8 + =  $20 $T0 28 - ^ =  $23 $T0 32 - ^ =  $24 $T0 36 - ^ = 
STACK WIN 4 6d61 b 0 0 c 10 18 0 1 $T0 $ebp = $T2 $esp = $T1 .raSearchStart = $eip $T1 ^ = $ebp $T0 = $esp $T1 4 + = 
STACK WIN 4 6d6d 4b c 0 c 10 18 0 1 $T0 $ebp = $eip $T0 4 + ^ = $ebp $T0 ^ = $esp $T0 8 + =  $20 $T0 28 - ^ =  $23 $T0 32 - ^ =  $24 $T0 36 - ^ = 
STACK WIN 4 6dac b 0 0 c 10 18 0 1 $T0 $ebp = $T2 $esp = $T1 .raSearchStart = $eip $T1 ^ = $ebp $T0 = $esp $T1 4 + = 
STACK WIN 4 6db8 48 c 0 c 10 18 0 1 $T0 $ebp = $eip $T0 4 + ^ = $ebp $T0 ^ = $esp $T0 8 + =  $20 $T0 28 - ^ =  $23 $T0 32 - ^ =  $24 $T0 36 - ^ = 
STACK WIN 4 6df4 b 0 0 c 10 18 0 1 $T0 $ebp = $T2 $esp = $T1 .raSearchStart = $eip $T1 ^ = $ebp $T0 = $esp $T1 4 + = 
STACK WIN 4 6e00 28 8 0 8 0 c 0 1 $T0 $ebp = $eip $T0 4 + ^ = $ebp $T0 ^ = $esp $T0 8 + = 
STACK WIN 4 6e28 28 8 0 8 0 c 0 1 $T0 $ebp = $eip $T0 4 + ^ = $ebp $T0 ^ = $esp $T0 8 + = 
STACK WIN 4 6e50 28 8 0 8 0 c 0 1 $T0 $ebp = $eip $T0 4 + ^ = $ebp $T0 ^ = $esp $T0 8 + = 
STACK WIN 4 6e78 28 8 0 8 0 c 0 1 $T0 $ebp = $eip $T0 4 + ^ = $ebp $T0 ^ = $esp $T0 8 + = 
STACK WIN 4 6ea0 79 7 0 8 0 8 0 1 $T0 $ebp = $eip $T0 4 + ^ = $ebp $T0 ^ = $esp $T0 8 + = 
STACK WIN 4 6f19 21 5 0 4 0 0 0 1 $T0 $ebp = $eip $T0 4 + ^ = $ebp $T0 ^ = $esp $T0 8 + = 
STACK WIN 4 6f3a a9 6 0 4 0 4 0 1 $T0 $ebp = $eip $T0 4 + ^ = $ebp $T0 ^ = $esp $T0 8 + = 
STACK WIN 4 6fe3 4b 6 0 8 0 0 0 1 $T0 $ebp = $eip $T0 4 + ^ = $ebp $T0 ^ = $esp $T0 8 + = 
STACK WIN 4 6fe9 38 0 0 8 4 0 0 1 $T0 $ebp = $eip $T0 4 + ^ = $ebp $T0 ^ = $esp $T0 8 + =  $23 $T0 4 - ^ = 
STACK WIN 4 702e 2c 0 0 0 0 0 0 1 $T0 .raSearch = $eip $T0 ^ = $esp $T0 4 + = 
STACK WIN 4 7039 20 0 0 0 4 0 0 1 $T0 .raSearch = $eip $T0 ^ = $esp $T0 4 + =  $23 $T0 4 - ^ = 
STACK WIN 4 705a 84 4 0 0 0 0 0 1 $T0 .raSearch = $eip $T0 ^ = $esp $T0 4 + = 
STACK WIN 4 705d 73 1 0 0 4 0 0 1 $T0 .raSearch = $eip $T0 ^ = $esp $T0 4 + =  $23 $T0 4 - ^ = 
STACK WIN 4 705e 71 0 0 0 8 0 0 1 $T0 .raSearch = $eip $T0 ^ = $esp $T0 4 + =  $23 $T0 4 - ^ =  $24 $T0 8 - ^ = 
STACK WIN 4 70d1 d 0 0 0 8 0 0 1 $T0 .raSearch = $eip $T0 ^ = $esp $T0 4 + =  $23 $T0 4 - ^ =  $24 $T0 8 - ^ = 
STACK WIN 4 70de 85 5 0 0 0 0 0 1 $T0 .raSearch = $eip $T0 ^ = $esp $T0 4 + = 
STACK WIN 4 70e1 81 2 0 0 4 0 0 1 $T0 .raSearch = $eip $T0 ^ = $esp $T0 4 + =  $20 $T0 4 - ^ = 
STACK WIN 4 70e2 7d 1 0 0 8 0 0 1 $T0 .raSearch = $eip $T0 ^ = $esp $T0 4 + =  $20 $T0 4 - ^ =  $23 $T0 8 - ^ = 
STACK WIN 4 70e3 7b 0 0 0 c 0 0 1 $T0 .raSearch = $eip $T0 ^ = $esp $T0 4 + =  $20 $T0 4 - ^ =  $23 $T0 8 - ^ =  $24 $T0 12 - ^ = 
STACK WIN 4 7163 2c 0 0 0 0 0 0 1 $T0 .raSearch = $eip $T0 ^ = $esp $T0 4 + = 
STACK WIN 4 718f 1a 0 0 4 0 0 0 1 $T0 .raSearch = $eip $T0 ^ = $esp $T0 4 + = 
STACK WIN 4 71a9 43 5 0 4 0 0 0 1 $T0 $ebp = $eip $T0 4 + ^ = $ebp $T0 ^ = $esp $T0 8 + = 
STACK WIN 4 71ec 23 6 0 4 0 0 0 1 $T0 $ebp = $eip $T0 4 + ^ = $ebp $T0 ^ = $esp $T0 8 + = 
STACK WIN 4 71f2 1b 0 0 4 4 0 0 1 $T0 $ebp = $eip $T0 4 + ^ = $ebp $T0 ^ = $esp $T0 8 + =  $23 $T0 4 - ^ = 
STACK WIN 4 720f 13 0 0 0 0 0 0 1 $T0 .raSearch = $eip $T0 ^ = $esp $T0 4 + = 
STACK WIN 4 7222 13 0 0 0 0 0 0 1 $T0 .raSearch = $eip $T0 ^ = $esp $T0 4 + = 
STACK WIN 4 7235 2d 6 0 8 0 0 0 1 $T0 $ebp = $eip $T0 4 + ^ = $ebp $T0 ^ = $esp $T0 8 + = 
STACK WIN 4 723b 25 0 0 8 4 0 0 1 $T0 $ebp = $eip $T0 4 + ^ = $ebp $T0 ^ = $esp $T0 8 + =  $23 $T0 4 - ^ = 
STACK WIN 4 7262 2d 6 0 8 0 0 0 1 $T0 $ebp = $eip $T0 4 + ^ = $ebp $T0 ^ = $esp $T0 8 + = 
STACK WIN 4 7268 25 0 0 8 4 0 0 1 $T0 $ebp = $eip $T0 4 + ^ = $ebp $T0 ^ = $esp $T0 8 + =  $23 $T0 4 - ^ = 
STACK WIN 4 728f b 0 0 0 0 0 0 1 $T0 .raSearch = $eip $T0 ^ = $esp $T0 4 + = 
STACK WIN 4 729a 52 c 0 0 10 18 0 1 $T0 $ebp = $eip $T0 4 + ^ = $ebp $T0 ^ = $esp $T0 8 + =  $20 $T0 28 - ^ =  $23 $T0 32 - ^ =  $24 $T0 36 - ^ = 
STACK WIN 4 72e3 8 0 0 0 10 18 0 1 $T0 $ebp = $T2 $esp = $T1 .raSearchStart = $eip $T1 ^ = $ebp $T0 = $esp $T1 4 + = 
STACK WIN 4 72ec 41 4 0 0 0 0 0 1 $T0 .raSearch = $eip $T0 ^ = $esp $T0 4 + = 
STACK WIN 4 72ef 3d 1 0 0 4 0 0 1 $T0 .raSearch = $eip $T0 ^ = $esp $T0 4 + =  $23 $T0 4 - ^ = 
STACK WIN 4 72f0 3b 0 0 0 8 0 0 1 $T0 .raSearch = $eip $T0 ^ = $esp $T0 4 + =  $23 $T0 4 - ^ =  $24 $T0 8 - ^ = 
STACK WIN 4 732d 17 5 0 4 0 0 0 1 $T0 $ebp = $eip $T0 4 + ^ = $ebp $T0 ^ = $esp $T0 8 + = 
STACK WIN 4 7344 31 3 0 4 0 0 0 1 $T0 .raSearch = $eip $T0 ^ = $esp $T0 4 + = 
STACK WIN 4 7347 2d 0 0 4 4 0 0 1 $T0 .raSearch = $eip $T0 ^ = $esp $T0 4 + =  $23 $T0 4 - ^ = 
STACK WIN 4 7355 1c 0 0 4 8 0 0 1 $T0 .raSearch = $eip $T0 ^ = $esp $T0 4 + =  $23 $T0 4 - ^ =  $24 $T0 8 - ^ = 
STACK WIN 4 7375 17 5 0 4 0 0 0 1 $T0 $ebp = $eip $T0 4 + ^ = $ebp $T0 ^ = $esp $T0 8 + = 
STACK WIN 4 738c 9c b 0 10 0 0 0 1 $T0 $ebp = $eip $T0 4 + ^ = $ebp $T0 ^ = $esp $T0 8 + = 
STACK WIN 4 7395 91 2 0 10 4 0 0 1 $T0 $ebp = $eip $T0 4 + ^ = $ebp $T0 ^ = $esp $T0 8 + =  $20 $T0 4 - ^ = 
STACK WIN 4 7396 8f 1 0 10 8 0 0 1 $T0 $ebp = $eip $T0 4 + ^ = $ebp $T0 ^ = $esp $T0 8 + =  $20 $T0 4 - ^ =  $23 $T0 8 - ^ = 
STACK WIN 4 7397 8d 0 0 10 c 0 0 1 $T0 $ebp = $eip $T0 4 + ^ = $ebp $T0 ^ = $esp $T0 8 + =  $20 $T0 4 - ^ =  $23 $T0 8 - ^ =  $24 $T0 12 - ^ = 
STACK WIN 4 7428 7b 9 0 4 0 0 0 1 $T0 $ebp = $eip $T0 4 + ^ = $ebp $T0 ^ = $esp $T0 8 + = 
STACK WIN 4 7431 70 0 0 4 4 0 0 1 $T0 $ebp = $eip $T0 4 + ^ = $ebp $T0 ^ = $esp $T0 8 + =  $24 $T0 4 - ^ = 
STACK WIN 4 744a 56 0 0 4 8 0 0 1 $T0 $ebp = $eip $T0 4 + ^ = $ebp $T0 ^ = $esp $T0 8 + =  $24 $T0 4 - ^ =  $20 $T0 8 - ^ = 
STACK WIN 4 7452 4d 0 0 4 c 0 0 1 $T0 $ebp = $eip $T0 4 + ^ = $ebp $T0 ^ = $esp $T0 8 + =  $24 $T0 4 - ^ =  $20 $T0 8 - ^ =  $23 $T0 12 - ^ = 
STACK WIN 4 74a3 56 11 0 4 0 4 0 1 $T0 $ebp = $eip $T0 4 + ^ = $ebp $T0 ^ = $esp $T0 8 + = 
STACK WIN 4 74b4 3a 0 0 4 4 4 0 1 $T0 $ebp = $eip $T0 4 + ^ = $ebp $T0 ^ = $esp $T0 8 + =  $23 $T0 8 - ^ = 
STACK WIN 4 74f9 56 11 0 4 0 4 0 1 $T0 $ebp = $eip $T0 4 + ^ = $ebp $T0 ^ = $esp $T0 8 + = 
STACK WIN 4 750a 3a 0 0 4 4 4 0 1 $T0 $ebp = $eip $T0 4 + ^ = $ebp $T0 ^ = $esp $T0 8 + =  $23 $T0 8 - ^ = 
STACK WIN 4 754f 56 11 0 4 0 4 0 1 $T0 $ebp = $eip $T0 4 + ^ = $ebp $T0 ^ = $esp $T0 8 + = 
STACK WIN 4 7560 3a 0 0 4 4 4 0 1 $T0 $ebp = $eip $T0 4 + ^ = $ebp $T0 ^ = $esp $T0 8 + =  $23 $T0 8 - ^ = 
STACK WIN 4 75a5 59 11 0 8 0 4 0 1 $T0 $ebp = $eip $T0 4 + ^ = $ebp $T0 ^ = $esp $T0 8 + = 
STACK WIN 4 75b6 3d 0 0 8 4 4 0 1 $T0 $ebp = $eip $T0 4 + ^ = $ebp $T0 ^ = $esp $T0 8 + =  $23 $T0 8 - ^ = 
STACK WIN 4 75fe 62 11 0 c 0 4 0 1 $T0 $ebp = $eip $T0 4 + ^ = $ebp $T0 ^ = $esp $T0 8 + = 
STACK WIN 4 760f 46 0 0 c 4 4 0 1 $T0 $ebp = $eip $T0 4 + ^ = $ebp $T0 ^ = $esp $T0 8 + =  $23 $T0 8 - ^ = 
STACK WIN 4 7660 88 11 0 24 0 4 0 1 $T0 $ebp = $eip $T0 4 + ^ = $ebp $T0 ^ = $esp $T0 8 + = 
STACK WIN 4 7671 6c 0 0 24 4 4 0 1 $T0 $ebp = $eip $T0 4 + ^ = $ebp $T0 ^ = $esp $T0 8 + =  $23 $T0 8 - ^ = 
STACK WIN 4 76e8 5c 11 0 8 0 4 0 1 $T0 $ebp = $eip $T0 4 + ^ = $ebp $T0 ^ = $esp $T0 8 + = 
STACK WIN 4 76f9 40 0 0 8 4 4 0 1 $T0 $ebp = $eip $T0 4 + ^ = $ebp $T0 ^ = $esp $T0 8 + =  $23 $T0 8 - ^ = 
STACK WIN 4 7744 26 6 0 0 0 0 0 1 $T0 .raSearch = $eip $T0 ^ = $esp $T0 4 + = 
STACK WIN 4 774a 1f 0 0 0 4 0 0 1 $T0 .raSearch = $eip $T0 ^ = $esp $T0 4 + =  $24 $T0 4 - ^ = 
STACK WIN 4 776a 87 11 0 0 0 8 0 1 $T0 $ebp = $eip $T0 4 + ^ = $ebp $T0 ^ = $esp $T0 8 + = 
STACK WIN 4 7790 53 0 0 0 4 8 0 1 $T0 $ebp = $eip $T0 4 + ^ = $ebp $T0 ^ = $esp $T0 8 + =  $23 $T0 12 - ^ = 
STACK WIN 4 77f1 36 5 0 4 0 0 0 1 $T0 $ebp = $eip $T0 4 + ^ = $ebp $T0 ^ = $esp $T0 8 + = 
STACK WIN 4 77fd 26 0 0 4 4 0 0 1 $T0 $ebp = $eip $T0 4 + ^ = $ebp $T0 ^ = $esp $T0 8 + =  $23 $T0 4 - ^ = 
STACK WIN 4 7827 18 5 0 8 0 0 0 1 $T0 $ebp = $eip $T0 4 + ^ = $ebp $T0 ^ = $esp $T0 8 + = 
STACK WIN 4 783f 190 c 0 8 0 20 0 1 $T0 $ebp = $eip $T0 4 + ^ = $ebp $T0 ^ = $esp $T0 8 + = 
STACK WIN 4 784b 173 0 0 8 4 20 0 1 $T0 $ebp = $eip $T0 4 + ^ = $ebp $T0 ^ = $esp $T0 8 + =  $23 $T0 36 - ^ = 
STACK WIN 4 786b 152 0 0 8 8 20 0 1 $T0 $ebp = $eip $T0 4 + ^ = $ebp $T0 ^ = $esp $T0 8 + =  $23 $T0 36 - ^ =  $20 $T0 40 - ^ = 
STACK WIN 4 786c 150 0 0 8 c 20 0 1 $T0 $ebp = $eip $T0 4 + ^ = $ebp $T0 ^ = $esp $T0 8 + =  $23 $T0 36 - ^ =  $20 $T0 40 - ^ =  $24 $T0 44 - ^ = 
STACK WIN 4 79cf 96 6 0 10 0 4 0 1 $T0 $ebp = $eip $T0 4 + ^ = $ebp $T0 ^ = $esp $T0 8 + = 
STACK WIN 4 79e8 6c 0 0 10 4 4 0 1 $T0 $ebp = $eip $T0 4 + ^ = $ebp $T0 ^ = $esp $T0 8 + =  $24 $T0 8 - ^ = 
STACK WIN 4 79fb 58 0 0 10 8 4 0 1 $T0 $ebp = $eip $T0 4 + ^ = $ebp $T0 ^ = $esp $T0 8 + =  $24 $T0 8 - ^ =  $20 $T0 12 - ^ = 
STACK WIN 4 79fc 56 0 0 10 c 4 0 1 $T0 $ebp = $eip $T0 4 + ^ = $ebp $T0 ^ = $esp $T0 8 + =  $24 $T0 8 - ^ =  $20 $T0 12 - ^ =  $23 $T0 16 - ^ = 
STACK WIN 4 7a65 184 21 0 c 0 150 0 1 $T0 $ebp = $eip $T0 4 + ^ = $ebp $T0 ^ = $esp $T0 8 + = 
STACK WIN 4 7a7e cd 8 0 c 4 150 0 1 $T0 $ebp = $eip $T0 4 + ^ = $ebp $T0 ^ = $esp $T0 8 + =  $20 $T0 340 - ^ = 
STACK WIN 4 7a82 c6 4 0 c 8 150 0 1 $T0 $ebp = $eip $T0 4 + ^ = $ebp $T0 ^ = $esp $T0 8 + =  $20 $T0 340 - ^ =  $23 $T0 344 - ^ = 
STACK WIN 4 7a86 c1 0 0 c c 150 0 1 $T0 $ebp = $eip $T0 4 + ^ = $ebp $T0 ^ = $esp $T0 8 + =  $20 $T0 340 - ^ =  $23 $T0 344 - ^ =  $24 $T0 348 - ^ = 
STACK WIN 4 7be9 25 6 0 0 0 0 0 1 $T0 .raSearch = $eip $T0 ^ = $esp $T0 4 + = 
STACK WIN 4 7bec 21 3 0 0 4 0 0 1 $T0 .raSearch = $eip $T0 ^ = $esp $T0 4 + =  $23 $T0 4 - ^ = 
STACK WIN 4 7bed 1f 2 0 0 8 0 0 1 $T0 .raSearch = $eip $T0 ^ = $esp $T0 4 + =  $23 $T0 4 - ^ =  $24 $T0 8 - ^ = 
STACK WIN 4 7c0e 35 9 0 4 0 0 0 1 $T0 $ebp = $eip $T0 4 + ^ = $ebp $T0 ^ = $esp $T0 8 + = 
STACK WIN 4 7c14 2b 3 0 4 4 0 0 1 $T0 $ebp = $eip $T0 4 + ^ = $ebp $T0 ^ = $esp $T0 8 + =  $23 $T0 4 - ^ = 
STACK WIN 4 7c15 29 2 0 4 8 0 0 1 $T0 $ebp = $eip $T0 4 + ^ = $ebp $T0 ^ = $esp $T0 8 + =  $23 $T0 4 - ^ =  $24 $T0 8 - ^ = 
STACK WIN 4 7c43 87 5 0 0 0 0 0 1 $T0 .raSearch = $eip $T0 ^ = $esp $T0 4 + = 
STACK WIN 4 7c46 83 2 0 0 4 0 0 1 $T0 .raSearch = $eip $T0 ^ = $esp $T0 4 + =  $23 $T0 4 - ^ = 
STACK WIN 4 7c49 7f 0 0 0 8 0 0 1 $T0 .raSearch = $eip $T0 ^ = $esp $T0 4 + =  $23 $T0 4 - ^ =  $24 $T0 8 - ^ = 
STACK WIN 4 7c93 34 0 0 0 c 0 0 1 $T0 .raSearch = $eip $T0 ^ = $esp $T0 4 + =  $23 $T0 4 - ^ =  $24 $T0 8 - ^ =  $20 $T0 12 - ^ = 
STACK WIN 4 7cca b 5 0 8 0 0 0 1 $T0 $ebp = $eip $T0 4 + ^ = $ebp $T0 ^ = $esp $T0 8 + = 
STACK WIN 4 7cd5 43 c 0 c 10 18 0 1 $T0 $ebp = $eip $T0 4 + ^ = $ebp $T0 ^ = $esp $T0 8 + =  $20 $T0 28 - ^ =  $23 $T0 32 - ^ =  $24 $T0 36 - ^ = 
STACK WIN 4 7d0c b 0 0 c 10 18 0 1 $T0 $ebp = $T2 $esp = $T1 .raSearchStart = $eip $T1 ^ = $ebp $T0 = $esp $T1 4 + = 
STACK WIN 4 7d18 28 8 0 8 0 c 0 1 $T0 $ebp = $eip $T0 4 + ^ = $ebp $T0 ^ = $esp $T0 8 + = 
STACK WIN 4 7d40 c4 5 0 0 0 0 0 1 $T0 .raSearch = $eip $T0 ^ = $esp $T0 4 + = 
STACK WIN 4 7d43 c0 2 0 0 4 0 0 1 $T0 .raSearch = $eip $T0 ^ = $esp $T0 4 + =  $23 $T0 4 - ^ = 
STACK WIN 4 7e04 3e 5 0 4 0 0 0 1 $T0 $ebp = $eip $T0 4 + ^ = $ebp $T0 ^ = $esp $T0 8 + = 
STACK WIN 4 7e42 73 8 0 4 0 10 0 1 $T0 $ebp = $eip $T0 4 + ^ = $ebp $T0 ^ = $esp $T0 8 + = 
STACK WIN 4 7eb5 65 b 0 4 0 0 0 1 $T0 $ebp = $eip $T0 4 + ^ = $ebp $T0 ^ = $esp $T0 8 + = 
STACK WIN 4 7ebb 5d 5 0 4 4 0 0 1 $T0 $ebp = $eip $T0 4 + ^ = $ebp $T0 ^ = $esp $T0 8 + =  $20 $T0 4 - ^ = 
STACK WIN 4 7ebf 58 1 0 4 8 0 0 1 $T0 $ebp = $eip $T0 4 + ^ = $ebp $T0 ^ = $esp $T0 8 + =  $20 $T0 4 - ^ =  $23 $T0 8 - ^ = 
STACK WIN 4 7ec0 56 0 0 4 c 0 0 1 $T0 $ebp = $eip $T0 4 + ^ = $ebp $T0 ^ = $esp $T0 8 + =  $20 $T0 4 - ^ =  $23 $T0 8 - ^ =  $24 $T0 12 - ^ = 
STACK WIN 4 7f1a 194 21 0 4 0 720 0 1 $T0 $ebp = $eip $T0 4 + ^ = $ebp $T0 ^ = $esp $T0 8 + = 
STACK WIN 4 7f30 175 b 0 4 4 720 0 1 $T0 $ebp = $eip $T0 4 + ^ = $ebp $T0 ^ = $esp $T0 8 + =  $20 $T0 1828 - ^ = 
STACK WIN 4 7f31 171 a 0 4 8 720 0 1 $T0 $ebp = $eip $T0 4 + ^ = $ebp $T0 ^ = $esp $T0 8 + =  $20 $T0 1828 - ^ =  $23 $T0 1832 - ^ = 
STACK WIN 4 7f3b 166 0 0 4 c 720 0 1 $T0 $ebp = $eip $T0 4 + ^ = $ebp $T0 ^ = $esp $T0 8 + =  $20 $T0 1828 - ^ =  $23 $T0 1832 - ^ =  $24 $T0 1836 - ^ = 
STACK WIN 4 80ae 101 8 0 8 0 c 0 1 $T0 $ebp = $eip $T0 4 + ^ = $ebp $T0 ^ = $esp $T0 8 + = 
STACK WIN 4 80df 52 0 0 8 4 c 0 1 $T0 $ebp = $eip $T0 4 + ^ = $ebp $T0 ^ = $esp $T0 8 + =  $20 $T0 16 - ^ = 
STACK WIN 4 80e0 50 0 0 8 8 c 0 1 $T0 $ebp = $eip $T0 4 + ^ = $ebp $T0 ^ = $esp $T0 8 + =  $20 $T0 16 - ^ =  $23 $T0 20 - ^ = 
STACK WIN 4 80e1 4c 0 0 8 c c 0 1 $T0 $ebp = $eip $T0 4 + ^ = $ebp $T0 ^ = $esp $T0 8 + =  $20 $T0 16 - ^ =  $23 $T0 20 - ^ =  $24 $T0 24 - ^ = 
STACK WIN 4 81af 1e 0 0 0 0 0 0 1 $T0 .raSearch = $eip $T0 ^ = $esp $T0 4 + = 
STACK WIN 4 81cd a2 c 0 0 10 1c 0 1 $T0 $ebp = $eip $T0 4 + ^ = $ebp $T0 ^ = $esp $T0 8 + =  $20 $T0 32 - ^ =  $23 $T0 36 - ^ =  $24 $T0 40 - ^ = 
STACK WIN 4 825b b 0 0 0 10 1c 0 1 $T0 $ebp = $T2 $esp = $T1 .raSearchStart = $eip $T1 ^ = $ebp $T0 = $esp $T1 4 + = 
STACK WIN 4 826f 1f1 14 0 8 0 20 0 1 $T0 $ebp = $eip $T0 4 + ^ = $ebp $T0 ^ = $esp $T0 8 + = 
STACK WIN 4 8282 1d5 1 0 8 4 20 0 1 $T0 $ebp = $eip $T0 4 + ^ = $ebp $T0 ^ = $esp $T0 8 + =  $20 $T0 36 - ^ = 
STACK WIN 4 8283 1d1 0 0 8 8 20 0 1 $T0 $ebp = $eip $T0 4 + ^ = $ebp $T0 ^ = $esp $T0 8 + =  $20 $T0 36 - ^ =  $23 $T0 40 - ^ = 
STACK WIN 4 82a4 1ac 0 0 8 c 20 0 1 $T0 $ebp = $eip $T0 4 + ^ = $ebp $T0 ^ = $esp $T0 8 + =  $20 $T0 36 - ^ =  $23 $T0 40 - ^ =  $24 $T0 44 - ^ = 
STACK WIN 4 8460 81 6 0 10 0 0 0 1 $T0 $ebp = $eip $T0 4 + ^ = $ebp $T0 ^ = $esp $T0 8 + = 
STACK WIN 4 8466 79 0 0 10 4 0 0 1 $T0 $ebp = $eip $T0 4 + ^ = $ebp $T0 ^ = $esp $T0 8 + =  $23 $T0 4 - ^ = 
STACK WIN 4 848c 52 0 0 10 8 0 0 1 $T0 $ebp = $eip $T0 4 + ^ = $ebp $T0 ^ = $esp $T0 8 + =  $23 $T0 4 - ^ =  $24 $T0 8 - ^ = 
STACK WIN 4 84e1 59 9 0 10 0 10 0 1 $T0 $ebp = $eip $T0 4 + ^ = $ebp $T0 ^ = $esp $T0 8 + = 
STACK WIN 4 84ea 3e 0 0 10 4 10 0 1 $T0 $ebp = $eip $T0 4 + ^ = $ebp $T0 ^ = $esp $T0 8 + =  $23 $T0 20 - ^ = 
STACK WIN 4 853a 18 5 0 4 0 0 0 1 $T0 $ebp = $eip $T0 4 + ^ = $ebp $T0 ^ = $esp $T0 8 + = 
STACK WIN 4 8552 19 0 0 0 0 0 0 1 $T0 .raSearch = $eip $T0 ^ = $esp $T0 4 + = 
STACK WIN 4 856b 37 9 0 4 0 0 0 1 $T0 $ebp = $eip $T0 4 + ^ = $ebp $T0 ^ = $esp $T0 8 + = 
STACK WIN 4 8574 2c 0 0 4 4 0 0 1 $T0 $ebp = $eip $T0 4 + ^ = $ebp $T0 ^ = $esp $T0 8 + =  $24 $T0 4 - ^ = 
STACK WIN 4 857c 20 0 0 4 8 0 0 1 $T0 $ebp = $eip $T0 4 + ^ = $ebp $T0 ^ = $esp $T0 8 + =  $24 $T0 4 - ^ =  $23 $T0 8 - ^ = 
STACK WIN 4 85a2 83 9 0 0 0 4 0 1 $T0 $ebp = $eip $T0 4 + ^ = $ebp $T0 ^ = $esp $T0 8 + = 
STACK WIN 4 85a9 78 2 0 0 4 4 0 1 $T0 $ebp = $eip $T0 4 + ^ = $ebp $T0 ^ = $esp $T0 8 + =  $20 $T0 8 - ^ = 
STACK WIN 4 85aa 74 1 0 0 8 4 0 1 $T0 $ebp = $eip $T0 4 + ^ = $ebp $T0 ^ = $esp $T0 8 + =  $20 $T0 8 - ^ =  $23 $T0 12 - ^ = 
STACK WIN 4 85ab 72 0 0 0 c 4 0 1 $T0 $ebp = $eip $T0 4 + ^ = $ebp $T0 ^ = $esp $T0 8 + =  $20 $T0 8 - ^ =  $23 $T0 12 - ^ =  $24 $T0 16 - ^ = 
STACK WIN 4 8625 b 5 0 c 0 0 0 1 $T0 $ebp = $eip $T0 4 + ^ = $ebp $T0 ^ = $esp $T0 8 + = 
STACK WIN 4 8630 6d 6 0 c 0 0 0 1 $T0 $ebp = $eip $T0 4 + ^ = $ebp $T0 ^ = $esp $T0 8 + = 
STACK WIN 4 8636 65 0 0 c 4 0 0 1 $T0 $ebp = $eip $T0 4 + ^ = $ebp $T0 ^ = $esp $T0 8 + =  $23 $T0 4 - ^ = 
STACK WIN 4 8659 41 0 0 c 8 0 0 1 $T0 $ebp = $eip $T0 4 + ^ = $ebp $T0 ^ = $esp $T0 8 + =  $23 $T0 4 - ^ =  $20 $T0 8 - ^ = 
STACK WIN 4 865d 3a 0 0 c c 0 0 1 $T0 $ebp = $eip $T0 4 + ^ = $ebp $T0 ^ = $esp $T0 8 + =  $23 $T0 4 - ^ =  $20 $T0 8 - ^ =  $24 $T0 12 - ^ = 
STACK WIN 4 869d 11 0 0 0 0 0 0 1 $T0 .raSearch = $eip $T0 ^ = $esp $T0 4 + = 
STACK WIN 4 86ae a 0 0 4 0 0 0 1 $T0 .raSearch = $eip $T0 ^ = $esp $T0 4 + = 
STACK WIN 4 86b8 b6 8 0 0 0 48 0 1 $T0 $ebp = $eip $T0 4 + ^ = $ebp $T0 ^ = $esp $T0 8 + = 
STACK WIN 4 86e1 89 0 0 0 4 48 0 1 $T0 $ebp = $eip $T0 4 + ^ = $ebp $T0 ^ = $esp $T0 8 + =  $20 $T0 76 - ^ = 
STACK WIN 4 86e2 87 0 0 0 8 48 0 1 $T0 $ebp = $eip $T0 4 + ^ = $ebp $T0 ^ = $esp $T0 8 + =  $20 $T0 76 - ^ =  $23 $T0 80 - ^ = 
STACK WIN 4 870b 5d 0 0 0 c 48 0 1 $T0 $ebp = $eip $T0 4 + ^ = $ebp $T0 ^ = $esp $T0 8 + =  $20 $T0 76 - ^ =  $23 $T0 80 - ^ =  $24 $T0 84 - ^ = 
STACK WIN 4 876e b6 5 0 0 0 0 0 1 $T0 .raSearch = $eip $T0 ^ = $esp $T0 4 + = 
STACK WIN 4 8771 b2 2 0 0 4 0 0 1 $T0 .raSearch = $eip $T0 ^ = $esp $T0 4 + =  $20 $T0 4 - ^ = 
STACK WIN 4 8772 b0 1 0 0 8 0 0 1 $T0 .raSearch = $eip $T0 ^ = $esp $T0 4 + =  $20 $T0 4 - ^ =  $23 $T0 8 - ^ = 
STACK WIN 4 8773 ae 0 0 0 c 0 0 1 $T0 .raSearch = $eip $T0 ^ = $esp $T0 4 + =  $20 $T0 4 - ^ =  $23 $T0 8 - ^ =  $24 $T0 12 - ^ = 
STACK WIN 4 8824 56 c 0 0 10 1c 0 1 $T0 $ebp = $eip $T0 4 + ^ = $ebp $T0 ^ = $esp $T0 8 + =  $20 $T0 32 - ^ =  $23 $T0 36 - ^ =  $24 $T0 40 - ^ = 
STACK WIN 4 886e b 0 0 0 10 1c 0 1 $T0 $ebp = $T2 $esp = $T1 .raSearchStart = $eip $T1 ^ = $ebp $T0 = $esp $T1 4 + = 
STACK WIN 4 887a 2c 3 0 4 0 0 0 1 $T0 .raSearch = $eip $T0 ^ = $esp $T0 4 + = 
STACK WIN 4 887d 28 0 0 4 4 0 0 1 $T0 .raSearch = $eip $T0 ^ = $esp $T0 4 + =  $23 $T0 4 - ^ = 
STACK WIN 4 88a6 83 11 0 8 0 4 0 1 $T0 $ebp = $eip $T0 4 + ^ = $ebp $T0 ^ = $esp $T0 8 + = 
STACK WIN 4 88b7 69 0 0 8 4 4 0 1 $T0 $ebp = $eip $T0 4 + ^ = $ebp $T0 ^ = $esp $T0 8 + =  $24 $T0 8 - ^ = 
STACK WIN 4 88c4 56 0 0 8 8 4 0 1 $T0 $ebp = $eip $T0 4 + ^ = $ebp $T0 ^ = $esp $T0 8 + =  $24 $T0 8 - ^ =  $23 $T0 12 - ^ = 
STACK WIN 4 88c7 52 0 0 8 c 4 0 1 $T0 $ebp = $eip $T0 4 + ^ = $ebp $T0 ^ = $esp $T0 8 + =  $24 $T0 8 - ^ =  $23 $T0 12 - ^ =  $20 $T0 16 - ^ = 
STACK WIN 4 8929 4d 11 0 8 0 4 0 1 $T0 $ebp = $eip $T0 4 + ^ = $ebp $T0 ^ = $esp $T0 8 + = 
STACK WIN 4 893a 33 0 0 8 4 4 0 1 $T0 $ebp = $eip $T0 4 + ^ = $ebp $T0 ^ = $esp $T0 8 + =  $23 $T0 8 - ^ = 
STACK WIN 4 8946 1f 0 0 8 8 4 0 1 $T0 $ebp = $eip $T0 4 + ^ = $ebp $T0 ^ = $esp $T0 8 + =  $23 $T0 8 - ^ =  $24 $T0 12 - ^ = 
STACK WIN 4 8976 5a c 0 c 10 1c 0 1 $T0 $ebp = $eip $T0 4 + ^ = $ebp $T0 ^ = $esp $T0 8 + =  $20 $T0 32 - ^ =  $23 $T0 36 - ^ =  $24 $T0 40 - ^ = 
STACK WIN 4 89c1 e 0 0 c 10 1c 0 1 $T0 $ebp = $T2 $esp = $T1 .raSearchStart = $eip $T1 ^ = $ebp $T0 = $esp $T1 4 + = 
STACK WIN 4 89d0 28 8 0 8 0 c 0 1 $T0 $ebp = $eip $T0 4 + ^ = $ebp $T0 ^ = $esp $T0 8 + = 
STACK WIN 4 89f8 42 5 0 4 0 0 0 1 $T0 $ebp = $eip $T0 4 + ^ = $ebp $T0 ^ = $esp $T0 8 + = 
STACK WIN 4 8a3a 31 10 0 4 0 0 0 1 $T0 $ebp = $eip $T0 4 + ^ = $ebp $T0 ^ = $esp $T0 8 + = 
STACK WIN 4 8a4a 1d 0 0 4 4 0 0 1 $T0 $ebp = $eip $T0 4 + ^ = $ebp $T0 ^ = $esp $T0 8 + =  $23 $T0 4 - ^ = 
STACK WIN 4 8a6b 28 5 0 8 0 0 0 1 $T0 $ebp = $eip $T0 4 + ^ = $ebp $T0 ^ = $esp $T0 8 + = 
STACK WIN 4 8a93 17 6 0 0 0 4 0 1 $T0 $ebp = $eip $T0 4 + ^ = $ebp $T0 ^ = $esp $T0 8 + = 
STACK WIN 4 8aaa 3b 5 0 4 0 0 0 1 $T0 $ebp = $eip $T0 4 + ^ = $ebp $T0 ^ = $esp $T0 8 + = 
STACK WIN 4 8ae5 9 0 0 0 0 0 0 1 $T0 .raSearch = $eip $T0 ^ = $esp $T0 4 + = 
STACK WIN 4 8aee 208 c 0 4 10 3c 0 1 $T0 $ebp = $eip $T0 4 + ^ = $ebp $T0 ^ = $esp $T0 8 + =  $20 $T0 64 - ^ =  $23 $T0 68 - ^ =  $24 $T0 72 - ^ = 
STACK WIN 4 8c9f 1d 0 0 4 10 3c 0 1 $T0 $ebp = $T2 $esp = $T1 .raSearchStart = $eip $T1 ^ = $ebp $T0 = $esp $T1 4 + = 
STACK WIN 4 8cf6 19 0 0 0 0 0 0 1 $T0 .raSearch = $eip $T0 ^ = $esp $T0 4 + = 
STACK WIN 4 8d0f 14 5 0 4 0 0 0 1 $T0 $ebp = $eip $T0 4 + ^ = $ebp $T0 ^ = $esp $T0 8 + = 
STACK WIN 4 8d23 49 11 0 4 0 4 0 1 $T0 $ebp = $eip $T0 4 + ^ = $ebp $T0 ^ = $esp $T0 8 + = 
STACK WIN 4 8d34 2f 0 0 4 4 4 0 1 $T0 $ebp = $eip $T0 4 + ^ = $ebp $T0 ^ = $esp $T0 8 + =  $23 $T0 8 - ^ = 
STACK WIN 4 8d6c 6 0 0 0 0 0 0 1 $T0 .raSearch = $eip $T0 ^ = $esp $T0 4 + = 
STACK WIN 4 8d72 fa a 0 10 0 10 0 1 $T0 $ebp = $eip $T0 4 + ^ = $ebp $T0 ^ = $esp $T0 8 + = 
STACK WIN 4 8d7b 24 1 0 10 4 10 0 1 $T0 $ebp = $eip $T0 4 + ^ = $ebp $T0 ^ = $esp $T0 8 + =  $20 $T0 20 - ^ = 
STACK WIN 4 8d7c 22 0 0 10 8 10 0 1 $T0 $ebp = $eip $T0 4 + ^ = $ebp $T0 ^ = $esp $T0 8 + =  $20 $T0 20 - ^ =  $23 $T0 24 - ^ = 
STACK WIN 4 8da4 c3 0 0 10 c 10 0 1 $T0 $ebp = $eip $T0 4 + ^ = $ebp $T0 ^ = $esp $T0 8 + =  $20 $T0 20 - ^ =  $23 $T0 24 - ^ =  $24 $T0 28 - ^ = 
STACK WIN 4 8e6c 1a 5 0 c 0 0 0 1 $T0 $ebp = $eip $T0 4 + ^ = $ebp $T0 ^ = $esp $T0 8 + = 
STACK WIN 4 8e86 26 5 0 4 0 0 0 1 $T0 $ebp = $eip $T0 4 + ^ = $ebp $T0 ^ = $esp $T0 8 + = 
STACK WIN 4 8eac c8 6 0 0 0 0 0 1 $T0 .raSearch = $eip $T0 ^ = $esp $T0 4 + = 
STACK WIN 4 8eb2 c1 0 0 0 4 0 0 1 $T0 .raSearch = $eip $T0 ^ = $esp $T0 4 + =  $23 $T0 4 - ^ = 
STACK WIN 4 8f17 59 0 0 0 8 0 0 1 $T0 .raSearch = $eip $T0 ^ = $esp $T0 4 + =  $23 $T0 4 - ^ =  $24 $T0 8 - ^ = 
STACK WIN 4 8f74 4c 3 0 0 0 0 0 1 $T0 .raSearch = $eip $T0 ^ = $esp $T0 4 + = 
STACK WIN 4 8f77 48 0 0 0 4 0 0 1 $T0 .raSearch = $eip $T0 ^ = $esp $T0 4 + =  $23 $T0 4 - ^ = 
STACK WIN 4 8fc0 14 5 0 4 0 0 0 1 $T0 $ebp = $eip $T0 4 + ^ = $ebp $T0 ^ = $esp $T0 8 + = 
STACK WIN 4 8fd4 14 5 0 4 0 0 0 1 $T0 $ebp = $eip $T0 4 + ^ = $ebp $T0 ^ = $esp $T0 8 + = 
STACK WIN 4 8fe8 26 6 0 0 0 4 0 1 $T0 $ebp = $eip $T0 4 + ^ = $ebp $T0 ^ = $esp $T0 8 + = 
STACK WIN 4 900e 7d 5 0 4 0 0 0 1 $T0 $ebp = $eip $T0 4 + ^ = $ebp $T0 ^ = $esp $T0 8 + = 
STACK WIN 4 904c 3d 0 0 4 4 0 0 1 $T0 $ebp = $eip $T0 4 + ^ = $ebp $T0 ^ = $esp $T0 8 + =  $23 $T0 4 - ^ = 
STACK WIN 4 908b 14a c 0 4 0 4 0 1 $T0 $ebp = $eip $T0 4 + ^ = $ebp $T0 ^ = $esp $T0 8 + = 
STACK WIN 4 9092 13f 5 0 4 4 4 0 1 $T0 $ebp = $eip $T0 4 + ^ = $ebp $T0 ^ = $esp $T0 8 + =  $20 $T0 8 - ^ = 
STACK WIN 4 9093 13d 4 0 4 8 4 0 1 $T0 $ebp = $eip $T0 4 + ^ = $ebp $T0 ^ = $esp $T0 8 + =  $20 $T0 8 - ^ =  $23 $T0 12 - ^ = 
STACK WIN 4 9097 138 0 0 4 c 4 0 1 $T0 $ebp = $eip $T0 4 + ^ = $ebp $T0 ^ = $esp $T0 8 + =  $20 $T0 8 - ^ =  $23 $T0 12 - ^ =  $24 $T0 16 - ^ = 
STACK WIN 4 91d5 29 5 0 4 0 0 0 1 $T0 $ebp = $eip $T0 4 + ^ = $ebp $T0 ^ = $esp $T0 8 + = 
STACK WIN 4 91fe 30 6 0 4 0 0 0 1 $T0 $ebp = $eip $T0 4 + ^ = $ebp $T0 ^ = $esp $T0 8 + = 
STACK WIN 4 9204 28 0 0 4 4 0 0 1 $T0 $ebp = $eip $T0 4 + ^ = $ebp $T0 ^ = $esp $T0 8 + =  $23 $T0 4 - ^ = 
STACK WIN 4 922e 29 5 0 4 0 0 0 1 $T0 $ebp = $eip $T0 4 + ^ = $ebp $T0 ^ = $esp $T0 8 + = 
STACK WIN 4 9257 81 5 0 4 0 0 0 1 $T0 $ebp = $eip $T0 4 + ^ = $ebp $T0 ^ = $esp $T0 8 + = 
STACK WIN 4 9299 3d 0 0 4 4 0 0 1 $T0 $ebp = $eip $T0 4 + ^ = $ebp $T0 ^ = $esp $T0 8 + =  $23 $T0 4 - ^ = 
STACK WIN 4 92d8 77 c 0 0 10 1c 0 1 $T0 $ebp = $eip $T0 4 + ^ = $ebp $T0 ^ = $esp $T0 8 + =  $20 $T0 32 - ^ =  $23 $T0 36 - ^ =  $24 $T0 40 - ^ = 
STACK WIN 4 933b b 0 0 0 10 1c 0 1 $T0 $ebp = $T2 $esp = $T1 .raSearchStart = $eip $T1 ^ = $ebp $T0 = $esp $T1 4 + = 
STACK WIN 4 934f 50 a 0 8 0 0 0 1 $T0 $ebp = $eip $T0 4 + ^ = $ebp $T0 ^ = $esp $T0 8 + = 
STACK WIN 4 9355 48 4 0 8 4 0 0 1 $T0 $ebp = $eip $T0 4 + ^ = $ebp $T0 ^ = $esp $T0 8 + =  $23 $T0 4 - ^ = 
STACK WIN 4 9359 43 0 0 8 8 0 0 1 $T0 $ebp = $eip $T0 4 + ^ = $ebp $T0 ^ = $esp $T0 8 + =  $23 $T0 4 - ^ =  $24 $T0 8 - ^ = 
STACK WIN 4 939f 39 8 0 8 0 10 0 1 $T0 $ebp = $eip $T0 4 + ^ = $ebp $T0 ^ = $esp $T0 8 + = 
STACK WIN 4 93d8 21d 17 0 24 c 8 0 1 $T0 $ebp = $eip $T0 4 + ^ = $ebp $T0 ^ = $esp $T0 8 + =  $20 $T0 12 - ^ =  $23 $T0 16 - ^ =  $24 $T0 20 - ^ = 
STACK WIN 4 95f5 4b 8 0 24 0 10 0 1 $T0 $ebp = $eip $T0 4 + ^ = $ebp $T0 ^ = $esp $T0 8 + = 
STACK WIN 4 9640 20 5 0 4 0 0 0 1 $T0 $ebp = $eip $T0 4 + ^ = $ebp $T0 ^ = $esp $T0 8 + = 
STACK WIN 4 9660 fe 6 0 4 0 0 0 1 $T0 $ebp = $eip $T0 4 + ^ = $ebp $T0 ^ = $esp $T0 8 + = 
STACK WIN 4 9666 f6 0 0 4 4 0 0 1 $T0 $ebp = $eip $T0 4 + ^ = $ebp $T0 ^ = $esp $T0 8 + =  $23 $T0 4 - ^ = 
STACK WIN 4 975e 69 6 0 4 0 0 0 1 $T0 $ebp = $eip $T0 4 + ^ = $ebp $T0 ^ = $esp $T0 8 + = 
STACK WIN 4 9764 61 0 0 4 4 0 0 1 $T0 $ebp = $eip $T0 4 + ^ = $ebp $T0 ^ = $esp $T0 8 + =  $23 $T0 4 - ^ = 
STACK WIN 4 97c7 3c e 0 8 0 0 0 1 $T0 $ebp = $eip $T0 4 + ^ = $ebp $T0 ^ = $esp $T0 8 + = 
STACK WIN 4 97d0 31 5 0 8 4 0 0 1 $T0 $ebp = $eip $T0 4 + ^ = $ebp $T0 ^ = $esp $T0 8 + =  $20 $T0 4 - ^ = 
STACK WIN 4 97d1 2f 4 0 8 8 0 0 1 $T0 $ebp = $eip $T0 4 + ^ = $ebp $T0 ^ = $esp $T0 8 + =  $20 $T0 4 - ^ =  $23 $T0 8 - ^ = 
STACK WIN 4 97d5 2a 0 0 8 c 0 0 1 $T0 $ebp = $eip $T0 4 + ^ = $ebp $T0 ^ = $esp $T0 8 + =  $20 $T0 4 - ^ =  $23 $T0 8 - ^ =  $24 $T0 12 - ^ = 
STACK WIN 4 9803 e4 6 0 4 0 0 0 1 $T0 $ebp = $eip $T0 4 + ^ = $ebp $T0 ^ = $esp $T0 8 + = 
STACK WIN 4 9809 dc 0 0 4 4 0 0 1 $T0 $ebp = $eip $T0 4 + ^ = $ebp $T0 ^ = $esp $T0 8 + =  $23 $T0 4 - ^ = 
STACK WIN 4 98e7 11d 15 0 1c c 18 0 1 $T0 $ebp = $eip $T0 4 + ^ = $ebp $T0 ^ = $esp $T0 8 + =  $20 $T0 28 - ^ =  $23 $T0 32 - ^ =  $24 $T0 36 - ^ = 
STACK WIN 4 9a04 bc b 0 4 0 10 0 1 $T0 $ebp = $eip $T0 4 + ^ = $ebp $T0 ^ = $esp $T0 8 + = 
STACK WIN 4 9a0d af 2 0 4 4 10 0 1 $T0 $ebp = $eip $T0 4 + ^ = $ebp $T0 ^ = $esp $T0 8 + =  $20 $T0 20 - ^ = 
STACK WIN 4 9a0e ad 1 0 4 8 10 0 1 $T0 $ebp = $eip $T0 4 + ^ = $ebp $T0 ^ = $esp $T0 8 + =  $20 $T0 20 - ^ =  $23 $T0 24 - ^ = 
STACK WIN 4 9a0f ab 0 0 4 c 10 0 1 $T0 $ebp = $eip $T0 4 + ^ = $ebp $T0 ^ = $esp $T0 8 + =  $20 $T0 20 - ^ =  $23 $T0 24 - ^ =  $24 $T0 28 - ^ = 
STACK WIN 4 9ac0 2c 5 0 4 0 0 0 1 $T0 $ebp = $eip $T0 4 + ^ = $ebp $T0 ^ = $esp $T0 8 + = 
STACK WIN 4 9af0 96 14 0 10 0 4 0 1 $T0 $ebp = $eip $T0 4 + ^ = $ebp $T0 ^ = $esp $T0 8 + = 
STACK WIN 4 9b04 79 0 0 10 4 4 0 1 $T0 $ebp = $eip $T0 4 + ^ = $ebp $T0 ^ = $esp $T0 8 + =  $20 $T0 8 - ^ = 
STACK WIN 4 9b0f 68 0 0 10 8 4 0 1 $T0 $ebp = $eip $T0 4 + ^ = $ebp $T0 ^ = $esp $T0 8 + =  $20 $T0 8 - ^ =  $23 $T0 12 - ^ = 
STACK WIN 4 9b10 66 0 0 10 c 4 0 1 $T0 $ebp = $eip $T0 4 + ^ = $ebp $T0 ^ = $esp $T0 8 + =  $20 $T0 8 - ^ =  $23 $T0 12 - ^ =  $24 $T0 16 - ^ = 
STACK WIN 4 9b90 39 9 0 c 0 0 0 1 $T0 $ebp = $eip $T0 4 + ^ = $ebp $T0 ^ = $esp $T0 8 + = 
STACK WIN 4 9b99 2e 0 0 c 4 0 0 1 $T0 $ebp = $eip $T0 4 + ^ = $ebp $T0 ^ = $esp $T0 8 + =  $24 $T0 4 - ^ = 
STACK WIN 4 9ba1 25 0 0 c 8 0 0 1 $T0 $ebp = $eip $T0 4 + ^ = $ebp $T0 ^ = $esp $T0 8 + =  $24 $T0 4 - ^ =  $23 $T0 8 - ^ = 
STACK WIN 4 9bd0 39a 2c 0 10 0 11c 0 1 $T0 $ebp = $eip $T0 4 + ^ = $ebp $T0 ^ = $esp $T0 8 + = 
STACK WIN 4 9bf2 36f a 0 10 4 11c 0 1 $T0 $ebp = $eip $T0 4 + ^ = $ebp $T0 ^ = $esp $T0 8 + =  $23 $T0 288 - ^ = 
STACK WIN 4 9bfc 362 0 0 10 8 11c 0 1 $T0 $ebp = $eip $T0 4 + ^ = $ebp $T0 ^ = $esp $T0 8 + =  $23 $T0 288 - ^ =  $24 $T0 292 - ^ = 
STACK WIN 4 9c4d 30d 0 0 10 c 11c 0 1 $T0 $ebp = $eip $T0 4 + ^ = $ebp $T0 ^ = $esp $T0 8 + =  $23 $T0 288 - ^ =  $24 $T0 292 - ^ =  $20 $T0 296 - ^ = 
STACK WIN 4 9f6a b1 d 0 10 0 4 0 1 $T0 $ebp = $eip $T0 4 + ^ = $ebp $T0 ^ = $esp $T0 8 + = 
STACK WIN 4 9f77 40 0 0 10 4 4 0 1 $T0 $ebp = $eip $T0 4 + ^ = $ebp $T0 ^ = $esp $T0 8 + =  $23 $T0 8 - ^ = 
STACK WIN 4 9fbc 3f 0 0 10 8 4 0 1 $T0 $ebp = $eip $T0 4 + ^ = $ebp $T0 ^ = $esp $T0 8 + =  $23 $T0 8 - ^ =  $20 $T0 12 - ^ = 
STACK WIN 4 9fc1 37 0 0 10 c 4 0 1 $T0 $ebp = $eip $T0 4 + ^ = $ebp $T0 ^ = $esp $T0 8 + =  $23 $T0 8 - ^ =  $20 $T0 12 - ^ =  $24 $T0 16 - ^ = 
STACK WIN 4 a01b b 5 0 10 0 0 0 1 $T0 $ebp = $eip $T0 4 + ^ = $ebp $T0 ^ = $esp $T0 8 + = 
STACK WIN 4 a070 17 5 0 8 0 0 0 1 $T0 $ebp = $eip $T0 4 + ^ = $ebp $T0 ^ = $esp $T0 8 + = 
STACK WIN 4 a087 8d 8 0 c 0 10 0 1 $T0 $ebp = $eip $T0 4 + ^ = $ebp $T0 ^ = $esp $T0 8 + = 
STACK WIN 4 a0aa 66 0 0 c 4 10 0 1 $T0 $ebp = $eip $T0 4 + ^ = $ebp $T0 ^ = $esp $T0 8 + =  $23 $T0 20 - ^ = 
STACK WIN 4 a114 f 0 0 0 0 0 0 1 $T0 .raSearch = $eip $T0 ^ = $esp $T0 4 + = 
STACK WIN 4 a123 33 5 0 4 0 0 0 1 $T0 $ebp = $eip $T0 4 + ^ = $ebp $T0 ^ = $esp $T0 8 + = 
STACK WIN 4 a156 69 6 0 8 0 0 0 1 $T0 $ebp = $eip $T0 4 + ^ = $ebp $T0 ^ = $esp $T0 8 + = 
STACK WIN 4 a15c 37 0 0 8 4 0 0 1 $T0 $ebp = $eip $T0 4 + ^ = $ebp $T0 ^ = $esp $T0 8 + =  $24 $T0 4 - ^ = 
STACK WIN 4 a16f 23 0 0 8 8 0 0 1 $T0 $ebp = $eip $T0 4 + ^ = $ebp $T0 ^ = $esp $T0 8 + =  $24 $T0 4 - ^ =  $23 $T0 8 - ^ = 
STACK WIN 4 a1bf 7a 9 0 0 0 8 0 1 $T0 $ebp = $eip $T0 4 + ^ = $ebp $T0 ^ = $esp $T0 8 + = 
STACK WIN 4 a1c7 6e 1 0 0 4 8 0 1 $T0 $ebp = $eip $T0 4 + ^ = $ebp $T0 ^ = $esp $T0 8 + =  $20 $T0 12 - ^ = 
STACK WIN 4 a1c8 6c 0 0 0 8 8 0 1 $T0 $ebp = $eip $T0 4 + ^ = $ebp $T0 ^ = $esp $T0 8 + =  $20 $T0 12 - ^ =  $24 $T0 16 - ^ = 
STACK WIN 4 a1ed 3d 0 0 0 c 8 0 1 $T0 $ebp = $eip $T0 4 + ^ = $ebp $T0 ^ = $esp $T0 8 + =  $20 $T0 12 - ^ =  $24 $T0 16 - ^ =  $23 $T0 20 - ^ = 
STACK WIN 4 a239 35 6 0 4 0 0 0 1 $T0 $ebp = $eip $T0 4 + ^ = $ebp $T0 ^ = $esp $T0 8 + = 
STACK WIN 4 a23f 2d 0 0 4 4 0 0 1 $T0 $ebp = $eip $T0 4 + ^ = $ebp $T0 ^ = $esp $T0 8 + =  $23 $T0 4 - ^ = 
STACK WIN 4 a247 24 0 0 4 8 0 0 1 $T0 $ebp = $eip $T0 4 + ^ = $ebp $T0 ^ = $esp $T0 8 + =  $23 $T0 4 - ^ =  $20 $T0 8 - ^ = 
STACK WIN 4 a24e 1c 0 0 4 c 0 0 1 $T0 $ebp = $eip $T0 4 + ^ = $ebp $T0 ^ = $esp $T0 8 + =  $23 $T0 4 - ^ =  $20 $T0 8 - ^ =  $24 $T0 12 - ^ = 
STACK WIN 4 a26e 98 c 0 4 10 24 0 1 $T0 $ebp = $eip $T0 4 + ^ = $ebp $T0 ^ = $esp $T0 8 + =  $20 $T0 40 - ^ =  $23 $T0 44 - ^ =  $24 $T0 48 - ^ = 
STACK WIN 4 a2fa b 0 0 4 10 24 0 1 $T0 $ebp = $T2 $esp = $T1 .raSearchStart = $eip $T1 ^ = $ebp $T0 = $esp $T1 4 + = 
STACK WIN 4 a306 23 5 0 4 0 0 0 1 $T0 $ebp = $eip $T0 4 + ^ = $ebp $T0 ^ = $esp $T0 8 + = 
STACK WIN 4 a329 23 5 0 4 0 0 0 1 $T0 $ebp = $eip $T0 4 + ^ = $ebp $T0 ^ = $esp $T0 8 + = 
STACK WIN 4 a34c 91 b 0 4 0 0 0 1 $T0 $ebp = $eip $T0 4 + ^ = $ebp $T0 ^ = $esp $T0 8 + = 
STACK WIN 4 a352 89 5 0 4 4 0 0 1 $T0 $ebp = $eip $T0 4 + ^ = $ebp $T0 ^ = $esp $T0 8 + =  $20 $T0 4 - ^ = 
STACK WIN 4 a353 87 4 0 4 8 0 0 1 $T0 $ebp = $eip $T0 4 + ^ = $ebp $T0 ^ = $esp $T0 8 + =  $20 $T0 4 - ^ =  $23 $T0 8 - ^ = 
STACK WIN 4 a357 82 0 0 4 c 0 0 1 $T0 $ebp = $eip $T0 4 + ^ = $ebp $T0 ^ = $esp $T0 8 + =  $20 $T0 4 - ^ =  $23 $T0 8 - ^ =  $24 $T0 12 - ^ = 
STACK WIN 4 a3dd 6a 5 0 4 0 0 0 1 $T0 $ebp = $eip $T0 4 + ^ = $ebp $T0 ^ = $esp $T0 8 + = 
STACK WIN 4 a447 56 5 0 4 0 0 0 1 $T0 $ebp = $eip $T0 4 + ^ = $ebp $T0 ^ = $esp $T0 8 + = 
STACK WIN 4 a49d 66 9 0 4 0 0 0 1 $T0 $ebp = $eip $T0 4 + ^ = $ebp $T0 ^ = $esp $T0 8 + = 
STACK WIN 4 a4a6 5b 0 0 4 4 0 0 1 $T0 $ebp = $eip $T0 4 + ^ = $ebp $T0 ^ = $esp $T0 8 + =  $23 $T0 4 - ^ = 
STACK WIN 4 a4bf 41 0 0 4 8 0 0 1 $T0 $ebp = $eip $T0 4 + ^ = $ebp $T0 ^ = $esp $T0 8 + =  $23 $T0 4 - ^ =  $24 $T0 8 - ^ = 
STACK WIN 4 a503 47 6 0 4 0 0 0 1 $T0 $ebp = $eip $T0 4 + ^ = $ebp $T0 ^ = $esp $T0 8 + = 
STACK WIN 4 a509 3f 0 0 4 4 0 0 1 $T0 $ebp = $eip $T0 4 + ^ = $ebp $T0 ^ = $esp $T0 8 + =  $23 $T0 4 - ^ = 
STACK WIN 4 a54a 9 0 0 0 0 0 0 1 $T0 .raSearch = $eip $T0 ^ = $esp $T0 4 + = 
STACK WIN 4 a553 d8 c 0 4 10 2c 0 1 $T0 $ebp = $eip $T0 4 + ^ = $ebp $T0 ^ = $esp $T0 8 + =  $20 $T0 48 - ^ =  $23 $T0 52 - ^ =  $24 $T0 56 - ^ = 
STACK WIN 4 a5f2 f 0 0 4 10 2c 0 1 $T0 $ebp = $T2 $esp = $T1 .raSearchStart = $eip $T1 ^ = $ebp $T0 = $esp $T1 4 + = 
STACK WIN 4 a61f b 0 0 4 10 2c 0 1 $T0 $ebp = $T2 $esp = $T1 .raSearchStart = $eip $T1 ^ = $ebp $T0 = $esp $T1 4 + = 
STACK WIN 4 a62b a0 c 0 0 10 20 0 1 $T0 $ebp = $eip $T0 4 + ^ = $ebp $T0 ^ = $esp $T0 8 + =  $20 $T0 36 - ^ =  $23 $T0 40 - ^ =  $24 $T0 44 - ^ = 
STACK WIN 4 a6c2 8 0 0 0 10 20 0 1 $T0 $ebp = $T2 $esp = $T1 .raSearchStart = $eip $T1 ^ = $ebp $T0 = $esp $T1 4 + = 
STACK WIN 4 a6cb 3e a 0 4 0 0 0 1 $T0 $ebp = $eip $T0 4 + ^ = $ebp $T0 ^ = $esp $T0 8 + = 
STACK WIN 4 a6d1 36 4 0 4 4 0 0 1 $T0 $ebp = $eip $T0 4 + ^ = $ebp $T0 ^ = $esp $T0 8 + =  $23 $T0 4 - ^ = 
STACK WIN 4 a6d5 31 0 0 4 8 0 0 1 $T0 $ebp = $eip $T0 4 + ^ = $ebp $T0 ^ = $esp $T0 8 + =  $23 $T0 4 - ^ =  $24 $T0 8 - ^ = 
STACK WIN 4 a709 1c 5 0 8 0 0 0 1 $T0 $ebp = $eip $T0 4 + ^ = $ebp $T0 ^ = $esp $T0 8 + = 
STACK WIN 4 a725 6 0 0 0 0 0 0 1 $T0 .raSearch = $eip $T0 ^ = $esp $T0 4 + = 
STACK WIN 4 a72b 98 c 0 c 10 1c 0 1 $T0 $ebp = $eip $T0 4 + ^ = $ebp $T0 ^ = $esp $T0 8 + =  $20 $T0 32 - ^ =  $23 $T0 36 - ^ =  $24 $T0 40 - ^ = 
STACK WIN 4 a7b4 e 0 0 c 10 1c 0 1 $T0 $ebp = $T2 $esp = $T1 .raSearchStart = $eip $T1 ^ = $ebp $T0 = $esp $T1 4 + = 
STACK WIN 4 a7c3 28 8 0 8 0 c 0 1 $T0 $ebp = $eip $T0 4 + ^ = $ebp $T0 ^ = $esp $T0 8 + = 
STACK WIN 4 a7eb 6f 7 0 4 0 4 0 1 $T0 $ebp = $eip $T0 4 + ^ = $ebp $T0 ^ = $esp $T0 8 + = 
STACK WIN 4 a7f2 64 0 0 4 4 4 0 1 $T0 $ebp = $eip $T0 4 + ^ = $ebp $T0 ^ = $esp $T0 8 + =  $23 $T0 8 - ^ = 
STACK WIN 4 a85a 1b3 2a 0 10 0 38 0 1 $T0 $ebp = $eip $T0 4 + ^ = $ebp $T0 ^ = $esp $T0 8 + = 
STACK WIN 4 a878 18c c 0 10 4 38 0 1 $T0 $ebp = $eip $T0 4 + ^ = $ebp $T0 ^ = $esp $T0 8 + =  $20 $T0 60 - ^ = 
STACK WIN 4 a87c 185 8 0 10 8 38 0 1 $T0 $ebp = $eip $T0 4 + ^ = $ebp $T0 ^ = $esp $T0 8 + =  $20 $T0 60 - ^ =  $23 $T0 64 - ^ = 
STACK WIN 4 a884 17c 0 0 10 c 38 0 1 $T0 $ebp = $eip $T0 4 + ^ = $ebp $T0 ^ = $esp $T0 8 + =  $20 $T0 60 - ^ =  $23 $T0 64 - ^ =  $24 $T0 68 - ^ = 
STACK WIN 4 aa0d 6d e 0 c 0 4 0 1 $T0 $ebp = $eip $T0 4 + ^ = $ebp $T0 ^ = $esp $T0 8 + = 
STACK WIN 4 aa14 62 7 0 c 4 4 0 1 $T0 $ebp = $eip $T0 4 + ^ = $ebp $T0 ^ = $esp $T0 8 + =  $20 $T0 8 - ^ = 
STACK WIN 4 aa15 60 6 0 c 8 4 0 1 $T0 $ebp = $eip $T0 4 + ^ = $ebp $T0 ^ = $esp $T0 8 + =  $20 $T0 8 - ^ =  $23 $T0 12 - ^ = 
STACK WIN 4 aa1b 57 0 0 c c 4 0 1 $T0 $ebp = $eip $T0 4 + ^ = $ebp $T0 ^ = $esp $T0 8 + =  $20 $T0 8 - ^ =  $23 $T0 12 - ^ =  $24 $T0 16 - ^ = 
STACK WIN 4 aa7a 76 7 0 4 0 4 0 1 $T0 $ebp = $eip $T0 4 + ^ = $ebp $T0 ^ = $esp $T0 8 + = 
STACK WIN 4 aa81 6b 0 0 4 4 4 0 1 $T0 $ebp = $eip $T0 4 + ^ = $ebp $T0 ^ = $esp $T0 8 + =  $23 $T0 8 - ^ = 
STACK WIN 4 aa94 57 0 0 4 8 4 0 1 $T0 $ebp = $eip $T0 4 + ^ = $ebp $T0 ^ = $esp $T0 8 + =  $23 $T0 8 - ^ =  $24 $T0 12 - ^ = 
STACK WIN 4 aaf0 df 37 0 10 0 1410 0 1 $T0 $ebp = $eip $T0 4 + ^ = $ebp $T0 ^ = $esp $T0 8 + = 
STACK WIN 4 ab18 ae f 0 10 4 1410 0 1 $T0 $ebp = $eip $T0 4 + ^ = $ebp $T0 ^ = $esp $T0 8 + =  $20 $T0 5140 - ^ = 
STACK WIN 4 ab23 a0 4 0 10 8 1410 0 1 $T0 $ebp = $eip $T0 4 + ^ = $ebp $T0 ^ = $esp $T0 8 + =  $20 $T0 5140 - ^ =  $23 $T0 5144 - ^ = 
STACK WIN 4 ab27 9b 0 0 10 c 1410 0 1 $T0 $ebp = $eip $T0 4 + ^ = $ebp $T0 ^ = $esp $T0 8 + =  $20 $T0 5140 - ^ =  $23 $T0 5144 - ^ =  $24 $T0 5148 - ^ = 
STACK WIN 4 abcf ee 37 0 10 0 1410 0 1 $T0 $ebp = $eip $T0 4 + ^ = $ebp $T0 ^ = $esp $T0 8 + = 
STACK WIN 4 abf7 bd f 0 10 4 1410 0 1 $T0 $ebp = $eip $T0 4 + ^ = $ebp $T0 ^ = $esp $T0 8 + =  $20 $T0 5140 - ^ = 
STACK WIN 4 ac02 af 4 0 10 8 1410 0 1 $T0 $ebp = $eip $T0 4 + ^ = $ebp $T0 ^ = $esp $T0 8 + =  $20 $T0 5140 - ^ =  $23 $T0 5144 - ^ = 
STACK WIN 4 ac06 aa 0 0 10 c 1410 0 1 $T0 $ebp = $eip $T0 4 + ^ = $ebp $T0 ^ = $esp $T0 8 + =  $20 $T0 5140 - ^ =  $23 $T0 5144 - ^ =  $24 $T0 5148 - ^ = 
STACK WIN 4 acbd 12d 36 0 10 0 1418 0 1 $T0 $ebp = $eip $T0 4 + ^ = $ebp $T0 ^ = $esp $T0 8 + = 
STACK WIN 4 ace5 fc e 0 10 4 1418 0 1 $T0 $ebp = $eip $T0 4 + ^ = $ebp $T0 ^ = $esp $T0 8 + =  $20 $T0 5148 - ^ = 
STACK WIN 4 ace6 f8 d 0 10 8 1418 0 1 $T0 $ebp = $eip $T0 4 + ^ = $ebp $T0 ^ = $esp $T0 8 + =  $20 $T0 5148 - ^ =  $23 $T0 5152 - ^ = 
STACK WIN 4 acf3 ea 0 0 10 c 1418 0 1 $T0 $ebp = $eip $T0 4 + ^ = $ebp $T0 ^ = $esp $T0 8 + =  $20 $T0 5148 - ^ =  $23 $T0 5152 - ^ =  $24 $T0 5156 - ^ = 
STACK WIN 4 adea eb c 0 c 10 24 0 1 $T0 $ebp = $eip $T0 4 + ^ = $ebp $T0 ^ = $esp $T0 8 + =  $20 $T0 40 - ^ =  $23 $T0 44 - ^ =  $24 $T0 48 - ^ = 
STACK WIN 4 aea6 d 0 0 c 10 24 0 1 $T0 $ebp = $T2 $esp = $T1 .raSearchStart = $eip $T1 ^ = $ebp $T0 = $esp $T1 4 + = 
STACK WIN 4 aed5 20c 1d 0 c 0 30 0 1 $T0 $ebp = $eip $T0 4 + ^ = $ebp $T0 ^ = $esp $T0 8 + = 
STACK WIN 4 aeee 1ea 4 0 c 4 30 0 1 $T0 $ebp = $eip $T0 4 + ^ = $ebp $T0 ^ = $esp $T0 8 + =  $23 $T0 52 - ^ = 
STACK WIN 4 aef2 1e3 0 0 c 8 30 0 1 $T0 $ebp = $eip $T0 4 + ^ = $ebp $T0 ^ = $esp $T0 8 + =  $23 $T0 52 - ^ =  $24 $T0 56 - ^ = 
STACK WIN 4 af27 1aa 0 0 c c 30 0 1 $T0 $ebp = $eip $T0 4 + ^ = $ebp $T0 ^ = $esp $T0 8 + =  $23 $T0 52 - ^ =  $24 $T0 56 - ^ =  $20 $T0 60 - ^ = 
STACK WIN 4 b35d 7e c 0 10 0 8 0 1 $T0 $ebp = $eip $T0 4 + ^ = $ebp $T0 ^ = $esp $T0 8 + = 
STACK WIN 4 b365 72 4 0 10 4 8 0 1 $T0 $ebp = $eip $T0 4 + ^ = $ebp $T0 ^ = $esp $T0 8 + =  $23 $T0 12 - ^ = 
STACK WIN 4 b369 6d 0 0 10 8 8 0 1 $T0 $ebp = $eip $T0 4 + ^ = $ebp $T0 ^ = $esp $T0 8 + =  $23 $T0 12 - ^ =  $24 $T0 16 - ^ = 
STACK WIN 4 b3db 1b 5 0 10 0 0 0 1 $T0 $ebp = $eip $T0 4 + ^ = $ebp $T0 ^ = $esp $T0 8 + = 
STACK WIN 4 b3f6 76 6 0 4 0 0 0 1 $T0 $ebp = $eip $T0 4 + ^ = $ebp $T0 ^ = $esp $T0 8 + = 
STACK WIN 4 b3fc 6e 0 0 4 4 0 0 1 $T0 $ebp = $eip $T0 4 + ^ = $ebp $T0 ^ = $esp $T0 8 + =  $23 $T0 4 - ^ = 
STACK WIN 4 b41c 4d 0 0 4 8 0 0 1 $T0 $ebp = $eip $T0 4 + ^ = $ebp $T0 ^ = $esp $T0 8 + =  $23 $T0 4 - ^ =  $24 $T0 8 - ^ = 
STACK WIN 4 b46c 80 c 0 4 10 20 0 1 $T0 $ebp = $eip $T0 4 + ^ = $ebp $T0 ^ = $esp $T0 8 + =  $20 $T0 36 - ^ =  $23 $T0 40 - ^ =  $24 $T0 44 - ^ = 
STACK WIN 4 b4df c 0 0 4 10 20 0 1 $T0 $ebp = $T2 $esp = $T1 .raSearchStart = $eip $T1 ^ = $ebp $T0 = $esp $T1 4 + = 
STACK WIN 4 b551 45 6 0 4 0 4 0 1 $T0 $ebp = $eip $T0 4 + ^ = $ebp $T0 ^ = $esp $T0 8 + = 
STACK WIN 4 b596 f 0 0 0 0 0 0 1 $T0 .raSearch = $eip $T0 ^ = $esp $T0 4 + = 
STACK WIN 4 be23 218 1b 0 10 0 24 0 1 $T0 $ebp = $eip $T0 4 + ^ = $ebp $T0 ^ = $esp $T0 8 + = 
STACK WIN 4 be3d 1f5 1 0 10 4 24 0 1 $T0 $ebp = $eip $T0 4 + ^ = $ebp $T0 ^ = $esp $T0 8 + =  $23 $T0 40 - ^ = 
STACK WIN 4 be3e 1f1 0 0 10 8 24 0 1 $T0 $ebp = $eip $T0 4 + ^ = $ebp $T0 ^ = $esp $T0 8 + =  $23 $T0 40 - ^ =  $24 $T0 44 - ^ = 
STACK WIN 4 c03b b9 9 0 8 0 8 0 1 $T0 $ebp = $eip $T0 4 + ^ = $ebp $T0 ^ = $esp $T0 8 + = 
STACK WIN 4 c043 ad 1 0 8 4 8 0 1 $T0 $ebp = $eip $T0 4 + ^ = $ebp $T0 ^ = $esp $T0 8 + =  $20 $T0 12 - ^ = 
STACK WIN 4 c044 ab 0 0 8 8 8 0 1 $T0 $ebp = $eip $T0 4 + ^ = $ebp $T0 ^ = $esp $T0 8 + =  $20 $T0 12 - ^ =  $23 $T0 16 - ^ = 
STACK WIN 4 c0f4 82 c 0 c 10 1c 0 1 $T0 $ebp = $eip $T0 4 + ^ = $ebp $T0 ^ = $esp $T0 8 + =  $20 $T0 32 - ^ =  $23 $T0 36 - ^ =  $24 $T0 40 - ^ = 
STACK WIN 4 c167 e 0 0 c 10 1c 0 1 $T0 $ebp = $T2 $esp = $T1 .raSearchStart = $eip $T1 ^ = $ebp $T0 = $esp $T1 4 + = 
STACK WIN 4 c176 28 8 0 8 0 c 0 1 $T0 $ebp = $eip $T0 4 + ^ = $ebp $T0 ^ = $esp $T0 8 + = 
STACK WIN 4 c19e 7f 7 0 4 0 4 0 1 $T0 $ebp = $eip $T0 4 + ^ = $ebp $T0 ^ = $esp $T0 8 + = 
STACK WIN 4 c1a5 74 0 0 4 4 4 0 1 $T0 $ebp = $eip $T0 4 + ^ = $ebp $T0 ^ = $esp $T0 8 + =  $23 $T0 8 - ^ = 
STACK WIN 4 c21d 9c 7 0 4 0 0 0 1 $T0 $ebp = $eip $T0 4 + ^ = $ebp $T0 ^ = $esp $T0 8 + = 
STACK WIN 4 c223 94 1 0 4 4 0 0 1 $T0 $ebp = $eip $T0 4 + ^ = $ebp $T0 ^ = $esp $T0 8 + =  $23 $T0 4 - ^ = 
STACK WIN 4 c224 92 0 0 4 8 0 0 1 $T0 $ebp = $eip $T0 4 + ^ = $ebp $T0 ^ = $esp $T0 8 + =  $23 $T0 4 - ^ =  $24 $T0 8 - ^ = 
STACK WIN 4 c2b9 3b 5 0 4 0 0 0 1 $T0 $ebp = $eip $T0 4 + ^ = $ebp $T0 ^ = $esp $T0 8 + = 
STACK WIN 4 c2f4 1f 0 0 0 0 0 0 1 $T0 .raSearch = $eip $T0 ^ = $esp $T0 4 + = 
STACK WIN 4 c313 17 0 0 0 0 0 0 1 $T0 .raSearch = $eip $T0 ^ = $esp $T0 4 + = 
STACK WIN 4 c32a 13 6 0 0 0 4 0 1 $T0 $ebp = $eip $T0 4 + ^ = $ebp $T0 ^ = $esp $T0 8 + = 
STACK WIN 4 c33d 2c 7 0 8 0 8 0 1 $T0 $ebp = $eip $T0 4 + ^ = $ebp $T0 ^ = $esp $T0 8 + = 
STACK WIN 4 c369 5b b 0 4 0 c 0 1 $T0 $ebp = $eip $T0 4 + ^ = $ebp $T0 ^ = $esp $T0 8 + = 
STACK WIN 4 c3c4 12 6 0 0 0 4 0 1 $T0 $ebp = $eip $T0 4 + ^ = $ebp $T0 ^ = $esp $T0 8 + = 
STACK WIN 4 c3d6 6a 7 0 8 0 8 0 1 $T0 $ebp = $eip $T0 4 + ^ = $ebp $T0 ^ = $esp $T0 8 + = 
STACK WIN 4 c440 12b 5 0 14 0 0 0 1 $T0 $ebp = $eip $T0 4 + ^ = $ebp $T0 ^ = $esp $T0 8 + = 
STACK WIN 4 c56b 10b 2f 0 c 8 88 0 1 $T0 $ebp = $T1 $ebx = $eip $T1 4 + ^ = $ebx $T1 ^ = $esp $T1 8 + = $ebp $ebp ^ =  $23 $T0 140 - ^ =  $24 $T0 144 - ^ = 
STACK WIN 4 c676 16 7 0 8 0 8 0 1 $T0 $ebp = $eip $T0 4 + ^ = $ebp $T0 ^ = $esp $T0 8 + = 
STACK WIN 4 c68c 34 5 0 4 0 0 0 1 $T0 $ebp = $eip $T0 4 + ^ = $ebp $T0 ^ = $esp $T0 8 + = 
STACK WIN 4 c6c0 ce 2f 0 1c 8 88 0 1 $T0 $ebp = $T1 $ebx = $eip $T1 4 + ^ = $ebx $T1 ^ = $esp $T1 8 + = $ebp $ebp ^ =  $23 $T0 140 - ^ =  $24 $T0 144 - ^ = 
STACK WIN 4 c78e 1e0 d 0 c 0 10 0 1 $T0 $ebp = $eip $T0 4 + ^ = $ebp $T0 ^ = $esp $T0 8 + = 
STACK WIN 4 c797 1d3 4 0 c 4 10 0 1 $T0 $ebp = $eip $T0 4 + ^ = $ebp $T0 ^ = $esp $T0 8 + =  $20 $T0 20 - ^ = 
STACK WIN 4 c79b 1cb 0 0 c 8 10 0 1 $T0 $ebp = $eip $T0 4 + ^ = $ebp $T0 ^ = $esp $T0 8 + =  $20 $T0 20 - ^ =  $23 $T0 24 - ^ = 
STACK WIN 4 c88b b3 0 0 c c 10 0 1 $T0 $ebp = $eip $T0 4 + ^ = $ebp $T0 ^ = $esp $T0 8 + =  $20 $T0 20 - ^ =  $23 $T0 24 - ^ =  $24 $T0 28 - ^ = 
STACK WIN 4 c96e 23 5 0 18 0 0 0 1 $T0 $ebp = $eip $T0 4 + ^ = $ebp $T0 ^ = $esp $T0 8 + = 
STACK WIN 4 c991 2f1 15 0 1c 0 0 0 1 $T0 $ebp = $eip $T0 4 + ^ = $ebp $T0 ^ = $esp $T0 8 + = 
STACK WIN 4 c99c 2e4 a 0 1c 4 0 0 1 $T0 $ebp = $eip $T0 4 + ^ = $ebp $T0 ^ = $esp $T0 8 + =  $20 $T0 4 - ^ = 
STACK WIN 4 c9a6 2d9 0 0 1c 8 0 0 1 $T0 $ebp = $eip $T0 4 + ^ = $ebp $T0 ^ = $esp $T0 8 + =  $20 $T0 4 - ^ =  $24 $T0 8 - ^ = 
STACK WIN 4 ca0f 261 0 0 1c c 0 0 1 $T0 $ebp = $eip $T0 4 + ^ = $ebp $T0 ^ = $esp $T0 8 + =  $20 $T0 4 - ^ =  $24 $T0 8 - ^ =  $23 $T0 12 - ^ = 
STACK WIN 4 cc82 2f 5 0 4 0 0 0 1 $T0 $ebp = $eip $T0 4 + ^ = $ebp $T0 ^ = $esp $T0 8 + = 
STACK WIN 4 ccb1 a2 b 0 24 0 20 0 1 $T0 $ebp = $eip $T0 4 + ^ = $ebp $T0 ^ = $esp $T0 8 + = 
STACK WIN 4 ccf5 3d 0 0 24 4 20 0 1 $T0 $ebp = $eip $T0 4 + ^ = $ebp $T0 ^ = $esp $T0 8 + =  $23 $T0 36 - ^ = 
STACK WIN 4 cd53 d4 f 0 c 0 0 0 1 $T0 $ebp = $eip $T0 4 + ^ = $ebp $T0 ^ = $esp $T0 8 + = 
STACK WIN 4 cd62 c3 0 0 c 4 0 0 1 $T0 $ebp = $eip $T0 4 + ^ = $ebp $T0 ^ = $esp $T0 8 + =  $24 $T0 4 - ^ = 
STACK WIN 4 cd71 ae 0 0 c 8 0 0 1 $T0 $ebp = $eip $T0 4 + ^ = $ebp $T0 ^ = $esp $T0 8 + =  $24 $T0 4 - ^ =  $23 $T0 8 - ^ = 
STACK WIN 4 ce27 2f 7 0 c 0 8 0 1 $T0 $ebp = $eip $T0 4 + ^ = $ebp $T0 ^ = $esp $T0 8 + = 
STACK WIN 4 ce56 5e 5 0 8 0 0 0 1 $T0 $ebp = $eip $T0 4 + ^ = $ebp $T0 ^ = $esp $T0 8 + = 
STACK WIN 4 ceb4 a4 5 0 8 0 0 0 1 $T0 $ebp = $eip $T0 4 + ^ = $ebp $T0 ^ = $esp $T0 8 + = 
STACK WIN 4 cf70 43 b 0 8 0 0 0 1 $T0 $ebp = $eip $T0 4 + ^ = $ebp $T0 ^ = $esp $T0 8 + = 
STACK WIN 4 cf79 38 2 0 8 4 0 0 1 $T0 $ebp = $eip $T0 4 + ^ = $ebp $T0 ^ = $esp $T0 8 + =  $20 $T0 4 - ^ = 
STACK WIN 4 cf7a 36 1 0 8 8 0 0 1 $T0 $ebp = $eip $T0 4 + ^ = $ebp $T0 ^ = $esp $T0 8 + =  $20 $T0 4 - ^ =  $23 $T0 8 - ^ = 
STACK WIN 4 cf7b 34 0 0 8 c 0 0 1 $T0 $ebp = $eip $T0 4 + ^ = $ebp $T0 ^ = $esp $T0 8 + =  $20 $T0 4 - ^ =  $23 $T0 8 - ^ =  $24 $T0 12 - ^ = 
STACK WIN 4 cfc0 ba 33 0 4 10 18 0 1 $T0 $ebp = $eip $T0 4 + ^ = $ebp $T0 ^ = $esp $T0 8 + =  $20 $T0 28 - ^ =  $23 $T0 32 - ^ =  $24 $T0 36 - ^ = 
STACK WIN 4 d049 13 0 0 4 10 18 0 1 $T0 $ebp = $T2 $esp = $T1 .raSearchStart = $eip $T1 ^ = $ebp $T0 = $esp $T1 4 + = 
STACK WIN 4 d080 31 3 0 4 0 0 0 1 $T0 $ebp = $eip $T0 4 + ^ = $ebp $T0 ^ = $esp $T0 8 + = 
STACK WIN 0 3c29 d 0 0 0 0 0 0 0 0
STACK WIN 0 3ca4 f 0 0 0 0 0 0 0 0
STACK WIN 0 3d79 1f 0 0 0 0 0 0 0 0
STACK WIN 0 4242 13 0 0 0 0 0 0 0 0
STACK WIN 0 4782 572 2 0 c 8 0 0 0 0
STACK WIN 0 5050 15a 0 0 c 0 0 0 0 0
STACK WIN 0 51d0 90 3 0 c c 0 0 0 0
STACK WIN 0 5260 46 0 0 10 4 0 0 0 1
STACK WIN 0 52ce 17 4 0 0 10 0 0 0 1
STACK WIN 0 52e5 19 0 0 0 0 0 0 0 0
STACK WIN 0 5317 17 1 0 8 4 0 0 0 1
STACK WIN 0 57f5 84 3 0 8 c 0 0 0 0
STACK WIN 0 5879 23 0 0 0 0 0 0 0 0
STACK WIN 0 58c4 3 0 0 0 0 0 0 0 0
STACK WIN 0 5c12 c 0 0 0 0 0 0 0 0
STACK WIN 0 5f64 10 0 0 0 0 0 0 0 0
STACK WIN 0 5f7c c 0 0 0 0 0 0 0 0
STACK WIN 0 65fd f 0 0 0 0 0 0 0 0
STACK WIN 0 664e f 0 0 0 0 0 0 0 0
STACK WIN 0 6b26 4 0 0 0 0 0 0 0 0
STACK WIN 0 6d00 c 0 0 0 0 0 0 0 0
STACK WIN 0 6d61 c 0 0 0 0 0 0 0 0
STACK WIN 0 6dac c 0 0 0 0 0 0 0 0
STACK WIN 0 6df4 c 0 0 0 0 0 0 0 0
STACK WIN 0 72e3 9 0 0 0 0 0 0 0 0
STACK WIN 0 7d0c c 0 0 0 0 0 0 0 0
STACK WIN 0 825b c 0 0 0 0 0 0 0 0
STACK WIN 0 886e c 0 0 0 0 0 0 0 0
STACK WIN 0 89c1 f 0 0 0 0 0 0 0 0
STACK WIN 0 8c9f 1e 0 0 0 0 0 0 0 0
STACK WIN 0 933b c 0 0 0 0 0 0 0 0
STACK WIN 0 a2fa c 0 0 0 0 0 0 0 0
STACK WIN 0 a5f2 10 0 0 0 0 0 0 0 0
STACK WIN 0 a61f c 0 0 0 0 0 0 0 0
STACK WIN 0 a6c2 9 0 0 0 0 0 0 0 0
STACK WIN 0 a7b4 f 0 0 0 0 0 0 0 0
STACK WIN 0 aea6 e 0 0 0 0 0 0 0 0
STACK WIN 0 b4df d 0 0 0 0 0 0 0 0
STACK WIN 0 c167 f 0 0 0 0 0 0 0 0
STACK WIN 0 d049 13 0 0 0 0 0 0 0 0
STACK WIN 0 d0c0 95 0 0 10 0 4 0 0 0
STACK WIN 0 d1c0 1a 0 0 10 0 0 0 0 0
STACK WIN 0 d1da 1a 0 0 10 0 4 0 0 0
STACK WIN 0 d200 df 0 0 10 0 c 0 0 1
STACK WIN 0 d2e0 1f 0 0 0 0 0 0 0 0
STACK WIN 0 d330 1f 0 0 0 0 0 0 0 0
STACK WIN 0 d442 572 2 0 c 8 0 0 0 0
STACK WIN 0 d9c0 12b 0 0 8 0 0 0 0 0
STACK WIN 0 daf0 137 0 0 8 0 0 0 0 0
